GAS LISTING /tmp/ccxAvD3a.s 			page 1


   1              		.file	"kObjectAllocatorTest.cpp"
   2              		.option pic
   3              		.option norelax
   4              		.text
   5              	.Ltext0:
   6              		.section	.text._ZN16KObjectAllocatordlEPv,"axG",@progbits,_ZN16KObjectAllocatordlEPv,comdat
   7              		.align	2
   8              		.weak	_ZN16KObjectAllocatordlEPv
  10              	_ZN16KObjectAllocatordlEPv:
  11              	.LFB10:
  12              		.file 1 "src/../h/kObjectAllocator.hpp"
   1:src/../h/kObjectAllocator.hpp **** #ifndef KOBJECTALLOCATOR_HPP
   2:src/../h/kObjectAllocator.hpp **** #define KOBJECTALLOCATOR_HPP
   3:src/../h/kObjectAllocator.hpp **** 
   4:src/../h/kObjectAllocator.hpp **** #include "../h/memoryAllocator.hpp"
   5:src/../h/kObjectAllocator.hpp **** 
   6:src/../h/kObjectAllocator.hpp **** class KObjectAllocatorTest;
   7:src/../h/kObjectAllocator.hpp **** 
   8:src/../h/kObjectAllocator.hpp **** /*          ^
   9:src/../h/kObjectAllocator.hpp ****  *          |
  10:src/../h/kObjectAllocator.hpp ****  *          |
  11:src/../h/kObjectAllocator.hpp ****  *          |
  12:src/../h/kObjectAllocator.hpp ****  * DELETE THIS CLASS DECLARATION
  13:src/../h/kObjectAllocator.hpp ****  */
  14:src/../h/kObjectAllocator.hpp **** 
  15:src/../h/kObjectAllocator.hpp **** 
  16:src/../h/kObjectAllocator.hpp **** class KObjectAllocator {
  17:src/../h/kObjectAllocator.hpp **** public:
  18:src/../h/kObjectAllocator.hpp **** 
  19:src/../h/kObjectAllocator.hpp ****     /*
  20:src/../h/kObjectAllocator.hpp ****      *
  21:src/../h/kObjectAllocator.hpp ****      *
  22:src/../h/kObjectAllocator.hpp ****      *
  23:src/../h/kObjectAllocator.hpp ****      *
  24:src/../h/kObjectAllocator.hpp ****      *
  25:src/../h/kObjectAllocator.hpp ****      *
  26:src/../h/kObjectAllocator.hpp ****      *                      #####################################
  27:src/../h/kObjectAllocator.hpp ****      *                      #####################################
  28:src/../h/kObjectAllocator.hpp ****      *                      #####################################
  29:src/../h/kObjectAllocator.hpp ****      *                     ### NE SMEJU SE PREDATI TESTOVI !!! ###
  30:src/../h/kObjectAllocator.hpp ****      *                      #####################################
  31:src/../h/kObjectAllocator.hpp ****      *                      #####################################
  32:src/../h/kObjectAllocator.hpp ****      *                      #####################################
  33:src/../h/kObjectAllocator.hpp ****      *
  34:src/../h/kObjectAllocator.hpp ****      *
  35:src/../h/kObjectAllocator.hpp ****      *
  36:src/../h/kObjectAllocator.hpp ****      *
  37:src/../h/kObjectAllocator.hpp ****      *
  38:src/../h/kObjectAllocator.hpp ****      *
  39:src/../h/kObjectAllocator.hpp ****      */
  40:src/../h/kObjectAllocator.hpp ****     friend KObjectAllocatorTest;
  41:src/../h/kObjectAllocator.hpp **** 
  42:src/../h/kObjectAllocator.hpp ****     /*                         ^
  43:src/../h/kObjectAllocator.hpp ****      *                         |
  44:src/../h/kObjectAllocator.hpp ****      *      DELETE THIS FRIEND |
  45:src/../h/kObjectAllocator.hpp ****      *
  46:src/../h/kObjectAllocator.hpp ****      */
GAS LISTING /tmp/ccxAvD3a.s 			page 2


  47:src/../h/kObjectAllocator.hpp **** 
  48:src/../h/kObjectAllocator.hpp **** 
  49:src/../h/kObjectAllocator.hpp ****     KObjectAllocator(size_t objectSize) : KObjectAllocator(objectSize, 320) {}
  50:src/../h/kObjectAllocator.hpp ****     KObjectAllocator(size_t objectSize, size_t initialObjectNumber)
  51:src/../h/kObjectAllocator.hpp ****             : initialNumberOfObjects(initialObjectNumber), numberOfObjects(initialObjectNumber),  o
  52:src/../h/kObjectAllocator.hpp ****         bitVectors = (uint8**) MemoryAllocator::instance()->kmem_alloc(numberOfAllocations * sizeof
  53:src/../h/kObjectAllocator.hpp ****         objectVectors = (uint8**) MemoryAllocator::instance()->kmem_alloc(numberOfAllocations * siz
  54:src/../h/kObjectAllocator.hpp ****         initialNumberOfObjects = numberOfObjects = numberOfObjects / 8 * 8 + 8 * (numberOfObjects /
  55:src/../h/kObjectAllocator.hpp ****         // one bit for each object which indicates whether memory
  56:src/../h/kObjectAllocator.hpp ****         // corresponding to that object is allocated or free
  57:src/../h/kObjectAllocator.hpp ****         memorySizeForBits = numberOfObjects / 8;
  58:src/../h/kObjectAllocator.hpp ****         bitVectors[0] = (uint8*) MemoryAllocator::instance()->kmem_alloc(
  59:src/../h/kObjectAllocator.hpp ****                 memorySizeForBits + initialNumberOfObjects * objectSize
  60:src/../h/kObjectAllocator.hpp ****         );
  61:src/../h/kObjectAllocator.hpp ****         objectVectors[0] = bitVectors[0] + memorySizeForBits;   // start of memory for objects
  62:src/../h/kObjectAllocator.hpp ****         for (size_t i = 0; i < memorySizeForBits; bitVectors[0][i++] = 0);
  63:src/../h/kObjectAllocator.hpp ****     }
  64:src/../h/kObjectAllocator.hpp ****     void* operator new(size_t size) {
  65:src/../h/kObjectAllocator.hpp ****         return MemoryAllocator::instance()->kmem_alloc(size);
  66:src/../h/kObjectAllocator.hpp ****     }
  67:src/../h/kObjectAllocator.hpp ****     void operator delete(void* p) {
  13              		.loc 1 67 10
  14              		.cfi_startproc
  15              	.LVL0:
  16 0000 130101FE 		addi	sp,sp,-32
  17              		.cfi_def_cfa_offset 32
  18 0004 233C1100 		sd	ra,24(sp)
  19 0008 23388100 		sd	s0,16(sp)
  20 000c 23349100 		sd	s1,8(sp)
  21 0010 23302101 		sd	s2,0(sp)
  22              		.cfi_offset 1, -8
  23              		.cfi_offset 8, -16
  24              		.cfi_offset 9, -24
  25              		.cfi_offset 18, -32
  26 0014 13040102 		addi	s0,sp,32
  27              		.cfi_def_cfa 8, 0
  28 0018 13090500 		mv	s2,a0
  68:src/../h/kObjectAllocator.hpp ****         for (size_t i = 0; i < ((KObjectAllocator*) p)->numberOfAllocations; ++i)
  29              		.loc 1 68 9
  30              	.LVL1:
  31              	.LBB30:
  32              		.loc 1 68 21 is_stmt 0
  33 001c 93040000 		li	s1,0
  34              	.LVL2:
  35              	.L3:
  36              		.loc 1 68 30 is_stmt 1 discriminator 3
  37              		.loc 1 68 57 is_stmt 0 discriminator 3
  38 0020 83370903 		ld	a5,48(s2)
  39              		.loc 1 68 30 discriminator 3
  40 0024 63F6F402 		bleu	a5,s1,.L2
  69:src/../h/kObjectAllocator.hpp ****             MemoryAllocator::instance()->kmem_free(((KObjectAllocator*) p)->bitVectors[i]);
  41              		.loc 1 69 13 is_stmt 1 discriminator 2
  42              		.loc 1 69 51 is_stmt 0 discriminator 2
  43 0028 97000000 		call	_ZN15MemoryAllocator8instanceEv@plt
  43      E7800000 
  44              	.LVL3:
  45              		.loc 1 69 77 discriminator 2
GAS LISTING /tmp/ccxAvD3a.s 			page 3


  46 0030 83378902 		ld	a5,40(s2)
  47              		.loc 1 69 89 discriminator 2
  48 0034 13973400 		slli	a4,s1,3
  49 0038 B387E700 		add	a5,a5,a4
  50              		.loc 1 69 51 discriminator 2
  51 003c 83B50700 		ld	a1,0(a5)
  52 0040 97000000 		call	_ZN15MemoryAllocator9kmem_freeEPv@plt
  52      E7800000 
  53              	.LVL4:
  68:src/../h/kObjectAllocator.hpp ****         for (size_t i = 0; i < ((KObjectAllocator*) p)->numberOfAllocations; ++i)
  54              		.loc 1 68 9 is_stmt 1 discriminator 2
  55 0048 93841400 		addi	s1,s1,1
  56              	.LVL5:
  57 004c 6FF05FFD 		j	.L3
  58              	.L2:
  59              	.LBE30:
  70:src/../h/kObjectAllocator.hpp ****         MemoryAllocator::instance()->kmem_free(((KObjectAllocator*) p)->bitVectors);
  60              		.loc 1 70 9
  61              		.loc 1 70 47 is_stmt 0
  62 0050 97000000 		call	_ZN15MemoryAllocator8instanceEv@plt
  62      E7800000 
  63              	.LVL6:
  64 0058 83358902 		ld	a1,40(s2)
  65 005c 97000000 		call	_ZN15MemoryAllocator9kmem_freeEPv@plt
  65      E7800000 
  66              	.LVL7:
  71:src/../h/kObjectAllocator.hpp ****         MemoryAllocator::instance()->kmem_free(((KObjectAllocator*) p)->objectVectors);
  67              		.loc 1 71 9 is_stmt 1
  68              		.loc 1 71 47 is_stmt 0
  69 0064 97000000 		call	_ZN15MemoryAllocator8instanceEv@plt
  69      E7800000 
  70              	.LVL8:
  71 006c 83350902 		ld	a1,32(s2)
  72 0070 97000000 		call	_ZN15MemoryAllocator9kmem_freeEPv@plt
  72      E7800000 
  73              	.LVL9:
  72:src/../h/kObjectAllocator.hpp ****         MemoryAllocator::instance()->kmem_free(p);
  74              		.loc 1 72 9 is_stmt 1
  75              		.loc 1 72 47 is_stmt 0
  76 0078 97000000 		call	_ZN15MemoryAllocator8instanceEv@plt
  76      E7800000 
  77              	.LVL10:
  78 0080 93050900 		mv	a1,s2
  79 0084 97000000 		call	_ZN15MemoryAllocator9kmem_freeEPv@plt
  79      E7800000 
  80              	.LVL11:
  73:src/../h/kObjectAllocator.hpp ****     }
  81              		.loc 1 73 5
  82 008c 83308101 		ld	ra,24(sp)
  83              		.cfi_restore 1
  84 0090 03340101 		ld	s0,16(sp)
  85              		.cfi_restore 8
  86              		.cfi_def_cfa 2, 32
  87 0094 83348100 		ld	s1,8(sp)
  88              		.cfi_restore 9
  89              	.LVL12:
  90 0098 03390100 		ld	s2,0(sp)
GAS LISTING /tmp/ccxAvD3a.s 			page 4


  91              		.cfi_restore 18
  92              	.LVL13:
  93 009c 13010102 		addi	sp,sp,32
  94              		.cfi_def_cfa_offset 0
  95 00a0 67800000 		jr	ra
  96              		.cfi_endproc
  97              	.LFE10:
  99              		.section	.rodata.str1.8,"aMS",@progbits,1
 100              		.align	3
 101              	.LC1:
 102 0000 4552524F 		.string	"ERROR: byte not in given objAlloc\n"
 102      523A2062 
 102      79746520 
 102      6E6F7420 
 102      696E2067 
 103              		.text
 104              		.align	2
 105              		.globl	_ZN20KObjectAllocatorTest15getValueOfBitAtEmmP16KObjectAllocator
 107              	_ZN20KObjectAllocatorTest15getValueOfBitAtEmmP16KObjectAllocator:
 108              	.LFB23:
 109              		.file 2 "src/kObjectAllocatorTest.cpp"
   1:src/kObjectAllocatorTest.cpp **** #include "../h/kObjectAllocatorTest.hpp"
   2:src/kObjectAllocatorTest.cpp **** #include "../h/print.hpp"
   3:src/kObjectAllocatorTest.cpp **** 
   4:src/kObjectAllocatorTest.cpp **** bool KObjectAllocatorTest::runTests() {
   5:src/kObjectAllocatorTest.cpp ****     for (size_t size : sizes)
   6:src/kObjectAllocatorTest.cpp ****     for (size_t i = 0; i < numberOfTests; ++i) {
   7:src/kObjectAllocatorTest.cpp ****         if (!test(i, size)) {
   8:src/kObjectAllocatorTest.cpp ****             printString("Failed KObjectAllocator test ");
   9:src/kObjectAllocatorTest.cpp ****             printInteger(i); printString("\n"); return false;
  10:src/kObjectAllocatorTest.cpp ****         } else printString("Passed ");
  11:src/kObjectAllocatorTest.cpp ****         if (i != 0 && (i + 1) % 10 == 0) printString("\n");
  12:src/kObjectAllocatorTest.cpp ****     }
  13:src/kObjectAllocatorTest.cpp ****     return true;
  14:src/kObjectAllocatorTest.cpp **** }
  15:src/kObjectAllocatorTest.cpp **** 
  16:src/kObjectAllocatorTest.cpp **** bool KObjectAllocatorTest::test(size_t i, size_t size) {
  17:src/kObjectAllocatorTest.cpp ****     switch (i) {
  18:src/kObjectAllocatorTest.cpp ****         case 0: return test0(size); break;
  19:src/kObjectAllocatorTest.cpp ****         case 1: return test1(size); break;
  20:src/kObjectAllocatorTest.cpp ****         case 2: return test2(size); break;
  21:src/kObjectAllocatorTest.cpp ****         case 3: return test3(size); break;
  22:src/kObjectAllocatorTest.cpp ****         case 4: return test4(size); break;
  23:src/kObjectAllocatorTest.cpp ****         case 5: return test5(size); break;
  24:src/kObjectAllocatorTest.cpp ****         case 6: return test6(size); break;
  25:src/kObjectAllocatorTest.cpp ****         case 7: return test7(size); break;
  26:src/kObjectAllocatorTest.cpp ****         case 8: return test8(size); break;
  27:src/kObjectAllocatorTest.cpp ****         case 9: return test9(size); break;
  28:src/kObjectAllocatorTest.cpp ****         default: break;
  29:src/kObjectAllocatorTest.cpp ****     }
  30:src/kObjectAllocatorTest.cpp ****     return false;
  31:src/kObjectAllocatorTest.cpp **** }
  32:src/kObjectAllocatorTest.cpp **** 
  33:src/kObjectAllocatorTest.cpp **** bool KObjectAllocatorTest::getValueOfBitAt(size_t byte, size_t bit, KObjectAllocator* objAlloc) {
 110              		.loc 2 33 97 is_stmt 1
 111              		.cfi_startproc
 112              	.LVL14:
GAS LISTING /tmp/ccxAvD3a.s 			page 5


  34:src/kObjectAllocatorTest.cpp ****     for (size_t i = 0; i < objAlloc->numberOfAllocations; ++i) {
 113              		.loc 2 34 5
 114              	.LBB31:
 115              		.loc 2 34 17 is_stmt 0
 116 0000 93070000 		li	a5,0
 117 0004 6F008000 		j	.L9
 118              	.LVL15:
 119              	.L7:
 120              		.loc 2 34 5 is_stmt 1 discriminator 2
 121 0008 93871700 		addi	a5,a5,1
 122              	.LVL16:
 123              	.L9:
 124              		.loc 2 34 26 discriminator 1
 125              		.loc 2 34 38 is_stmt 0 discriminator 1
 126 000c 03B70603 		ld	a4,48(a3)
 127              		.loc 2 34 26 discriminator 1
 128 0010 63F0E704 		bleu	a4,a5,.L6
  35:src/kObjectAllocatorTest.cpp ****         if (i * objAlloc->memorySizeForBits <= byte && byte < (i + 1) * objAlloc->memorySizeForBits
 129              		.loc 2 35 9 is_stmt 1
 130              		.loc 2 35 27 is_stmt 0
 131 0014 03B70601 		ld	a4,16(a3)
 132              		.loc 2 35 15
 133 0018 3305F702 		mul	a0,a4,a5
 134              		.loc 2 35 9
 135 001c E3E6A5FE 		bgtu	a0,a1,.L7
 136              		.loc 2 35 66 discriminator 1
 137 0020 13851700 		addi	a0,a5,1
 138              		.loc 2 35 71 discriminator 1
 139 0024 3307A702 		mul	a4,a4,a0
 140              		.loc 2 35 53 discriminator 1
 141 0028 E3F0E5FE 		bleu	a4,a1,.L7
  36:src/kObjectAllocatorTest.cpp ****             return (objAlloc->bitVectors[i][byte] >> bit & (uint8) 1) != 0;
 142              		.loc 2 36 13 is_stmt 1
 143              		.loc 2 36 31 is_stmt 0
 144 002c 03B78602 		ld	a4,40(a3)
 145              		.loc 2 36 43
 146 0030 93973700 		slli	a5,a5,3
 147              	.LVL17:
 148 0034 B307F700 		add	a5,a4,a5
 149 0038 83B70700 		ld	a5,0(a5)
 150              		.loc 2 36 49
 151 003c B385B700 		add	a1,a5,a1
 152              	.LVL18:
 153 0040 03C50500 		lbu	a0,0(a1)
 154              	.LVL19:
 155              		.loc 2 36 51
 156 0044 3B56C540 		sraw	a2,a0,a2
 157              	.LVL20:
 158              		.loc 2 36 74
 159 0048 13751600 		andi	a0,a2,1
 160              	.LBE31:
  37:src/kObjectAllocatorTest.cpp ****     }
  38:src/kObjectAllocatorTest.cpp ****     printString("ERROR: byte not in given objAlloc\n");
  39:src/kObjectAllocatorTest.cpp ****     return false;
  40:src/kObjectAllocatorTest.cpp **** }
 161              		.loc 2 40 1
 162 004c 67800000 		ret
GAS LISTING /tmp/ccxAvD3a.s 			page 6


 163              	.LVL21:
 164              	.L6:
  33:src/kObjectAllocatorTest.cpp ****     for (size_t i = 0; i < objAlloc->numberOfAllocations; ++i) {
 165              		.loc 2 33 97
 166 0050 130101FF 		addi	sp,sp,-16
 167              		.cfi_def_cfa_offset 16
 168 0054 23341100 		sd	ra,8(sp)
 169 0058 23308100 		sd	s0,0(sp)
 170              		.cfi_offset 1, -8
 171              		.cfi_offset 8, -16
 172 005c 13040101 		addi	s0,sp,16
 173              		.cfi_def_cfa 8, 0
  38:src/kObjectAllocatorTest.cpp ****     return false;
 174              		.loc 2 38 5 is_stmt 1
  38:src/kObjectAllocatorTest.cpp ****     return false;
 175              		.loc 2 38 16 is_stmt 0
 176 0060 17050000 		lla	a0,.LC1
 176      13050500 
 177 0068 97000000 		call	_Z11printStringPKc@plt
 177      E7800000 
 178              	.LVL22:
  39:src/kObjectAllocatorTest.cpp **** }
 179              		.loc 2 39 5 is_stmt 1
  39:src/kObjectAllocatorTest.cpp **** }
 180              		.loc 2 39 12 is_stmt 0
 181 0070 13050000 		li	a0,0
 182              		.loc 2 40 1
 183 0074 83308100 		ld	ra,8(sp)
 184              		.cfi_restore 1
 185 0078 03340100 		ld	s0,0(sp)
 186              		.cfi_restore 8
 187              		.cfi_def_cfa 2, 16
 188 007c 13010101 		addi	sp,sp,16
 189              		.cfi_def_cfa_offset 0
 190 0080 67800000 		jr	ra
 191              		.cfi_endproc
 192              	.LFE23:
 194              		.section	.rodata.str1.8
 195 0023 00000000 		.align	3
 195      00
 196              	.LC2:
 197 0028 4552524F 		.string	"ERROR: given object not allocated in given objAlloc\n"
 197      523A2067 
 197      6976656E 
 197      206F626A 
 197      65637420 
 198              		.text
 199              		.align	2
 200              		.globl	_ZN20KObjectAllocatorTest15getByteOfObjectEPvP16KObjectAllocator
 202              	_ZN20KObjectAllocatorTest15getByteOfObjectEPvP16KObjectAllocator:
 203              	.LFB24:
  41:src/kObjectAllocatorTest.cpp **** 
  42:src/kObjectAllocatorTest.cpp **** size_t KObjectAllocatorTest::getByteOfObject(void* obj, KObjectAllocator* objAlloc) {
 204              		.loc 2 42 85 is_stmt 1
 205              		.cfi_startproc
 206              	.LVL23:
  43:src/kObjectAllocatorTest.cpp ****     for (size_t i = 0; i < objAlloc->numberOfAllocations; ++i) {
GAS LISTING /tmp/ccxAvD3a.s 			page 7


 207              		.loc 2 43 5
 208              	.LBB32:
 209              		.loc 2 43 17 is_stmt 0
 210 0084 13070000 		li	a4,0
 211 0088 6F008000 		j	.L17
 212              	.LVL24:
 213              	.L15:
 214              		.loc 2 43 5 is_stmt 1 discriminator 2
 215 008c 13071700 		addi	a4,a4,1
 216              	.LVL25:
 217              	.L17:
 218              		.loc 2 43 26 discriminator 1
 219              		.loc 2 43 38 is_stmt 0 discriminator 1
 220 0090 83370603 		ld	a5,48(a2)
 221              		.loc 2 43 26 discriminator 1
 222 0094 637AF702 		bleu	a5,a4,.L14
 223              	.LBB33:
  44:src/kObjectAllocatorTest.cpp ****         if ((uint8*) obj < objAlloc->objectVectors[i]) continue;
 224              		.loc 2 44 9 is_stmt 1
 225              		.loc 2 44 38 is_stmt 0
 226 0098 83370602 		ld	a5,32(a2)
 227              		.loc 2 44 53
 228 009c 93163700 		slli	a3,a4,3
 229 00a0 B387D700 		add	a5,a5,a3
 230 00a4 03B50700 		ld	a0,0(a5)
 231              		.loc 2 44 9
 232 00a8 E3E2A5FE 		bgtu	a0,a1,.L15
  45:src/kObjectAllocatorTest.cpp ****         size_t idiff = (size_t) ((uint8*) obj - objAlloc->objectVectors[i]);
 233              		.loc 2 45 9 is_stmt 1
 234              		.loc 2 45 47 is_stmt 0
 235 00ac 3385A540 		sub	a0,a1,a0
 236              	.LVL26:
  46:src/kObjectAllocatorTest.cpp ****         size_t byte = idiff / objAlloc->objectSize / 8;
 237              		.loc 2 46 9 is_stmt 1
 238              		.loc 2 46 41 is_stmt 0
 239 00b0 83378601 		ld	a5,24(a2)
 240              		.loc 2 46 29
 241 00b4 3355F502 		divu	a0,a0,a5
 242              	.LVL27:
 243              		.loc 2 46 16
 244 00b8 13553500 		srli	a0,a0,3
 245              	.LVL28:
  47:src/kObjectAllocatorTest.cpp ****         if (byte >= objAlloc->memorySizeForBits) continue;
 246              		.loc 2 47 9 is_stmt 1
 247              		.loc 2 47 31 is_stmt 0
 248 00bc 83370601 		ld	a5,16(a2)
 249              		.loc 2 47 9
 250 00c0 E376F5FC 		bleu	a5,a0,.L15
 251              	.LBE33:
 252              	.LBE32:
  48:src/kObjectAllocatorTest.cpp ****         return byte;
  49:src/kObjectAllocatorTest.cpp ****     }
  50:src/kObjectAllocatorTest.cpp ****     printString("ERROR: given object not allocated in given objAlloc\n");
  51:src/kObjectAllocatorTest.cpp ****     return 0;
  52:src/kObjectAllocatorTest.cpp **** }
 253              		.loc 2 52 1
 254 00c4 67800000 		ret
GAS LISTING /tmp/ccxAvD3a.s 			page 8


 255              	.LVL29:
 256              	.L14:
  42:src/kObjectAllocatorTest.cpp ****     for (size_t i = 0; i < objAlloc->numberOfAllocations; ++i) {
 257              		.loc 2 42 85
 258 00c8 130101FF 		addi	sp,sp,-16
 259              		.cfi_def_cfa_offset 16
 260 00cc 23341100 		sd	ra,8(sp)
 261 00d0 23308100 		sd	s0,0(sp)
 262              		.cfi_offset 1, -8
 263              		.cfi_offset 8, -16
 264 00d4 13040101 		addi	s0,sp,16
 265              		.cfi_def_cfa 8, 0
  50:src/kObjectAllocatorTest.cpp ****     return 0;
 266              		.loc 2 50 5 is_stmt 1
  50:src/kObjectAllocatorTest.cpp ****     return 0;
 267              		.loc 2 50 16 is_stmt 0
 268 00d8 17050000 		lla	a0,.LC2
 268      13050500 
 269 00e0 97000000 		call	_Z11printStringPKc@plt
 269      E7800000 
 270              	.LVL30:
  51:src/kObjectAllocatorTest.cpp **** }
 271              		.loc 2 51 5 is_stmt 1
  51:src/kObjectAllocatorTest.cpp **** }
 272              		.loc 2 51 12 is_stmt 0
 273 00e8 13050000 		li	a0,0
 274              		.loc 2 52 1
 275 00ec 83308100 		ld	ra,8(sp)
 276              		.cfi_restore 1
 277 00f0 03340100 		ld	s0,0(sp)
 278              		.cfi_restore 8
 279              		.cfi_def_cfa 2, 16
 280 00f4 13010101 		addi	sp,sp,16
 281              		.cfi_def_cfa_offset 0
 282 00f8 67800000 		jr	ra
 283              		.cfi_endproc
 284              	.LFE24:
 286              		.align	2
 287              		.globl	_ZN20KObjectAllocatorTest14getBitOfObjectEPvP16KObjectAllocator
 289              	_ZN20KObjectAllocatorTest14getBitOfObjectEPvP16KObjectAllocator:
 290              	.LFB25:
  53:src/kObjectAllocatorTest.cpp **** 
  54:src/kObjectAllocatorTest.cpp **** size_t KObjectAllocatorTest::getBitOfObject(void* obj, KObjectAllocator* objAlloc) {
 291              		.loc 2 54 84 is_stmt 1
 292              		.cfi_startproc
 293              	.LVL31:
  55:src/kObjectAllocatorTest.cpp ****     for (size_t i = 0; i < objAlloc->numberOfAllocations; ++i) {
 294              		.loc 2 55 5
 295              	.LBB34:
 296              		.loc 2 55 17 is_stmt 0
 297 00fc 13070000 		li	a4,0
 298 0100 6F008000 		j	.L25
 299              	.LVL32:
 300              	.L23:
 301              		.loc 2 55 5 is_stmt 1 discriminator 2
 302 0104 13071700 		addi	a4,a4,1
 303              	.LVL33:
GAS LISTING /tmp/ccxAvD3a.s 			page 9


 304              	.L25:
 305              		.loc 2 55 26 discriminator 1
 306              		.loc 2 55 38 is_stmt 0 discriminator 1
 307 0108 83370603 		ld	a5,48(a2)
 308              		.loc 2 55 26 discriminator 1
 309 010c 6370F704 		bleu	a5,a4,.L22
 310              	.LBB35:
  56:src/kObjectAllocatorTest.cpp ****         if ((uint8*) obj < objAlloc->objectVectors[i]) continue;
 311              		.loc 2 56 9 is_stmt 1
 312              		.loc 2 56 38 is_stmt 0
 313 0110 83370602 		ld	a5,32(a2)
 314              		.loc 2 56 53
 315 0114 93163700 		slli	a3,a4,3
 316 0118 B387D700 		add	a5,a5,a3
 317 011c 83B70700 		ld	a5,0(a5)
 318              		.loc 2 56 9
 319 0120 E3E2F5FE 		bgtu	a5,a1,.L23
  57:src/kObjectAllocatorTest.cpp ****         size_t idiff = (size_t) ((uint8*) obj - objAlloc->objectVectors[i]);
 320              		.loc 2 57 9 is_stmt 1
 321              		.loc 2 57 47 is_stmt 0
 322 0124 B387F540 		sub	a5,a1,a5
 323              	.LVL34:
  58:src/kObjectAllocatorTest.cpp ****         size_t byte = idiff / objAlloc->objectSize / 8;
 324              		.loc 2 58 9 is_stmt 1
 325              		.loc 2 58 41 is_stmt 0
 326 0128 03358601 		ld	a0,24(a2)
 327              		.loc 2 58 29
 328 012c B3D7A702 		divu	a5,a5,a0
 329              	.LVL35:
 330              		.loc 2 58 16
 331 0130 93D63700 		srli	a3,a5,3
 332              	.LVL36:
  59:src/kObjectAllocatorTest.cpp ****         if (byte >= objAlloc->memorySizeForBits) continue;
 333              		.loc 2 59 9 is_stmt 1
 334              		.loc 2 59 31 is_stmt 0
 335 0134 03350601 		ld	a0,16(a2)
 336              		.loc 2 59 9
 337 0138 E3F6A6FC 		bleu	a0,a3,.L23
  60:src/kObjectAllocatorTest.cpp ****         size_t bit = idiff / objAlloc->objectSize - byte * 8;
 338              		.loc 2 60 9 is_stmt 1
 339              		.loc 2 60 58 is_stmt 0
 340 013c 13F587FF 		andi	a0,a5,-8
 341              	.LVL37:
  61:src/kObjectAllocatorTest.cpp ****         return 7 - bit;
 342              		.loc 2 61 9 is_stmt 1
 343              		.loc 2 61 20 is_stmt 0
 344 0140 B307F540 		sub	a5,a0,a5
 345              	.LVL38:
 346 0144 13857700 		addi	a0,a5,7
 347              	.LVL39:
 348              	.LBE35:
 349              	.LBE34:
  62:src/kObjectAllocatorTest.cpp ****     }
  63:src/kObjectAllocatorTest.cpp ****     printString("ERROR: given object not allocated in given objAlloc\n");
  64:src/kObjectAllocatorTest.cpp ****     return 0;
  65:src/kObjectAllocatorTest.cpp **** }
 350              		.loc 2 65 1
GAS LISTING /tmp/ccxAvD3a.s 			page 10


 351 0148 67800000 		ret
 352              	.LVL40:
 353              	.L22:
  54:src/kObjectAllocatorTest.cpp ****     for (size_t i = 0; i < objAlloc->numberOfAllocations; ++i) {
 354              		.loc 2 54 84
 355 014c 130101FF 		addi	sp,sp,-16
 356              		.cfi_def_cfa_offset 16
 357 0150 23341100 		sd	ra,8(sp)
 358 0154 23308100 		sd	s0,0(sp)
 359              		.cfi_offset 1, -8
 360              		.cfi_offset 8, -16
 361 0158 13040101 		addi	s0,sp,16
 362              		.cfi_def_cfa 8, 0
  63:src/kObjectAllocatorTest.cpp ****     return 0;
 363              		.loc 2 63 5 is_stmt 1
  63:src/kObjectAllocatorTest.cpp ****     return 0;
 364              		.loc 2 63 16 is_stmt 0
 365 015c 17050000 		lla	a0,.LC2
 365      13050500 
 366 0164 97000000 		call	_Z11printStringPKc@plt
 366      E7800000 
 367              	.LVL41:
  64:src/kObjectAllocatorTest.cpp **** }
 368              		.loc 2 64 5 is_stmt 1
  64:src/kObjectAllocatorTest.cpp **** }
 369              		.loc 2 64 12 is_stmt 0
 370 016c 13050000 		li	a0,0
 371              		.loc 2 65 1
 372 0170 83308100 		ld	ra,8(sp)
 373              		.cfi_restore 1
 374 0174 03340100 		ld	s0,0(sp)
 375              		.cfi_restore 8
 376              		.cfi_def_cfa 2, 16
 377 0178 13010101 		addi	sp,sp,16
 378              		.cfi_def_cfa_offset 0
 379 017c 67800000 		jr	ra
 380              		.cfi_endproc
 381              	.LFE25:
 383              		.align	2
 384              		.globl	_ZN20KObjectAllocatorTest11getObjectAtEmmP16KObjectAllocator
 386              	_ZN20KObjectAllocatorTest11getObjectAtEmmP16KObjectAllocator:
 387              	.LFB26:
  66:src/kObjectAllocatorTest.cpp **** 
  67:src/kObjectAllocatorTest.cpp **** void* KObjectAllocatorTest::getObjectAt(size_t byte, size_t bit, KObjectAllocator* objAlloc) {
 388              		.loc 2 67 94 is_stmt 1
 389              		.cfi_startproc
 390              	.LVL42:
  68:src/kObjectAllocatorTest.cpp ****     for (size_t i = 0; i < objAlloc->numberOfAllocations; ++i)
 391              		.loc 2 68 5
 392              	.LBB36:
 393              		.loc 2 68 17 is_stmt 0
 394 0180 93070000 		li	a5,0
 395 0184 6F008000 		j	.L33
 396              	.LVL43:
 397              	.L31:
 398              		.loc 2 68 5 is_stmt 1 discriminator 2
 399 0188 93871700 		addi	a5,a5,1
GAS LISTING /tmp/ccxAvD3a.s 			page 11


 400              	.LVL44:
 401              	.L33:
 402              		.loc 2 68 26 discriminator 1
 403              		.loc 2 68 38 is_stmt 0 discriminator 1
 404 018c 03B70603 		ld	a4,48(a3)
 405              		.loc 2 68 26 discriminator 1
 406 0190 63F4E704 		bleu	a4,a5,.L30
  69:src/kObjectAllocatorTest.cpp ****         if (i * objAlloc->memorySizeForBits <= byte && byte < (i + 1) * objAlloc->memorySizeForBits
 407              		.loc 2 69 9 is_stmt 1
 408              		.loc 2 69 27 is_stmt 0
 409 0194 03B70601 		ld	a4,16(a3)
 410              		.loc 2 69 15
 411 0198 3308F702 		mul	a6,a4,a5
 412              		.loc 2 69 9
 413 019c E3E605FF 		bgtu	a6,a1,.L31
 414              		.loc 2 69 66 discriminator 1
 415 01a0 13881700 		addi	a6,a5,1
 416              		.loc 2 69 71 discriminator 1
 417 01a4 33070703 		mul	a4,a4,a6
 418              		.loc 2 69 53 discriminator 1
 419 01a8 E3F0E5FE 		bleu	a4,a1,.L31
  70:src/kObjectAllocatorTest.cpp ****             return &objAlloc->objectVectors[i][(byte * 8 + 7 - bit) * objAlloc->objectSize];
 420              		.loc 2 70 13 is_stmt 1
 421              		.loc 2 70 31 is_stmt 0
 422 01ac 03B70602 		ld	a4,32(a3)
 423              		.loc 2 70 46
 424 01b0 93973700 		slli	a5,a5,3
 425              	.LVL45:
 426 01b4 B307F700 		add	a5,a4,a5
 427 01b8 83B70700 		ld	a5,0(a5)
 428              		.loc 2 70 54
 429 01bc 93953500 		slli	a1,a1,3
 430              	.LVL46:
 431              		.loc 2 70 62
 432 01c0 3385C540 		sub	a0,a1,a2
 433              	.LVL47:
 434 01c4 13057500 		addi	a0,a0,7
 435              		.loc 2 70 81
 436 01c8 03B78601 		ld	a4,24(a3)
 437              		.loc 2 70 69
 438 01cc 3305E502 		mul	a0,a0,a4
 439              		.loc 2 70 91
 440 01d0 3385A700 		add	a0,a5,a0
 441              	.LBE36:
  71:src/kObjectAllocatorTest.cpp ****     printString("ERROR: given object not allocated in given objAlloc\n");
  72:src/kObjectAllocatorTest.cpp ****     return nullptr;
  73:src/kObjectAllocatorTest.cpp **** }
 442              		.loc 2 73 1
 443 01d4 67800000 		ret
 444              	.LVL48:
 445              	.L30:
  67:src/kObjectAllocatorTest.cpp ****     for (size_t i = 0; i < objAlloc->numberOfAllocations; ++i)
 446              		.loc 2 67 94
 447 01d8 130101FF 		addi	sp,sp,-16
 448              		.cfi_def_cfa_offset 16
 449 01dc 23341100 		sd	ra,8(sp)
 450 01e0 23308100 		sd	s0,0(sp)
GAS LISTING /tmp/ccxAvD3a.s 			page 12


 451              		.cfi_offset 1, -8
 452              		.cfi_offset 8, -16
 453 01e4 13040101 		addi	s0,sp,16
 454              		.cfi_def_cfa 8, 0
  71:src/kObjectAllocatorTest.cpp ****     printString("ERROR: given object not allocated in given objAlloc\n");
 455              		.loc 2 71 5 is_stmt 1
  71:src/kObjectAllocatorTest.cpp ****     printString("ERROR: given object not allocated in given objAlloc\n");
 456              		.loc 2 71 16 is_stmt 0
 457 01e8 17050000 		lla	a0,.LC2
 457      13050500 
 458              	.LVL49:
 459 01f0 97000000 		call	_Z11printStringPKc@plt
 459      E7800000 
 460              	.LVL50:
  72:src/kObjectAllocatorTest.cpp **** }
 461              		.loc 2 72 5 is_stmt 1
  72:src/kObjectAllocatorTest.cpp **** }
 462              		.loc 2 72 12 is_stmt 0
 463 01f8 13050000 		li	a0,0
 464              		.loc 2 73 1
 465 01fc 83308100 		ld	ra,8(sp)
 466              		.cfi_restore 1
 467 0200 03340100 		ld	s0,0(sp)
 468              		.cfi_restore 8
 469              		.cfi_def_cfa 2, 16
 470 0204 13010101 		addi	sp,sp,16
 471              		.cfi_def_cfa_offset 0
 472 0208 67800000 		jr	ra
 473              		.cfi_endproc
 474              	.LFE26:
 476              		.align	2
 477              		.globl	_ZN20KObjectAllocatorTest5test0Em
 479              	_ZN20KObjectAllocatorTest5test0Em:
 480              	.LFB27:
  74:src/kObjectAllocatorTest.cpp **** 
  75:src/kObjectAllocatorTest.cpp **** bool KObjectAllocatorTest::test0(size_t size) {
 481              		.loc 2 75 47 is_stmt 1
 482              		.cfi_startproc
 483              		.cfi_personality 0x9b,DW.ref.__gxx_personality_v0
 484              		.cfi_lsda 0x1b,.LLSDA27
 485              	.LVL51:
 486 020c 130101F5 		addi	sp,sp,-176
 487              		.cfi_def_cfa_offset 176
 488 0210 2334110A 		sd	ra,168(sp)
 489 0214 2330810A 		sd	s0,160(sp)
 490 0218 233C9108 		sd	s1,152(sp)
 491 021c 23382109 		sd	s2,144(sp)
 492 0220 23343109 		sd	s3,136(sp)
 493 0224 23304109 		sd	s4,128(sp)
 494 0228 233C5107 		sd	s5,120(sp)
 495 022c 23386107 		sd	s6,112(sp)
 496 0230 23347107 		sd	s7,104(sp)
 497              		.cfi_offset 1, -8
 498              		.cfi_offset 8, -16
 499              		.cfi_offset 9, -24
 500              		.cfi_offset 18, -32
 501              		.cfi_offset 19, -40
GAS LISTING /tmp/ccxAvD3a.s 			page 13


 502              		.cfi_offset 20, -48
 503              		.cfi_offset 21, -56
 504              		.cfi_offset 22, -64
 505              		.cfi_offset 23, -72
 506 0234 1304010B 		addi	s0,sp,176
 507              		.cfi_def_cfa 8, 0
 508 0238 93090500 		mv	s3,a0
 509 023c 13890500 		mv	s2,a1
  76:src/kObjectAllocatorTest.cpp ****     KObjectAllocator* objAlloc = new KObjectAllocator(size, 9);
 510              		.loc 2 76 5
 511              	.LVL52:
 512              	.LBB85:
 513              	.LBB86:
  65:src/../h/kObjectAllocator.hpp ****     }
 514              		.loc 1 65 9
 515              	.LEHB0:
  65:src/../h/kObjectAllocator.hpp ****     }
 516              		.loc 1 65 55 is_stmt 0
 517 0240 97000000 		call	_ZN15MemoryAllocator8instanceEv@plt
 517      E7800000 
 518              	.LVL53:
 519 0248 93050004 		li	a1,64
 520 024c 97000000 		call	_ZN15MemoryAllocator10kmem_allocEm@plt
 520      E7800000 
 521              	.LVL54:
 522              	.LEHE0:
 523 0254 93040500 		mv	s1,a0
 524              	.LVL55:
 525              	.LBE86:
 526              	.LBE85:
 527              	.LBB87:
 528              	.LBB88:
  51:src/../h/kObjectAllocator.hpp ****         bitVectors = (uint8**) MemoryAllocator::instance()->kmem_alloc(numberOfAllocations * sizeof
 529              		.loc 1 51 120
 530 0258 93079000 		li	a5,9
 531 025c 2330F500 		sd	a5,0(a0)
 532 0260 2334F500 		sd	a5,8(a0)
 533 0264 233C2501 		sd	s2,24(a0)
 534 0268 93071000 		li	a5,1
 535 026c 2338F502 		sd	a5,48(a0)
 536 0270 233C0502 		sd	zero,56(a0)
 537              	.LBB89:
  52:src/../h/kObjectAllocator.hpp ****         objectVectors = (uint8**) MemoryAllocator::instance()->kmem_alloc(numberOfAllocations * siz
 538              		.loc 1 52 9 is_stmt 1
 539              	.LEHB1:
  52:src/../h/kObjectAllocator.hpp ****         objectVectors = (uint8**) MemoryAllocator::instance()->kmem_alloc(numberOfAllocations * siz
 540              		.loc 1 52 71 is_stmt 0
 541 0274 97000000 		call	_ZN15MemoryAllocator8instanceEv@plt
 541      E7800000 
 542              	.LVL56:
  52:src/../h/kObjectAllocator.hpp ****         objectVectors = (uint8**) MemoryAllocator::instance()->kmem_alloc(numberOfAllocations * siz
 543              		.loc 1 52 72
 544 027c 83B50403 		ld	a1,48(s1)
  52:src/../h/kObjectAllocator.hpp ****         objectVectors = (uint8**) MemoryAllocator::instance()->kmem_alloc(numberOfAllocations * siz
 545              		.loc 1 52 71
 546 0280 93953500 		slli	a1,a1,3
 547 0284 97000000 		call	_ZN15MemoryAllocator10kmem_allocEm@plt
GAS LISTING /tmp/ccxAvD3a.s 			page 14


 547      E7800000 
 548              	.LVL57:
  52:src/../h/kObjectAllocator.hpp ****         objectVectors = (uint8**) MemoryAllocator::instance()->kmem_alloc(numberOfAllocations * siz
 549              		.loc 1 52 20
 550 028c 23B4A402 		sd	a0,40(s1)
  53:src/../h/kObjectAllocator.hpp ****         initialNumberOfObjects = numberOfObjects = numberOfObjects / 8 * 8 + 8 * (numberOfObjects /
 551              		.loc 1 53 9 is_stmt 1
  53:src/../h/kObjectAllocator.hpp ****         initialNumberOfObjects = numberOfObjects = numberOfObjects / 8 * 8 + 8 * (numberOfObjects /
 552              		.loc 1 53 74 is_stmt 0
 553 0290 97000000 		call	_ZN15MemoryAllocator8instanceEv@plt
 553      E7800000 
 554              	.LVL58:
  53:src/../h/kObjectAllocator.hpp ****         initialNumberOfObjects = numberOfObjects = numberOfObjects / 8 * 8 + 8 * (numberOfObjects /
 555              		.loc 1 53 75
 556 0298 83B50403 		ld	a1,48(s1)
  53:src/../h/kObjectAllocator.hpp ****         initialNumberOfObjects = numberOfObjects = numberOfObjects / 8 * 8 + 8 * (numberOfObjects /
 557              		.loc 1 53 74
 558 029c 93953500 		slli	a1,a1,3
 559 02a0 97000000 		call	_ZN15MemoryAllocator10kmem_allocEm@plt
 559      E7800000 
 560              	.LVL59:
  53:src/../h/kObjectAllocator.hpp ****         initialNumberOfObjects = numberOfObjects = numberOfObjects / 8 * 8 + 8 * (numberOfObjects /
 561              		.loc 1 53 23
 562 02a8 23B0A402 		sd	a0,32(s1)
  54:src/../h/kObjectAllocator.hpp ****         // one bit for each object which indicates whether memory
 563              		.loc 1 54 9 is_stmt 1
  54:src/../h/kObjectAllocator.hpp ****         // one bit for each object which indicates whether memory
 564              		.loc 1 54 52 is_stmt 0
 565 02ac 03B78400 		ld	a4,8(s1)
  54:src/../h/kObjectAllocator.hpp ****         // one bit for each object which indicates whether memory
 566              		.loc 1 54 72
 567 02b0 937787FF 		andi	a5,a4,-8
  54:src/../h/kObjectAllocator.hpp ****         // one bit for each object which indicates whether memory
 568              		.loc 1 54 80
 569 02b4 6304F702 		beq	a4,a5,.L93
 570 02b8 13078000 		li	a4,8
 571              	.L38:
  54:src/../h/kObjectAllocator.hpp ****         // one bit for each object which indicates whether memory
 572              		.loc 1 54 76
 573 02bc B387E700 		add	a5,a5,a4
  54:src/../h/kObjectAllocator.hpp ****         // one bit for each object which indicates whether memory
 574              		.loc 1 54 50
 575 02c0 23B4F400 		sd	a5,8(s1)
  54:src/../h/kObjectAllocator.hpp ****         // one bit for each object which indicates whether memory
 576              		.loc 1 54 32
 577 02c4 23B0F400 		sd	a5,0(s1)
  57:src/../h/kObjectAllocator.hpp ****         bitVectors[0] = (uint8*) MemoryAllocator::instance()->kmem_alloc(
 578              		.loc 1 57 9 is_stmt 1
  57:src/../h/kObjectAllocator.hpp ****         bitVectors[0] = (uint8*) MemoryAllocator::instance()->kmem_alloc(
 579              		.loc 1 57 45 is_stmt 0
 580 02c8 93D73700 		srli	a5,a5,3
  57:src/../h/kObjectAllocator.hpp ****         bitVectors[0] = (uint8*) MemoryAllocator::instance()->kmem_alloc(
 581              		.loc 1 57 27
 582 02cc 23B8F400 		sd	a5,16(s1)
  58:src/../h/kObjectAllocator.hpp ****                 memorySizeForBits + initialNumberOfObjects * objectSize
 583              		.loc 1 58 9 is_stmt 1
  58:src/../h/kObjectAllocator.hpp ****                 memorySizeForBits + initialNumberOfObjects * objectSize
GAS LISTING /tmp/ccxAvD3a.s 			page 15


 584              		.loc 1 58 73 is_stmt 0
 585 02d0 97000000 		call	_ZN15MemoryAllocator8instanceEv@plt
 585      E7800000 
 586              	.LVL60:
 587 02d8 6F00C000 		j	.L101
 588              	.L93:
  54:src/../h/kObjectAllocator.hpp ****         // one bit for each object which indicates whether memory
 589              		.loc 1 54 80
 590 02dc 13070000 		li	a4,0
 591 02e0 6FF0DFFD 		j	.L38
 592              	.L101:
  59:src/../h/kObjectAllocator.hpp ****         );
 593              		.loc 1 59 17
 594 02e4 83B50401 		ld	a1,16(s1)
  59:src/../h/kObjectAllocator.hpp ****         );
 595              		.loc 1 59 37
 596 02e8 83B70400 		ld	a5,0(s1)
  59:src/../h/kObjectAllocator.hpp ****         );
 597              		.loc 1 59 60
 598 02ec B307F902 		mul	a5,s2,a5
  58:src/../h/kObjectAllocator.hpp ****                 memorySizeForBits + initialNumberOfObjects * objectSize
 599              		.loc 1 58 9
 600 02f0 03BA8402 		ld	s4,40(s1)
  58:src/../h/kObjectAllocator.hpp ****                 memorySizeForBits + initialNumberOfObjects * objectSize
 601              		.loc 1 58 73
 602 02f4 B385F500 		add	a1,a1,a5
 603 02f8 97000000 		call	_ZN15MemoryAllocator10kmem_allocEm@plt
 603      E7800000 
 604              	.LVL61:
 605              	.LEHE1:
  58:src/../h/kObjectAllocator.hpp ****                 memorySizeForBits + initialNumberOfObjects * objectSize
 606              		.loc 1 58 23
 607 0300 2330AA00 		sd	a0,0(s4)
  61:src/../h/kObjectAllocator.hpp ****         for (size_t i = 0; i < memorySizeForBits; bitVectors[0][i++] = 0);
 608              		.loc 1 61 9 is_stmt 1
  61:src/../h/kObjectAllocator.hpp ****         for (size_t i = 0; i < memorySizeForBits; bitVectors[0][i++] = 0);
 609              		.loc 1 61 28 is_stmt 0
 610 0304 83B78402 		ld	a5,40(s1)
  61:src/../h/kObjectAllocator.hpp ****         for (size_t i = 0; i < memorySizeForBits; bitVectors[0][i++] = 0);
 611              		.loc 1 61 40
 612 0308 83B70700 		ld	a5,0(a5)
  61:src/../h/kObjectAllocator.hpp ****         for (size_t i = 0; i < memorySizeForBits; bitVectors[0][i++] = 0);
 613              		.loc 1 61 44
 614 030c 83B60401 		ld	a3,16(s1)
  61:src/../h/kObjectAllocator.hpp ****         for (size_t i = 0; i < memorySizeForBits; bitVectors[0][i++] = 0);
 615              		.loc 1 61 9
 616 0310 03B70402 		ld	a4,32(s1)
  61:src/../h/kObjectAllocator.hpp ****         for (size_t i = 0; i < memorySizeForBits; bitVectors[0][i++] = 0);
 617              		.loc 1 61 42
 618 0314 B387D700 		add	a5,a5,a3
  61:src/../h/kObjectAllocator.hpp ****         for (size_t i = 0; i < memorySizeForBits; bitVectors[0][i++] = 0);
 619              		.loc 1 61 26
 620 0318 2330F700 		sd	a5,0(a4)
  62:src/../h/kObjectAllocator.hpp ****     }
 621              		.loc 1 62 9 is_stmt 1
 622              	.LVL62:
 623              	.LBB90:
GAS LISTING /tmp/ccxAvD3a.s 			page 16


  62:src/../h/kObjectAllocator.hpp ****     }
 624              		.loc 1 62 21 is_stmt 0
 625 031c 93070000 		li	a5,0
 626              	.LVL63:
 627              	.L40:
  62:src/../h/kObjectAllocator.hpp ****     }
 628              		.loc 1 62 30 is_stmt 1
  62:src/../h/kObjectAllocator.hpp ****     }
 629              		.loc 1 62 32 is_stmt 0
 630 0320 03B70401 		ld	a4,16(s1)
  62:src/../h/kObjectAllocator.hpp ****     }
 631              		.loc 1 62 30
 632 0324 63FEE700 		bleu	a4,a5,.L39
  62:src/../h/kObjectAllocator.hpp ****     }
 633              		.loc 1 62 9 is_stmt 1
  62:src/../h/kObjectAllocator.hpp ****     }
 634              		.loc 1 62 51 is_stmt 0
 635 0328 03B78402 		ld	a4,40(s1)
  62:src/../h/kObjectAllocator.hpp ****     }
 636              		.loc 1 62 63
 637 032c 03370700 		ld	a4,0(a4)
 638              	.LVL64:
  62:src/../h/kObjectAllocator.hpp ****     }
 639              		.loc 1 62 68
 640 0330 3307F700 		add	a4,a4,a5
  62:src/../h/kObjectAllocator.hpp ****     }
 641              		.loc 1 62 70
 642 0334 23000700 		sb	zero,0(a4)
  62:src/../h/kObjectAllocator.hpp ****     }
 643              		.loc 1 62 66
 644 0338 93871700 		addi	a5,a5,1
 645              	.LVL65:
  62:src/../h/kObjectAllocator.hpp ****     }
 646              		.loc 1 62 9
 647 033c 6FF05FFE 		j	.L40
 648              	.L39:
 649              	.LVL66:
 650              	.LBE90:
 651              	.LBE89:
 652              	.LBE88:
 653              	.LBE87:
  77:src/kObjectAllocatorTest.cpp ****     if (objAlloc->getNumberOfObjects() != 16) { delete objAlloc; return false; }
 654              		.loc 2 77 5 is_stmt 1 discriminator 3
 655              	.LBB91:
 656              	.LBB92:
  74:src/../h/kObjectAllocator.hpp ****     void printInternalMemory();
  75:src/../h/kObjectAllocator.hpp ****     size_t getObjectSize() { return objectSize; }
  76:src/../h/kObjectAllocator.hpp ****     size_t getInitialNumberOfObjects() { return initialNumberOfObjects; }
  77:src/../h/kObjectAllocator.hpp ****     size_t getNumberOfObjects() { return numberOfObjects; }
 657              		.loc 1 77 35 discriminator 3
 658              		.loc 1 77 42 is_stmt 0 discriminator 3
 659 0340 03B78400 		ld	a4,8(s1)
 660              	.LVL67:
 661              	.LBE92:
 662              	.LBE91:
 663              		.loc 2 77 5 discriminator 3
 664 0344 93070001 		li	a5,16
GAS LISTING /tmp/ccxAvD3a.s 			page 17


 665 0348 6306F70A 		beq	a4,a5,.L41
 666              		.loc 2 77 49 is_stmt 1 discriminator 1
 667              		.loc 2 77 64 is_stmt 0 discriminator 1
 668 034c 638A0406 		beqz	s1,.L42
 669              	.LBB93:
 670              	.LBB94:
 671              	.LBB95:
  68:src/../h/kObjectAllocator.hpp ****             MemoryAllocator::instance()->kmem_free(((KObjectAllocator*) p)->bitVectors[i]);
 672              		.loc 1 68 21
 673 0350 13090000 		li	s2,0
 674              	.LVL68:
 675 0354 6F008002 		j	.L44
 676              	.LVL69:
 677              	.L102:
  69:src/../h/kObjectAllocator.hpp ****         MemoryAllocator::instance()->kmem_free(((KObjectAllocator*) p)->bitVectors);
 678              		.loc 1 69 13 is_stmt 1
 679              	.LEHB2:
  69:src/../h/kObjectAllocator.hpp ****         MemoryAllocator::instance()->kmem_free(((KObjectAllocator*) p)->bitVectors);
 680              		.loc 1 69 51 is_stmt 0
 681 0358 97000000 		call	_ZN15MemoryAllocator8instanceEv@plt
 681      E7800000 
 682              	.LVL70:
  69:src/../h/kObjectAllocator.hpp ****         MemoryAllocator::instance()->kmem_free(((KObjectAllocator*) p)->bitVectors);
 683              		.loc 1 69 77
 684 0360 83B78402 		ld	a5,40(s1)
  69:src/../h/kObjectAllocator.hpp ****         MemoryAllocator::instance()->kmem_free(((KObjectAllocator*) p)->bitVectors);
 685              		.loc 1 69 89
 686 0364 13173900 		slli	a4,s2,3
 687 0368 B387E700 		add	a5,a5,a4
  69:src/../h/kObjectAllocator.hpp ****         MemoryAllocator::instance()->kmem_free(((KObjectAllocator*) p)->bitVectors);
 688              		.loc 1 69 51
 689 036c 83B50700 		ld	a1,0(a5)
 690 0370 97000000 		call	_ZN15MemoryAllocator9kmem_freeEPv@plt
 690      E7800000 
 691              	.LVL71:
  68:src/../h/kObjectAllocator.hpp ****             MemoryAllocator::instance()->kmem_free(((KObjectAllocator*) p)->bitVectors[i]);
 692              		.loc 1 68 9 is_stmt 1
 693 0378 13091900 		addi	s2,s2,1
 694              	.LVL72:
 695              	.L44:
  68:src/../h/kObjectAllocator.hpp ****             MemoryAllocator::instance()->kmem_free(((KObjectAllocator*) p)->bitVectors[i]);
 696              		.loc 1 68 30
  68:src/../h/kObjectAllocator.hpp ****             MemoryAllocator::instance()->kmem_free(((KObjectAllocator*) p)->bitVectors[i]);
 697              		.loc 1 68 57 is_stmt 0
 698 037c 83B70403 		ld	a5,48(s1)
  68:src/../h/kObjectAllocator.hpp ****             MemoryAllocator::instance()->kmem_free(((KObjectAllocator*) p)->bitVectors[i]);
 699              		.loc 1 68 30
 700 0380 E36CF9FC 		bgtu	a5,s2,.L102
 701              	.LBE95:
  70:src/../h/kObjectAllocator.hpp ****         MemoryAllocator::instance()->kmem_free(((KObjectAllocator*) p)->objectVectors);
 702              		.loc 1 70 9 is_stmt 1
  70:src/../h/kObjectAllocator.hpp ****         MemoryAllocator::instance()->kmem_free(((KObjectAllocator*) p)->objectVectors);
 703              		.loc 1 70 47 is_stmt 0
 704 0384 97000000 		call	_ZN15MemoryAllocator8instanceEv@plt
 704      E7800000 
 705              	.LVL73:
 706 038c 83B58402 		ld	a1,40(s1)
GAS LISTING /tmp/ccxAvD3a.s 			page 18


 707 0390 97000000 		call	_ZN15MemoryAllocator9kmem_freeEPv@plt
 707      E7800000 
 708              	.LVL74:
  71:src/../h/kObjectAllocator.hpp ****         MemoryAllocator::instance()->kmem_free(p);
 709              		.loc 1 71 9 is_stmt 1
  71:src/../h/kObjectAllocator.hpp ****         MemoryAllocator::instance()->kmem_free(p);
 710              		.loc 1 71 47 is_stmt 0
 711 0398 97000000 		call	_ZN15MemoryAllocator8instanceEv@plt
 711      E7800000 
 712              	.LVL75:
 713 03a0 83B50402 		ld	a1,32(s1)
 714 03a4 97000000 		call	_ZN15MemoryAllocator9kmem_freeEPv@plt
 714      E7800000 
 715              	.LVL76:
  72:src/../h/kObjectAllocator.hpp ****     }
 716              		.loc 1 72 9 is_stmt 1
  72:src/../h/kObjectAllocator.hpp ****     }
 717              		.loc 1 72 47 is_stmt 0
 718 03ac 97000000 		call	_ZN15MemoryAllocator8instanceEv@plt
 718      E7800000 
 719              	.LVL77:
 720 03b4 93850400 		mv	a1,s1
 721 03b8 97000000 		call	_ZN15MemoryAllocator9kmem_freeEPv@plt
 721      E7800000 
 722              	.LVL78:
 723              	.L42:
 724              	.LBE94:
 725              	.LBE93:
 726              		.loc 2 77 66 is_stmt 1 discriminator 3
 727              		.loc 2 77 73 is_stmt 0 discriminator 3
 728 03c0 130A0000 		li	s4,0
 729              	.L99:
  78:src/kObjectAllocatorTest.cpp ****     if (objAlloc->getMemorySizeForBits() != 2) { delete objAlloc; return false; }
  79:src/kObjectAllocatorTest.cpp ****     if (objAlloc->getObjectSize() != size) { delete objAlloc; return false; }
  80:src/kObjectAllocatorTest.cpp ****     void* objArr[10]; for (size_t i = 0; i < 10; objArr[i++] = objAlloc->allocateNewObject());
  81:src/kObjectAllocatorTest.cpp ****     size_t byte = 0; size_t bit = 7;
  82:src/kObjectAllocatorTest.cpp ****     for (size_t i = 0; i < 10; ++i) {
  83:src/kObjectAllocatorTest.cpp ****         if (objArr[i] != getObjectAt(byte, bit, objAlloc)) { delete objAlloc; return false; }
  84:src/kObjectAllocatorTest.cpp ****         size_t objByte = getByteOfObject(objArr[i], objAlloc);
  85:src/kObjectAllocatorTest.cpp ****         size_t objBit = getBitOfObject(objArr[i], objAlloc);
  86:src/kObjectAllocatorTest.cpp ****         if (objByte != byte || objBit != bit) { delete objAlloc; return false; }
  87:src/kObjectAllocatorTest.cpp ****         if (!getValueOfBitAt(byte, bit, objAlloc)) { delete objAlloc; return false; }
  88:src/kObjectAllocatorTest.cpp ****         if (bit == 0) { ++byte; bit = 8; } --bit;
  89:src/kObjectAllocatorTest.cpp ****     }
  90:src/kObjectAllocatorTest.cpp ****     for (size_t i = 0; i < 6; ++i) {
  91:src/kObjectAllocatorTest.cpp ****         if (getValueOfBitAt(byte, bit, objAlloc)) { delete objAlloc; return false; }
  92:src/kObjectAllocatorTest.cpp ****         if (bit == 0) { ++byte; bit = 8; } --bit;
  93:src/kObjectAllocatorTest.cpp ****     }
  94:src/kObjectAllocatorTest.cpp ****     objAlloc->freeObject(objArr[4]);
  95:src/kObjectAllocatorTest.cpp ****     objAlloc->freeObject(objArr[7]);
  96:src/kObjectAllocatorTest.cpp ****     objAlloc->freeObject(objArr[8]);
  97:src/kObjectAllocatorTest.cpp ****     objArr[4] = objAlloc->allocateNewObject();
  98:src/kObjectAllocatorTest.cpp ****     if (objArr[4] != getObjectAt(1, 7, objAlloc)) { delete objAlloc; return false; }
  99:src/kObjectAllocatorTest.cpp ****     byte = getByteOfObject(objArr[4], objAlloc);
 100:src/kObjectAllocatorTest.cpp ****     bit = getBitOfObject(objArr[4], objAlloc);
 101:src/kObjectAllocatorTest.cpp ****     if (byte != 1 || bit != 7) { delete objAlloc; return false; }
 102:src/kObjectAllocatorTest.cpp ****     bool expectedBitValues[16] = {
GAS LISTING /tmp/ccxAvD3a.s 			page 19


 103:src/kObjectAllocatorTest.cpp ****             true, true, true, true, false, true, true, false,
 104:src/kObjectAllocatorTest.cpp ****             true, true, false, false, false, false, false, false
 105:src/kObjectAllocatorTest.cpp ****     };
 106:src/kObjectAllocatorTest.cpp ****     byte = 0; bit = 7;
 107:src/kObjectAllocatorTest.cpp ****     for (size_t i = 0; i < 16; ++i) {
 108:src/kObjectAllocatorTest.cpp ****         if (expectedBitValues[i] != getValueOfBitAt(byte, bit, objAlloc))
 109:src/kObjectAllocatorTest.cpp ****             { delete objAlloc; return false; } if (bit == 0) { ++byte; bit = 8; } --bit;
 110:src/kObjectAllocatorTest.cpp ****     }
 111:src/kObjectAllocatorTest.cpp ****     delete objAlloc;
 112:src/kObjectAllocatorTest.cpp ****     return true;
 113:src/kObjectAllocatorTest.cpp **** }
 730              		.loc 2 113 1
 731 03c4 13050A00 		mv	a0,s4
 732 03c8 8330810A 		ld	ra,168(sp)
 733              		.cfi_remember_state
 734              		.cfi_restore 1
 735 03cc 0334010A 		ld	s0,160(sp)
 736              		.cfi_restore 8
 737              		.cfi_def_cfa 2, 176
 738 03d0 83348109 		ld	s1,152(sp)
 739              		.cfi_restore 9
 740              	.LVL79:
 741 03d4 03390109 		ld	s2,144(sp)
 742              		.cfi_restore 18
 743 03d8 83398108 		ld	s3,136(sp)
 744              		.cfi_restore 19
 745              	.LVL80:
 746 03dc 033A0108 		ld	s4,128(sp)
 747              		.cfi_restore 20
 748 03e0 833A8107 		ld	s5,120(sp)
 749              		.cfi_restore 21
 750 03e4 033B0107 		ld	s6,112(sp)
 751              		.cfi_restore 22
 752 03e8 833B8106 		ld	s7,104(sp)
 753              		.cfi_restore 23
 754 03ec 1301010B 		addi	sp,sp,176
 755              		.cfi_def_cfa_offset 0
 756 03f0 67800000 		jr	ra
 757              	.LVL81:
 758              	.L41:
 759              		.cfi_restore_state
  78:src/kObjectAllocatorTest.cpp ****     if (objAlloc->getMemorySizeForBits() != 2) { delete objAlloc; return false; }
 760              		.loc 2 78 5 is_stmt 1
 761              	.LBB96:
 762              	.LBB97:
  78:src/../h/kObjectAllocator.hpp ****     size_t getMemorySizeForBits() { return memorySizeForBits; }
 763              		.loc 1 78 37
 764              		.loc 1 78 44 is_stmt 0
 765 03f4 03B70401 		ld	a4,16(s1)
 766              	.LVL82:
 767              	.LBE97:
 768              	.LBE96:
  78:src/kObjectAllocatorTest.cpp ****     if (objAlloc->getMemorySizeForBits() != 2) { delete objAlloc; return false; }
 769              		.loc 2 78 5
 770 03f8 93072000 		li	a5,2
 771 03fc 6300F708 		beq	a4,a5,.L46
  78:src/kObjectAllocatorTest.cpp ****     if (objAlloc->getMemorySizeForBits() != 2) { delete objAlloc; return false; }
GAS LISTING /tmp/ccxAvD3a.s 			page 20


 772              		.loc 2 78 50 is_stmt 1 discriminator 1
  78:src/kObjectAllocatorTest.cpp ****     if (objAlloc->getMemorySizeForBits() != 2) { delete objAlloc; return false; }
 773              		.loc 2 78 65 is_stmt 0 discriminator 1
 774 0400 638A0406 		beqz	s1,.L47
 775              	.LBB98:
 776              	.LBB99:
 777              	.LBB100:
  68:src/../h/kObjectAllocator.hpp ****             MemoryAllocator::instance()->kmem_free(((KObjectAllocator*) p)->bitVectors[i]);
 778              		.loc 1 68 21
 779 0404 13090000 		li	s2,0
 780              	.LVL83:
 781 0408 6F008002 		j	.L49
 782              	.LVL84:
 783              	.L103:
  69:src/../h/kObjectAllocator.hpp ****         MemoryAllocator::instance()->kmem_free(((KObjectAllocator*) p)->bitVectors);
 784              		.loc 1 69 13 is_stmt 1
  69:src/../h/kObjectAllocator.hpp ****         MemoryAllocator::instance()->kmem_free(((KObjectAllocator*) p)->bitVectors);
 785              		.loc 1 69 51 is_stmt 0
 786 040c 97000000 		call	_ZN15MemoryAllocator8instanceEv@plt
 786      E7800000 
 787              	.LVL85:
  69:src/../h/kObjectAllocator.hpp ****         MemoryAllocator::instance()->kmem_free(((KObjectAllocator*) p)->bitVectors);
 788              		.loc 1 69 77
 789 0414 83B78402 		ld	a5,40(s1)
  69:src/../h/kObjectAllocator.hpp ****         MemoryAllocator::instance()->kmem_free(((KObjectAllocator*) p)->bitVectors);
 790              		.loc 1 69 89
 791 0418 13173900 		slli	a4,s2,3
 792 041c B387E700 		add	a5,a5,a4
  69:src/../h/kObjectAllocator.hpp ****         MemoryAllocator::instance()->kmem_free(((KObjectAllocator*) p)->bitVectors);
 793              		.loc 1 69 51
 794 0420 83B50700 		ld	a1,0(a5)
 795 0424 97000000 		call	_ZN15MemoryAllocator9kmem_freeEPv@plt
 795      E7800000 
 796              	.LVL86:
  68:src/../h/kObjectAllocator.hpp ****             MemoryAllocator::instance()->kmem_free(((KObjectAllocator*) p)->bitVectors[i]);
 797              		.loc 1 68 9 is_stmt 1
 798 042c 13091900 		addi	s2,s2,1
 799              	.LVL87:
 800              	.L49:
  68:src/../h/kObjectAllocator.hpp ****             MemoryAllocator::instance()->kmem_free(((KObjectAllocator*) p)->bitVectors[i]);
 801              		.loc 1 68 30
  68:src/../h/kObjectAllocator.hpp ****             MemoryAllocator::instance()->kmem_free(((KObjectAllocator*) p)->bitVectors[i]);
 802              		.loc 1 68 57 is_stmt 0
 803 0430 83B70403 		ld	a5,48(s1)
  68:src/../h/kObjectAllocator.hpp ****             MemoryAllocator::instance()->kmem_free(((KObjectAllocator*) p)->bitVectors[i]);
 804              		.loc 1 68 30
 805 0434 E36CF9FC 		bgtu	a5,s2,.L103
 806              	.LBE100:
  70:src/../h/kObjectAllocator.hpp ****         MemoryAllocator::instance()->kmem_free(((KObjectAllocator*) p)->objectVectors);
 807              		.loc 1 70 9 is_stmt 1
  70:src/../h/kObjectAllocator.hpp ****         MemoryAllocator::instance()->kmem_free(((KObjectAllocator*) p)->objectVectors);
 808              		.loc 1 70 47 is_stmt 0
 809 0438 97000000 		call	_ZN15MemoryAllocator8instanceEv@plt
 809      E7800000 
 810              	.LVL88:
 811 0440 83B58402 		ld	a1,40(s1)
 812 0444 97000000 		call	_ZN15MemoryAllocator9kmem_freeEPv@plt
GAS LISTING /tmp/ccxAvD3a.s 			page 21


 812      E7800000 
 813              	.LVL89:
  71:src/../h/kObjectAllocator.hpp ****         MemoryAllocator::instance()->kmem_free(p);
 814              		.loc 1 71 9 is_stmt 1
  71:src/../h/kObjectAllocator.hpp ****         MemoryAllocator::instance()->kmem_free(p);
 815              		.loc 1 71 47 is_stmt 0
 816 044c 97000000 		call	_ZN15MemoryAllocator8instanceEv@plt
 816      E7800000 
 817              	.LVL90:
 818 0454 83B50402 		ld	a1,32(s1)
 819 0458 97000000 		call	_ZN15MemoryAllocator9kmem_freeEPv@plt
 819      E7800000 
 820              	.LVL91:
  72:src/../h/kObjectAllocator.hpp ****     }
 821              		.loc 1 72 9 is_stmt 1
  72:src/../h/kObjectAllocator.hpp ****     }
 822              		.loc 1 72 47 is_stmt 0
 823 0460 97000000 		call	_ZN15MemoryAllocator8instanceEv@plt
 823      E7800000 
 824              	.LVL92:
 825 0468 93850400 		mv	a1,s1
 826 046c 97000000 		call	_ZN15MemoryAllocator9kmem_freeEPv@plt
 826      E7800000 
 827              	.LVL93:
 828              	.L47:
 829              	.LBE99:
 830              	.LBE98:
  78:src/kObjectAllocatorTest.cpp ****     if (objAlloc->getObjectSize() != size) { delete objAlloc; return false; }
 831              		.loc 2 78 67 is_stmt 1 discriminator 3
  78:src/kObjectAllocatorTest.cpp ****     if (objAlloc->getObjectSize() != size) { delete objAlloc; return false; }
 832              		.loc 2 78 74 is_stmt 0 discriminator 3
 833 0474 130A0000 		li	s4,0
 834 0478 6FF0DFF4 		j	.L99
 835              	.LVL94:
 836              	.L46:
  79:src/kObjectAllocatorTest.cpp ****     void* objArr[10]; for (size_t i = 0; i < 10; objArr[i++] = objAlloc->allocateNewObject());
 837              		.loc 2 79 5 is_stmt 1
 838              	.LBB101:
 839              	.LBB102:
  75:src/../h/kObjectAllocator.hpp ****     size_t getInitialNumberOfObjects() { return initialNumberOfObjects; }
 840              		.loc 1 75 30
  75:src/../h/kObjectAllocator.hpp ****     size_t getInitialNumberOfObjects() { return initialNumberOfObjects; }
 841              		.loc 1 75 37 is_stmt 0
 842 047c 83B78401 		ld	a5,24(s1)
 843              	.LVL95:
 844              	.LBE102:
 845              	.LBE101:
  79:src/kObjectAllocatorTest.cpp ****     void* objArr[10]; for (size_t i = 0; i < 10; objArr[i++] = objAlloc->allocateNewObject());
 846              		.loc 2 79 5
 847 0480 6300F908 		beq	s2,a5,.L94
  79:src/kObjectAllocatorTest.cpp ****     void* objArr[10]; for (size_t i = 0; i < 10; objArr[i++] = objAlloc->allocateNewObject());
 848              		.loc 2 79 46 is_stmt 1 discriminator 1
  79:src/kObjectAllocatorTest.cpp ****     void* objArr[10]; for (size_t i = 0; i < 10; objArr[i++] = objAlloc->allocateNewObject());
 849              		.loc 2 79 61 is_stmt 0 discriminator 1
 850 0484 638A0406 		beqz	s1,.L51
 851              	.LBB103:
 852              	.LBB104:
GAS LISTING /tmp/ccxAvD3a.s 			page 22


 853              	.LBB105:
  68:src/../h/kObjectAllocator.hpp ****             MemoryAllocator::instance()->kmem_free(((KObjectAllocator*) p)->bitVectors[i]);
 854              		.loc 1 68 21
 855 0488 13090000 		li	s2,0
 856              	.LVL96:
 857              	.L53:
  68:src/../h/kObjectAllocator.hpp ****             MemoryAllocator::instance()->kmem_free(((KObjectAllocator*) p)->bitVectors[i]);
 858              		.loc 1 68 30 is_stmt 1
  68:src/../h/kObjectAllocator.hpp ****             MemoryAllocator::instance()->kmem_free(((KObjectAllocator*) p)->bitVectors[i]);
 859              		.loc 1 68 57 is_stmt 0
 860 048c 83B70403 		ld	a5,48(s1)
  68:src/../h/kObjectAllocator.hpp ****             MemoryAllocator::instance()->kmem_free(((KObjectAllocator*) p)->bitVectors[i]);
 861              		.loc 1 68 30
 862 0490 6376F902 		bleu	a5,s2,.L52
  69:src/../h/kObjectAllocator.hpp ****         MemoryAllocator::instance()->kmem_free(((KObjectAllocator*) p)->bitVectors);
 863              		.loc 1 69 13 is_stmt 1
  69:src/../h/kObjectAllocator.hpp ****         MemoryAllocator::instance()->kmem_free(((KObjectAllocator*) p)->bitVectors);
 864              		.loc 1 69 51 is_stmt 0
 865 0494 97000000 		call	_ZN15MemoryAllocator8instanceEv@plt
 865      E7800000 
 866              	.LVL97:
  69:src/../h/kObjectAllocator.hpp ****         MemoryAllocator::instance()->kmem_free(((KObjectAllocator*) p)->bitVectors);
 867              		.loc 1 69 77
 868 049c 83B78402 		ld	a5,40(s1)
  69:src/../h/kObjectAllocator.hpp ****         MemoryAllocator::instance()->kmem_free(((KObjectAllocator*) p)->bitVectors);
 869              		.loc 1 69 89
 870 04a0 13173900 		slli	a4,s2,3
 871 04a4 B387E700 		add	a5,a5,a4
  69:src/../h/kObjectAllocator.hpp ****         MemoryAllocator::instance()->kmem_free(((KObjectAllocator*) p)->bitVectors);
 872              		.loc 1 69 51
 873 04a8 83B50700 		ld	a1,0(a5)
 874 04ac 97000000 		call	_ZN15MemoryAllocator9kmem_freeEPv@plt
 874      E7800000 
 875              	.LVL98:
  68:src/../h/kObjectAllocator.hpp ****             MemoryAllocator::instance()->kmem_free(((KObjectAllocator*) p)->bitVectors[i]);
 876              		.loc 1 68 9 is_stmt 1
 877 04b4 13091900 		addi	s2,s2,1
 878              	.LVL99:
 879 04b8 6FF05FFD 		j	.L53
 880              	.L52:
 881              	.LBE105:
  70:src/../h/kObjectAllocator.hpp ****         MemoryAllocator::instance()->kmem_free(((KObjectAllocator*) p)->objectVectors);
 882              		.loc 1 70 9
  70:src/../h/kObjectAllocator.hpp ****         MemoryAllocator::instance()->kmem_free(((KObjectAllocator*) p)->objectVectors);
 883              		.loc 1 70 47 is_stmt 0
 884 04bc 97000000 		call	_ZN15MemoryAllocator8instanceEv@plt
 884      E7800000 
 885              	.LVL100:
 886 04c4 83B58402 		ld	a1,40(s1)
 887 04c8 97000000 		call	_ZN15MemoryAllocator9kmem_freeEPv@plt
 887      E7800000 
 888              	.LVL101:
  71:src/../h/kObjectAllocator.hpp ****         MemoryAllocator::instance()->kmem_free(p);
 889              		.loc 1 71 9 is_stmt 1
  71:src/../h/kObjectAllocator.hpp ****         MemoryAllocator::instance()->kmem_free(p);
 890              		.loc 1 71 47 is_stmt 0
 891 04d0 97000000 		call	_ZN15MemoryAllocator8instanceEv@plt
GAS LISTING /tmp/ccxAvD3a.s 			page 23


 891      E7800000 
 892              	.LVL102:
 893 04d8 83B50402 		ld	a1,32(s1)
 894 04dc 97000000 		call	_ZN15MemoryAllocator9kmem_freeEPv@plt
 894      E7800000 
 895              	.LVL103:
  72:src/../h/kObjectAllocator.hpp ****     }
 896              		.loc 1 72 9 is_stmt 1
  72:src/../h/kObjectAllocator.hpp ****     }
 897              		.loc 1 72 47 is_stmt 0
 898 04e4 97000000 		call	_ZN15MemoryAllocator8instanceEv@plt
 898      E7800000 
 899              	.LVL104:
 900 04ec 93850400 		mv	a1,s1
 901 04f0 97000000 		call	_ZN15MemoryAllocator9kmem_freeEPv@plt
 901      E7800000 
 902              	.LVL105:
 903              	.L51:
 904              	.LBE104:
 905              	.LBE103:
  79:src/kObjectAllocatorTest.cpp ****     void* objArr[10]; for (size_t i = 0; i < 10; objArr[i++] = objAlloc->allocateNewObject());
 906              		.loc 2 79 63 is_stmt 1 discriminator 3
  79:src/kObjectAllocatorTest.cpp ****     void* objArr[10]; for (size_t i = 0; i < 10; objArr[i++] = objAlloc->allocateNewObject());
 907              		.loc 2 79 70 is_stmt 0 discriminator 3
 908 04f8 130A0000 		li	s4,0
 909 04fc 6FF09FEC 		j	.L99
 910              	.LVL106:
 911              	.L94:
 912              	.LBB106:
  80:src/kObjectAllocatorTest.cpp ****     size_t byte = 0; size_t bit = 7;
 913              		.loc 2 80 35
 914 0500 13090000 		li	s2,0
 915              	.LVL107:
 916              	.L50:
  80:src/kObjectAllocatorTest.cpp ****     size_t byte = 0; size_t bit = 7;
 917              		.loc 2 80 44 is_stmt 1 discriminator 4
 918 0504 93079000 		li	a5,9
 919 0508 63E62703 		bgtu	s2,a5,.L95
  80:src/kObjectAllocatorTest.cpp ****     size_t byte = 0; size_t bit = 7;
 920              		.loc 2 80 23 discriminator 2
  80:src/kObjectAllocatorTest.cpp ****     size_t byte = 0; size_t bit = 7;
 921              		.loc 2 80 58 is_stmt 0 discriminator 2
 922 050c 130A1900 		addi	s4,s2,1
 923              	.LVL108:
  80:src/kObjectAllocatorTest.cpp ****     size_t byte = 0; size_t bit = 7;
 924              		.loc 2 80 91 discriminator 2
 925 0510 13850400 		mv	a0,s1
 926 0514 97000000 		call	_ZN16KObjectAllocator17allocateNewObjectEv@plt
 926      E7800000 
 927              	.LVL109:
  80:src/kObjectAllocatorTest.cpp ****     size_t byte = 0; size_t bit = 7;
 928              		.loc 2 80 62 discriminator 2
 929 051c 13193900 		slli	s2,s2,3
 930 0520 930704FB 		addi	a5,s0,-80
 931 0524 33892701 		add	s2,a5,s2
 932 0528 2338A9FA 		sd	a0,-80(s2)
  80:src/kObjectAllocatorTest.cpp ****     size_t byte = 0; size_t bit = 7;
GAS LISTING /tmp/ccxAvD3a.s 			page 24


 933              		.loc 2 80 58 discriminator 2
 934 052c 13090A00 		mv	s2,s4
  80:src/kObjectAllocatorTest.cpp ****     size_t byte = 0; size_t bit = 7;
 935              		.loc 2 80 23 discriminator 2
 936 0530 6FF05FFD 		j	.L50
 937              	.LVL110:
 938              	.L95:
 939              	.LBE106:
 940              	.LBB107:
  82:src/kObjectAllocatorTest.cpp ****         if (objArr[i] != getObjectAt(byte, bit, objAlloc)) { delete objAlloc; return false; }
 941              		.loc 2 82 17
 942 0534 130B0000 		li	s6,0
 943              	.LBE107:
  81:src/kObjectAllocatorTest.cpp ****     for (size_t i = 0; i < 10; ++i) {
 944              		.loc 2 81 29
 945 0538 13097000 		li	s2,7
 946              	.LVL111:
  81:src/kObjectAllocatorTest.cpp ****     for (size_t i = 0; i < 10; ++i) {
 947              		.loc 2 81 12
 948 053c 930A0000 		li	s5,0
 949 0540 6F004018 		j	.L54
 950              	.LVL112:
 951              	.L105:
 952              	.LBB119:
 953              	.LBB108:
  83:src/kObjectAllocatorTest.cpp ****         size_t objByte = getByteOfObject(objArr[i], objAlloc);
 954              		.loc 2 83 62 is_stmt 1 discriminator 2
  83:src/kObjectAllocatorTest.cpp ****         size_t objByte = getByteOfObject(objArr[i], objAlloc);
 955              		.loc 2 83 77 is_stmt 0 discriminator 2
 956 0544 638A0406 		beqz	s1,.L57
 957              	.LBB109:
 958              	.LBB110:
 959              	.LBB111:
  68:src/../h/kObjectAllocator.hpp ****             MemoryAllocator::instance()->kmem_free(((KObjectAllocator*) p)->bitVectors[i]);
 960              		.loc 1 68 21
 961 0548 13090000 		li	s2,0
 962              	.LVL113:
 963              	.L59:
  68:src/../h/kObjectAllocator.hpp ****             MemoryAllocator::instance()->kmem_free(((KObjectAllocator*) p)->bitVectors[i]);
 964              		.loc 1 68 30 is_stmt 1
  68:src/../h/kObjectAllocator.hpp ****             MemoryAllocator::instance()->kmem_free(((KObjectAllocator*) p)->bitVectors[i]);
 965              		.loc 1 68 57 is_stmt 0
 966 054c 83B70403 		ld	a5,48(s1)
  68:src/../h/kObjectAllocator.hpp ****             MemoryAllocator::instance()->kmem_free(((KObjectAllocator*) p)->bitVectors[i]);
 967              		.loc 1 68 30
 968 0550 6376F902 		bleu	a5,s2,.L58
  69:src/../h/kObjectAllocator.hpp ****         MemoryAllocator::instance()->kmem_free(((KObjectAllocator*) p)->bitVectors);
 969              		.loc 1 69 13 is_stmt 1
  69:src/../h/kObjectAllocator.hpp ****         MemoryAllocator::instance()->kmem_free(((KObjectAllocator*) p)->bitVectors);
 970              		.loc 1 69 51 is_stmt 0
 971 0554 97000000 		call	_ZN15MemoryAllocator8instanceEv@plt
 971      E7800000 
 972              	.LVL114:
  69:src/../h/kObjectAllocator.hpp ****         MemoryAllocator::instance()->kmem_free(((KObjectAllocator*) p)->bitVectors);
 973              		.loc 1 69 77
 974 055c 83B78402 		ld	a5,40(s1)
  69:src/../h/kObjectAllocator.hpp ****         MemoryAllocator::instance()->kmem_free(((KObjectAllocator*) p)->bitVectors);
GAS LISTING /tmp/ccxAvD3a.s 			page 25


 975              		.loc 1 69 89
 976 0560 13173900 		slli	a4,s2,3
 977 0564 B387E700 		add	a5,a5,a4
  69:src/../h/kObjectAllocator.hpp ****         MemoryAllocator::instance()->kmem_free(((KObjectAllocator*) p)->bitVectors);
 978              		.loc 1 69 51
 979 0568 83B50700 		ld	a1,0(a5)
 980 056c 97000000 		call	_ZN15MemoryAllocator9kmem_freeEPv@plt
 980      E7800000 
 981              	.LVL115:
  68:src/../h/kObjectAllocator.hpp ****             MemoryAllocator::instance()->kmem_free(((KObjectAllocator*) p)->bitVectors[i]);
 982              		.loc 1 68 9 is_stmt 1
 983 0574 13091900 		addi	s2,s2,1
 984              	.LVL116:
 985 0578 6FF05FFD 		j	.L59
 986              	.L58:
 987              	.LBE111:
  70:src/../h/kObjectAllocator.hpp ****         MemoryAllocator::instance()->kmem_free(((KObjectAllocator*) p)->objectVectors);
 988              		.loc 1 70 9
  70:src/../h/kObjectAllocator.hpp ****         MemoryAllocator::instance()->kmem_free(((KObjectAllocator*) p)->objectVectors);
 989              		.loc 1 70 47 is_stmt 0
 990 057c 97000000 		call	_ZN15MemoryAllocator8instanceEv@plt
 990      E7800000 
 991              	.LVL117:
 992 0584 83B58402 		ld	a1,40(s1)
 993 0588 97000000 		call	_ZN15MemoryAllocator9kmem_freeEPv@plt
 993      E7800000 
 994              	.LVL118:
  71:src/../h/kObjectAllocator.hpp ****         MemoryAllocator::instance()->kmem_free(p);
 995              		.loc 1 71 9 is_stmt 1
  71:src/../h/kObjectAllocator.hpp ****         MemoryAllocator::instance()->kmem_free(p);
 996              		.loc 1 71 47 is_stmt 0
 997 0590 97000000 		call	_ZN15MemoryAllocator8instanceEv@plt
 997      E7800000 
 998              	.LVL119:
 999 0598 83B50402 		ld	a1,32(s1)
 1000 059c 97000000 		call	_ZN15MemoryAllocator9kmem_freeEPv@plt
 1000      E7800000 
 1001              	.LVL120:
  72:src/../h/kObjectAllocator.hpp ****     }
 1002              		.loc 1 72 9 is_stmt 1
  72:src/../h/kObjectAllocator.hpp ****     }
 1003              		.loc 1 72 47 is_stmt 0
 1004 05a4 97000000 		call	_ZN15MemoryAllocator8instanceEv@plt
 1004      E7800000 
 1005              	.LVL121:
 1006 05ac 93850400 		mv	a1,s1
 1007 05b0 97000000 		call	_ZN15MemoryAllocator9kmem_freeEPv@plt
 1007      E7800000 
 1008              	.LVL122:
 1009              	.L57:
 1010              	.LBE110:
 1011              	.LBE109:
  83:src/kObjectAllocatorTest.cpp ****         size_t objByte = getByteOfObject(objArr[i], objAlloc);
 1012              		.loc 2 83 79 is_stmt 1 discriminator 4
  83:src/kObjectAllocatorTest.cpp ****         size_t objByte = getByteOfObject(objArr[i], objAlloc);
 1013              		.loc 2 83 86 is_stmt 0 discriminator 4
 1014 05b8 130A0000 		li	s4,0
GAS LISTING /tmp/ccxAvD3a.s 			page 26


 1015 05bc 6FF09FE0 		j	.L99
 1016              	.LVL123:
 1017              	.L60:
  86:src/kObjectAllocatorTest.cpp ****         if (!getValueOfBitAt(byte, bit, objAlloc)) { delete objAlloc; return false; }
 1018              		.loc 2 86 49 is_stmt 1 discriminator 3
  86:src/kObjectAllocatorTest.cpp ****         if (!getValueOfBitAt(byte, bit, objAlloc)) { delete objAlloc; return false; }
 1019              		.loc 2 86 64 is_stmt 0 discriminator 3
 1020 05c0 638A0406 		beqz	s1,.L62
 1021              	.LBB112:
 1022              	.LBB113:
 1023              	.LBB114:
  68:src/../h/kObjectAllocator.hpp ****             MemoryAllocator::instance()->kmem_free(((KObjectAllocator*) p)->bitVectors[i]);
 1024              		.loc 1 68 21
 1025 05c4 13090000 		li	s2,0
 1026              	.LVL124:
 1027              	.L64:
  68:src/../h/kObjectAllocator.hpp ****             MemoryAllocator::instance()->kmem_free(((KObjectAllocator*) p)->bitVectors[i]);
 1028              		.loc 1 68 30 is_stmt 1
  68:src/../h/kObjectAllocator.hpp ****             MemoryAllocator::instance()->kmem_free(((KObjectAllocator*) p)->bitVectors[i]);
 1029              		.loc 1 68 57 is_stmt 0
 1030 05c8 83B70403 		ld	a5,48(s1)
  68:src/../h/kObjectAllocator.hpp ****             MemoryAllocator::instance()->kmem_free(((KObjectAllocator*) p)->bitVectors[i]);
 1031              		.loc 1 68 30
 1032 05cc 6376F902 		bleu	a5,s2,.L63
  69:src/../h/kObjectAllocator.hpp ****         MemoryAllocator::instance()->kmem_free(((KObjectAllocator*) p)->bitVectors);
 1033              		.loc 1 69 13 is_stmt 1
  69:src/../h/kObjectAllocator.hpp ****         MemoryAllocator::instance()->kmem_free(((KObjectAllocator*) p)->bitVectors);
 1034              		.loc 1 69 51 is_stmt 0
 1035 05d0 97000000 		call	_ZN15MemoryAllocator8instanceEv@plt
 1035      E7800000 
 1036              	.LVL125:
  69:src/../h/kObjectAllocator.hpp ****         MemoryAllocator::instance()->kmem_free(((KObjectAllocator*) p)->bitVectors);
 1037              		.loc 1 69 77
 1038 05d8 83B78402 		ld	a5,40(s1)
  69:src/../h/kObjectAllocator.hpp ****         MemoryAllocator::instance()->kmem_free(((KObjectAllocator*) p)->bitVectors);
 1039              		.loc 1 69 89
 1040 05dc 13173900 		slli	a4,s2,3
 1041 05e0 B387E700 		add	a5,a5,a4
  69:src/../h/kObjectAllocator.hpp ****         MemoryAllocator::instance()->kmem_free(((KObjectAllocator*) p)->bitVectors);
 1042              		.loc 1 69 51
 1043 05e4 83B50700 		ld	a1,0(a5)
 1044 05e8 97000000 		call	_ZN15MemoryAllocator9kmem_freeEPv@plt
 1044      E7800000 
 1045              	.LVL126:
  68:src/../h/kObjectAllocator.hpp ****             MemoryAllocator::instance()->kmem_free(((KObjectAllocator*) p)->bitVectors[i]);
 1046              		.loc 1 68 9 is_stmt 1
 1047 05f0 13091900 		addi	s2,s2,1
 1048              	.LVL127:
 1049 05f4 6FF05FFD 		j	.L64
 1050              	.L63:
 1051              	.LBE114:
  70:src/../h/kObjectAllocator.hpp ****         MemoryAllocator::instance()->kmem_free(((KObjectAllocator*) p)->objectVectors);
 1052              		.loc 1 70 9
  70:src/../h/kObjectAllocator.hpp ****         MemoryAllocator::instance()->kmem_free(((KObjectAllocator*) p)->objectVectors);
 1053              		.loc 1 70 47 is_stmt 0
 1054 05f8 97000000 		call	_ZN15MemoryAllocator8instanceEv@plt
 1054      E7800000 
GAS LISTING /tmp/ccxAvD3a.s 			page 27


 1055              	.LVL128:
 1056 0600 83B58402 		ld	a1,40(s1)
 1057 0604 97000000 		call	_ZN15MemoryAllocator9kmem_freeEPv@plt
 1057      E7800000 
 1058              	.LVL129:
  71:src/../h/kObjectAllocator.hpp ****         MemoryAllocator::instance()->kmem_free(p);
 1059              		.loc 1 71 9 is_stmt 1
  71:src/../h/kObjectAllocator.hpp ****         MemoryAllocator::instance()->kmem_free(p);
 1060              		.loc 1 71 47 is_stmt 0
 1061 060c 97000000 		call	_ZN15MemoryAllocator8instanceEv@plt
 1061      E7800000 
 1062              	.LVL130:
 1063 0614 83B50402 		ld	a1,32(s1)
 1064 0618 97000000 		call	_ZN15MemoryAllocator9kmem_freeEPv@plt
 1064      E7800000 
 1065              	.LVL131:
  72:src/../h/kObjectAllocator.hpp ****     }
 1066              		.loc 1 72 9 is_stmt 1
  72:src/../h/kObjectAllocator.hpp ****     }
 1067              		.loc 1 72 47 is_stmt 0
 1068 0620 97000000 		call	_ZN15MemoryAllocator8instanceEv@plt
 1068      E7800000 
 1069              	.LVL132:
 1070 0628 93850400 		mv	a1,s1
 1071 062c 97000000 		call	_ZN15MemoryAllocator9kmem_freeEPv@plt
 1071      E7800000 
 1072              	.LVL133:
 1073              	.L62:
 1074              	.LBE113:
 1075              	.LBE112:
  86:src/kObjectAllocatorTest.cpp ****         if (!getValueOfBitAt(byte, bit, objAlloc)) { delete objAlloc; return false; }
 1076              		.loc 2 86 66 is_stmt 1 discriminator 5
  86:src/kObjectAllocatorTest.cpp ****         if (!getValueOfBitAt(byte, bit, objAlloc)) { delete objAlloc; return false; }
 1077              		.loc 2 86 73 is_stmt 0 discriminator 5
 1078 0634 130A0000 		li	s4,0
 1079 0638 6FF0DFD8 		j	.L99
 1080              	.LVL134:
 1081              	.L106:
  87:src/kObjectAllocatorTest.cpp ****         if (bit == 0) { ++byte; bit = 8; } --bit;
 1082              		.loc 2 87 54 is_stmt 1 discriminator 2
  87:src/kObjectAllocatorTest.cpp ****         if (bit == 0) { ++byte; bit = 8; } --bit;
 1083              		.loc 2 87 69 is_stmt 0 discriminator 2
 1084 063c E38404D8 		beqz	s1,.L99
 1085              	.LBB115:
 1086              	.LBB116:
 1087              	.LBB117:
  68:src/../h/kObjectAllocator.hpp ****             MemoryAllocator::instance()->kmem_free(((KObjectAllocator*) p)->bitVectors[i]);
 1088              		.loc 1 68 21
 1089 0640 13090000 		li	s2,0
 1090              	.LVL135:
 1091 0644 6F008002 		j	.L68
 1092              	.LVL136:
 1093              	.L104:
  69:src/../h/kObjectAllocator.hpp ****         MemoryAllocator::instance()->kmem_free(((KObjectAllocator*) p)->bitVectors);
 1094              		.loc 1 69 13 is_stmt 1
  69:src/../h/kObjectAllocator.hpp ****         MemoryAllocator::instance()->kmem_free(((KObjectAllocator*) p)->bitVectors);
 1095              		.loc 1 69 51 is_stmt 0
GAS LISTING /tmp/ccxAvD3a.s 			page 28


 1096 0648 97000000 		call	_ZN15MemoryAllocator8instanceEv@plt
 1096      E7800000 
 1097              	.LVL137:
  69:src/../h/kObjectAllocator.hpp ****         MemoryAllocator::instance()->kmem_free(((KObjectAllocator*) p)->bitVectors);
 1098              		.loc 1 69 77
 1099 0650 83B78402 		ld	a5,40(s1)
  69:src/../h/kObjectAllocator.hpp ****         MemoryAllocator::instance()->kmem_free(((KObjectAllocator*) p)->bitVectors);
 1100              		.loc 1 69 89
 1101 0654 13173900 		slli	a4,s2,3
 1102 0658 B387E700 		add	a5,a5,a4
  69:src/../h/kObjectAllocator.hpp ****         MemoryAllocator::instance()->kmem_free(((KObjectAllocator*) p)->bitVectors);
 1103              		.loc 1 69 51
 1104 065c 83B50700 		ld	a1,0(a5)
 1105 0660 97000000 		call	_ZN15MemoryAllocator9kmem_freeEPv@plt
 1105      E7800000 
 1106              	.LVL138:
  68:src/../h/kObjectAllocator.hpp ****             MemoryAllocator::instance()->kmem_free(((KObjectAllocator*) p)->bitVectors[i]);
 1107              		.loc 1 68 9 is_stmt 1
 1108 0668 13091900 		addi	s2,s2,1
 1109              	.LVL139:
 1110              	.L68:
  68:src/../h/kObjectAllocator.hpp ****             MemoryAllocator::instance()->kmem_free(((KObjectAllocator*) p)->bitVectors[i]);
 1111              		.loc 1 68 30
  68:src/../h/kObjectAllocator.hpp ****             MemoryAllocator::instance()->kmem_free(((KObjectAllocator*) p)->bitVectors[i]);
 1112              		.loc 1 68 57 is_stmt 0
 1113 066c 83B70403 		ld	a5,48(s1)
  68:src/../h/kObjectAllocator.hpp ****             MemoryAllocator::instance()->kmem_free(((KObjectAllocator*) p)->bitVectors[i]);
 1114              		.loc 1 68 30
 1115 0670 E36CF9FC 		bgtu	a5,s2,.L104
 1116              	.LBE117:
  70:src/../h/kObjectAllocator.hpp ****         MemoryAllocator::instance()->kmem_free(((KObjectAllocator*) p)->objectVectors);
 1117              		.loc 1 70 9 is_stmt 1
  70:src/../h/kObjectAllocator.hpp ****         MemoryAllocator::instance()->kmem_free(((KObjectAllocator*) p)->objectVectors);
 1118              		.loc 1 70 47 is_stmt 0
 1119 0674 97000000 		call	_ZN15MemoryAllocator8instanceEv@plt
 1119      E7800000 
 1120              	.LVL140:
 1121 067c 83B58402 		ld	a1,40(s1)
 1122 0680 97000000 		call	_ZN15MemoryAllocator9kmem_freeEPv@plt
 1122      E7800000 
 1123              	.LVL141:
  71:src/../h/kObjectAllocator.hpp ****         MemoryAllocator::instance()->kmem_free(p);
 1124              		.loc 1 71 9 is_stmt 1
  71:src/../h/kObjectAllocator.hpp ****         MemoryAllocator::instance()->kmem_free(p);
 1125              		.loc 1 71 47 is_stmt 0
 1126 0688 97000000 		call	_ZN15MemoryAllocator8instanceEv@plt
 1126      E7800000 
 1127              	.LVL142:
 1128 0690 83B50402 		ld	a1,32(s1)
 1129 0694 97000000 		call	_ZN15MemoryAllocator9kmem_freeEPv@plt
 1129      E7800000 
 1130              	.LVL143:
  72:src/../h/kObjectAllocator.hpp ****     }
 1131              		.loc 1 72 9 is_stmt 1
  72:src/../h/kObjectAllocator.hpp ****     }
 1132              		.loc 1 72 47 is_stmt 0
 1133 069c 97000000 		call	_ZN15MemoryAllocator8instanceEv@plt
GAS LISTING /tmp/ccxAvD3a.s 			page 29


 1133      E7800000 
 1134              	.LVL144:
 1135 06a4 93850400 		mv	a1,s1
 1136 06a8 97000000 		call	_ZN15MemoryAllocator9kmem_freeEPv@plt
 1136      E7800000 
 1137              	.LVL145:
 1138              	.LBE116:
 1139              	.LBE115:
  87:src/kObjectAllocatorTest.cpp ****         if (bit == 0) { ++byte; bit = 8; } --bit;
 1140              		.loc 2 87 71 is_stmt 1
  87:src/kObjectAllocatorTest.cpp ****         if (bit == 0) { ++byte; bit = 8; } --bit;
 1141              		.loc 2 87 78 is_stmt 0
 1142 06b0 6FF05FD1 		j	.L99
 1143              	.LVL146:
 1144              	.L107:
  88:src/kObjectAllocatorTest.cpp ****     }
 1145              		.loc 2 88 25 is_stmt 1 discriminator 1
 1146 06b4 938A1A00 		addi	s5,s5,1
 1147              	.LVL147:
  88:src/kObjectAllocatorTest.cpp ****     }
 1148              		.loc 2 88 33 discriminator 1
  88:src/kObjectAllocatorTest.cpp ****     }
 1149              		.loc 2 88 37 is_stmt 0 discriminator 1
 1150 06b8 13098000 		li	s2,8
 1151              	.LVL148:
 1152              	.L69:
  88:src/kObjectAllocatorTest.cpp ****     }
 1153              		.loc 2 88 44 is_stmt 1 discriminator 3
 1154 06bc 1309F9FF 		addi	s2,s2,-1
 1155              	.LVL149:
 1156              	.LBE108:
  82:src/kObjectAllocatorTest.cpp ****         if (objArr[i] != getObjectAt(byte, bit, objAlloc)) { delete objAlloc; return false; }
 1157              		.loc 2 82 5 discriminator 3
 1158 06c0 130B1B00 		addi	s6,s6,1
 1159              	.LVL150:
 1160              	.L54:
  82:src/kObjectAllocatorTest.cpp ****         if (objArr[i] != getObjectAt(byte, bit, objAlloc)) { delete objAlloc; return false; }
 1161              		.loc 2 82 26 discriminator 2
 1162 06c4 93079000 		li	a5,9
 1163 06c8 63E66709 		bgtu	s6,a5,.L96
 1164              	.LBB118:
  83:src/kObjectAllocatorTest.cpp ****         size_t objByte = getByteOfObject(objArr[i], objAlloc);
 1165              		.loc 2 83 9
  83:src/kObjectAllocatorTest.cpp ****         size_t objByte = getByteOfObject(objArr[i], objAlloc);
 1166              		.loc 2 83 21 is_stmt 0
 1167 06cc 93173B00 		slli	a5,s6,3
 1168 06d0 130704FB 		addi	a4,s0,-80
 1169 06d4 B307F700 		add	a5,a4,a5
 1170 06d8 03BA07FB 		ld	s4,-80(a5)
  83:src/kObjectAllocatorTest.cpp ****         size_t objByte = getByteOfObject(objArr[i], objAlloc);
 1171              		.loc 2 83 37
 1172 06dc 93860400 		mv	a3,s1
 1173 06e0 13060900 		mv	a2,s2
 1174 06e4 93850A00 		mv	a1,s5
 1175 06e8 13850900 		mv	a0,s3
 1176 06ec 97000000 		call	_ZN20KObjectAllocatorTest11getObjectAtEmmP16KObjectAllocator
 1176      E7800000 
GAS LISTING /tmp/ccxAvD3a.s 			page 30


 1177              	.LVL151:
  83:src/kObjectAllocatorTest.cpp ****         size_t objByte = getByteOfObject(objArr[i], objAlloc);
 1178              		.loc 2 83 9
 1179 06f4 E318AAE4 		bne	s4,a0,.L105
  84:src/kObjectAllocatorTest.cpp ****         size_t objBit = getBitOfObject(objArr[i], objAlloc);
 1180              		.loc 2 84 9 is_stmt 1
  84:src/kObjectAllocatorTest.cpp ****         size_t objBit = getBitOfObject(objArr[i], objAlloc);
 1181              		.loc 2 84 41 is_stmt 0
 1182 06f8 13860400 		mv	a2,s1
 1183 06fc 93050A00 		mv	a1,s4
 1184 0700 13850900 		mv	a0,s3
 1185 0704 97000000 		call	_ZN20KObjectAllocatorTest15getByteOfObjectEPvP16KObjectAllocator
 1185      E7800000 
 1186              	.LVL152:
 1187 070c 930B0500 		mv	s7,a0
 1188              	.LVL153:
  85:src/kObjectAllocatorTest.cpp ****         if (objByte != byte || objBit != bit) { delete objAlloc; return false; }
 1189              		.loc 2 85 9 is_stmt 1
  85:src/kObjectAllocatorTest.cpp ****         if (objByte != byte || objBit != bit) { delete objAlloc; return false; }
 1190              		.loc 2 85 39 is_stmt 0
 1191 0710 13860400 		mv	a2,s1
 1192 0714 93050A00 		mv	a1,s4
 1193 0718 13850900 		mv	a0,s3
 1194              	.LVL154:
 1195 071c 97000000 		call	_ZN20KObjectAllocatorTest14getBitOfObjectEPvP16KObjectAllocator
 1195      E7800000 
 1196              	.LVL155:
  86:src/kObjectAllocatorTest.cpp ****         if (!getValueOfBitAt(byte, bit, objAlloc)) { delete objAlloc; return false; }
 1197              		.loc 2 86 9 is_stmt 1
 1198 0724 E39E7AE9 		bne	s5,s7,.L60
  86:src/kObjectAllocatorTest.cpp ****         if (!getValueOfBitAt(byte, bit, objAlloc)) { delete objAlloc; return false; }
 1199              		.loc 2 86 29 is_stmt 0 discriminator 2
 1200 0728 E31CA9E8 		bne	s2,a0,.L60
  87:src/kObjectAllocatorTest.cpp ****         if (bit == 0) { ++byte; bit = 8; } --bit;
 1201              		.loc 2 87 9 is_stmt 1
  87:src/kObjectAllocatorTest.cpp ****         if (bit == 0) { ++byte; bit = 8; } --bit;
 1202              		.loc 2 87 29 is_stmt 0
 1203 072c 93860400 		mv	a3,s1
 1204 0730 13060900 		mv	a2,s2
 1205 0734 93850A00 		mv	a1,s5
 1206 0738 13850900 		mv	a0,s3
 1207              	.LVL156:
 1208 073c 97000000 		call	_ZN20KObjectAllocatorTest15getValueOfBitAtEmmP16KObjectAllocator
 1208      E7800000 
 1209              	.LVL157:
 1210 0744 130A0500 		mv	s4,a0
  87:src/kObjectAllocatorTest.cpp ****         if (bit == 0) { ++byte; bit = 8; } --bit;
 1211              		.loc 2 87 9
 1212 0748 E30A05EE 		beqz	a0,.L106
  88:src/kObjectAllocatorTest.cpp ****     }
 1213              		.loc 2 88 9 is_stmt 1
 1214 074c E31809F6 		bnez	s2,.L69
 1215 0750 6FF05FF6 		j	.L107
 1216              	.LVL158:
 1217              	.L96:
 1218              	.LBE118:
 1219              	.LBE119:
GAS LISTING /tmp/ccxAvD3a.s 			page 31


 1220              	.LBB120:
  90:src/kObjectAllocatorTest.cpp ****         if (getValueOfBitAt(byte, bit, objAlloc)) { delete objAlloc; return false; }
 1221              		.loc 2 90 17 is_stmt 0
 1222 0754 130A0000 		li	s4,0
 1223 0758 6F000009 		j	.L55
 1224              	.LVL159:
 1225              	.L108:
  91:src/kObjectAllocatorTest.cpp ****         if (bit == 0) { ++byte; bit = 8; } --bit;
 1226              		.loc 2 91 53 is_stmt 1 discriminator 2
  91:src/kObjectAllocatorTest.cpp ****         if (bit == 0) { ++byte; bit = 8; } --bit;
 1227              		.loc 2 91 68 is_stmt 0 discriminator 2
 1228 075c 638A0406 		beqz	s1,.L72
 1229              	.LBB121:
 1230              	.LBB122:
 1231              	.LBB123:
  68:src/../h/kObjectAllocator.hpp ****             MemoryAllocator::instance()->kmem_free(((KObjectAllocator*) p)->bitVectors[i]);
 1232              		.loc 1 68 21
 1233 0760 13090000 		li	s2,0
 1234              	.LVL160:
 1235              	.L74:
  68:src/../h/kObjectAllocator.hpp ****             MemoryAllocator::instance()->kmem_free(((KObjectAllocator*) p)->bitVectors[i]);
 1236              		.loc 1 68 30 is_stmt 1
  68:src/../h/kObjectAllocator.hpp ****             MemoryAllocator::instance()->kmem_free(((KObjectAllocator*) p)->bitVectors[i]);
 1237              		.loc 1 68 57 is_stmt 0
 1238 0764 83B70403 		ld	a5,48(s1)
  68:src/../h/kObjectAllocator.hpp ****             MemoryAllocator::instance()->kmem_free(((KObjectAllocator*) p)->bitVectors[i]);
 1239              		.loc 1 68 30
 1240 0768 6376F902 		bleu	a5,s2,.L73
  69:src/../h/kObjectAllocator.hpp ****         MemoryAllocator::instance()->kmem_free(((KObjectAllocator*) p)->bitVectors);
 1241              		.loc 1 69 13 is_stmt 1
  69:src/../h/kObjectAllocator.hpp ****         MemoryAllocator::instance()->kmem_free(((KObjectAllocator*) p)->bitVectors);
 1242              		.loc 1 69 51 is_stmt 0
 1243 076c 97000000 		call	_ZN15MemoryAllocator8instanceEv@plt
 1243      E7800000 
 1244              	.LVL161:
  69:src/../h/kObjectAllocator.hpp ****         MemoryAllocator::instance()->kmem_free(((KObjectAllocator*) p)->bitVectors);
 1245              		.loc 1 69 77
 1246 0774 83B78402 		ld	a5,40(s1)
  69:src/../h/kObjectAllocator.hpp ****         MemoryAllocator::instance()->kmem_free(((KObjectAllocator*) p)->bitVectors);
 1247              		.loc 1 69 89
 1248 0778 13173900 		slli	a4,s2,3
 1249 077c B387E700 		add	a5,a5,a4
  69:src/../h/kObjectAllocator.hpp ****         MemoryAllocator::instance()->kmem_free(((KObjectAllocator*) p)->bitVectors);
 1250              		.loc 1 69 51
 1251 0780 83B50700 		ld	a1,0(a5)
 1252 0784 97000000 		call	_ZN15MemoryAllocator9kmem_freeEPv@plt
 1252      E7800000 
 1253              	.LVL162:
  68:src/../h/kObjectAllocator.hpp ****             MemoryAllocator::instance()->kmem_free(((KObjectAllocator*) p)->bitVectors[i]);
 1254              		.loc 1 68 9 is_stmt 1
 1255 078c 13091900 		addi	s2,s2,1
 1256              	.LVL163:
 1257 0790 6FF05FFD 		j	.L74
 1258              	.L73:
 1259              	.LBE123:
  70:src/../h/kObjectAllocator.hpp ****         MemoryAllocator::instance()->kmem_free(((KObjectAllocator*) p)->objectVectors);
 1260              		.loc 1 70 9
GAS LISTING /tmp/ccxAvD3a.s 			page 32


  70:src/../h/kObjectAllocator.hpp ****         MemoryAllocator::instance()->kmem_free(((KObjectAllocator*) p)->objectVectors);
 1261              		.loc 1 70 47 is_stmt 0
 1262 0794 97000000 		call	_ZN15MemoryAllocator8instanceEv@plt
 1262      E7800000 
 1263              	.LVL164:
 1264 079c 83B58402 		ld	a1,40(s1)
 1265 07a0 97000000 		call	_ZN15MemoryAllocator9kmem_freeEPv@plt
 1265      E7800000 
 1266              	.LVL165:
  71:src/../h/kObjectAllocator.hpp ****         MemoryAllocator::instance()->kmem_free(p);
 1267              		.loc 1 71 9 is_stmt 1
  71:src/../h/kObjectAllocator.hpp ****         MemoryAllocator::instance()->kmem_free(p);
 1268              		.loc 1 71 47 is_stmt 0
 1269 07a8 97000000 		call	_ZN15MemoryAllocator8instanceEv@plt
 1269      E7800000 
 1270              	.LVL166:
 1271 07b0 83B50402 		ld	a1,32(s1)
 1272 07b4 97000000 		call	_ZN15MemoryAllocator9kmem_freeEPv@plt
 1272      E7800000 
 1273              	.LVL167:
  72:src/../h/kObjectAllocator.hpp ****     }
 1274              		.loc 1 72 9 is_stmt 1
  72:src/../h/kObjectAllocator.hpp ****     }
 1275              		.loc 1 72 47 is_stmt 0
 1276 07bc 97000000 		call	_ZN15MemoryAllocator8instanceEv@plt
 1276      E7800000 
 1277              	.LVL168:
 1278 07c4 93850400 		mv	a1,s1
 1279 07c8 97000000 		call	_ZN15MemoryAllocator9kmem_freeEPv@plt
 1279      E7800000 
 1280              	.LVL169:
 1281              	.L72:
 1282              	.LBE122:
 1283              	.LBE121:
  91:src/kObjectAllocatorTest.cpp ****         if (bit == 0) { ++byte; bit = 8; } --bit;
 1284              		.loc 2 91 70 is_stmt 1 discriminator 4
  91:src/kObjectAllocatorTest.cpp ****         if (bit == 0) { ++byte; bit = 8; } --bit;
 1285              		.loc 2 91 77 is_stmt 0 discriminator 4
 1286 07d0 130A0000 		li	s4,0
 1287              	.LVL170:
 1288 07d4 6FF01FBF 		j	.L99
 1289              	.LVL171:
 1290              	.L109:
  92:src/kObjectAllocatorTest.cpp ****     }
 1291              		.loc 2 92 25 is_stmt 1 discriminator 1
 1292 07d8 938A1A00 		addi	s5,s5,1
 1293              	.LVL172:
  92:src/kObjectAllocatorTest.cpp ****     }
 1294              		.loc 2 92 33 discriminator 1
  92:src/kObjectAllocatorTest.cpp ****     }
 1295              		.loc 2 92 37 is_stmt 0 discriminator 1
 1296 07dc 13098000 		li	s2,8
 1297              	.LVL173:
 1298              	.L75:
  92:src/kObjectAllocatorTest.cpp ****     }
 1299              		.loc 2 92 44 is_stmt 1 discriminator 3
 1300 07e0 1309F9FF 		addi	s2,s2,-1
GAS LISTING /tmp/ccxAvD3a.s 			page 33


 1301              	.LVL174:
  90:src/kObjectAllocatorTest.cpp ****         if (getValueOfBitAt(byte, bit, objAlloc)) { delete objAlloc; return false; }
 1302              		.loc 2 90 5 discriminator 3
 1303 07e4 130A1A00 		addi	s4,s4,1
 1304              	.LVL175:
 1305              	.L55:
  90:src/kObjectAllocatorTest.cpp ****         if (getValueOfBitAt(byte, bit, objAlloc)) { delete objAlloc; return false; }
 1306              		.loc 2 90 26 discriminator 2
 1307 07e8 93075000 		li	a5,5
 1308 07ec 63E44703 		bgtu	s4,a5,.L70
  91:src/kObjectAllocatorTest.cpp ****         if (bit == 0) { ++byte; bit = 8; } --bit;
 1309              		.loc 2 91 9
  91:src/kObjectAllocatorTest.cpp ****         if (bit == 0) { ++byte; bit = 8; } --bit;
 1310              		.loc 2 91 28 is_stmt 0
 1311 07f0 93860400 		mv	a3,s1
 1312 07f4 13060900 		mv	a2,s2
 1313 07f8 93850A00 		mv	a1,s5
 1314 07fc 13850900 		mv	a0,s3
 1315 0800 97000000 		call	_ZN20KObjectAllocatorTest15getValueOfBitAtEmmP16KObjectAllocator
 1315      E7800000 
 1316              	.LVL176:
  91:src/kObjectAllocatorTest.cpp ****         if (bit == 0) { ++byte; bit = 8; } --bit;
 1317              		.loc 2 91 9
 1318 0808 E31A05F4 		bnez	a0,.L108
  92:src/kObjectAllocatorTest.cpp ****     }
 1319              		.loc 2 92 9 is_stmt 1
 1320 080c E31A09FC 		bnez	s2,.L75
 1321 0810 6FF09FFC 		j	.L109
 1322              	.L70:
 1323              	.LBE120:
  94:src/kObjectAllocatorTest.cpp ****     objAlloc->freeObject(objArr[7]);
 1324              		.loc 2 94 5
  94:src/kObjectAllocatorTest.cpp ****     objAlloc->freeObject(objArr[7]);
 1325              		.loc 2 94 25 is_stmt 0
 1326 0814 833504F8 		ld	a1,-128(s0)
 1327 0818 13850400 		mv	a0,s1
 1328 081c 97000000 		call	_ZN16KObjectAllocator10freeObjectEPv@plt
 1328      E7800000 
 1329              	.LVL177:
  95:src/kObjectAllocatorTest.cpp ****     objAlloc->freeObject(objArr[8]);
 1330              		.loc 2 95 5 is_stmt 1
  95:src/kObjectAllocatorTest.cpp ****     objAlloc->freeObject(objArr[8]);
 1331              		.loc 2 95 25 is_stmt 0
 1332 0824 833584F9 		ld	a1,-104(s0)
 1333 0828 13850400 		mv	a0,s1
 1334 082c 97000000 		call	_ZN16KObjectAllocator10freeObjectEPv@plt
 1334      E7800000 
 1335              	.LVL178:
  96:src/kObjectAllocatorTest.cpp ****     objArr[4] = objAlloc->allocateNewObject();
 1336              		.loc 2 96 5 is_stmt 1
  96:src/kObjectAllocatorTest.cpp ****     objArr[4] = objAlloc->allocateNewObject();
 1337              		.loc 2 96 25 is_stmt 0
 1338 0834 833504FA 		ld	a1,-96(s0)
 1339 0838 13850400 		mv	a0,s1
 1340 083c 97000000 		call	_ZN16KObjectAllocator10freeObjectEPv@plt
 1340      E7800000 
 1341              	.LVL179:
GAS LISTING /tmp/ccxAvD3a.s 			page 34


  97:src/kObjectAllocatorTest.cpp ****     if (objArr[4] != getObjectAt(1, 7, objAlloc)) { delete objAlloc; return false; }
 1342              		.loc 2 97 5 is_stmt 1
  97:src/kObjectAllocatorTest.cpp ****     if (objArr[4] != getObjectAt(1, 7, objAlloc)) { delete objAlloc; return false; }
 1343              		.loc 2 97 44 is_stmt 0
 1344 0844 13850400 		mv	a0,s1
 1345 0848 97000000 		call	_ZN16KObjectAllocator17allocateNewObjectEv@plt
 1345      E7800000 
 1346              	.LVL180:
 1347 0850 13090500 		mv	s2,a0
 1348              	.LVL181:
  98:src/kObjectAllocatorTest.cpp ****     byte = getByteOfObject(objArr[4], objAlloc);
 1349              		.loc 2 98 5 is_stmt 1
  98:src/kObjectAllocatorTest.cpp ****     byte = getByteOfObject(objArr[4], objAlloc);
 1350              		.loc 2 98 33 is_stmt 0
 1351 0854 93860400 		mv	a3,s1
 1352 0858 13067000 		li	a2,7
 1353 085c 93051000 		li	a1,1
 1354 0860 13850900 		mv	a0,s3
 1355 0864 97000000 		call	_ZN20KObjectAllocatorTest11getObjectAtEmmP16KObjectAllocator
 1355      E7800000 
 1356              	.LVL182:
  98:src/kObjectAllocatorTest.cpp ****     byte = getByteOfObject(objArr[4], objAlloc);
 1357              		.loc 2 98 5
 1358 086c 6300A908 		beq	s2,a0,.L76
  98:src/kObjectAllocatorTest.cpp ****     byte = getByteOfObject(objArr[4], objAlloc);
 1359              		.loc 2 98 53 is_stmt 1 discriminator 2
  98:src/kObjectAllocatorTest.cpp ****     byte = getByteOfObject(objArr[4], objAlloc);
 1360              		.loc 2 98 68 is_stmt 0 discriminator 2
 1361 0870 638A0406 		beqz	s1,.L77
 1362              	.LBB124:
 1363              	.LBB125:
 1364              	.LBB126:
  68:src/../h/kObjectAllocator.hpp ****             MemoryAllocator::instance()->kmem_free(((KObjectAllocator*) p)->bitVectors[i]);
 1365              		.loc 1 68 21
 1366 0874 13090000 		li	s2,0
 1367 0878 6F008002 		j	.L79
 1368              	.LVL183:
 1369              	.L110:
  69:src/../h/kObjectAllocator.hpp ****         MemoryAllocator::instance()->kmem_free(((KObjectAllocator*) p)->bitVectors);
 1370              		.loc 1 69 13 is_stmt 1
  69:src/../h/kObjectAllocator.hpp ****         MemoryAllocator::instance()->kmem_free(((KObjectAllocator*) p)->bitVectors);
 1371              		.loc 1 69 51 is_stmt 0
 1372 087c 97000000 		call	_ZN15MemoryAllocator8instanceEv@plt
 1372      E7800000 
 1373              	.LVL184:
  69:src/../h/kObjectAllocator.hpp ****         MemoryAllocator::instance()->kmem_free(((KObjectAllocator*) p)->bitVectors);
 1374              		.loc 1 69 77
 1375 0884 83B78402 		ld	a5,40(s1)
  69:src/../h/kObjectAllocator.hpp ****         MemoryAllocator::instance()->kmem_free(((KObjectAllocator*) p)->bitVectors);
 1376              		.loc 1 69 89
 1377 0888 13173900 		slli	a4,s2,3
 1378 088c B387E700 		add	a5,a5,a4
  69:src/../h/kObjectAllocator.hpp ****         MemoryAllocator::instance()->kmem_free(((KObjectAllocator*) p)->bitVectors);
 1379              		.loc 1 69 51
 1380 0890 83B50700 		ld	a1,0(a5)
 1381 0894 97000000 		call	_ZN15MemoryAllocator9kmem_freeEPv@plt
 1381      E7800000 
GAS LISTING /tmp/ccxAvD3a.s 			page 35


 1382              	.LVL185:
  68:src/../h/kObjectAllocator.hpp ****             MemoryAllocator::instance()->kmem_free(((KObjectAllocator*) p)->bitVectors[i]);
 1383              		.loc 1 68 9 is_stmt 1
 1384 089c 13091900 		addi	s2,s2,1
 1385              	.LVL186:
 1386              	.L79:
  68:src/../h/kObjectAllocator.hpp ****             MemoryAllocator::instance()->kmem_free(((KObjectAllocator*) p)->bitVectors[i]);
 1387              		.loc 1 68 30
  68:src/../h/kObjectAllocator.hpp ****             MemoryAllocator::instance()->kmem_free(((KObjectAllocator*) p)->bitVectors[i]);
 1388              		.loc 1 68 57 is_stmt 0
 1389 08a0 83B70403 		ld	a5,48(s1)
  68:src/../h/kObjectAllocator.hpp ****             MemoryAllocator::instance()->kmem_free(((KObjectAllocator*) p)->bitVectors[i]);
 1390              		.loc 1 68 30
 1391 08a4 E36CF9FC 		bgtu	a5,s2,.L110
 1392              	.LBE126:
  70:src/../h/kObjectAllocator.hpp ****         MemoryAllocator::instance()->kmem_free(((KObjectAllocator*) p)->objectVectors);
 1393              		.loc 1 70 9 is_stmt 1
  70:src/../h/kObjectAllocator.hpp ****         MemoryAllocator::instance()->kmem_free(((KObjectAllocator*) p)->objectVectors);
 1394              		.loc 1 70 47 is_stmt 0
 1395 08a8 97000000 		call	_ZN15MemoryAllocator8instanceEv@plt
 1395      E7800000 
 1396              	.LVL187:
 1397 08b0 83B58402 		ld	a1,40(s1)
 1398 08b4 97000000 		call	_ZN15MemoryAllocator9kmem_freeEPv@plt
 1398      E7800000 
 1399              	.LVL188:
  71:src/../h/kObjectAllocator.hpp ****         MemoryAllocator::instance()->kmem_free(p);
 1400              		.loc 1 71 9 is_stmt 1
  71:src/../h/kObjectAllocator.hpp ****         MemoryAllocator::instance()->kmem_free(p);
 1401              		.loc 1 71 47 is_stmt 0
 1402 08bc 97000000 		call	_ZN15MemoryAllocator8instanceEv@plt
 1402      E7800000 
 1403              	.LVL189:
 1404 08c4 83B50402 		ld	a1,32(s1)
 1405 08c8 97000000 		call	_ZN15MemoryAllocator9kmem_freeEPv@plt
 1405      E7800000 
 1406              	.LVL190:
  72:src/../h/kObjectAllocator.hpp ****     }
 1407              		.loc 1 72 9 is_stmt 1
  72:src/../h/kObjectAllocator.hpp ****     }
 1408              		.loc 1 72 47 is_stmt 0
 1409 08d0 97000000 		call	_ZN15MemoryAllocator8instanceEv@plt
 1409      E7800000 
 1410              	.LVL191:
 1411 08d8 93850400 		mv	a1,s1
 1412 08dc 97000000 		call	_ZN15MemoryAllocator9kmem_freeEPv@plt
 1412      E7800000 
 1413              	.LVL192:
 1414              	.L77:
 1415              	.LBE125:
 1416              	.LBE124:
  98:src/kObjectAllocatorTest.cpp ****     byte = getByteOfObject(objArr[4], objAlloc);
 1417              		.loc 2 98 70 is_stmt 1 discriminator 4
  98:src/kObjectAllocatorTest.cpp ****     byte = getByteOfObject(objArr[4], objAlloc);
 1418              		.loc 2 98 77 is_stmt 0 discriminator 4
 1419 08e4 130A0000 		li	s4,0
 1420              	.LVL193:
GAS LISTING /tmp/ccxAvD3a.s 			page 36


 1421 08e8 6FF0DFAD 		j	.L99
 1422              	.LVL194:
 1423              	.L76:
  99:src/kObjectAllocatorTest.cpp ****     bit = getBitOfObject(objArr[4], objAlloc);
 1424              		.loc 2 99 5 is_stmt 1
  99:src/kObjectAllocatorTest.cpp ****     bit = getBitOfObject(objArr[4], objAlloc);
 1425              		.loc 2 99 27 is_stmt 0
 1426 08ec 13860400 		mv	a2,s1
 1427 08f0 93050900 		mv	a1,s2
 1428 08f4 13850900 		mv	a0,s3
 1429 08f8 97000000 		call	_ZN20KObjectAllocatorTest15getByteOfObjectEPvP16KObjectAllocator
 1429      E7800000 
 1430              	.LVL195:
 1431 0900 130A0500 		mv	s4,a0
 1432              	.LVL196:
 100:src/kObjectAllocatorTest.cpp ****     if (byte != 1 || bit != 7) { delete objAlloc; return false; }
 1433              		.loc 2 100 5 is_stmt 1
 100:src/kObjectAllocatorTest.cpp ****     if (byte != 1 || bit != 7) { delete objAlloc; return false; }
 1434              		.loc 2 100 25 is_stmt 0
 1435 0904 13860400 		mv	a2,s1
 1436 0908 93050900 		mv	a1,s2
 1437 090c 13850900 		mv	a0,s3
 1438              	.LVL197:
 1439 0910 97000000 		call	_ZN20KObjectAllocatorTest14getBitOfObjectEPvP16KObjectAllocator
 1439      E7800000 
 1440              	.LVL198:
 1441 0918 13090500 		mv	s2,a0
 1442              	.LVL199:
 101:src/kObjectAllocatorTest.cpp ****     bool expectedBitValues[16] = {
 1443              		.loc 2 101 5 is_stmt 1
 1444 091c 93071000 		li	a5,1
 1445 0920 6316FA00 		bne	s4,a5,.L80
 101:src/kObjectAllocatorTest.cpp ****     bool expectedBitValues[16] = {
 1446              		.loc 2 101 19 is_stmt 0 discriminator 2
 1447 0924 93077000 		li	a5,7
 1448 0928 6300F508 		beq	a0,a5,.L81
 1449              	.L80:
 101:src/kObjectAllocatorTest.cpp ****     bool expectedBitValues[16] = {
 1450              		.loc 2 101 34 is_stmt 1 discriminator 3
 101:src/kObjectAllocatorTest.cpp ****     bool expectedBitValues[16] = {
 1451              		.loc 2 101 49 is_stmt 0 discriminator 3
 1452 092c 638A0406 		beqz	s1,.L82
 1453              	.LBB127:
 1454              	.LBB128:
 1455              	.LBB129:
  68:src/../h/kObjectAllocator.hpp ****             MemoryAllocator::instance()->kmem_free(((KObjectAllocator*) p)->bitVectors[i]);
 1456              		.loc 1 68 21
 1457 0930 13090000 		li	s2,0
 1458 0934 6F008002 		j	.L84
 1459              	.LVL200:
 1460              	.L111:
  69:src/../h/kObjectAllocator.hpp ****         MemoryAllocator::instance()->kmem_free(((KObjectAllocator*) p)->bitVectors);
 1461              		.loc 1 69 13 is_stmt 1
  69:src/../h/kObjectAllocator.hpp ****         MemoryAllocator::instance()->kmem_free(((KObjectAllocator*) p)->bitVectors);
 1462              		.loc 1 69 51 is_stmt 0
 1463 0938 97000000 		call	_ZN15MemoryAllocator8instanceEv@plt
 1463      E7800000 
GAS LISTING /tmp/ccxAvD3a.s 			page 37


 1464              	.LVL201:
  69:src/../h/kObjectAllocator.hpp ****         MemoryAllocator::instance()->kmem_free(((KObjectAllocator*) p)->bitVectors);
 1465              		.loc 1 69 77
 1466 0940 83B78402 		ld	a5,40(s1)
  69:src/../h/kObjectAllocator.hpp ****         MemoryAllocator::instance()->kmem_free(((KObjectAllocator*) p)->bitVectors);
 1467              		.loc 1 69 89
 1468 0944 13173900 		slli	a4,s2,3
 1469 0948 B387E700 		add	a5,a5,a4
  69:src/../h/kObjectAllocator.hpp ****         MemoryAllocator::instance()->kmem_free(((KObjectAllocator*) p)->bitVectors);
 1470              		.loc 1 69 51
 1471 094c 83B50700 		ld	a1,0(a5)
 1472 0950 97000000 		call	_ZN15MemoryAllocator9kmem_freeEPv@plt
 1472      E7800000 
 1473              	.LVL202:
  68:src/../h/kObjectAllocator.hpp ****             MemoryAllocator::instance()->kmem_free(((KObjectAllocator*) p)->bitVectors[i]);
 1474              		.loc 1 68 9 is_stmt 1
 1475 0958 13091900 		addi	s2,s2,1
 1476              	.LVL203:
 1477              	.L84:
  68:src/../h/kObjectAllocator.hpp ****             MemoryAllocator::instance()->kmem_free(((KObjectAllocator*) p)->bitVectors[i]);
 1478              		.loc 1 68 30
  68:src/../h/kObjectAllocator.hpp ****             MemoryAllocator::instance()->kmem_free(((KObjectAllocator*) p)->bitVectors[i]);
 1479              		.loc 1 68 57 is_stmt 0
 1480 095c 83B70403 		ld	a5,48(s1)
  68:src/../h/kObjectAllocator.hpp ****             MemoryAllocator::instance()->kmem_free(((KObjectAllocator*) p)->bitVectors[i]);
 1481              		.loc 1 68 30
 1482 0960 E36CF9FC 		bgtu	a5,s2,.L111
 1483              	.LBE129:
  70:src/../h/kObjectAllocator.hpp ****         MemoryAllocator::instance()->kmem_free(((KObjectAllocator*) p)->objectVectors);
 1484              		.loc 1 70 9 is_stmt 1
  70:src/../h/kObjectAllocator.hpp ****         MemoryAllocator::instance()->kmem_free(((KObjectAllocator*) p)->objectVectors);
 1485              		.loc 1 70 47 is_stmt 0
 1486 0964 97000000 		call	_ZN15MemoryAllocator8instanceEv@plt
 1486      E7800000 
 1487              	.LVL204:
 1488 096c 83B58402 		ld	a1,40(s1)
 1489 0970 97000000 		call	_ZN15MemoryAllocator9kmem_freeEPv@plt
 1489      E7800000 
 1490              	.LVL205:
  71:src/../h/kObjectAllocator.hpp ****         MemoryAllocator::instance()->kmem_free(p);
 1491              		.loc 1 71 9 is_stmt 1
  71:src/../h/kObjectAllocator.hpp ****         MemoryAllocator::instance()->kmem_free(p);
 1492              		.loc 1 71 47 is_stmt 0
 1493 0978 97000000 		call	_ZN15MemoryAllocator8instanceEv@plt
 1493      E7800000 
 1494              	.LVL206:
 1495 0980 83B50402 		ld	a1,32(s1)
 1496 0984 97000000 		call	_ZN15MemoryAllocator9kmem_freeEPv@plt
 1496      E7800000 
 1497              	.LVL207:
  72:src/../h/kObjectAllocator.hpp ****     }
 1498              		.loc 1 72 9 is_stmt 1
  72:src/../h/kObjectAllocator.hpp ****     }
 1499              		.loc 1 72 47 is_stmt 0
 1500 098c 97000000 		call	_ZN15MemoryAllocator8instanceEv@plt
 1500      E7800000 
 1501              	.LVL208:
GAS LISTING /tmp/ccxAvD3a.s 			page 38


 1502 0994 93850400 		mv	a1,s1
 1503 0998 97000000 		call	_ZN15MemoryAllocator9kmem_freeEPv@plt
 1503      E7800000 
 1504              	.LVL209:
 1505              	.L82:
 1506              	.LBE128:
 1507              	.LBE127:
 101:src/kObjectAllocatorTest.cpp ****     bool expectedBitValues[16] = {
 1508              		.loc 2 101 51 is_stmt 1 discriminator 5
 101:src/kObjectAllocatorTest.cpp ****     bool expectedBitValues[16] = {
 1509              		.loc 2 101 58 is_stmt 0 discriminator 5
 1510 09a0 130A0000 		li	s4,0
 1511              	.LVL210:
 1512 09a4 6FF01FA2 		j	.L99
 1513              	.LVL211:
 1514              	.L81:
 102:src/kObjectAllocatorTest.cpp ****             true, true, true, true, false, true, true, false,
 1515              		.loc 2 102 5 is_stmt 1
 102:src/kObjectAllocatorTest.cpp ****             true, true, true, true, false, true, true, false,
 1516              		.loc 2 102 10 is_stmt 0
 1517 09a8 97070000 		lla	a5,.LANCHOR0
 1517      93870700 
 1518 09b0 03B70700 		ld	a4,0(a5)
 1519 09b4 2338E4F4 		sd	a4,-176(s0)
 1520 09b8 83B78700 		ld	a5,8(a5)
 1521 09bc 233CF4F4 		sd	a5,-168(s0)
 106:src/kObjectAllocatorTest.cpp ****     for (size_t i = 0; i < 16; ++i) {
 1522              		.loc 2 106 5 is_stmt 1
 1523              	.LVL212:
 106:src/kObjectAllocatorTest.cpp ****     for (size_t i = 0; i < 16; ++i) {
 1524              		.loc 2 106 15
 107:src/kObjectAllocatorTest.cpp ****         if (expectedBitValues[i] != getValueOfBitAt(byte, bit, objAlloc))
 1525              		.loc 2 107 5
 1526              	.LBB130:
 107:src/kObjectAllocatorTest.cpp ****         if (expectedBitValues[i] != getValueOfBitAt(byte, bit, objAlloc))
 1527              		.loc 2 107 17 is_stmt 0
 1528 09c0 130A0000 		li	s4,0
 1529              	.LBE130:
 106:src/kObjectAllocatorTest.cpp ****     for (size_t i = 0; i < 16; ++i) {
 1530              		.loc 2 106 10
 1531 09c4 930A0000 		li	s5,0
 1532 09c8 6F00C002 		j	.L89
 1533              	.LVL213:
 1534              	.L112:
 1535              	.LBB131:
 109:src/kObjectAllocatorTest.cpp ****     }
 1536              		.loc 2 109 15 is_stmt 1
 109:src/kObjectAllocatorTest.cpp ****     }
 1537              		.loc 2 109 30 is_stmt 0
 1538 09cc 63880400 		beqz	s1,.L87
 109:src/kObjectAllocatorTest.cpp ****     }
 1539              		.loc 2 109 22 discriminator 1
 1540 09d0 13850400 		mv	a0,s1
 1541 09d4 97000000 		call	_ZN16KObjectAllocatordlEPv
 1541      E7800000 
 1542              	.LVL214:
 1543              	.L87:
GAS LISTING /tmp/ccxAvD3a.s 			page 39


 109:src/kObjectAllocatorTest.cpp ****     }
 1544              		.loc 2 109 32 is_stmt 1 discriminator 2
 109:src/kObjectAllocatorTest.cpp ****     }
 1545              		.loc 2 109 39 is_stmt 0 discriminator 2
 1546 09dc 130A0000 		li	s4,0
 1547              	.LVL215:
 1548 09e0 6FF05F9E 		j	.L99
 1549              	.LVL216:
 1550              	.L113:
 109:src/kObjectAllocatorTest.cpp ****     }
 1551              		.loc 2 109 64 is_stmt 1 discriminator 3
 1552 09e4 938A1A00 		addi	s5,s5,1
 1553              	.LVL217:
 109:src/kObjectAllocatorTest.cpp ****     }
 1554              		.loc 2 109 72 discriminator 3
 109:src/kObjectAllocatorTest.cpp ****     }
 1555              		.loc 2 109 76 is_stmt 0 discriminator 3
 1556 09e8 13098000 		li	s2,8
 1557              	.LVL218:
 1558              	.L88:
 109:src/kObjectAllocatorTest.cpp ****     }
 1559              		.loc 2 109 83 is_stmt 1 discriminator 5
 1560 09ec 1309F9FF 		addi	s2,s2,-1
 1561              	.LVL219:
 107:src/kObjectAllocatorTest.cpp ****         if (expectedBitValues[i] != getValueOfBitAt(byte, bit, objAlloc))
 1562              		.loc 2 107 5 discriminator 5
 1563 09f0 130A1A00 		addi	s4,s4,1
 1564              	.LVL220:
 1565              	.L89:
 107:src/kObjectAllocatorTest.cpp ****         if (expectedBitValues[i] != getValueOfBitAt(byte, bit, objAlloc))
 1566              		.loc 2 107 26 discriminator 2
 1567 09f4 9307F000 		li	a5,15
 1568 09f8 63EA4703 		bgtu	s4,a5,.L85
 108:src/kObjectAllocatorTest.cpp ****             { delete objAlloc; return false; } if (bit == 0) { ++byte; bit = 8; } --bit;
 1569              		.loc 2 108 9
 108:src/kObjectAllocatorTest.cpp ****             { delete objAlloc; return false; } if (bit == 0) { ++byte; bit = 8; } --bit;
 1570              		.loc 2 108 32 is_stmt 0
 1571 09fc 930704FB 		addi	a5,s0,-80
 1572 0a00 B3874701 		add	a5,a5,s4
 1573 0a04 03CB07FA 		lbu	s6,-96(a5)
 108:src/kObjectAllocatorTest.cpp ****             { delete objAlloc; return false; } if (bit == 0) { ++byte; bit = 8; } --bit;
 1574              		.loc 2 108 52
 1575 0a08 93860400 		mv	a3,s1
 1576 0a0c 13060900 		mv	a2,s2
 1577 0a10 93850A00 		mv	a1,s5
 1578 0a14 13850900 		mv	a0,s3
 1579 0a18 97000000 		call	_ZN20KObjectAllocatorTest15getValueOfBitAtEmmP16KObjectAllocator
 1579      E7800000 
 1580              	.LVL221:
 108:src/kObjectAllocatorTest.cpp ****             { delete objAlloc; return false; } if (bit == 0) { ++byte; bit = 8; } --bit;
 1581              		.loc 2 108 9
 1582 0a20 E316ABFA 		bne	s6,a0,.L112
 109:src/kObjectAllocatorTest.cpp ****     }
 1583              		.loc 2 109 48 is_stmt 1
 1584 0a24 E31409FC 		bnez	s2,.L88
 1585 0a28 6FF0DFFB 		j	.L113
 1586              	.L85:
GAS LISTING /tmp/ccxAvD3a.s 			page 40


 1587              	.LBE131:
 111:src/kObjectAllocatorTest.cpp ****     return true;
 1588              		.loc 2 111 5
 111:src/kObjectAllocatorTest.cpp ****     return true;
 1589              		.loc 2 111 20 is_stmt 0
 1590 0a2c 638E0406 		beqz	s1,.L97
 1591              	.LBB132:
 1592              	.LBB133:
 1593              	.LBB134:
  68:src/../h/kObjectAllocator.hpp ****             MemoryAllocator::instance()->kmem_free(((KObjectAllocator*) p)->bitVectors[i]);
 1594              		.loc 1 68 21
 1595 0a30 13090000 		li	s2,0
 1596              	.LVL222:
 1597 0a34 6F008002 		j	.L91
 1598              	.LVL223:
 1599              	.L114:
  69:src/../h/kObjectAllocator.hpp ****         MemoryAllocator::instance()->kmem_free(((KObjectAllocator*) p)->bitVectors);
 1600              		.loc 1 69 13 is_stmt 1
  69:src/../h/kObjectAllocator.hpp ****         MemoryAllocator::instance()->kmem_free(((KObjectAllocator*) p)->bitVectors);
 1601              		.loc 1 69 51 is_stmt 0
 1602 0a38 97000000 		call	_ZN15MemoryAllocator8instanceEv@plt
 1602      E7800000 
 1603              	.LVL224:
  69:src/../h/kObjectAllocator.hpp ****         MemoryAllocator::instance()->kmem_free(((KObjectAllocator*) p)->bitVectors);
 1604              		.loc 1 69 77
 1605 0a40 83B78402 		ld	a5,40(s1)
  69:src/../h/kObjectAllocator.hpp ****         MemoryAllocator::instance()->kmem_free(((KObjectAllocator*) p)->bitVectors);
 1606              		.loc 1 69 89
 1607 0a44 13173900 		slli	a4,s2,3
 1608 0a48 B387E700 		add	a5,a5,a4
  69:src/../h/kObjectAllocator.hpp ****         MemoryAllocator::instance()->kmem_free(((KObjectAllocator*) p)->bitVectors);
 1609              		.loc 1 69 51
 1610 0a4c 83B50700 		ld	a1,0(a5)
 1611 0a50 97000000 		call	_ZN15MemoryAllocator9kmem_freeEPv@plt
 1611      E7800000 
 1612              	.LVL225:
  68:src/../h/kObjectAllocator.hpp ****             MemoryAllocator::instance()->kmem_free(((KObjectAllocator*) p)->bitVectors[i]);
 1613              		.loc 1 68 9 is_stmt 1
 1614 0a58 13091900 		addi	s2,s2,1
 1615              	.LVL226:
 1616              	.L91:
  68:src/../h/kObjectAllocator.hpp ****             MemoryAllocator::instance()->kmem_free(((KObjectAllocator*) p)->bitVectors[i]);
 1617              		.loc 1 68 30
  68:src/../h/kObjectAllocator.hpp ****             MemoryAllocator::instance()->kmem_free(((KObjectAllocator*) p)->bitVectors[i]);
 1618              		.loc 1 68 57 is_stmt 0
 1619 0a5c 83B70403 		ld	a5,48(s1)
  68:src/../h/kObjectAllocator.hpp ****             MemoryAllocator::instance()->kmem_free(((KObjectAllocator*) p)->bitVectors[i]);
 1620              		.loc 1 68 30
 1621 0a60 E36CF9FC 		bgtu	a5,s2,.L114
 1622              	.LBE134:
  70:src/../h/kObjectAllocator.hpp ****         MemoryAllocator::instance()->kmem_free(((KObjectAllocator*) p)->objectVectors);
 1623              		.loc 1 70 9 is_stmt 1
  70:src/../h/kObjectAllocator.hpp ****         MemoryAllocator::instance()->kmem_free(((KObjectAllocator*) p)->objectVectors);
 1624              		.loc 1 70 47 is_stmt 0
 1625 0a64 97000000 		call	_ZN15MemoryAllocator8instanceEv@plt
 1625      E7800000 
 1626              	.LVL227:
GAS LISTING /tmp/ccxAvD3a.s 			page 41


 1627 0a6c 83B58402 		ld	a1,40(s1)
 1628 0a70 97000000 		call	_ZN15MemoryAllocator9kmem_freeEPv@plt
 1628      E7800000 
 1629              	.LVL228:
  71:src/../h/kObjectAllocator.hpp ****         MemoryAllocator::instance()->kmem_free(p);
 1630              		.loc 1 71 9 is_stmt 1
  71:src/../h/kObjectAllocator.hpp ****         MemoryAllocator::instance()->kmem_free(p);
 1631              		.loc 1 71 47 is_stmt 0
 1632 0a78 97000000 		call	_ZN15MemoryAllocator8instanceEv@plt
 1632      E7800000 
 1633              	.LVL229:
 1634 0a80 83B50402 		ld	a1,32(s1)
 1635 0a84 97000000 		call	_ZN15MemoryAllocator9kmem_freeEPv@plt
 1635      E7800000 
 1636              	.LVL230:
  72:src/../h/kObjectAllocator.hpp ****     }
 1637              		.loc 1 72 9 is_stmt 1
  72:src/../h/kObjectAllocator.hpp ****     }
 1638              		.loc 1 72 47 is_stmt 0
 1639 0a8c 97000000 		call	_ZN15MemoryAllocator8instanceEv@plt
 1639      E7800000 
 1640              	.LVL231:
 1641 0a94 93850400 		mv	a1,s1
 1642 0a98 97000000 		call	_ZN15MemoryAllocator9kmem_freeEPv@plt
 1642      E7800000 
 1643              	.LVL232:
 1644              	.LEHE2:
 1645              	.LBE133:
 1646              	.LBE132:
 112:src/kObjectAllocatorTest.cpp **** }
 1647              		.loc 2 112 12
 1648 0aa0 130A1000 		li	s4,1
 1649              	.LVL233:
 1650              	.LBB136:
 1651              	.LBB135:
  73:src/../h/kObjectAllocator.hpp ****     void printInternalMemory();
 1652              		.loc 1 73 5
 1653 0aa4 6FF01F92 		j	.L99
 1654              	.LVL234:
 1655              	.L97:
 1656              	.LBE135:
 1657              	.LBE136:
 112:src/kObjectAllocatorTest.cpp **** }
 1658              		.loc 2 112 12
 1659 0aa8 130A1000 		li	s4,1
 1660              	.LVL235:
 1661 0aac 6FF09F91 		j	.L99
 1662              	.LVL236:
 1663              	.L98:
 1664 0ab0 13090500 		mv	s2,a0
 1665              	.LVL237:
  76:src/kObjectAllocatorTest.cpp ****     if (objAlloc->getNumberOfObjects() != 16) { delete objAlloc; return false; }
 1666              		.loc 2 76 62
 1667 0ab4 13850400 		mv	a0,s1
 1668 0ab8 97000000 		call	_ZN16KObjectAllocatordlEPv
 1668      E7800000 
 1669              	.LVL238:
GAS LISTING /tmp/ccxAvD3a.s 			page 42


 1670 0ac0 13050900 		mv	a0,s2
 1671              	.LEHB3:
 1672 0ac4 97000000 		call	_Unwind_Resume@plt
 1672      E7800000 
 1673              	.LVL239:
 1674              	.LEHE3:
 1675              		.cfi_endproc
 1676              	.LFE27:
 1677              		.globl	__gxx_personality_v0
 1678              		.section	.gcc_except_table,"a",@progbits
 1679              	.LLSDA27:
 1680 0000 FF       		.byte	0xff
 1681 0001 FF       		.byte	0xff
 1682 0002 03       		.byte	0x3
 1683 0003 34       		.byte	0x34
 1684 0004 00000000 		.4byte	.LEHB0-.LFB27
 1685 0008 00000000 		.4byte	.LEHE0-.LEHB0
 1686 000c 00000000 		.4byte	0
 1687 0010 00       		.byte	0
 1688 0011 00000000 		.4byte	.LEHB1-.LFB27
 1689 0015 00000000 		.4byte	.LEHE1-.LEHB1
 1690 0019 00000000 		.4byte	.L98-.LFB27
 1691 001d 00       		.byte	0
 1692 001e 00000000 		.4byte	.LEHB2-.LFB27
 1693 0022 00000000 		.4byte	.LEHE2-.LEHB2
 1694 0026 00000000 		.4byte	0
 1695 002a 00       		.byte	0
 1696 002b 00000000 		.4byte	.LEHB3-.LFB27
 1697 002f 00000000 		.4byte	.LEHE3-.LEHB3
 1698 0033 00000000 		.4byte	0
 1699 0037 00       		.byte	0
 1700              		.text
 1702              		.align	2
 1703              		.globl	_ZN20KObjectAllocatorTest5test1Em
 1705              	_ZN20KObjectAllocatorTest5test1Em:
 1706              	.LFB28:
 114:src/kObjectAllocatorTest.cpp **** 
 115:src/kObjectAllocatorTest.cpp **** bool KObjectAllocatorTest::test1(size_t size) {
 1707              		.loc 2 115 47 is_stmt 1
 1708              		.cfi_startproc
 1709              		.cfi_personality 0x9b,DW.ref.__gxx_personality_v0
 1710              		.cfi_lsda 0x1b,.LLSDA28
 1711              	.LVL240:
 1712 0acc 13010181 		addi	sp,sp,-2032
 1713              		.cfi_def_cfa_offset 2032
 1714 0ad0 2334117E 		sd	ra,2024(sp)
 1715 0ad4 2330817E 		sd	s0,2016(sp)
 1716 0ad8 233C917C 		sd	s1,2008(sp)
 1717 0adc 2338217D 		sd	s2,2000(sp)
 1718 0ae0 2334317D 		sd	s3,1992(sp)
 1719 0ae4 2330417D 		sd	s4,1984(sp)
 1720 0ae8 233C517B 		sd	s5,1976(sp)
 1721              		.cfi_offset 1, -8
 1722              		.cfi_offset 8, -16
 1723              		.cfi_offset 9, -24
 1724              		.cfi_offset 18, -32
 1725              		.cfi_offset 19, -40
GAS LISTING /tmp/ccxAvD3a.s 			page 43


 1726              		.cfi_offset 20, -48
 1727              		.cfi_offset 21, -56
 1728 0aec 1304017F 		addi	s0,sp,2032
 1729              		.cfi_def_cfa 8, 0
 1730 0af0 130101DB 		addi	sp,sp,-592
 1731 0af4 93090500 		mv	s3,a0
 1732 0af8 13890500 		mv	s2,a1
 116:src/kObjectAllocatorTest.cpp ****     KObjectAllocator* objAlloc = new KObjectAllocator(size);
 1733              		.loc 2 116 5
 1734              	.LVL241:
 1735              	.LBB177:
 1736              	.LBB178:
  65:src/../h/kObjectAllocator.hpp ****     }
 1737              		.loc 1 65 9
 1738              	.LEHB4:
  65:src/../h/kObjectAllocator.hpp ****     }
 1739              		.loc 1 65 55 is_stmt 0
 1740 0afc 97000000 		call	_ZN15MemoryAllocator8instanceEv@plt
 1740      E7800000 
 1741              	.LVL242:
 1742 0b04 93050004 		li	a1,64
 1743 0b08 97000000 		call	_ZN15MemoryAllocator10kmem_allocEm@plt
 1743      E7800000 
 1744              	.LVL243:
 1745              	.LEHE4:
 1746 0b10 93040500 		mv	s1,a0
 1747              	.LVL244:
 1748              	.LBE178:
 1749              	.LBE177:
 1750              	.LBB179:
 1751              	.LBB180:
 1752              	.LBB181:
  51:src/../h/kObjectAllocator.hpp ****         bitVectors = (uint8**) MemoryAllocator::instance()->kmem_alloc(numberOfAllocations * sizeof
 1753              		.loc 1 51 120
 1754 0b14 93070014 		li	a5,320
 1755 0b18 2330F500 		sd	a5,0(a0)
 1756 0b1c 2334F500 		sd	a5,8(a0)
 1757 0b20 233C2501 		sd	s2,24(a0)
 1758 0b24 93071000 		li	a5,1
 1759 0b28 2338F502 		sd	a5,48(a0)
 1760 0b2c 233C0502 		sd	zero,56(a0)
 1761              	.LBB182:
  52:src/../h/kObjectAllocator.hpp ****         objectVectors = (uint8**) MemoryAllocator::instance()->kmem_alloc(numberOfAllocations * siz
 1762              		.loc 1 52 9 is_stmt 1
 1763              	.LEHB5:
  52:src/../h/kObjectAllocator.hpp ****         objectVectors = (uint8**) MemoryAllocator::instance()->kmem_alloc(numberOfAllocations * siz
 1764              		.loc 1 52 71 is_stmt 0
 1765 0b30 97000000 		call	_ZN15MemoryAllocator8instanceEv@plt
 1765      E7800000 
 1766              	.LVL245:
  52:src/../h/kObjectAllocator.hpp ****         objectVectors = (uint8**) MemoryAllocator::instance()->kmem_alloc(numberOfAllocations * siz
 1767              		.loc 1 52 72
 1768 0b38 83B50403 		ld	a1,48(s1)
  52:src/../h/kObjectAllocator.hpp ****         objectVectors = (uint8**) MemoryAllocator::instance()->kmem_alloc(numberOfAllocations * siz
 1769              		.loc 1 52 71
 1770 0b3c 93953500 		slli	a1,a1,3
 1771 0b40 97000000 		call	_ZN15MemoryAllocator10kmem_allocEm@plt
GAS LISTING /tmp/ccxAvD3a.s 			page 44


 1771      E7800000 
 1772              	.LVL246:
  52:src/../h/kObjectAllocator.hpp ****         objectVectors = (uint8**) MemoryAllocator::instance()->kmem_alloc(numberOfAllocations * siz
 1773              		.loc 1 52 20
 1774 0b48 23B4A402 		sd	a0,40(s1)
  53:src/../h/kObjectAllocator.hpp ****         initialNumberOfObjects = numberOfObjects = numberOfObjects / 8 * 8 + 8 * (numberOfObjects /
 1775              		.loc 1 53 9 is_stmt 1
  53:src/../h/kObjectAllocator.hpp ****         initialNumberOfObjects = numberOfObjects = numberOfObjects / 8 * 8 + 8 * (numberOfObjects /
 1776              		.loc 1 53 74 is_stmt 0
 1777 0b4c 97000000 		call	_ZN15MemoryAllocator8instanceEv@plt
 1777      E7800000 
 1778              	.LVL247:
  53:src/../h/kObjectAllocator.hpp ****         initialNumberOfObjects = numberOfObjects = numberOfObjects / 8 * 8 + 8 * (numberOfObjects /
 1779              		.loc 1 53 75
 1780 0b54 83B50403 		ld	a1,48(s1)
  53:src/../h/kObjectAllocator.hpp ****         initialNumberOfObjects = numberOfObjects = numberOfObjects / 8 * 8 + 8 * (numberOfObjects /
 1781              		.loc 1 53 74
 1782 0b58 93953500 		slli	a1,a1,3
 1783 0b5c 97000000 		call	_ZN15MemoryAllocator10kmem_allocEm@plt
 1783      E7800000 
 1784              	.LVL248:
  53:src/../h/kObjectAllocator.hpp ****         initialNumberOfObjects = numberOfObjects = numberOfObjects / 8 * 8 + 8 * (numberOfObjects /
 1785              		.loc 1 53 23
 1786 0b64 23B0A402 		sd	a0,32(s1)
  54:src/../h/kObjectAllocator.hpp ****         // one bit for each object which indicates whether memory
 1787              		.loc 1 54 9 is_stmt 1
  54:src/../h/kObjectAllocator.hpp ****         // one bit for each object which indicates whether memory
 1788              		.loc 1 54 52 is_stmt 0
 1789 0b68 03B78400 		ld	a4,8(s1)
  54:src/../h/kObjectAllocator.hpp ****         // one bit for each object which indicates whether memory
 1790              		.loc 1 54 72
 1791 0b6c 937787FF 		andi	a5,a4,-8
  54:src/../h/kObjectAllocator.hpp ****         // one bit for each object which indicates whether memory
 1792              		.loc 1 54 80
 1793 0b70 6304F702 		beq	a4,a5,.L185
 1794 0b74 13078000 		li	a4,8
 1795              	.L116:
  54:src/../h/kObjectAllocator.hpp ****         // one bit for each object which indicates whether memory
 1796              		.loc 1 54 76
 1797 0b78 B387E700 		add	a5,a5,a4
  54:src/../h/kObjectAllocator.hpp ****         // one bit for each object which indicates whether memory
 1798              		.loc 1 54 50
 1799 0b7c 23B4F400 		sd	a5,8(s1)
  54:src/../h/kObjectAllocator.hpp ****         // one bit for each object which indicates whether memory
 1800              		.loc 1 54 32
 1801 0b80 23B0F400 		sd	a5,0(s1)
  57:src/../h/kObjectAllocator.hpp ****         bitVectors[0] = (uint8*) MemoryAllocator::instance()->kmem_alloc(
 1802              		.loc 1 57 9 is_stmt 1
  57:src/../h/kObjectAllocator.hpp ****         bitVectors[0] = (uint8*) MemoryAllocator::instance()->kmem_alloc(
 1803              		.loc 1 57 45 is_stmt 0
 1804 0b84 93D73700 		srli	a5,a5,3
  57:src/../h/kObjectAllocator.hpp ****         bitVectors[0] = (uint8*) MemoryAllocator::instance()->kmem_alloc(
 1805              		.loc 1 57 27
 1806 0b88 23B8F400 		sd	a5,16(s1)
  58:src/../h/kObjectAllocator.hpp ****                 memorySizeForBits + initialNumberOfObjects * objectSize
 1807              		.loc 1 58 9 is_stmt 1
  58:src/../h/kObjectAllocator.hpp ****                 memorySizeForBits + initialNumberOfObjects * objectSize
GAS LISTING /tmp/ccxAvD3a.s 			page 45


 1808              		.loc 1 58 73 is_stmt 0
 1809 0b8c 97000000 		call	_ZN15MemoryAllocator8instanceEv@plt
 1809      E7800000 
 1810              	.LVL249:
 1811 0b94 6F00C000 		j	.L197
 1812              	.L185:
  54:src/../h/kObjectAllocator.hpp ****         // one bit for each object which indicates whether memory
 1813              		.loc 1 54 80
 1814 0b98 13070000 		li	a4,0
 1815 0b9c 6FF0DFFD 		j	.L116
 1816              	.L197:
  59:src/../h/kObjectAllocator.hpp ****         );
 1817              		.loc 1 59 17
 1818 0ba0 83B50401 		ld	a1,16(s1)
  59:src/../h/kObjectAllocator.hpp ****         );
 1819              		.loc 1 59 37
 1820 0ba4 83B70400 		ld	a5,0(s1)
  59:src/../h/kObjectAllocator.hpp ****         );
 1821              		.loc 1 59 60
 1822 0ba8 B307F902 		mul	a5,s2,a5
  58:src/../h/kObjectAllocator.hpp ****                 memorySizeForBits + initialNumberOfObjects * objectSize
 1823              		.loc 1 58 9
 1824 0bac 03BA8402 		ld	s4,40(s1)
  58:src/../h/kObjectAllocator.hpp ****                 memorySizeForBits + initialNumberOfObjects * objectSize
 1825              		.loc 1 58 73
 1826 0bb0 B385F500 		add	a1,a1,a5
 1827 0bb4 97000000 		call	_ZN15MemoryAllocator10kmem_allocEm@plt
 1827      E7800000 
 1828              	.LVL250:
 1829              	.LEHE5:
  58:src/../h/kObjectAllocator.hpp ****                 memorySizeForBits + initialNumberOfObjects * objectSize
 1830              		.loc 1 58 23
 1831 0bbc 2330AA00 		sd	a0,0(s4)
  61:src/../h/kObjectAllocator.hpp ****         for (size_t i = 0; i < memorySizeForBits; bitVectors[0][i++] = 0);
 1832              		.loc 1 61 9 is_stmt 1
  61:src/../h/kObjectAllocator.hpp ****         for (size_t i = 0; i < memorySizeForBits; bitVectors[0][i++] = 0);
 1833              		.loc 1 61 28 is_stmt 0
 1834 0bc0 83B78402 		ld	a5,40(s1)
  61:src/../h/kObjectAllocator.hpp ****         for (size_t i = 0; i < memorySizeForBits; bitVectors[0][i++] = 0);
 1835              		.loc 1 61 40
 1836 0bc4 83B70700 		ld	a5,0(a5)
  61:src/../h/kObjectAllocator.hpp ****         for (size_t i = 0; i < memorySizeForBits; bitVectors[0][i++] = 0);
 1837              		.loc 1 61 44
 1838 0bc8 83B60401 		ld	a3,16(s1)
  61:src/../h/kObjectAllocator.hpp ****         for (size_t i = 0; i < memorySizeForBits; bitVectors[0][i++] = 0);
 1839              		.loc 1 61 9
 1840 0bcc 03B70402 		ld	a4,32(s1)
  61:src/../h/kObjectAllocator.hpp ****         for (size_t i = 0; i < memorySizeForBits; bitVectors[0][i++] = 0);
 1841              		.loc 1 61 42
 1842 0bd0 B387D700 		add	a5,a5,a3
  61:src/../h/kObjectAllocator.hpp ****         for (size_t i = 0; i < memorySizeForBits; bitVectors[0][i++] = 0);
 1843              		.loc 1 61 26
 1844 0bd4 2330F700 		sd	a5,0(a4)
  62:src/../h/kObjectAllocator.hpp ****     }
 1845              		.loc 1 62 9 is_stmt 1
 1846              	.LVL251:
 1847              	.LBB183:
GAS LISTING /tmp/ccxAvD3a.s 			page 46


  62:src/../h/kObjectAllocator.hpp ****     }
 1848              		.loc 1 62 21 is_stmt 0
 1849 0bd8 93070000 		li	a5,0
 1850              	.LVL252:
 1851              	.L118:
  62:src/../h/kObjectAllocator.hpp ****     }
 1852              		.loc 1 62 30 is_stmt 1
  62:src/../h/kObjectAllocator.hpp ****     }
 1853              		.loc 1 62 32 is_stmt 0
 1854 0bdc 03B70401 		ld	a4,16(s1)
  62:src/../h/kObjectAllocator.hpp ****     }
 1855              		.loc 1 62 30
 1856 0be0 63FEE700 		bleu	a4,a5,.L117
  62:src/../h/kObjectAllocator.hpp ****     }
 1857              		.loc 1 62 9 is_stmt 1
  62:src/../h/kObjectAllocator.hpp ****     }
 1858              		.loc 1 62 51 is_stmt 0
 1859 0be4 03B78402 		ld	a4,40(s1)
  62:src/../h/kObjectAllocator.hpp ****     }
 1860              		.loc 1 62 63
 1861 0be8 03370700 		ld	a4,0(a4)
 1862              	.LVL253:
  62:src/../h/kObjectAllocator.hpp ****     }
 1863              		.loc 1 62 68
 1864 0bec 3307F700 		add	a4,a4,a5
  62:src/../h/kObjectAllocator.hpp ****     }
 1865              		.loc 1 62 70
 1866 0bf0 23000700 		sb	zero,0(a4)
  62:src/../h/kObjectAllocator.hpp ****     }
 1867              		.loc 1 62 66
 1868 0bf4 93871700 		addi	a5,a5,1
 1869              	.LVL254:
  62:src/../h/kObjectAllocator.hpp ****     }
 1870              		.loc 1 62 9
 1871 0bf8 6FF05FFE 		j	.L118
 1872              	.L117:
 1873              	.LVL255:
 1874              	.LBE183:
 1875              	.LBE182:
 1876              	.LBE181:
 1877              	.LBE180:
 1878              	.LBE179:
 117:src/kObjectAllocatorTest.cpp ****     if (objAlloc->getNumberOfObjects() != 320) { delete objAlloc; return false; }
 1879              		.loc 2 117 5 is_stmt 1 discriminator 3
 1880              	.LBB184:
 1881              	.LBB185:
  77:src/../h/kObjectAllocator.hpp ****     size_t getMemorySizeForBits() { return memorySizeForBits; }
 1882              		.loc 1 77 35 discriminator 3
  77:src/../h/kObjectAllocator.hpp ****     size_t getMemorySizeForBits() { return memorySizeForBits; }
 1883              		.loc 1 77 42 is_stmt 0 discriminator 3
 1884 0bfc 03B78400 		ld	a4,8(s1)
 1885              	.LVL256:
 1886              	.LBE185:
 1887              	.LBE184:
 1888              		.loc 2 117 5 discriminator 3
 1889 0c00 93070014 		li	a5,320
 1890 0c04 6302F70A 		beq	a4,a5,.L119
GAS LISTING /tmp/ccxAvD3a.s 			page 47


 1891              		.loc 2 117 50 is_stmt 1 discriminator 1
 1892              		.loc 2 117 65 is_stmt 0 discriminator 1
 1893 0c08 638A0406 		beqz	s1,.L120
 1894              	.LBB186:
 1895              	.LBB187:
 1896              	.LBB188:
  68:src/../h/kObjectAllocator.hpp ****             MemoryAllocator::instance()->kmem_free(((KObjectAllocator*) p)->bitVectors[i]);
 1897              		.loc 1 68 21
 1898 0c0c 13090000 		li	s2,0
 1899              	.LVL257:
 1900              	.L122:
  68:src/../h/kObjectAllocator.hpp ****             MemoryAllocator::instance()->kmem_free(((KObjectAllocator*) p)->bitVectors[i]);
 1901              		.loc 1 68 30 is_stmt 1
  68:src/../h/kObjectAllocator.hpp ****             MemoryAllocator::instance()->kmem_free(((KObjectAllocator*) p)->bitVectors[i]);
 1902              		.loc 1 68 57 is_stmt 0
 1903 0c10 83B70403 		ld	a5,48(s1)
  68:src/../h/kObjectAllocator.hpp ****             MemoryAllocator::instance()->kmem_free(((KObjectAllocator*) p)->bitVectors[i]);
 1904              		.loc 1 68 30
 1905 0c14 6376F902 		bleu	a5,s2,.L121
  69:src/../h/kObjectAllocator.hpp ****         MemoryAllocator::instance()->kmem_free(((KObjectAllocator*) p)->bitVectors);
 1906              		.loc 1 69 13 is_stmt 1
 1907              	.LEHB6:
  69:src/../h/kObjectAllocator.hpp ****         MemoryAllocator::instance()->kmem_free(((KObjectAllocator*) p)->bitVectors);
 1908              		.loc 1 69 51 is_stmt 0
 1909 0c18 97000000 		call	_ZN15MemoryAllocator8instanceEv@plt
 1909      E7800000 
 1910              	.LVL258:
  69:src/../h/kObjectAllocator.hpp ****         MemoryAllocator::instance()->kmem_free(((KObjectAllocator*) p)->bitVectors);
 1911              		.loc 1 69 77
 1912 0c20 83B78402 		ld	a5,40(s1)
  69:src/../h/kObjectAllocator.hpp ****         MemoryAllocator::instance()->kmem_free(((KObjectAllocator*) p)->bitVectors);
 1913              		.loc 1 69 89
 1914 0c24 13173900 		slli	a4,s2,3
 1915 0c28 B387E700 		add	a5,a5,a4
  69:src/../h/kObjectAllocator.hpp ****         MemoryAllocator::instance()->kmem_free(((KObjectAllocator*) p)->bitVectors);
 1916              		.loc 1 69 51
 1917 0c2c 83B50700 		ld	a1,0(a5)
 1918 0c30 97000000 		call	_ZN15MemoryAllocator9kmem_freeEPv@plt
 1918      E7800000 
 1919              	.LVL259:
  68:src/../h/kObjectAllocator.hpp ****             MemoryAllocator::instance()->kmem_free(((KObjectAllocator*) p)->bitVectors[i]);
 1920              		.loc 1 68 9 is_stmt 1
 1921 0c38 13091900 		addi	s2,s2,1
 1922              	.LVL260:
 1923 0c3c 6FF05FFD 		j	.L122
 1924              	.L121:
 1925              	.LBE188:
  70:src/../h/kObjectAllocator.hpp ****         MemoryAllocator::instance()->kmem_free(((KObjectAllocator*) p)->objectVectors);
 1926              		.loc 1 70 9
  70:src/../h/kObjectAllocator.hpp ****         MemoryAllocator::instance()->kmem_free(((KObjectAllocator*) p)->objectVectors);
 1927              		.loc 1 70 47 is_stmt 0
 1928 0c40 97000000 		call	_ZN15MemoryAllocator8instanceEv@plt
 1928      E7800000 
 1929              	.LVL261:
 1930 0c48 83B58402 		ld	a1,40(s1)
 1931 0c4c 97000000 		call	_ZN15MemoryAllocator9kmem_freeEPv@plt
 1931      E7800000 
GAS LISTING /tmp/ccxAvD3a.s 			page 48


 1932              	.LVL262:
  71:src/../h/kObjectAllocator.hpp ****         MemoryAllocator::instance()->kmem_free(p);
 1933              		.loc 1 71 9 is_stmt 1
  71:src/../h/kObjectAllocator.hpp ****         MemoryAllocator::instance()->kmem_free(p);
 1934              		.loc 1 71 47 is_stmt 0
 1935 0c54 97000000 		call	_ZN15MemoryAllocator8instanceEv@plt
 1935      E7800000 
 1936              	.LVL263:
 1937 0c5c 83B50402 		ld	a1,32(s1)
 1938 0c60 97000000 		call	_ZN15MemoryAllocator9kmem_freeEPv@plt
 1938      E7800000 
 1939              	.LVL264:
  72:src/../h/kObjectAllocator.hpp ****     }
 1940              		.loc 1 72 9 is_stmt 1
  72:src/../h/kObjectAllocator.hpp ****     }
 1941              		.loc 1 72 47 is_stmt 0
 1942 0c68 97000000 		call	_ZN15MemoryAllocator8instanceEv@plt
 1942      E7800000 
 1943              	.LVL265:
 1944 0c70 93850400 		mv	a1,s1
 1945 0c74 97000000 		call	_ZN15MemoryAllocator9kmem_freeEPv@plt
 1945      E7800000 
 1946              	.LVL266:
 1947              	.L120:
 1948              	.LBE187:
 1949              	.LBE186:
 1950              		.loc 2 117 67 is_stmt 1 discriminator 3
 1951              		.loc 2 117 74 is_stmt 0 discriminator 3
 1952 0c7c 13050000 		li	a0,0
 1953              	.L190:
 118:src/kObjectAllocatorTest.cpp ****     if (objAlloc->getMemorySizeForBits() != 40) { delete objAlloc; return false; }
 119:src/kObjectAllocatorTest.cpp ****     if (objAlloc->getObjectSize() != size) { delete objAlloc; return false; }
 120:src/kObjectAllocatorTest.cpp ****     void* objArr[320]; for (size_t i = 0; i < 32; objArr[i++] = objAlloc->allocateNewObject());
 121:src/kObjectAllocatorTest.cpp ****     if (getByteOfObject(objArr[31], objAlloc) != 3
 122:src/kObjectAllocatorTest.cpp ****         || getBitOfObject(objArr[31], objAlloc) != 0)
 123:src/kObjectAllocatorTest.cpp ****         { delete objAlloc; return false; }
 124:src/kObjectAllocatorTest.cpp **** 
 125:src/kObjectAllocatorTest.cpp ****     if (objAlloc->nextNonTakenByte != 4) { delete objAlloc; return false; }
 126:src/kObjectAllocatorTest.cpp ****     for (size_t i = 32; i < 320; objArr[i++] = objAlloc->allocateNewObject());
 127:src/kObjectAllocatorTest.cpp ****     if (objAlloc->nextNonTakenByte != 40) { delete objAlloc; return false; }
 128:src/kObjectAllocatorTest.cpp **** 
 129:src/kObjectAllocatorTest.cpp ****     objAlloc->freeObject(objArr[7 * 8]);
 130:src/kObjectAllocatorTest.cpp ****     objArr[7 * 8] = objAlloc->allocateNewObject();
 131:src/kObjectAllocatorTest.cpp ****     if (getByteOfObject(objArr[7 * 8], objAlloc) != 7
 132:src/kObjectAllocatorTest.cpp ****         || getBitOfObject(objArr[7 * 8], objAlloc) != 7)
 133:src/kObjectAllocatorTest.cpp ****         { delete objAlloc; return false; }
 134:src/kObjectAllocatorTest.cpp ****     if (objAlloc->nextNonTakenByte != 7) { delete objAlloc; return false; }
 135:src/kObjectAllocatorTest.cpp **** 
 136:src/kObjectAllocatorTest.cpp ****     objAlloc->freeObject(objArr[6 * 8 + 3]);
 137:src/kObjectAllocatorTest.cpp ****     objAlloc->freeObject(objArr[7 * 8 + 4]);
 138:src/kObjectAllocatorTest.cpp ****     objAlloc->freeObject(objArr[38 * 8 + 5]);
 139:src/kObjectAllocatorTest.cpp **** 
 140:src/kObjectAllocatorTest.cpp ****     objArr[7 * 8 + 4] = objAlloc->allocateNewObject();
 141:src/kObjectAllocatorTest.cpp ****     if (getByteOfObject(objArr[7 * 8 + 4], objAlloc) != 7
 142:src/kObjectAllocatorTest.cpp ****         || getBitOfObject(objArr[7 * 8 + 4], objAlloc) != 3)
 143:src/kObjectAllocatorTest.cpp ****         { delete objAlloc; return false; }
 144:src/kObjectAllocatorTest.cpp ****     if (objAlloc->nextNonTakenByte != 7) { delete objAlloc; return false; }
GAS LISTING /tmp/ccxAvD3a.s 			page 49


 145:src/kObjectAllocatorTest.cpp ****     objAlloc->freeObject(objArr[3 * 8 + 5]);
 146:src/kObjectAllocatorTest.cpp **** 
 147:src/kObjectAllocatorTest.cpp ****     objArr[38 * 8 + 5] = objAlloc->allocateNewObject();
 148:src/kObjectAllocatorTest.cpp ****     if (getByteOfObject(objArr[38 * 8 + 5], objAlloc) != 38
 149:src/kObjectAllocatorTest.cpp ****         || getBitOfObject(objArr[38 * 8 + 5], objAlloc) != 2)
 150:src/kObjectAllocatorTest.cpp ****     { delete objAlloc; return false; }
 151:src/kObjectAllocatorTest.cpp ****     if (objAlloc->nextNonTakenByte != 38) { delete objAlloc; return false; }
 152:src/kObjectAllocatorTest.cpp **** 
 153:src/kObjectAllocatorTest.cpp **** 
 154:src/kObjectAllocatorTest.cpp ****     objArr[3 * 8 + 5] = objAlloc->allocateNewObject();
 155:src/kObjectAllocatorTest.cpp ****     if (getByteOfObject(objArr[3 * 8 + 5], objAlloc) != 3 || getBitOfObject(objArr[3 * 8 + 5], objA
 156:src/kObjectAllocatorTest.cpp ****     if (objAlloc->nextNonTakenByte != 3) { delete objAlloc; return false; }
 157:src/kObjectAllocatorTest.cpp **** 
 158:src/kObjectAllocatorTest.cpp ****     objArr[6 * 8 + 3] = objAlloc->allocateNewObject();
 159:src/kObjectAllocatorTest.cpp ****     if (getByteOfObject(objArr[6 * 8 + 3], objAlloc) != 6
 160:src/kObjectAllocatorTest.cpp ****         || getBitOfObject(objArr[6 * 8 + 3], objAlloc) != 4)
 161:src/kObjectAllocatorTest.cpp ****     { delete objAlloc; return false; }
 162:src/kObjectAllocatorTest.cpp ****     if (objAlloc->nextNonTakenByte != 6) { delete objAlloc; return false; }
 163:src/kObjectAllocatorTest.cpp **** 
 164:src/kObjectAllocatorTest.cpp ****     for (int i = 0; i < 3; ++i) {
 165:src/kObjectAllocatorTest.cpp ****         objAlloc->freeObject(objArr[319]);
 166:src/kObjectAllocatorTest.cpp ****         objArr[319] = objAlloc->allocateNewObject();
 167:src/kObjectAllocatorTest.cpp ****         if (getByteOfObject(objArr[319], objAlloc) != 39
 168:src/kObjectAllocatorTest.cpp ****             || getBitOfObject(objArr[319], objAlloc) != 0)
 169:src/kObjectAllocatorTest.cpp ****         { delete objAlloc; return false; }
 170:src/kObjectAllocatorTest.cpp ****         if (objAlloc->nextNonTakenByte != 40) { delete objAlloc; return false; }
 171:src/kObjectAllocatorTest.cpp **** 
 172:src/kObjectAllocatorTest.cpp ****         objAlloc->freeObject(objArr[1]);
 173:src/kObjectAllocatorTest.cpp ****         objArr[1] = objAlloc->allocateNewObject();
 174:src/kObjectAllocatorTest.cpp ****         if (getByteOfObject(objArr[1], objAlloc) != 0
 175:src/kObjectAllocatorTest.cpp ****             || getBitOfObject(objArr[1], objAlloc) != 6)
 176:src/kObjectAllocatorTest.cpp ****         { delete objAlloc; return false; }
 177:src/kObjectAllocatorTest.cpp ****         if (objAlloc->nextNonTakenByte != 0) { delete objAlloc; return false; }
 178:src/kObjectAllocatorTest.cpp ****     }
 179:src/kObjectAllocatorTest.cpp ****     delete objAlloc;
 180:src/kObjectAllocatorTest.cpp ****     return true;
 181:src/kObjectAllocatorTest.cpp **** }
 1954              		.loc 2 181 1
 1955 0c80 13010125 		addi	sp,sp,592
 1956              		.cfi_remember_state
 1957              		.cfi_def_cfa 2, 2032
 1958 0c84 8330817E 		ld	ra,2024(sp)
 1959              		.cfi_restore 1
 1960 0c88 0334017E 		ld	s0,2016(sp)
 1961              		.cfi_restore 8
 1962 0c8c 8334817D 		ld	s1,2008(sp)
 1963              		.cfi_restore 9
 1964              	.LVL267:
 1965 0c90 0339017D 		ld	s2,2000(sp)
 1966              		.cfi_restore 18
 1967 0c94 8339817C 		ld	s3,1992(sp)
 1968              		.cfi_restore 19
 1969              	.LVL268:
 1970 0c98 033A017C 		ld	s4,1984(sp)
 1971              		.cfi_restore 20
 1972 0c9c 833A817B 		ld	s5,1976(sp)
 1973              		.cfi_restore 21
GAS LISTING /tmp/ccxAvD3a.s 			page 50


 1974 0ca0 1301017F 		addi	sp,sp,2032
 1975              		.cfi_def_cfa_offset 0
 1976 0ca4 67800000 		jr	ra
 1977              	.LVL269:
 1978              	.L119:
 1979              		.cfi_restore_state
 118:src/kObjectAllocatorTest.cpp ****     if (objAlloc->getMemorySizeForBits() != 40) { delete objAlloc; return false; }
 1980              		.loc 2 118 5 is_stmt 1
 1981              	.LBB189:
 1982              	.LBB190:
 1983              		.loc 1 78 37
 1984              		.loc 1 78 44 is_stmt 0
 1985 0ca8 03B70401 		ld	a4,16(s1)
 1986              	.LVL270:
 1987              	.LBE190:
 1988              	.LBE189:
 118:src/kObjectAllocatorTest.cpp ****     if (objAlloc->getMemorySizeForBits() != 40) { delete objAlloc; return false; }
 1989              		.loc 2 118 5
 1990 0cac 93078002 		li	a5,40
 1991 0cb0 6300F708 		beq	a4,a5,.L124
 118:src/kObjectAllocatorTest.cpp ****     if (objAlloc->getMemorySizeForBits() != 40) { delete objAlloc; return false; }
 1992              		.loc 2 118 51 is_stmt 1 discriminator 1
 118:src/kObjectAllocatorTest.cpp ****     if (objAlloc->getMemorySizeForBits() != 40) { delete objAlloc; return false; }
 1993              		.loc 2 118 66 is_stmt 0 discriminator 1
 1994 0cb4 638A0406 		beqz	s1,.L125
 1995              	.LBB191:
 1996              	.LBB192:
 1997              	.LBB193:
  68:src/../h/kObjectAllocator.hpp ****             MemoryAllocator::instance()->kmem_free(((KObjectAllocator*) p)->bitVectors[i]);
 1998              		.loc 1 68 21
 1999 0cb8 13090000 		li	s2,0
 2000              	.LVL271:
 2001              	.L127:
  68:src/../h/kObjectAllocator.hpp ****             MemoryAllocator::instance()->kmem_free(((KObjectAllocator*) p)->bitVectors[i]);
 2002              		.loc 1 68 30 is_stmt 1
  68:src/../h/kObjectAllocator.hpp ****             MemoryAllocator::instance()->kmem_free(((KObjectAllocator*) p)->bitVectors[i]);
 2003              		.loc 1 68 57 is_stmt 0
 2004 0cbc 83B70403 		ld	a5,48(s1)
  68:src/../h/kObjectAllocator.hpp ****             MemoryAllocator::instance()->kmem_free(((KObjectAllocator*) p)->bitVectors[i]);
 2005              		.loc 1 68 30
 2006 0cc0 6376F902 		bleu	a5,s2,.L126
  69:src/../h/kObjectAllocator.hpp ****         MemoryAllocator::instance()->kmem_free(((KObjectAllocator*) p)->bitVectors);
 2007              		.loc 1 69 13 is_stmt 1
  69:src/../h/kObjectAllocator.hpp ****         MemoryAllocator::instance()->kmem_free(((KObjectAllocator*) p)->bitVectors);
 2008              		.loc 1 69 51 is_stmt 0
 2009 0cc4 97000000 		call	_ZN15MemoryAllocator8instanceEv@plt
 2009      E7800000 
 2010              	.LVL272:
  69:src/../h/kObjectAllocator.hpp ****         MemoryAllocator::instance()->kmem_free(((KObjectAllocator*) p)->bitVectors);
 2011              		.loc 1 69 77
 2012 0ccc 83B78402 		ld	a5,40(s1)
  69:src/../h/kObjectAllocator.hpp ****         MemoryAllocator::instance()->kmem_free(((KObjectAllocator*) p)->bitVectors);
 2013              		.loc 1 69 89
 2014 0cd0 13173900 		slli	a4,s2,3
 2015 0cd4 B387E700 		add	a5,a5,a4
  69:src/../h/kObjectAllocator.hpp ****         MemoryAllocator::instance()->kmem_free(((KObjectAllocator*) p)->bitVectors);
 2016              		.loc 1 69 51
GAS LISTING /tmp/ccxAvD3a.s 			page 51


 2017 0cd8 83B50700 		ld	a1,0(a5)
 2018 0cdc 97000000 		call	_ZN15MemoryAllocator9kmem_freeEPv@plt
 2018      E7800000 
 2019              	.LVL273:
  68:src/../h/kObjectAllocator.hpp ****             MemoryAllocator::instance()->kmem_free(((KObjectAllocator*) p)->bitVectors[i]);
 2020              		.loc 1 68 9 is_stmt 1
 2021 0ce4 13091900 		addi	s2,s2,1
 2022              	.LVL274:
 2023 0ce8 6FF05FFD 		j	.L127
 2024              	.L126:
 2025              	.LBE193:
  70:src/../h/kObjectAllocator.hpp ****         MemoryAllocator::instance()->kmem_free(((KObjectAllocator*) p)->objectVectors);
 2026              		.loc 1 70 9
  70:src/../h/kObjectAllocator.hpp ****         MemoryAllocator::instance()->kmem_free(((KObjectAllocator*) p)->objectVectors);
 2027              		.loc 1 70 47 is_stmt 0
 2028 0cec 97000000 		call	_ZN15MemoryAllocator8instanceEv@plt
 2028      E7800000 
 2029              	.LVL275:
 2030 0cf4 83B58402 		ld	a1,40(s1)
 2031 0cf8 97000000 		call	_ZN15MemoryAllocator9kmem_freeEPv@plt
 2031      E7800000 
 2032              	.LVL276:
  71:src/../h/kObjectAllocator.hpp ****         MemoryAllocator::instance()->kmem_free(p);
 2033              		.loc 1 71 9 is_stmt 1
  71:src/../h/kObjectAllocator.hpp ****         MemoryAllocator::instance()->kmem_free(p);
 2034              		.loc 1 71 47 is_stmt 0
 2035 0d00 97000000 		call	_ZN15MemoryAllocator8instanceEv@plt
 2035      E7800000 
 2036              	.LVL277:
 2037 0d08 83B50402 		ld	a1,32(s1)
 2038 0d0c 97000000 		call	_ZN15MemoryAllocator9kmem_freeEPv@plt
 2038      E7800000 
 2039              	.LVL278:
  72:src/../h/kObjectAllocator.hpp ****     }
 2040              		.loc 1 72 9 is_stmt 1
  72:src/../h/kObjectAllocator.hpp ****     }
 2041              		.loc 1 72 47 is_stmt 0
 2042 0d14 97000000 		call	_ZN15MemoryAllocator8instanceEv@plt
 2042      E7800000 
 2043              	.LVL279:
 2044 0d1c 93850400 		mv	a1,s1
 2045 0d20 97000000 		call	_ZN15MemoryAllocator9kmem_freeEPv@plt
 2045      E7800000 
 2046              	.LVL280:
 2047              	.L125:
 2048              	.LBE192:
 2049              	.LBE191:
 118:src/kObjectAllocatorTest.cpp ****     if (objAlloc->getObjectSize() != size) { delete objAlloc; return false; }
 2050              		.loc 2 118 68 is_stmt 1 discriminator 3
 118:src/kObjectAllocatorTest.cpp ****     if (objAlloc->getObjectSize() != size) { delete objAlloc; return false; }
 2051              		.loc 2 118 75 is_stmt 0 discriminator 3
 2052 0d28 13050000 		li	a0,0
 2053 0d2c 6FF05FF5 		j	.L190
 2054              	.LVL281:
 2055              	.L124:
 119:src/kObjectAllocatorTest.cpp ****     void* objArr[320]; for (size_t i = 0; i < 32; objArr[i++] = objAlloc->allocateNewObject());
 2056              		.loc 2 119 5 is_stmt 1
GAS LISTING /tmp/ccxAvD3a.s 			page 52


 2057              	.LBB194:
 2058              	.LBB195:
  75:src/../h/kObjectAllocator.hpp ****     size_t getInitialNumberOfObjects() { return initialNumberOfObjects; }
 2059              		.loc 1 75 30
  75:src/../h/kObjectAllocator.hpp ****     size_t getInitialNumberOfObjects() { return initialNumberOfObjects; }
 2060              		.loc 1 75 37 is_stmt 0
 2061 0d30 83B78401 		ld	a5,24(s1)
 2062              	.LVL282:
 2063              	.LBE195:
 2064              	.LBE194:
 119:src/kObjectAllocatorTest.cpp ****     void* objArr[320]; for (size_t i = 0; i < 32; objArr[i++] = objAlloc->allocateNewObject());
 2065              		.loc 2 119 5
 2066 0d34 6300F908 		beq	s2,a5,.L186
 119:src/kObjectAllocatorTest.cpp ****     void* objArr[320]; for (size_t i = 0; i < 32; objArr[i++] = objAlloc->allocateNewObject());
 2067              		.loc 2 119 46 is_stmt 1 discriminator 1
 119:src/kObjectAllocatorTest.cpp ****     void* objArr[320]; for (size_t i = 0; i < 32; objArr[i++] = objAlloc->allocateNewObject());
 2068              		.loc 2 119 61 is_stmt 0 discriminator 1
 2069 0d38 638A0406 		beqz	s1,.L129
 2070              	.LBB196:
 2071              	.LBB197:
 2072              	.LBB198:
  68:src/../h/kObjectAllocator.hpp ****             MemoryAllocator::instance()->kmem_free(((KObjectAllocator*) p)->bitVectors[i]);
 2073              		.loc 1 68 21
 2074 0d3c 13090000 		li	s2,0
 2075              	.LVL283:
 2076              	.L131:
  68:src/../h/kObjectAllocator.hpp ****             MemoryAllocator::instance()->kmem_free(((KObjectAllocator*) p)->bitVectors[i]);
 2077              		.loc 1 68 30 is_stmt 1
  68:src/../h/kObjectAllocator.hpp ****             MemoryAllocator::instance()->kmem_free(((KObjectAllocator*) p)->bitVectors[i]);
 2078              		.loc 1 68 57 is_stmt 0
 2079 0d40 83B70403 		ld	a5,48(s1)
  68:src/../h/kObjectAllocator.hpp ****             MemoryAllocator::instance()->kmem_free(((KObjectAllocator*) p)->bitVectors[i]);
 2080              		.loc 1 68 30
 2081 0d44 6376F902 		bleu	a5,s2,.L130
  69:src/../h/kObjectAllocator.hpp ****         MemoryAllocator::instance()->kmem_free(((KObjectAllocator*) p)->bitVectors);
 2082              		.loc 1 69 13 is_stmt 1
  69:src/../h/kObjectAllocator.hpp ****         MemoryAllocator::instance()->kmem_free(((KObjectAllocator*) p)->bitVectors);
 2083              		.loc 1 69 51 is_stmt 0
 2084 0d48 97000000 		call	_ZN15MemoryAllocator8instanceEv@plt
 2084      E7800000 
 2085              	.LVL284:
  69:src/../h/kObjectAllocator.hpp ****         MemoryAllocator::instance()->kmem_free(((KObjectAllocator*) p)->bitVectors);
 2086              		.loc 1 69 77
 2087 0d50 83B78402 		ld	a5,40(s1)
  69:src/../h/kObjectAllocator.hpp ****         MemoryAllocator::instance()->kmem_free(((KObjectAllocator*) p)->bitVectors);
 2088              		.loc 1 69 89
 2089 0d54 13173900 		slli	a4,s2,3
 2090 0d58 B387E700 		add	a5,a5,a4
  69:src/../h/kObjectAllocator.hpp ****         MemoryAllocator::instance()->kmem_free(((KObjectAllocator*) p)->bitVectors);
 2091              		.loc 1 69 51
 2092 0d5c 83B50700 		ld	a1,0(a5)
 2093 0d60 97000000 		call	_ZN15MemoryAllocator9kmem_freeEPv@plt
 2093      E7800000 
 2094              	.LVL285:
  68:src/../h/kObjectAllocator.hpp ****             MemoryAllocator::instance()->kmem_free(((KObjectAllocator*) p)->bitVectors[i]);
 2095              		.loc 1 68 9 is_stmt 1
 2096 0d68 13091900 		addi	s2,s2,1
GAS LISTING /tmp/ccxAvD3a.s 			page 53


 2097              	.LVL286:
 2098 0d6c 6FF05FFD 		j	.L131
 2099              	.L130:
 2100              	.LBE198:
  70:src/../h/kObjectAllocator.hpp ****         MemoryAllocator::instance()->kmem_free(((KObjectAllocator*) p)->objectVectors);
 2101              		.loc 1 70 9
  70:src/../h/kObjectAllocator.hpp ****         MemoryAllocator::instance()->kmem_free(((KObjectAllocator*) p)->objectVectors);
 2102              		.loc 1 70 47 is_stmt 0
 2103 0d70 97000000 		call	_ZN15MemoryAllocator8instanceEv@plt
 2103      E7800000 
 2104              	.LVL287:
 2105 0d78 83B58402 		ld	a1,40(s1)
 2106 0d7c 97000000 		call	_ZN15MemoryAllocator9kmem_freeEPv@plt
 2106      E7800000 
 2107              	.LVL288:
  71:src/../h/kObjectAllocator.hpp ****         MemoryAllocator::instance()->kmem_free(p);
 2108              		.loc 1 71 9 is_stmt 1
  71:src/../h/kObjectAllocator.hpp ****         MemoryAllocator::instance()->kmem_free(p);
 2109              		.loc 1 71 47 is_stmt 0
 2110 0d84 97000000 		call	_ZN15MemoryAllocator8instanceEv@plt
 2110      E7800000 
 2111              	.LVL289:
 2112 0d8c 83B50402 		ld	a1,32(s1)
 2113 0d90 97000000 		call	_ZN15MemoryAllocator9kmem_freeEPv@plt
 2113      E7800000 
 2114              	.LVL290:
  72:src/../h/kObjectAllocator.hpp ****     }
 2115              		.loc 1 72 9 is_stmt 1
  72:src/../h/kObjectAllocator.hpp ****     }
 2116              		.loc 1 72 47 is_stmt 0
 2117 0d98 97000000 		call	_ZN15MemoryAllocator8instanceEv@plt
 2117      E7800000 
 2118              	.LVL291:
 2119 0da0 93850400 		mv	a1,s1
 2120 0da4 97000000 		call	_ZN15MemoryAllocator9kmem_freeEPv@plt
 2120      E7800000 
 2121              	.LVL292:
 2122              	.L129:
 2123              	.LBE197:
 2124              	.LBE196:
 119:src/kObjectAllocatorTest.cpp ****     void* objArr[320]; for (size_t i = 0; i < 32; objArr[i++] = objAlloc->allocateNewObject());
 2125              		.loc 2 119 63 is_stmt 1 discriminator 3
 119:src/kObjectAllocatorTest.cpp ****     void* objArr[320]; for (size_t i = 0; i < 32; objArr[i++] = objAlloc->allocateNewObject());
 2126              		.loc 2 119 70 is_stmt 0 discriminator 3
 2127 0dac 13050000 		li	a0,0
 2128 0db0 6FF01FED 		j	.L190
 2129              	.LVL293:
 2130              	.L186:
 2131              	.LBB199:
 120:src/kObjectAllocatorTest.cpp ****     if (getByteOfObject(objArr[31], objAlloc) != 3
 2132              		.loc 2 120 36
 2133 0db4 13090000 		li	s2,0
 2134              	.LVL294:
 2135              	.L128:
 120:src/kObjectAllocatorTest.cpp ****     if (getByteOfObject(objArr[31], objAlloc) != 3
 2136              		.loc 2 120 45 is_stmt 1 discriminator 4
 2137 0db8 9307F001 		li	a5,31
GAS LISTING /tmp/ccxAvD3a.s 			page 54


 2138 0dbc 63EA2703 		bgtu	s2,a5,.L132
 120:src/kObjectAllocatorTest.cpp ****     if (getByteOfObject(objArr[31], objAlloc) != 3
 2139              		.loc 2 120 24 discriminator 2
 120:src/kObjectAllocatorTest.cpp ****     if (getByteOfObject(objArr[31], objAlloc) != 3
 2140              		.loc 2 120 59 is_stmt 0 discriminator 2
 2141 0dc0 130A1900 		addi	s4,s2,1
 2142              	.LVL295:
 120:src/kObjectAllocatorTest.cpp ****     if (getByteOfObject(objArr[31], objAlloc) != 3
 2143              		.loc 2 120 92 discriminator 2
 2144 0dc4 13850400 		mv	a0,s1
 2145 0dc8 97000000 		call	_ZN16KObjectAllocator17allocateNewObjectEv@plt
 2145      E7800000 
 2146              	.LVL296:
 120:src/kObjectAllocatorTest.cpp ****     if (getByteOfObject(objArr[31], objAlloc) != 3
 2147              		.loc 2 120 63 discriminator 2
 2148 0dd0 B7F7FFFF 		li	a5,-4096
 2149 0dd4 13193900 		slli	s2,s2,3
 2150 0dd8 130704FC 		addi	a4,s0,-64
 2151 0ddc B307F700 		add	a5,a4,a5
 2152 0de0 33892701 		add	s2,a5,s2
 2153 0de4 2330A960 		sd	a0,1536(s2)
 120:src/kObjectAllocatorTest.cpp ****     if (getByteOfObject(objArr[31], objAlloc) != 3
 2154              		.loc 2 120 59 discriminator 2
 2155 0de8 13090A00 		mv	s2,s4
 120:src/kObjectAllocatorTest.cpp ****     if (getByteOfObject(objArr[31], objAlloc) != 3
 2156              		.loc 2 120 24 discriminator 2
 2157 0dec 6FF0DFFC 		j	.L128
 2158              	.LVL297:
 2159              	.L132:
 2160              	.LBE199:
 121:src/kObjectAllocatorTest.cpp ****         || getBitOfObject(objArr[31], objAlloc) != 0)
 2161              		.loc 2 121 5 is_stmt 1
 121:src/kObjectAllocatorTest.cpp ****         || getBitOfObject(objArr[31], objAlloc) != 0)
 2162              		.loc 2 121 24 is_stmt 0
 2163 0df0 B7F7FFFF 		li	a5,-4096
 2164 0df4 130704FC 		addi	a4,s0,-64
 2165 0df8 B307F700 		add	a5,a4,a5
 2166 0dfc 03B9876F 		ld	s2,1784(a5)
 2167              	.LVL298:
 2168 0e00 13860400 		mv	a2,s1
 2169 0e04 93050900 		mv	a1,s2
 2170 0e08 13850900 		mv	a0,s3
 2171 0e0c 97000000 		call	_ZN20KObjectAllocatorTest15getByteOfObjectEPvP16KObjectAllocator
 2171      E7800000 
 2172              	.LVL299:
 122:src/kObjectAllocatorTest.cpp ****         { delete objAlloc; return false; }
 2173              		.loc 2 122 9
 2174 0e14 93073000 		li	a5,3
 2175 0e18 630EF502 		beq	a0,a5,.L198
 2176              	.L133:
 123:src/kObjectAllocatorTest.cpp **** 
 2177              		.loc 2 123 11 is_stmt 1 discriminator 4
 123:src/kObjectAllocatorTest.cpp **** 
 2178              		.loc 2 123 26 is_stmt 0 discriminator 4
 2179 0e1c 638C040C 		beqz	s1,.L136
 2180              	.LBB200:
 2181              	.LBB201:
GAS LISTING /tmp/ccxAvD3a.s 			page 55


 2182              	.LBB202:
  68:src/../h/kObjectAllocator.hpp ****             MemoryAllocator::instance()->kmem_free(((KObjectAllocator*) p)->bitVectors[i]);
 2183              		.loc 1 68 21
 2184 0e20 13090000 		li	s2,0
 2185              	.L135:
 2186              	.LVL300:
  68:src/../h/kObjectAllocator.hpp ****             MemoryAllocator::instance()->kmem_free(((KObjectAllocator*) p)->bitVectors[i]);
 2187              		.loc 1 68 30 is_stmt 1
  68:src/../h/kObjectAllocator.hpp ****             MemoryAllocator::instance()->kmem_free(((KObjectAllocator*) p)->bitVectors[i]);
 2188              		.loc 1 68 57 is_stmt 0
 2189 0e24 83B70403 		ld	a5,48(s1)
  68:src/../h/kObjectAllocator.hpp ****             MemoryAllocator::instance()->kmem_free(((KObjectAllocator*) p)->bitVectors[i]);
 2190              		.loc 1 68 30
 2191 0e28 6378F908 		bleu	a5,s2,.L139
  69:src/../h/kObjectAllocator.hpp ****         MemoryAllocator::instance()->kmem_free(((KObjectAllocator*) p)->bitVectors);
 2192              		.loc 1 69 13 is_stmt 1
  69:src/../h/kObjectAllocator.hpp ****         MemoryAllocator::instance()->kmem_free(((KObjectAllocator*) p)->bitVectors);
 2193              		.loc 1 69 51 is_stmt 0
 2194 0e2c 97000000 		call	_ZN15MemoryAllocator8instanceEv@plt
 2194      E7800000 
 2195              	.LVL301:
  69:src/../h/kObjectAllocator.hpp ****         MemoryAllocator::instance()->kmem_free(((KObjectAllocator*) p)->bitVectors);
 2196              		.loc 1 69 77
 2197 0e34 83B78402 		ld	a5,40(s1)
  69:src/../h/kObjectAllocator.hpp ****         MemoryAllocator::instance()->kmem_free(((KObjectAllocator*) p)->bitVectors);
 2198              		.loc 1 69 89
 2199 0e38 13173900 		slli	a4,s2,3
 2200 0e3c B387E700 		add	a5,a5,a4
  69:src/../h/kObjectAllocator.hpp ****         MemoryAllocator::instance()->kmem_free(((KObjectAllocator*) p)->bitVectors);
 2201              		.loc 1 69 51
 2202 0e40 83B50700 		ld	a1,0(a5)
 2203 0e44 97000000 		call	_ZN15MemoryAllocator9kmem_freeEPv@plt
 2203      E7800000 
 2204              	.LVL302:
  68:src/../h/kObjectAllocator.hpp ****             MemoryAllocator::instance()->kmem_free(((KObjectAllocator*) p)->bitVectors[i]);
 2205              		.loc 1 68 9 is_stmt 1
 2206 0e4c 13091900 		addi	s2,s2,1
 2207              	.LVL303:
 2208 0e50 6FF05FFD 		j	.L135
 2209              	.LVL304:
 2210              	.L198:
 2211              	.LBE202:
 2212              	.LBE201:
 2213              	.LBE200:
 122:src/kObjectAllocatorTest.cpp ****         { delete objAlloc; return false; }
 2214              		.loc 2 122 26 is_stmt 0 discriminator 2
 2215 0e54 13860400 		mv	a2,s1
 2216 0e58 93050900 		mv	a1,s2
 2217 0e5c 13850900 		mv	a0,s3
 2218 0e60 97000000 		call	_ZN20KObjectAllocatorTest14getBitOfObjectEPvP16KObjectAllocator
 2218      E7800000 
 2219              	.LVL305:
 2220 0e68 930A0500 		mv	s5,a0
 122:src/kObjectAllocatorTest.cpp ****         { delete objAlloc; return false; }
 2221              		.loc 2 122 9 discriminator 2
 2222 0e6c E31805FA 		bnez	a0,.L133
 125:src/kObjectAllocatorTest.cpp ****     for (size_t i = 32; i < 320; objArr[i++] = objAlloc->allocateNewObject());
GAS LISTING /tmp/ccxAvD3a.s 			page 56


 2223              		.loc 2 125 5 is_stmt 1
 125:src/kObjectAllocatorTest.cpp ****     for (size_t i = 32; i < 320; objArr[i++] = objAlloc->allocateNewObject());
 2224              		.loc 2 125 19 is_stmt 0
 2225 0e70 03B78403 		ld	a4,56(s1)
 125:src/kObjectAllocatorTest.cpp ****     for (size_t i = 32; i < 320; objArr[i++] = objAlloc->allocateNewObject());
 2226              		.loc 2 125 5
 2227 0e74 93074000 		li	a5,4
 2228 0e78 6312F708 		bne	a4,a5,.L137
 2229              	.LBB204:
 126:src/kObjectAllocatorTest.cpp ****     if (objAlloc->nextNonTakenByte != 40) { delete objAlloc; return false; }
 2230              		.loc 2 126 17
 2231 0e7c 13090002 		li	s2,32
 2232              	.L138:
 2233              	.LVL306:
 126:src/kObjectAllocatorTest.cpp ****     if (objAlloc->nextNonTakenByte != 40) { delete objAlloc; return false; }
 2234              		.loc 2 126 27 is_stmt 1 discriminator 4
 2235 0e80 9307F013 		li	a5,319
 2236 0e84 63E8270F 		bgtu	s2,a5,.L143
 126:src/kObjectAllocatorTest.cpp ****     if (objAlloc->nextNonTakenByte != 40) { delete objAlloc; return false; }
 2237              		.loc 2 126 5 discriminator 2
 126:src/kObjectAllocatorTest.cpp ****     if (objAlloc->nextNonTakenByte != 40) { delete objAlloc; return false; }
 2238              		.loc 2 126 42 is_stmt 0 discriminator 2
 2239 0e88 130A1900 		addi	s4,s2,1
 2240              	.LVL307:
 126:src/kObjectAllocatorTest.cpp ****     if (objAlloc->nextNonTakenByte != 40) { delete objAlloc; return false; }
 2241              		.loc 2 126 75 discriminator 2
 2242 0e8c 13850400 		mv	a0,s1
 2243 0e90 97000000 		call	_ZN16KObjectAllocator17allocateNewObjectEv@plt
 2243      E7800000 
 2244              	.LVL308:
 126:src/kObjectAllocatorTest.cpp ****     if (objAlloc->nextNonTakenByte != 40) { delete objAlloc; return false; }
 2245              		.loc 2 126 46 discriminator 2
 2246 0e98 B7F7FFFF 		li	a5,-4096
 2247 0e9c 13193900 		slli	s2,s2,3
 2248 0ea0 130704FC 		addi	a4,s0,-64
 2249 0ea4 B307F700 		add	a5,a4,a5
 2250 0ea8 33892701 		add	s2,a5,s2
 2251 0eac 2330A960 		sd	a0,1536(s2)
 126:src/kObjectAllocatorTest.cpp ****     if (objAlloc->nextNonTakenByte != 40) { delete objAlloc; return false; }
 2252              		.loc 2 126 42 discriminator 2
 2253 0eb0 13090A00 		mv	s2,s4
 126:src/kObjectAllocatorTest.cpp ****     if (objAlloc->nextNonTakenByte != 40) { delete objAlloc; return false; }
 2254              		.loc 2 126 5 discriminator 2
 2255 0eb4 6FF0DFFC 		j	.L138
 2256              	.LVL309:
 2257              	.L139:
 2258              	.LBE204:
 2259              	.LBB205:
 2260              	.LBB203:
  70:src/../h/kObjectAllocator.hpp ****         MemoryAllocator::instance()->kmem_free(((KObjectAllocator*) p)->objectVectors);
 2261              		.loc 1 70 9 is_stmt 1
  70:src/../h/kObjectAllocator.hpp ****         MemoryAllocator::instance()->kmem_free(((KObjectAllocator*) p)->objectVectors);
 2262              		.loc 1 70 47 is_stmt 0
 2263 0eb8 97000000 		call	_ZN15MemoryAllocator8instanceEv@plt
 2263      E7800000 
 2264              	.LVL310:
 2265 0ec0 83B58402 		ld	a1,40(s1)
GAS LISTING /tmp/ccxAvD3a.s 			page 57


 2266 0ec4 97000000 		call	_ZN15MemoryAllocator9kmem_freeEPv@plt
 2266      E7800000 
 2267              	.LVL311:
  71:src/../h/kObjectAllocator.hpp ****         MemoryAllocator::instance()->kmem_free(p);
 2268              		.loc 1 71 9 is_stmt 1
  71:src/../h/kObjectAllocator.hpp ****         MemoryAllocator::instance()->kmem_free(p);
 2269              		.loc 1 71 47 is_stmt 0
 2270 0ecc 97000000 		call	_ZN15MemoryAllocator8instanceEv@plt
 2270      E7800000 
 2271              	.LVL312:
 2272 0ed4 83B50402 		ld	a1,32(s1)
 2273 0ed8 97000000 		call	_ZN15MemoryAllocator9kmem_freeEPv@plt
 2273      E7800000 
 2274              	.LVL313:
  72:src/../h/kObjectAllocator.hpp ****     }
 2275              		.loc 1 72 9 is_stmt 1
  72:src/../h/kObjectAllocator.hpp ****     }
 2276              		.loc 1 72 47 is_stmt 0
 2277 0ee0 97000000 		call	_ZN15MemoryAllocator8instanceEv@plt
 2277      E7800000 
 2278              	.LVL314:
 2279 0ee8 93850400 		mv	a1,s1
 2280 0eec 97000000 		call	_ZN15MemoryAllocator9kmem_freeEPv@plt
 2280      E7800000 
 2281              	.LVL315:
 2282              	.L136:
 2283              	.LBE203:
 2284              	.LBE205:
 123:src/kObjectAllocatorTest.cpp **** 
 2285              		.loc 2 123 28 is_stmt 1 discriminator 2
 123:src/kObjectAllocatorTest.cpp **** 
 2286              		.loc 2 123 35 is_stmt 0 discriminator 2
 2287 0ef4 13050000 		li	a0,0
 2288 0ef8 6FF09FD8 		j	.L190
 2289              	.L137:
 125:src/kObjectAllocatorTest.cpp ****     for (size_t i = 32; i < 320; objArr[i++] = objAlloc->allocateNewObject());
 2290              		.loc 2 125 44 is_stmt 1 discriminator 1
 125:src/kObjectAllocatorTest.cpp ****     for (size_t i = 32; i < 320; objArr[i++] = objAlloc->allocateNewObject());
 2291              		.loc 2 125 59 is_stmt 0 discriminator 1
 2292 0efc 63960402 		bnez	s1,.L142
 2293 0f00 6F00C006 		j	.L140
 2294              	.LVL316:
 2295              	.L199:
 2296              	.LBB206:
 2297              	.LBB207:
 2298              	.LBB208:
  69:src/../h/kObjectAllocator.hpp ****         MemoryAllocator::instance()->kmem_free(((KObjectAllocator*) p)->bitVectors);
 2299              		.loc 1 69 13 is_stmt 1
  69:src/../h/kObjectAllocator.hpp ****         MemoryAllocator::instance()->kmem_free(((KObjectAllocator*) p)->bitVectors);
 2300              		.loc 1 69 51 is_stmt 0
 2301 0f04 97000000 		call	_ZN15MemoryAllocator8instanceEv@plt
 2301      E7800000 
 2302              	.LVL317:
  69:src/../h/kObjectAllocator.hpp ****         MemoryAllocator::instance()->kmem_free(((KObjectAllocator*) p)->bitVectors);
 2303              		.loc 1 69 77
 2304 0f0c 83B78402 		ld	a5,40(s1)
  69:src/../h/kObjectAllocator.hpp ****         MemoryAllocator::instance()->kmem_free(((KObjectAllocator*) p)->bitVectors);
GAS LISTING /tmp/ccxAvD3a.s 			page 58


 2305              		.loc 1 69 89
 2306 0f10 13973A00 		slli	a4,s5,3
 2307 0f14 B387E700 		add	a5,a5,a4
  69:src/../h/kObjectAllocator.hpp ****         MemoryAllocator::instance()->kmem_free(((KObjectAllocator*) p)->bitVectors);
 2308              		.loc 1 69 51
 2309 0f18 83B50700 		ld	a1,0(a5)
 2310 0f1c 97000000 		call	_ZN15MemoryAllocator9kmem_freeEPv@plt
 2310      E7800000 
 2311              	.LVL318:
  68:src/../h/kObjectAllocator.hpp ****             MemoryAllocator::instance()->kmem_free(((KObjectAllocator*) p)->bitVectors[i]);
 2312              		.loc 1 68 9 is_stmt 1
 2313 0f24 938A1A00 		addi	s5,s5,1
 2314              	.LVL319:
 2315              	.L142:
  68:src/../h/kObjectAllocator.hpp ****             MemoryAllocator::instance()->kmem_free(((KObjectAllocator*) p)->bitVectors[i]);
 2316              		.loc 1 68 30
  68:src/../h/kObjectAllocator.hpp ****             MemoryAllocator::instance()->kmem_free(((KObjectAllocator*) p)->bitVectors[i]);
 2317              		.loc 1 68 57 is_stmt 0
 2318 0f28 83B70403 		ld	a5,48(s1)
  68:src/../h/kObjectAllocator.hpp ****             MemoryAllocator::instance()->kmem_free(((KObjectAllocator*) p)->bitVectors[i]);
 2319              		.loc 1 68 30
 2320 0f2c E3ECFAFC 		bgtu	a5,s5,.L199
 2321              	.LBE208:
  70:src/../h/kObjectAllocator.hpp ****         MemoryAllocator::instance()->kmem_free(((KObjectAllocator*) p)->objectVectors);
 2322              		.loc 1 70 9 is_stmt 1
  70:src/../h/kObjectAllocator.hpp ****         MemoryAllocator::instance()->kmem_free(((KObjectAllocator*) p)->objectVectors);
 2323              		.loc 1 70 47 is_stmt 0
 2324 0f30 97000000 		call	_ZN15MemoryAllocator8instanceEv@plt
 2324      E7800000 
 2325              	.LVL320:
 2326 0f38 83B58402 		ld	a1,40(s1)
 2327 0f3c 97000000 		call	_ZN15MemoryAllocator9kmem_freeEPv@plt
 2327      E7800000 
 2328              	.LVL321:
  71:src/../h/kObjectAllocator.hpp ****         MemoryAllocator::instance()->kmem_free(p);
 2329              		.loc 1 71 9 is_stmt 1
  71:src/../h/kObjectAllocator.hpp ****         MemoryAllocator::instance()->kmem_free(p);
 2330              		.loc 1 71 47 is_stmt 0
 2331 0f44 97000000 		call	_ZN15MemoryAllocator8instanceEv@plt
 2331      E7800000 
 2332              	.LVL322:
 2333 0f4c 83B50402 		ld	a1,32(s1)
 2334 0f50 97000000 		call	_ZN15MemoryAllocator9kmem_freeEPv@plt
 2334      E7800000 
 2335              	.LVL323:
  72:src/../h/kObjectAllocator.hpp ****     }
 2336              		.loc 1 72 9 is_stmt 1
  72:src/../h/kObjectAllocator.hpp ****     }
 2337              		.loc 1 72 47 is_stmt 0
 2338 0f58 97000000 		call	_ZN15MemoryAllocator8instanceEv@plt
 2338      E7800000 
 2339              	.LVL324:
 2340 0f60 93850400 		mv	a1,s1
 2341 0f64 97000000 		call	_ZN15MemoryAllocator9kmem_freeEPv@plt
 2341      E7800000 
 2342              	.LVL325:
 2343              	.L140:
GAS LISTING /tmp/ccxAvD3a.s 			page 59


 2344              	.LBE207:
 2345              	.LBE206:
 125:src/kObjectAllocatorTest.cpp ****     for (size_t i = 32; i < 320; objArr[i++] = objAlloc->allocateNewObject());
 2346              		.loc 2 125 61 is_stmt 1 discriminator 3
 125:src/kObjectAllocatorTest.cpp ****     for (size_t i = 32; i < 320; objArr[i++] = objAlloc->allocateNewObject());
 2347              		.loc 2 125 68 is_stmt 0 discriminator 3
 2348 0f6c 13050000 		li	a0,0
 2349 0f70 6FF01FD1 		j	.L190
 2350              	.LVL326:
 2351              	.L143:
 127:src/kObjectAllocatorTest.cpp **** 
 2352              		.loc 2 127 5 is_stmt 1
 127:src/kObjectAllocatorTest.cpp **** 
 2353              		.loc 2 127 19 is_stmt 0
 2354 0f74 03B78403 		ld	a4,56(s1)
 127:src/kObjectAllocatorTest.cpp **** 
 2355              		.loc 2 127 5
 2356 0f78 93078002 		li	a5,40
 2357 0f7c 630EF706 		beq	a4,a5,.L144
 127:src/kObjectAllocatorTest.cpp **** 
 2358              		.loc 2 127 45 is_stmt 1 discriminator 1
 127:src/kObjectAllocatorTest.cpp **** 
 2359              		.loc 2 127 60 is_stmt 0 discriminator 1
 2360 0f80 63880406 		beqz	s1,.L145
 2361              	.L147:
 2362              	.LVL327:
 2363              	.LBB209:
 2364              	.LBB210:
 2365              	.LBB211:
  68:src/../h/kObjectAllocator.hpp ****             MemoryAllocator::instance()->kmem_free(((KObjectAllocator*) p)->bitVectors[i]);
 2366              		.loc 1 68 30 is_stmt 1
  68:src/../h/kObjectAllocator.hpp ****             MemoryAllocator::instance()->kmem_free(((KObjectAllocator*) p)->bitVectors[i]);
 2367              		.loc 1 68 57 is_stmt 0
 2368 0f84 83B70403 		ld	a5,48(s1)
  68:src/../h/kObjectAllocator.hpp ****             MemoryAllocator::instance()->kmem_free(((KObjectAllocator*) p)->bitVectors[i]);
 2369              		.loc 1 68 30
 2370 0f88 63F6FA02 		bleu	a5,s5,.L146
  69:src/../h/kObjectAllocator.hpp ****         MemoryAllocator::instance()->kmem_free(((KObjectAllocator*) p)->bitVectors);
 2371              		.loc 1 69 13 is_stmt 1
  69:src/../h/kObjectAllocator.hpp ****         MemoryAllocator::instance()->kmem_free(((KObjectAllocator*) p)->bitVectors);
 2372              		.loc 1 69 51 is_stmt 0
 2373 0f8c 97000000 		call	_ZN15MemoryAllocator8instanceEv@plt
 2373      E7800000 
 2374              	.LVL328:
  69:src/../h/kObjectAllocator.hpp ****         MemoryAllocator::instance()->kmem_free(((KObjectAllocator*) p)->bitVectors);
 2375              		.loc 1 69 77
 2376 0f94 83B78402 		ld	a5,40(s1)
  69:src/../h/kObjectAllocator.hpp ****         MemoryAllocator::instance()->kmem_free(((KObjectAllocator*) p)->bitVectors);
 2377              		.loc 1 69 89
 2378 0f98 13973A00 		slli	a4,s5,3
 2379 0f9c B387E700 		add	a5,a5,a4
  69:src/../h/kObjectAllocator.hpp ****         MemoryAllocator::instance()->kmem_free(((KObjectAllocator*) p)->bitVectors);
 2380              		.loc 1 69 51
 2381 0fa0 83B50700 		ld	a1,0(a5)
 2382 0fa4 97000000 		call	_ZN15MemoryAllocator9kmem_freeEPv@plt
 2382      E7800000 
 2383              	.LVL329:
GAS LISTING /tmp/ccxAvD3a.s 			page 60


  68:src/../h/kObjectAllocator.hpp ****             MemoryAllocator::instance()->kmem_free(((KObjectAllocator*) p)->bitVectors[i]);
 2384              		.loc 1 68 9 is_stmt 1
 2385 0fac 938A1A00 		addi	s5,s5,1
 2386              	.LVL330:
 2387 0fb0 6FF05FFD 		j	.L147
 2388              	.L146:
 2389              	.LBE211:
  70:src/../h/kObjectAllocator.hpp ****         MemoryAllocator::instance()->kmem_free(((KObjectAllocator*) p)->objectVectors);
 2390              		.loc 1 70 9
  70:src/../h/kObjectAllocator.hpp ****         MemoryAllocator::instance()->kmem_free(((KObjectAllocator*) p)->objectVectors);
 2391              		.loc 1 70 47 is_stmt 0
 2392 0fb4 97000000 		call	_ZN15MemoryAllocator8instanceEv@plt
 2392      E7800000 
 2393              	.LVL331:
 2394 0fbc 83B58402 		ld	a1,40(s1)
 2395 0fc0 97000000 		call	_ZN15MemoryAllocator9kmem_freeEPv@plt
 2395      E7800000 
 2396              	.LVL332:
  71:src/../h/kObjectAllocator.hpp ****         MemoryAllocator::instance()->kmem_free(p);
 2397              		.loc 1 71 9 is_stmt 1
  71:src/../h/kObjectAllocator.hpp ****         MemoryAllocator::instance()->kmem_free(p);
 2398              		.loc 1 71 47 is_stmt 0
 2399 0fc8 97000000 		call	_ZN15MemoryAllocator8instanceEv@plt
 2399      E7800000 
 2400              	.LVL333:
 2401 0fd0 83B50402 		ld	a1,32(s1)
 2402 0fd4 97000000 		call	_ZN15MemoryAllocator9kmem_freeEPv@plt
 2402      E7800000 
 2403              	.LVL334:
  72:src/../h/kObjectAllocator.hpp ****     }
 2404              		.loc 1 72 9 is_stmt 1
  72:src/../h/kObjectAllocator.hpp ****     }
 2405              		.loc 1 72 47 is_stmt 0
 2406 0fdc 97000000 		call	_ZN15MemoryAllocator8instanceEv@plt
 2406      E7800000 
 2407              	.LVL335:
 2408 0fe4 93850400 		mv	a1,s1
 2409 0fe8 97000000 		call	_ZN15MemoryAllocator9kmem_freeEPv@plt
 2409      E7800000 
 2410              	.LVL336:
 2411              	.L145:
 2412              	.LBE210:
 2413              	.LBE209:
 127:src/kObjectAllocatorTest.cpp **** 
 2414              		.loc 2 127 62 is_stmt 1 discriminator 3
 127:src/kObjectAllocatorTest.cpp **** 
 2415              		.loc 2 127 69 is_stmt 0 discriminator 3
 2416 0ff0 13050000 		li	a0,0
 2417 0ff4 6FF0DFC8 		j	.L190
 2418              	.L144:
 129:src/kObjectAllocatorTest.cpp ****     objArr[7 * 8] = objAlloc->allocateNewObject();
 2419              		.loc 2 129 5 is_stmt 1
 129:src/kObjectAllocatorTest.cpp ****     objArr[7 * 8] = objAlloc->allocateNewObject();
 2420              		.loc 2 129 25 is_stmt 0
 2421 0ff8 B7F7FFFF 		li	a5,-4096
 2422 0ffc 130704FC 		addi	a4,s0,-64
 2423 1000 B307F700 		add	a5,a4,a5
GAS LISTING /tmp/ccxAvD3a.s 			page 61


 2424 1004 83B5077C 		ld	a1,1984(a5)
 2425 1008 13850400 		mv	a0,s1
 2426 100c 97000000 		call	_ZN16KObjectAllocator10freeObjectEPv@plt
 2426      E7800000 
 2427              	.LVL337:
 130:src/kObjectAllocatorTest.cpp ****     if (getByteOfObject(objArr[7 * 8], objAlloc) != 7
 2428              		.loc 2 130 5 is_stmt 1
 130:src/kObjectAllocatorTest.cpp ****     if (getByteOfObject(objArr[7 * 8], objAlloc) != 7
 2429              		.loc 2 130 48 is_stmt 0
 2430 1014 13850400 		mv	a0,s1
 2431 1018 97000000 		call	_ZN16KObjectAllocator17allocateNewObjectEv@plt
 2431      E7800000 
 2432              	.LVL338:
 2433 1020 13090500 		mv	s2,a0
 2434              	.LVL339:
 131:src/kObjectAllocatorTest.cpp ****         || getBitOfObject(objArr[7 * 8], objAlloc) != 7)
 2435              		.loc 2 131 5 is_stmt 1
 131:src/kObjectAllocatorTest.cpp ****         || getBitOfObject(objArr[7 * 8], objAlloc) != 7)
 2436              		.loc 2 131 24 is_stmt 0
 2437 1024 13860400 		mv	a2,s1
 2438 1028 93050500 		mv	a1,a0
 2439 102c 13850900 		mv	a0,s3
 2440 1030 97000000 		call	_ZN20KObjectAllocatorTest15getByteOfObjectEPvP16KObjectAllocator
 2440      E7800000 
 2441              	.LVL340:
 132:src/kObjectAllocatorTest.cpp ****         { delete objAlloc; return false; }
 2442              		.loc 2 132 9
 2443 1038 93077000 		li	a5,7
 2444 103c 630CF502 		beq	a0,a5,.L200
 2445              	.L148:
 133:src/kObjectAllocatorTest.cpp ****     if (objAlloc->nextNonTakenByte != 7) { delete objAlloc; return false; }
 2446              		.loc 2 133 11 is_stmt 1 discriminator 4
 133:src/kObjectAllocatorTest.cpp ****     if (objAlloc->nextNonTakenByte != 7) { delete objAlloc; return false; }
 2447              		.loc 2 133 26 is_stmt 0 discriminator 4
 2448 1040 6386040A 		beqz	s1,.L151
 2449              	.L153:
 2450              	.LVL341:
 2451              	.LBB212:
 2452              	.LBB213:
 2453              	.LBB214:
  68:src/../h/kObjectAllocator.hpp ****             MemoryAllocator::instance()->kmem_free(((KObjectAllocator*) p)->bitVectors[i]);
 2454              		.loc 1 68 30 is_stmt 1
  68:src/../h/kObjectAllocator.hpp ****             MemoryAllocator::instance()->kmem_free(((KObjectAllocator*) p)->bitVectors[i]);
 2455              		.loc 1 68 57 is_stmt 0
 2456 1044 83B70403 		ld	a5,48(s1)
  68:src/../h/kObjectAllocator.hpp ****             MemoryAllocator::instance()->kmem_free(((KObjectAllocator*) p)->bitVectors[i]);
 2457              		.loc 1 68 30
 2458 1048 63F4FA06 		bleu	a5,s5,.L152
  69:src/../h/kObjectAllocator.hpp ****         MemoryAllocator::instance()->kmem_free(((KObjectAllocator*) p)->bitVectors);
 2459              		.loc 1 69 13 is_stmt 1
  69:src/../h/kObjectAllocator.hpp ****         MemoryAllocator::instance()->kmem_free(((KObjectAllocator*) p)->bitVectors);
 2460              		.loc 1 69 51 is_stmt 0
 2461 104c 97000000 		call	_ZN15MemoryAllocator8instanceEv@plt
 2461      E7800000 
 2462              	.LVL342:
  69:src/../h/kObjectAllocator.hpp ****         MemoryAllocator::instance()->kmem_free(((KObjectAllocator*) p)->bitVectors);
 2463              		.loc 1 69 77
GAS LISTING /tmp/ccxAvD3a.s 			page 62


 2464 1054 83B78402 		ld	a5,40(s1)
  69:src/../h/kObjectAllocator.hpp ****         MemoryAllocator::instance()->kmem_free(((KObjectAllocator*) p)->bitVectors);
 2465              		.loc 1 69 89
 2466 1058 13973A00 		slli	a4,s5,3
 2467 105c B387E700 		add	a5,a5,a4
  69:src/../h/kObjectAllocator.hpp ****         MemoryAllocator::instance()->kmem_free(((KObjectAllocator*) p)->bitVectors);
 2468              		.loc 1 69 51
 2469 1060 83B50700 		ld	a1,0(a5)
 2470 1064 97000000 		call	_ZN15MemoryAllocator9kmem_freeEPv@plt
 2470      E7800000 
 2471              	.LVL343:
  68:src/../h/kObjectAllocator.hpp ****             MemoryAllocator::instance()->kmem_free(((KObjectAllocator*) p)->bitVectors[i]);
 2472              		.loc 1 68 9 is_stmt 1
 2473 106c 938A1A00 		addi	s5,s5,1
 2474              	.LVL344:
 2475 1070 6FF05FFD 		j	.L153
 2476              	.LVL345:
 2477              	.L200:
 2478              	.LBE214:
 2479              	.LBE213:
 2480              	.LBE212:
 132:src/kObjectAllocatorTest.cpp ****         { delete objAlloc; return false; }
 2481              		.loc 2 132 26 is_stmt 0 discriminator 2
 2482 1074 13860400 		mv	a2,s1
 2483 1078 93050900 		mv	a1,s2
 2484 107c 13850900 		mv	a0,s3
 2485 1080 97000000 		call	_ZN20KObjectAllocatorTest14getBitOfObjectEPvP16KObjectAllocator
 2485      E7800000 
 2486              	.LVL346:
 132:src/kObjectAllocatorTest.cpp ****         { delete objAlloc; return false; }
 2487              		.loc 2 132 9 discriminator 2
 2488 1088 93077000 		li	a5,7
 2489 108c E31AF5FA 		bne	a0,a5,.L148
 134:src/kObjectAllocatorTest.cpp **** 
 2490              		.loc 2 134 5 is_stmt 1
 134:src/kObjectAllocatorTest.cpp **** 
 2491              		.loc 2 134 19 is_stmt 0
 2492 1090 03B78403 		ld	a4,56(s1)
 134:src/kObjectAllocatorTest.cpp **** 
 2493              		.loc 2 134 5
 2494 1094 6300F706 		beq	a4,a5,.L201
 134:src/kObjectAllocatorTest.cpp **** 
 2495              		.loc 2 134 44 is_stmt 1 discriminator 1
 134:src/kObjectAllocatorTest.cpp **** 
 2496              		.loc 2 134 59 is_stmt 0 discriminator 1
 2497 1098 63880400 		beqz	s1,.L154
 134:src/kObjectAllocatorTest.cpp **** 
 2498              		.loc 2 134 51 discriminator 2
 2499 109c 13850400 		mv	a0,s1
 2500 10a0 97000000 		call	_ZN16KObjectAllocatordlEPv
 2500      E7800000 
 2501              	.LVL347:
 2502              	.L154:
 134:src/kObjectAllocatorTest.cpp **** 
 2503              		.loc 2 134 61 is_stmt 1 discriminator 3
 134:src/kObjectAllocatorTest.cpp **** 
 2504              		.loc 2 134 68 is_stmt 0 discriminator 3
GAS LISTING /tmp/ccxAvD3a.s 			page 63


 2505 10a8 13050000 		li	a0,0
 2506 10ac 6FF05FBD 		j	.L190
 2507              	.LVL348:
 2508              	.L152:
 2509              	.LBB216:
 2510              	.LBB215:
  70:src/../h/kObjectAllocator.hpp ****         MemoryAllocator::instance()->kmem_free(((KObjectAllocator*) p)->objectVectors);
 2511              		.loc 1 70 9 is_stmt 1
  70:src/../h/kObjectAllocator.hpp ****         MemoryAllocator::instance()->kmem_free(((KObjectAllocator*) p)->objectVectors);
 2512              		.loc 1 70 47 is_stmt 0
 2513 10b0 97000000 		call	_ZN15MemoryAllocator8instanceEv@plt
 2513      E7800000 
 2514              	.LVL349:
 2515 10b8 83B58402 		ld	a1,40(s1)
 2516 10bc 97000000 		call	_ZN15MemoryAllocator9kmem_freeEPv@plt
 2516      E7800000 
 2517              	.LVL350:
  71:src/../h/kObjectAllocator.hpp ****         MemoryAllocator::instance()->kmem_free(p);
 2518              		.loc 1 71 9 is_stmt 1
  71:src/../h/kObjectAllocator.hpp ****         MemoryAllocator::instance()->kmem_free(p);
 2519              		.loc 1 71 47 is_stmt 0
 2520 10c4 97000000 		call	_ZN15MemoryAllocator8instanceEv@plt
 2520      E7800000 
 2521              	.LVL351:
 2522 10cc 83B50402 		ld	a1,32(s1)
 2523 10d0 97000000 		call	_ZN15MemoryAllocator9kmem_freeEPv@plt
 2523      E7800000 
 2524              	.LVL352:
  72:src/../h/kObjectAllocator.hpp ****     }
 2525              		.loc 1 72 9 is_stmt 1
  72:src/../h/kObjectAllocator.hpp ****     }
 2526              		.loc 1 72 47 is_stmt 0
 2527 10d8 97000000 		call	_ZN15MemoryAllocator8instanceEv@plt
 2527      E7800000 
 2528              	.LVL353:
 2529 10e0 93850400 		mv	a1,s1
 2530 10e4 97000000 		call	_ZN15MemoryAllocator9kmem_freeEPv@plt
 2530      E7800000 
 2531              	.LVL354:
 2532              	.L151:
 2533              	.LBE215:
 2534              	.LBE216:
 133:src/kObjectAllocatorTest.cpp ****     if (objAlloc->nextNonTakenByte != 7) { delete objAlloc; return false; }
 2535              		.loc 2 133 28 is_stmt 1 discriminator 2
 133:src/kObjectAllocatorTest.cpp ****     if (objAlloc->nextNonTakenByte != 7) { delete objAlloc; return false; }
 2536              		.loc 2 133 35 is_stmt 0 discriminator 2
 2537 10ec 13050000 		li	a0,0
 2538 10f0 6FF01FB9 		j	.L190
 2539              	.L201:
 136:src/kObjectAllocatorTest.cpp ****     objAlloc->freeObject(objArr[7 * 8 + 4]);
 2540              		.loc 2 136 5 is_stmt 1
 136:src/kObjectAllocatorTest.cpp ****     objAlloc->freeObject(objArr[7 * 8 + 4]);
 2541              		.loc 2 136 25 is_stmt 0
 2542 10f4 37F9FFFF 		li	s2,-4096
 2543 10f8 930704FC 		addi	a5,s0,-64
 2544 10fc 33892701 		add	s2,a5,s2
 2545 1100 83358979 		ld	a1,1944(s2)
GAS LISTING /tmp/ccxAvD3a.s 			page 64


 2546 1104 13850400 		mv	a0,s1
 2547 1108 97000000 		call	_ZN16KObjectAllocator10freeObjectEPv@plt
 2547      E7800000 
 2548              	.LVL355:
 137:src/kObjectAllocatorTest.cpp ****     objAlloc->freeObject(objArr[38 * 8 + 5]);
 2549              		.loc 2 137 5 is_stmt 1
 137:src/kObjectAllocatorTest.cpp ****     objAlloc->freeObject(objArr[38 * 8 + 5]);
 2550              		.loc 2 137 25 is_stmt 0
 2551 1110 8335097E 		ld	a1,2016(s2)
 2552 1114 13850400 		mv	a0,s1
 2553 1118 97000000 		call	_ZN16KObjectAllocator10freeObjectEPv@plt
 2553      E7800000 
 2554              	.LVL356:
 138:src/kObjectAllocatorTest.cpp **** 
 2555              		.loc 2 138 5 is_stmt 1
 138:src/kObjectAllocatorTest.cpp **** 
 2556              		.loc 2 138 25 is_stmt 0
 2557 1120 833584F6 		ld	a1,-152(s0)
 2558 1124 13850400 		mv	a0,s1
 2559 1128 97000000 		call	_ZN16KObjectAllocator10freeObjectEPv@plt
 2559      E7800000 
 2560              	.LVL357:
 140:src/kObjectAllocatorTest.cpp ****     if (getByteOfObject(objArr[7 * 8 + 4], objAlloc) != 7
 2561              		.loc 2 140 5 is_stmt 1
 140:src/kObjectAllocatorTest.cpp ****     if (getByteOfObject(objArr[7 * 8 + 4], objAlloc) != 7
 2562              		.loc 2 140 52 is_stmt 0
 2563 1130 13850400 		mv	a0,s1
 2564 1134 97000000 		call	_ZN16KObjectAllocator17allocateNewObjectEv@plt
 2564      E7800000 
 2565              	.LVL358:
 2566 113c 13090500 		mv	s2,a0
 141:src/kObjectAllocatorTest.cpp ****         || getBitOfObject(objArr[7 * 8 + 4], objAlloc) != 3)
 2567              		.loc 2 141 5 is_stmt 1
 141:src/kObjectAllocatorTest.cpp ****         || getBitOfObject(objArr[7 * 8 + 4], objAlloc) != 3)
 2568              		.loc 2 141 24 is_stmt 0
 2569 1140 13860400 		mv	a2,s1
 2570 1144 93050500 		mv	a1,a0
 2571 1148 13850900 		mv	a0,s3
 2572 114c 97000000 		call	_ZN20KObjectAllocatorTest15getByteOfObjectEPvP16KObjectAllocator
 2572      E7800000 
 2573              	.LVL359:
 142:src/kObjectAllocatorTest.cpp ****         { delete objAlloc; return false; }
 2574              		.loc 2 142 9
 2575 1154 93077000 		li	a5,7
 2576 1158 630EF500 		beq	a0,a5,.L202
 2577              	.L155:
 143:src/kObjectAllocatorTest.cpp ****     if (objAlloc->nextNonTakenByte != 7) { delete objAlloc; return false; }
 2578              		.loc 2 143 11 is_stmt 1 discriminator 4
 143:src/kObjectAllocatorTest.cpp ****     if (objAlloc->nextNonTakenByte != 7) { delete objAlloc; return false; }
 2579              		.loc 2 143 26 is_stmt 0 discriminator 4
 2580 115c 63880400 		beqz	s1,.L158
 143:src/kObjectAllocatorTest.cpp ****     if (objAlloc->nextNonTakenByte != 7) { delete objAlloc; return false; }
 2581              		.loc 2 143 18 discriminator 1
 2582 1160 13850400 		mv	a0,s1
 2583 1164 97000000 		call	_ZN16KObjectAllocatordlEPv
 2583      E7800000 
 2584              	.LVL360:
GAS LISTING /tmp/ccxAvD3a.s 			page 65


 2585              	.L158:
 143:src/kObjectAllocatorTest.cpp ****     if (objAlloc->nextNonTakenByte != 7) { delete objAlloc; return false; }
 2586              		.loc 2 143 28 is_stmt 1 discriminator 2
 143:src/kObjectAllocatorTest.cpp ****     if (objAlloc->nextNonTakenByte != 7) { delete objAlloc; return false; }
 2587              		.loc 2 143 35 is_stmt 0 discriminator 2
 2588 116c 13050000 		li	a0,0
 2589 1170 6FF01FB1 		j	.L190
 2590              	.L202:
 142:src/kObjectAllocatorTest.cpp ****         { delete objAlloc; return false; }
 2591              		.loc 2 142 26 discriminator 2
 2592 1174 13860400 		mv	a2,s1
 2593 1178 93050900 		mv	a1,s2
 2594 117c 13850900 		mv	a0,s3
 2595 1180 97000000 		call	_ZN20KObjectAllocatorTest14getBitOfObjectEPvP16KObjectAllocator
 2595      E7800000 
 2596              	.LVL361:
 142:src/kObjectAllocatorTest.cpp ****         { delete objAlloc; return false; }
 2597              		.loc 2 142 9 discriminator 2
 2598 1188 93073000 		li	a5,3
 2599 118c E318F5FC 		bne	a0,a5,.L155
 144:src/kObjectAllocatorTest.cpp ****     objAlloc->freeObject(objArr[3 * 8 + 5]);
 2600              		.loc 2 144 5 is_stmt 1
 144:src/kObjectAllocatorTest.cpp ****     objAlloc->freeObject(objArr[3 * 8 + 5]);
 2601              		.loc 2 144 19 is_stmt 0
 2602 1190 03B78403 		ld	a4,56(s1)
 144:src/kObjectAllocatorTest.cpp ****     objAlloc->freeObject(objArr[3 * 8 + 5]);
 2603              		.loc 2 144 5
 2604 1194 93077000 		li	a5,7
 2605 1198 630EF700 		beq	a4,a5,.L203
 144:src/kObjectAllocatorTest.cpp ****     objAlloc->freeObject(objArr[3 * 8 + 5]);
 2606              		.loc 2 144 44 is_stmt 1 discriminator 1
 144:src/kObjectAllocatorTest.cpp ****     objAlloc->freeObject(objArr[3 * 8 + 5]);
 2607              		.loc 2 144 59 is_stmt 0 discriminator 1
 2608 119c 63880400 		beqz	s1,.L159
 144:src/kObjectAllocatorTest.cpp ****     objAlloc->freeObject(objArr[3 * 8 + 5]);
 2609              		.loc 2 144 51 discriminator 2
 2610 11a0 13850400 		mv	a0,s1
 2611 11a4 97000000 		call	_ZN16KObjectAllocatordlEPv
 2611      E7800000 
 2612              	.LVL362:
 2613              	.L159:
 144:src/kObjectAllocatorTest.cpp ****     objAlloc->freeObject(objArr[3 * 8 + 5]);
 2614              		.loc 2 144 61 is_stmt 1 discriminator 3
 144:src/kObjectAllocatorTest.cpp ****     objAlloc->freeObject(objArr[3 * 8 + 5]);
 2615              		.loc 2 144 68 is_stmt 0 discriminator 3
 2616 11ac 13050000 		li	a0,0
 2617 11b0 6FF01FAD 		j	.L190
 2618              	.L203:
 145:src/kObjectAllocatorTest.cpp **** 
 2619              		.loc 2 145 5 is_stmt 1
 145:src/kObjectAllocatorTest.cpp **** 
 2620              		.loc 2 145 25 is_stmt 0
 2621 11b4 B7F7FFFF 		li	a5,-4096
 2622 11b8 130704FC 		addi	a4,s0,-64
 2623 11bc B307F700 		add	a5,a4,a5
 2624 11c0 83B5876E 		ld	a1,1768(a5)
 2625 11c4 13850400 		mv	a0,s1
GAS LISTING /tmp/ccxAvD3a.s 			page 66


 2626 11c8 97000000 		call	_ZN16KObjectAllocator10freeObjectEPv@plt
 2626      E7800000 
 2627              	.LVL363:
 147:src/kObjectAllocatorTest.cpp ****     if (getByteOfObject(objArr[38 * 8 + 5], objAlloc) != 38
 2628              		.loc 2 147 5 is_stmt 1
 147:src/kObjectAllocatorTest.cpp ****     if (getByteOfObject(objArr[38 * 8 + 5], objAlloc) != 38
 2629              		.loc 2 147 53 is_stmt 0
 2630 11d0 13850400 		mv	a0,s1
 2631 11d4 97000000 		call	_ZN16KObjectAllocator17allocateNewObjectEv@plt
 2631      E7800000 
 2632              	.LVL364:
 2633 11dc 13090500 		mv	s2,a0
 148:src/kObjectAllocatorTest.cpp ****         || getBitOfObject(objArr[38 * 8 + 5], objAlloc) != 2)
 2634              		.loc 2 148 5 is_stmt 1
 148:src/kObjectAllocatorTest.cpp ****         || getBitOfObject(objArr[38 * 8 + 5], objAlloc) != 2)
 2635              		.loc 2 148 24 is_stmt 0
 2636 11e0 13860400 		mv	a2,s1
 2637 11e4 93050500 		mv	a1,a0
 2638 11e8 13850900 		mv	a0,s3
 2639 11ec 97000000 		call	_ZN20KObjectAllocatorTest15getByteOfObjectEPvP16KObjectAllocator
 2639      E7800000 
 2640              	.LVL365:
 149:src/kObjectAllocatorTest.cpp ****     { delete objAlloc; return false; }
 2641              		.loc 2 149 9
 2642 11f4 93076002 		li	a5,38
 2643 11f8 630EF500 		beq	a0,a5,.L204
 2644              	.L160:
 150:src/kObjectAllocatorTest.cpp ****     if (objAlloc->nextNonTakenByte != 38) { delete objAlloc; return false; }
 2645              		.loc 2 150 7 is_stmt 1 discriminator 4
 150:src/kObjectAllocatorTest.cpp ****     if (objAlloc->nextNonTakenByte != 38) { delete objAlloc; return false; }
 2646              		.loc 2 150 22 is_stmt 0 discriminator 4
 2647 11fc 63880400 		beqz	s1,.L163
 150:src/kObjectAllocatorTest.cpp ****     if (objAlloc->nextNonTakenByte != 38) { delete objAlloc; return false; }
 2648              		.loc 2 150 14 discriminator 1
 2649 1200 13850400 		mv	a0,s1
 2650 1204 97000000 		call	_ZN16KObjectAllocatordlEPv
 2650      E7800000 
 2651              	.LVL366:
 2652              	.L163:
 150:src/kObjectAllocatorTest.cpp ****     if (objAlloc->nextNonTakenByte != 38) { delete objAlloc; return false; }
 2653              		.loc 2 150 24 is_stmt 1 discriminator 2
 150:src/kObjectAllocatorTest.cpp ****     if (objAlloc->nextNonTakenByte != 38) { delete objAlloc; return false; }
 2654              		.loc 2 150 31 is_stmt 0 discriminator 2
 2655 120c 13050000 		li	a0,0
 2656 1210 6FF01FA7 		j	.L190
 2657              	.L204:
 149:src/kObjectAllocatorTest.cpp ****     { delete objAlloc; return false; }
 2658              		.loc 2 149 26 discriminator 2
 2659 1214 13860400 		mv	a2,s1
 2660 1218 93050900 		mv	a1,s2
 2661 121c 13850900 		mv	a0,s3
 2662 1220 97000000 		call	_ZN20KObjectAllocatorTest14getBitOfObjectEPvP16KObjectAllocator
 2662      E7800000 
 2663              	.LVL367:
 149:src/kObjectAllocatorTest.cpp ****     { delete objAlloc; return false; }
 2664              		.loc 2 149 9 discriminator 2
 2665 1228 93072000 		li	a5,2
GAS LISTING /tmp/ccxAvD3a.s 			page 67


 2666 122c E318F5FC 		bne	a0,a5,.L160
 151:src/kObjectAllocatorTest.cpp **** 
 2667              		.loc 2 151 5 is_stmt 1
 151:src/kObjectAllocatorTest.cpp **** 
 2668              		.loc 2 151 19 is_stmt 0
 2669 1230 03B78403 		ld	a4,56(s1)
 151:src/kObjectAllocatorTest.cpp **** 
 2670              		.loc 2 151 5
 2671 1234 93076002 		li	a5,38
 2672 1238 630EF700 		beq	a4,a5,.L205
 151:src/kObjectAllocatorTest.cpp **** 
 2673              		.loc 2 151 45 is_stmt 1 discriminator 1
 151:src/kObjectAllocatorTest.cpp **** 
 2674              		.loc 2 151 60 is_stmt 0 discriminator 1
 2675 123c 63880400 		beqz	s1,.L164
 151:src/kObjectAllocatorTest.cpp **** 
 2676              		.loc 2 151 52 discriminator 2
 2677 1240 13850400 		mv	a0,s1
 2678 1244 97000000 		call	_ZN16KObjectAllocatordlEPv
 2678      E7800000 
 2679              	.LVL368:
 2680              	.L164:
 151:src/kObjectAllocatorTest.cpp **** 
 2681              		.loc 2 151 62 is_stmt 1 discriminator 3
 151:src/kObjectAllocatorTest.cpp **** 
 2682              		.loc 2 151 69 is_stmt 0 discriminator 3
 2683 124c 13050000 		li	a0,0
 2684 1250 6FF01FA3 		j	.L190
 2685              	.L205:
 154:src/kObjectAllocatorTest.cpp ****     if (getByteOfObject(objArr[3 * 8 + 5], objAlloc) != 3 || getBitOfObject(objArr[3 * 8 + 5], objA
 2686              		.loc 2 154 5 is_stmt 1
 154:src/kObjectAllocatorTest.cpp ****     if (getByteOfObject(objArr[3 * 8 + 5], objAlloc) != 3 || getBitOfObject(objArr[3 * 8 + 5], objA
 2687              		.loc 2 154 52 is_stmt 0
 2688 1254 13850400 		mv	a0,s1
 2689 1258 97000000 		call	_ZN16KObjectAllocator17allocateNewObjectEv@plt
 2689      E7800000 
 2690              	.LVL369:
 2691 1260 13090500 		mv	s2,a0
 155:src/kObjectAllocatorTest.cpp ****     if (objAlloc->nextNonTakenByte != 3) { delete objAlloc; return false; }
 2692              		.loc 2 155 5 is_stmt 1
 155:src/kObjectAllocatorTest.cpp ****     if (objAlloc->nextNonTakenByte != 3) { delete objAlloc; return false; }
 2693              		.loc 2 155 24 is_stmt 0
 2694 1264 13860400 		mv	a2,s1
 2695 1268 93050500 		mv	a1,a0
 2696 126c 13850900 		mv	a0,s3
 2697 1270 97000000 		call	_ZN20KObjectAllocatorTest15getByteOfObjectEPvP16KObjectAllocator
 2697      E7800000 
 2698              	.LVL370:
 155:src/kObjectAllocatorTest.cpp ****     if (objAlloc->nextNonTakenByte != 3) { delete objAlloc; return false; }
 2699              		.loc 2 155 59
 2700 1278 93073000 		li	a5,3
 2701 127c 6304F502 		beq	a0,a5,.L206
 2702              	.L165:
 156:src/kObjectAllocatorTest.cpp **** 
 2703              		.loc 2 156 5 is_stmt 1 discriminator 5
 156:src/kObjectAllocatorTest.cpp **** 
 2704              		.loc 2 156 19 is_stmt 0 discriminator 5
GAS LISTING /tmp/ccxAvD3a.s 			page 68


 2705 1280 03B78403 		ld	a4,56(s1)
 156:src/kObjectAllocatorTest.cpp **** 
 2706              		.loc 2 156 5 discriminator 5
 2707 1284 93073000 		li	a5,3
 2708 1288 630CF702 		beq	a4,a5,.L166
 156:src/kObjectAllocatorTest.cpp **** 
 2709              		.loc 2 156 44 is_stmt 1 discriminator 1
 156:src/kObjectAllocatorTest.cpp **** 
 2710              		.loc 2 156 59 is_stmt 0 discriminator 1
 2711 128c 63880400 		beqz	s1,.L167
 156:src/kObjectAllocatorTest.cpp **** 
 2712              		.loc 2 156 51 discriminator 2
 2713 1290 13850400 		mv	a0,s1
 2714 1294 97000000 		call	_ZN16KObjectAllocatordlEPv
 2714      E7800000 
 2715              	.LVL371:
 2716              	.L167:
 156:src/kObjectAllocatorTest.cpp **** 
 2717              		.loc 2 156 61 is_stmt 1 discriminator 3
 156:src/kObjectAllocatorTest.cpp **** 
 2718              		.loc 2 156 68 is_stmt 0 discriminator 3
 2719 129c 13050000 		li	a0,0
 2720 12a0 6FF01F9E 		j	.L190
 2721              	.L206:
 155:src/kObjectAllocatorTest.cpp ****     if (objAlloc->nextNonTakenByte != 3) { delete objAlloc; return false; }
 2722              		.loc 2 155 76 discriminator 3
 2723 12a4 13860400 		mv	a2,s1
 2724 12a8 93050900 		mv	a1,s2
 2725 12ac 13850900 		mv	a0,s3
 2726 12b0 97000000 		call	_ZN20KObjectAllocatorTest14getBitOfObjectEPvP16KObjectAllocator
 2726      E7800000 
 2727              	.LVL372:
 155:src/kObjectAllocatorTest.cpp ****     if (objAlloc->nextNonTakenByte != 3) { delete objAlloc; return false; }
 2728              		.loc 2 155 59 discriminator 3
 2729 12b8 93072000 		li	a5,2
 2730 12bc E312F5FC 		bne	a0,a5,.L165
 2731              	.L166:
 158:src/kObjectAllocatorTest.cpp ****     if (getByteOfObject(objArr[6 * 8 + 3], objAlloc) != 6
 2732              		.loc 2 158 5 is_stmt 1
 158:src/kObjectAllocatorTest.cpp ****     if (getByteOfObject(objArr[6 * 8 + 3], objAlloc) != 6
 2733              		.loc 2 158 52 is_stmt 0
 2734 12c0 13850400 		mv	a0,s1
 2735 12c4 97000000 		call	_ZN16KObjectAllocator17allocateNewObjectEv@plt
 2735      E7800000 
 2736              	.LVL373:
 2737 12cc 13090500 		mv	s2,a0
 159:src/kObjectAllocatorTest.cpp ****         || getBitOfObject(objArr[6 * 8 + 3], objAlloc) != 4)
 2738              		.loc 2 159 5 is_stmt 1
 159:src/kObjectAllocatorTest.cpp ****         || getBitOfObject(objArr[6 * 8 + 3], objAlloc) != 4)
 2739              		.loc 2 159 24 is_stmt 0
 2740 12d0 13860400 		mv	a2,s1
 2741 12d4 93050500 		mv	a1,a0
 2742 12d8 13850900 		mv	a0,s3
 2743 12dc 97000000 		call	_ZN20KObjectAllocatorTest15getByteOfObjectEPvP16KObjectAllocator
 2743      E7800000 
 2744              	.LVL374:
 160:src/kObjectAllocatorTest.cpp ****     { delete objAlloc; return false; }
GAS LISTING /tmp/ccxAvD3a.s 			page 69


 2745              		.loc 2 160 9
 2746 12e4 93076000 		li	a5,6
 2747 12e8 630EF500 		beq	a0,a5,.L207
 2748              	.L168:
 161:src/kObjectAllocatorTest.cpp ****     if (objAlloc->nextNonTakenByte != 6) { delete objAlloc; return false; }
 2749              		.loc 2 161 7 is_stmt 1 discriminator 4
 161:src/kObjectAllocatorTest.cpp ****     if (objAlloc->nextNonTakenByte != 6) { delete objAlloc; return false; }
 2750              		.loc 2 161 22 is_stmt 0 discriminator 4
 2751 12ec 63880400 		beqz	s1,.L171
 161:src/kObjectAllocatorTest.cpp ****     if (objAlloc->nextNonTakenByte != 6) { delete objAlloc; return false; }
 2752              		.loc 2 161 14 discriminator 1
 2753 12f0 13850400 		mv	a0,s1
 2754 12f4 97000000 		call	_ZN16KObjectAllocatordlEPv
 2754      E7800000 
 2755              	.LVL375:
 2756              	.L171:
 161:src/kObjectAllocatorTest.cpp ****     if (objAlloc->nextNonTakenByte != 6) { delete objAlloc; return false; }
 2757              		.loc 2 161 24 is_stmt 1 discriminator 2
 161:src/kObjectAllocatorTest.cpp ****     if (objAlloc->nextNonTakenByte != 6) { delete objAlloc; return false; }
 2758              		.loc 2 161 31 is_stmt 0 discriminator 2
 2759 12fc 13050000 		li	a0,0
 2760 1300 6FF01F98 		j	.L190
 2761              	.L207:
 160:src/kObjectAllocatorTest.cpp ****     { delete objAlloc; return false; }
 2762              		.loc 2 160 26 discriminator 2
 2763 1304 13860400 		mv	a2,s1
 2764 1308 93050900 		mv	a1,s2
 2765 130c 13850900 		mv	a0,s3
 2766 1310 97000000 		call	_ZN20KObjectAllocatorTest14getBitOfObjectEPvP16KObjectAllocator
 2766      E7800000 
 2767              	.LVL376:
 160:src/kObjectAllocatorTest.cpp ****     { delete objAlloc; return false; }
 2768              		.loc 2 160 9 discriminator 2
 2769 1318 93074000 		li	a5,4
 2770 131c E318F5FC 		bne	a0,a5,.L168
 162:src/kObjectAllocatorTest.cpp **** 
 2771              		.loc 2 162 5 is_stmt 1
 162:src/kObjectAllocatorTest.cpp **** 
 2772              		.loc 2 162 19 is_stmt 0
 2773 1320 03B78403 		ld	a4,56(s1)
 162:src/kObjectAllocatorTest.cpp **** 
 2774              		.loc 2 162 5
 2775 1324 93076000 		li	a5,6
 2776 1328 6314F70E 		bne	a4,a5,.L169
 2777              	.LBB217:
 164:src/kObjectAllocatorTest.cpp ****         objAlloc->freeObject(objArr[319]);
 2778              		.loc 2 164 14
 2779 132c 930A0000 		li	s5,0
 2780              	.L170:
 2781              	.LVL377:
 164:src/kObjectAllocatorTest.cpp ****         objAlloc->freeObject(objArr[319]);
 2782              		.loc 2 164 23 is_stmt 1 discriminator 1
 2783 1330 93072000 		li	a5,2
 2784 1334 63CA5715 		bgt	s5,a5,.L173
 165:src/kObjectAllocatorTest.cpp ****         objArr[319] = objAlloc->allocateNewObject();
 2785              		.loc 2 165 9
 165:src/kObjectAllocatorTest.cpp ****         objArr[319] = objAlloc->allocateNewObject();
GAS LISTING /tmp/ccxAvD3a.s 			page 70


 2786              		.loc 2 165 29 is_stmt 0
 2787 1338 833584FB 		ld	a1,-72(s0)
 2788 133c 13850400 		mv	a0,s1
 2789 1340 97000000 		call	_ZN16KObjectAllocator10freeObjectEPv@plt
 2789      E7800000 
 2790              	.LVL378:
 166:src/kObjectAllocatorTest.cpp ****         if (getByteOfObject(objArr[319], objAlloc) != 39
 2791              		.loc 2 166 9 is_stmt 1
 166:src/kObjectAllocatorTest.cpp ****         if (getByteOfObject(objArr[319], objAlloc) != 39
 2792              		.loc 2 166 50 is_stmt 0
 2793 1348 13850400 		mv	a0,s1
 2794 134c 97000000 		call	_ZN16KObjectAllocator17allocateNewObjectEv@plt
 2794      E7800000 
 2795              	.LVL379:
 2796 1354 13090500 		mv	s2,a0
 166:src/kObjectAllocatorTest.cpp ****         if (getByteOfObject(objArr[319], objAlloc) != 39
 2797              		.loc 2 166 21
 2798 1358 233CA4FA 		sd	a0,-72(s0)
 167:src/kObjectAllocatorTest.cpp ****             || getBitOfObject(objArr[319], objAlloc) != 0)
 2799              		.loc 2 167 9 is_stmt 1
 167:src/kObjectAllocatorTest.cpp ****             || getBitOfObject(objArr[319], objAlloc) != 0)
 2800              		.loc 2 167 28 is_stmt 0
 2801 135c 13860400 		mv	a2,s1
 2802 1360 93050500 		mv	a1,a0
 2803 1364 13850900 		mv	a0,s3
 2804 1368 97000000 		call	_ZN20KObjectAllocatorTest15getByteOfObjectEPvP16KObjectAllocator
 2804      E7800000 
 2805              	.LVL380:
 168:src/kObjectAllocatorTest.cpp ****         { delete objAlloc; return false; }
 2806              		.loc 2 168 13
 2807 1370 93077002 		li	a5,39
 2808 1374 631AF50A 		bne	a0,a5,.L174
 168:src/kObjectAllocatorTest.cpp ****         { delete objAlloc; return false; }
 2809              		.loc 2 168 30 discriminator 2
 2810 1378 13860400 		mv	a2,s1
 2811 137c 93050900 		mv	a1,s2
 2812 1380 13850900 		mv	a0,s3
 2813 1384 97000000 		call	_ZN20KObjectAllocatorTest14getBitOfObjectEPvP16KObjectAllocator
 2813      E7800000 
 2814              	.LVL381:
 168:src/kObjectAllocatorTest.cpp ****         { delete objAlloc; return false; }
 2815              		.loc 2 168 13 discriminator 2
 2816 138c 631E0508 		bnez	a0,.L174
 170:src/kObjectAllocatorTest.cpp **** 
 2817              		.loc 2 170 9 is_stmt 1
 170:src/kObjectAllocatorTest.cpp **** 
 2818              		.loc 2 170 23 is_stmt 0
 2819 1390 03B78403 		ld	a4,56(s1)
 170:src/kObjectAllocatorTest.cpp **** 
 2820              		.loc 2 170 9
 2821 1394 93078002 		li	a5,40
 2822 1398 6314F70A 		bne	a4,a5,.L208
 172:src/kObjectAllocatorTest.cpp ****         objArr[1] = objAlloc->allocateNewObject();
 2823              		.loc 2 172 9 is_stmt 1
 172:src/kObjectAllocatorTest.cpp ****         objArr[1] = objAlloc->allocateNewObject();
 2824              		.loc 2 172 29 is_stmt 0
 2825 139c 37FAFFFF 		li	s4,-4096
GAS LISTING /tmp/ccxAvD3a.s 			page 71


 2826 13a0 930704FC 		addi	a5,s0,-64
 2827 13a4 338A4701 		add	s4,a5,s4
 2828 13a8 83358A60 		ld	a1,1544(s4)
 2829 13ac 13850400 		mv	a0,s1
 2830 13b0 97000000 		call	_ZN16KObjectAllocator10freeObjectEPv@plt
 2830      E7800000 
 2831              	.LVL382:
 173:src/kObjectAllocatorTest.cpp ****         if (getByteOfObject(objArr[1], objAlloc) != 0
 2832              		.loc 2 173 9 is_stmt 1
 173:src/kObjectAllocatorTest.cpp ****         if (getByteOfObject(objArr[1], objAlloc) != 0
 2833              		.loc 2 173 48 is_stmt 0
 2834 13b8 13850400 		mv	a0,s1
 2835 13bc 97000000 		call	_ZN16KObjectAllocator17allocateNewObjectEv@plt
 2835      E7800000 
 2836              	.LVL383:
 2837 13c4 13090500 		mv	s2,a0
 173:src/kObjectAllocatorTest.cpp ****         if (getByteOfObject(objArr[1], objAlloc) != 0
 2838              		.loc 2 173 19
 2839 13c8 2334AA60 		sd	a0,1544(s4)
 174:src/kObjectAllocatorTest.cpp ****             || getBitOfObject(objArr[1], objAlloc) != 6)
 2840              		.loc 2 174 9 is_stmt 1
 174:src/kObjectAllocatorTest.cpp ****             || getBitOfObject(objArr[1], objAlloc) != 6)
 2841              		.loc 2 174 28 is_stmt 0
 2842 13cc 13860400 		mv	a2,s1
 2843 13d0 93050500 		mv	a1,a0
 2844 13d4 13850900 		mv	a0,s3
 2845 13d8 97000000 		call	_ZN20KObjectAllocatorTest15getByteOfObjectEPvP16KObjectAllocator
 2845      E7800000 
 2846              	.LVL384:
 175:src/kObjectAllocatorTest.cpp ****         { delete objAlloc; return false; }
 2847              		.loc 2 175 13
 2848 13e0 631C0506 		bnez	a0,.L179
 175:src/kObjectAllocatorTest.cpp ****         { delete objAlloc; return false; }
 2849              		.loc 2 175 30 discriminator 2
 2850 13e4 13860400 		mv	a2,s1
 2851 13e8 93050900 		mv	a1,s2
 2852 13ec 13850900 		mv	a0,s3
 2853 13f0 97000000 		call	_ZN20KObjectAllocatorTest14getBitOfObjectEPvP16KObjectAllocator
 2853      E7800000 
 2854              	.LVL385:
 175:src/kObjectAllocatorTest.cpp ****         { delete objAlloc; return false; }
 2855              		.loc 2 175 13 discriminator 2
 2856 13f8 93076000 		li	a5,6
 2857 13fc 631EF504 		bne	a0,a5,.L179
 177:src/kObjectAllocatorTest.cpp ****     }
 2858              		.loc 2 177 9 is_stmt 1
 177:src/kObjectAllocatorTest.cpp ****     }
 2859              		.loc 2 177 23 is_stmt 0
 2860 1400 83B78403 		ld	a5,56(s1)
 177:src/kObjectAllocatorTest.cpp ****     }
 2861              		.loc 2 177 9
 2862 1404 63960706 		bnez	a5,.L209
 164:src/kObjectAllocatorTest.cpp ****         objAlloc->freeObject(objArr[319]);
 2863              		.loc 2 164 5 is_stmt 1 discriminator 2
 2864 1408 9B8A1A00 		addiw	s5,s5,1
 2865              	.LVL386:
 2866 140c 6FF05FF2 		j	.L170
GAS LISTING /tmp/ccxAvD3a.s 			page 72


 2867              	.L169:
 2868              	.LBE217:
 162:src/kObjectAllocatorTest.cpp **** 
 2869              		.loc 2 162 44 discriminator 1
 162:src/kObjectAllocatorTest.cpp **** 
 2870              		.loc 2 162 59 is_stmt 0 discriminator 1
 2871 1410 63880400 		beqz	s1,.L172
 162:src/kObjectAllocatorTest.cpp **** 
 2872              		.loc 2 162 51 discriminator 2
 2873 1414 13850400 		mv	a0,s1
 2874 1418 97000000 		call	_ZN16KObjectAllocatordlEPv
 2874      E7800000 
 2875              	.LVL387:
 2876              	.L172:
 162:src/kObjectAllocatorTest.cpp **** 
 2877              		.loc 2 162 61 is_stmt 1 discriminator 3
 162:src/kObjectAllocatorTest.cpp **** 
 2878              		.loc 2 162 68 is_stmt 0 discriminator 3
 2879 1420 13050000 		li	a0,0
 2880 1424 6FF0DF85 		j	.L190
 2881              	.LVL388:
 2882              	.L174:
 2883              	.LBB218:
 169:src/kObjectAllocatorTest.cpp ****         if (objAlloc->nextNonTakenByte != 40) { delete objAlloc; return false; }
 2884              		.loc 2 169 11 is_stmt 1 discriminator 4
 169:src/kObjectAllocatorTest.cpp ****         if (objAlloc->nextNonTakenByte != 40) { delete objAlloc; return false; }
 2885              		.loc 2 169 26 is_stmt 0 discriminator 4
 2886 1428 63880400 		beqz	s1,.L177
 169:src/kObjectAllocatorTest.cpp ****         if (objAlloc->nextNonTakenByte != 40) { delete objAlloc; return false; }
 2887              		.loc 2 169 18 discriminator 1
 2888 142c 13850400 		mv	a0,s1
 2889 1430 97000000 		call	_ZN16KObjectAllocatordlEPv
 2889      E7800000 
 2890              	.LVL389:
 2891              	.L177:
 169:src/kObjectAllocatorTest.cpp ****         if (objAlloc->nextNonTakenByte != 40) { delete objAlloc; return false; }
 2892              		.loc 2 169 28 is_stmt 1 discriminator 2
 169:src/kObjectAllocatorTest.cpp ****         if (objAlloc->nextNonTakenByte != 40) { delete objAlloc; return false; }
 2893              		.loc 2 169 35 is_stmt 0 discriminator 2
 2894 1438 13050000 		li	a0,0
 2895 143c 6FF05F84 		j	.L190
 2896              	.L208:
 170:src/kObjectAllocatorTest.cpp **** 
 2897              		.loc 2 170 49 is_stmt 1 discriminator 1
 170:src/kObjectAllocatorTest.cpp **** 
 2898              		.loc 2 170 64 is_stmt 0 discriminator 1
 2899 1440 63880400 		beqz	s1,.L178
 170:src/kObjectAllocatorTest.cpp **** 
 2900              		.loc 2 170 56 discriminator 2
 2901 1444 13850400 		mv	a0,s1
 2902 1448 97000000 		call	_ZN16KObjectAllocatordlEPv
 2902      E7800000 
 2903              	.LVL390:
 2904              	.L178:
 170:src/kObjectAllocatorTest.cpp **** 
 2905              		.loc 2 170 66 is_stmt 1 discriminator 3
 170:src/kObjectAllocatorTest.cpp **** 
GAS LISTING /tmp/ccxAvD3a.s 			page 73


 2906              		.loc 2 170 73 is_stmt 0 discriminator 3
 2907 1450 13050000 		li	a0,0
 2908 1454 6FF0DF82 		j	.L190
 2909              	.L179:
 176:src/kObjectAllocatorTest.cpp ****         if (objAlloc->nextNonTakenByte != 0) { delete objAlloc; return false; }
 2910              		.loc 2 176 11 is_stmt 1 discriminator 4
 176:src/kObjectAllocatorTest.cpp ****         if (objAlloc->nextNonTakenByte != 0) { delete objAlloc; return false; }
 2911              		.loc 2 176 26 is_stmt 0 discriminator 4
 2912 1458 63880400 		beqz	s1,.L182
 176:src/kObjectAllocatorTest.cpp ****         if (objAlloc->nextNonTakenByte != 0) { delete objAlloc; return false; }
 2913              		.loc 2 176 18 discriminator 1
 2914 145c 13850400 		mv	a0,s1
 2915 1460 97000000 		call	_ZN16KObjectAllocatordlEPv
 2915      E7800000 
 2916              	.LVL391:
 2917              	.L182:
 176:src/kObjectAllocatorTest.cpp ****         if (objAlloc->nextNonTakenByte != 0) { delete objAlloc; return false; }
 2918              		.loc 2 176 28 is_stmt 1 discriminator 2
 176:src/kObjectAllocatorTest.cpp ****         if (objAlloc->nextNonTakenByte != 0) { delete objAlloc; return false; }
 2919              		.loc 2 176 35 is_stmt 0 discriminator 2
 2920 1468 13050000 		li	a0,0
 2921 146c 6FF05F81 		j	.L190
 2922              	.L209:
 177:src/kObjectAllocatorTest.cpp ****     }
 2923              		.loc 2 177 48 is_stmt 1 discriminator 1
 177:src/kObjectAllocatorTest.cpp ****     }
 2924              		.loc 2 177 63 is_stmt 0 discriminator 1
 2925 1470 63880400 		beqz	s1,.L183
 177:src/kObjectAllocatorTest.cpp ****     }
 2926              		.loc 2 177 55 discriminator 2
 2927 1474 13850400 		mv	a0,s1
 2928 1478 97000000 		call	_ZN16KObjectAllocatordlEPv
 2928      E7800000 
 2929              	.LVL392:
 2930              	.L183:
 177:src/kObjectAllocatorTest.cpp ****     }
 2931              		.loc 2 177 65 is_stmt 1 discriminator 3
 177:src/kObjectAllocatorTest.cpp ****     }
 2932              		.loc 2 177 72 is_stmt 0 discriminator 3
 2933 1480 13050000 		li	a0,0
 2934 1484 6FF0CFFF 		j	.L190
 2935              	.L173:
 2936              	.LBE218:
 179:src/kObjectAllocatorTest.cpp ****     return true;
 2937              		.loc 2 179 5 is_stmt 1
 179:src/kObjectAllocatorTest.cpp ****     return true;
 2938              		.loc 2 179 20 is_stmt 0
 2939 1488 638C0400 		beqz	s1,.L188
 179:src/kObjectAllocatorTest.cpp ****     return true;
 2940              		.loc 2 179 12 discriminator 1
 2941 148c 13850400 		mv	a0,s1
 2942 1490 97000000 		call	_ZN16KObjectAllocatordlEPv
 2942      E7800000 
 2943              	.LVL393:
 2944              	.LEHE6:
 180:src/kObjectAllocatorTest.cpp **** }
 2945              		.loc 2 180 12 discriminator 1
GAS LISTING /tmp/ccxAvD3a.s 			page 74


 2946 1498 13051000 		li	a0,1
 2947 149c 6FF04FFE 		j	.L190
 2948              	.L188:
 180:src/kObjectAllocatorTest.cpp **** }
 2949              		.loc 2 180 12
 2950 14a0 13051000 		li	a0,1
 2951 14a4 6FF0CFFD 		j	.L190
 2952              	.LVL394:
 2953              	.L189:
 2954 14a8 13090500 		mv	s2,a0
 2955              	.LVL395:
 116:src/kObjectAllocatorTest.cpp ****     if (objAlloc->getNumberOfObjects() != 320) { delete objAlloc; return false; }
 2956              		.loc 2 116 59
 2957 14ac 13850400 		mv	a0,s1
 2958 14b0 97000000 		call	_ZN16KObjectAllocatordlEPv
 2958      E7800000 
 2959              	.LVL396:
 2960 14b8 13050900 		mv	a0,s2
 2961              	.LEHB7:
 2962 14bc 97000000 		call	_Unwind_Resume@plt
 2962      E7800000 
 2963              	.LVL397:
 2964              	.LEHE7:
 2965              		.cfi_endproc
 2966              	.LFE28:
 2967              		.section	.gcc_except_table
 2968              	.LLSDA28:
 2969 0038 FF       		.byte	0xff
 2970 0039 FF       		.byte	0xff
 2971 003a 03       		.byte	0x3
 2972 003b 34       		.byte	0x34
 2973 003c 00000000 		.4byte	.LEHB4-.LFB28
 2974 0040 00000000 		.4byte	.LEHE4-.LEHB4
 2975 0044 00000000 		.4byte	0
 2976 0048 00       		.byte	0
 2977 0049 00000000 		.4byte	.LEHB5-.LFB28
 2978 004d 00000000 		.4byte	.LEHE5-.LEHB5
 2979 0051 00000000 		.4byte	.L189-.LFB28
 2980 0055 00       		.byte	0
 2981 0056 00000000 		.4byte	.LEHB6-.LFB28
 2982 005a 00000000 		.4byte	.LEHE6-.LEHB6
 2983 005e 00000000 		.4byte	0
 2984 0062 00       		.byte	0
 2985 0063 00000000 		.4byte	.LEHB7-.LFB28
 2986 0067 00000000 		.4byte	.LEHE7-.LEHB7
 2987 006b 00000000 		.4byte	0
 2988 006f 00       		.byte	0
 2989              		.text
 2991              		.align	2
 2992              		.globl	_ZN20KObjectAllocatorTest5test2Em
 2994              	_ZN20KObjectAllocatorTest5test2Em:
 2995              	.LFB29:
 182:src/kObjectAllocatorTest.cpp **** 
 183:src/kObjectAllocatorTest.cpp **** bool KObjectAllocatorTest::test2(size_t size) {
 2996              		.loc 2 183 47 is_stmt 1
 2997              		.cfi_startproc
 2998              	.LVL398:
GAS LISTING /tmp/ccxAvD3a.s 			page 75


 2999 14c4 130101FF 		addi	sp,sp,-16
 3000              		.cfi_def_cfa_offset 16
 3001 14c8 23348100 		sd	s0,8(sp)
 3002              		.cfi_offset 8, -8
 3003 14cc 13040101 		addi	s0,sp,16
 3004              		.cfi_def_cfa 8, 0
 184:src/kObjectAllocatorTest.cpp ****     return true;
 3005              		.loc 2 184 5
 185:src/kObjectAllocatorTest.cpp **** }
 3006              		.loc 2 185 1 is_stmt 0
 3007 14d0 13051000 		li	a0,1
 3008              	.LVL399:
 3009 14d4 03348100 		ld	s0,8(sp)
 3010              		.cfi_restore 8
 3011              		.cfi_def_cfa 2, 16
 3012 14d8 13010101 		addi	sp,sp,16
 3013              		.cfi_def_cfa_offset 0
 3014 14dc 67800000 		jr	ra
 3015              		.cfi_endproc
 3016              	.LFE29:
 3018              		.align	2
 3019              		.globl	_ZN20KObjectAllocatorTest5test3Em
 3021              	_ZN20KObjectAllocatorTest5test3Em:
 3022              	.LFB30:
 186:src/kObjectAllocatorTest.cpp **** 
 187:src/kObjectAllocatorTest.cpp **** bool KObjectAllocatorTest::test3(size_t size) {
 3023              		.loc 2 187 47 is_stmt 1
 3024              		.cfi_startproc
 3025              	.LVL400:
 3026 14e0 130101FF 		addi	sp,sp,-16
 3027              		.cfi_def_cfa_offset 16
 3028 14e4 23348100 		sd	s0,8(sp)
 3029              		.cfi_offset 8, -8
 3030 14e8 13040101 		addi	s0,sp,16
 3031              		.cfi_def_cfa 8, 0
 188:src/kObjectAllocatorTest.cpp ****     return true;
 3032              		.loc 2 188 5
 189:src/kObjectAllocatorTest.cpp **** }
 3033              		.loc 2 189 1 is_stmt 0
 3034 14ec 13051000 		li	a0,1
 3035              	.LVL401:
 3036 14f0 03348100 		ld	s0,8(sp)
 3037              		.cfi_restore 8
 3038              		.cfi_def_cfa 2, 16
 3039 14f4 13010101 		addi	sp,sp,16
 3040              		.cfi_def_cfa_offset 0
 3041 14f8 67800000 		jr	ra
 3042              		.cfi_endproc
 3043              	.LFE30:
 3045              		.align	2
 3046              		.globl	_ZN20KObjectAllocatorTest5test4Em
 3048              	_ZN20KObjectAllocatorTest5test4Em:
 3049              	.LFB31:
 190:src/kObjectAllocatorTest.cpp **** 
 191:src/kObjectAllocatorTest.cpp **** bool KObjectAllocatorTest::test4(size_t size) {
 3050              		.loc 2 191 47 is_stmt 1
 3051              		.cfi_startproc
GAS LISTING /tmp/ccxAvD3a.s 			page 76


 3052              	.LVL402:
 3053 14fc 130101FF 		addi	sp,sp,-16
 3054              		.cfi_def_cfa_offset 16
 3055 1500 23348100 		sd	s0,8(sp)
 3056              		.cfi_offset 8, -8
 3057 1504 13040101 		addi	s0,sp,16
 3058              		.cfi_def_cfa 8, 0
 192:src/kObjectAllocatorTest.cpp ****     return true;
 3059              		.loc 2 192 5
 193:src/kObjectAllocatorTest.cpp **** }
 3060              		.loc 2 193 1 is_stmt 0
 3061 1508 13051000 		li	a0,1
 3062              	.LVL403:
 3063 150c 03348100 		ld	s0,8(sp)
 3064              		.cfi_restore 8
 3065              		.cfi_def_cfa 2, 16
 3066 1510 13010101 		addi	sp,sp,16
 3067              		.cfi_def_cfa_offset 0
 3068 1514 67800000 		jr	ra
 3069              		.cfi_endproc
 3070              	.LFE31:
 3072              		.align	2
 3073              		.globl	_ZN20KObjectAllocatorTest5test5Em
 3075              	_ZN20KObjectAllocatorTest5test5Em:
 3076              	.LFB32:
 194:src/kObjectAllocatorTest.cpp **** 
 195:src/kObjectAllocatorTest.cpp **** bool KObjectAllocatorTest::test5(size_t size) {
 3077              		.loc 2 195 47 is_stmt 1
 3078              		.cfi_startproc
 3079              	.LVL404:
 3080 1518 130101FF 		addi	sp,sp,-16
 3081              		.cfi_def_cfa_offset 16
 3082 151c 23348100 		sd	s0,8(sp)
 3083              		.cfi_offset 8, -8
 3084 1520 13040101 		addi	s0,sp,16
 3085              		.cfi_def_cfa 8, 0
 196:src/kObjectAllocatorTest.cpp ****     return true;
 3086              		.loc 2 196 5
 197:src/kObjectAllocatorTest.cpp **** }
 3087              		.loc 2 197 1 is_stmt 0
 3088 1524 13051000 		li	a0,1
 3089              	.LVL405:
 3090 1528 03348100 		ld	s0,8(sp)
 3091              		.cfi_restore 8
 3092              		.cfi_def_cfa 2, 16
 3093 152c 13010101 		addi	sp,sp,16
 3094              		.cfi_def_cfa_offset 0
 3095 1530 67800000 		jr	ra
 3096              		.cfi_endproc
 3097              	.LFE32:
 3099              		.align	2
 3100              		.globl	_ZN20KObjectAllocatorTest5test6Em
 3102              	_ZN20KObjectAllocatorTest5test6Em:
 3103              	.LFB33:
 198:src/kObjectAllocatorTest.cpp **** 
 199:src/kObjectAllocatorTest.cpp **** bool KObjectAllocatorTest::test6(size_t size) {
 3104              		.loc 2 199 47 is_stmt 1
GAS LISTING /tmp/ccxAvD3a.s 			page 77


 3105              		.cfi_startproc
 3106              	.LVL406:
 3107 1534 130101FF 		addi	sp,sp,-16
 3108              		.cfi_def_cfa_offset 16
 3109 1538 23348100 		sd	s0,8(sp)
 3110              		.cfi_offset 8, -8
 3111 153c 13040101 		addi	s0,sp,16
 3112              		.cfi_def_cfa 8, 0
 200:src/kObjectAllocatorTest.cpp ****     return true;
 3113              		.loc 2 200 5
 201:src/kObjectAllocatorTest.cpp **** }
 3114              		.loc 2 201 1 is_stmt 0
 3115 1540 13051000 		li	a0,1
 3116              	.LVL407:
 3117 1544 03348100 		ld	s0,8(sp)
 3118              		.cfi_restore 8
 3119              		.cfi_def_cfa 2, 16
 3120 1548 13010101 		addi	sp,sp,16
 3121              		.cfi_def_cfa_offset 0
 3122 154c 67800000 		jr	ra
 3123              		.cfi_endproc
 3124              	.LFE33:
 3126              		.align	2
 3127              		.globl	_ZN20KObjectAllocatorTest5test7Em
 3129              	_ZN20KObjectAllocatorTest5test7Em:
 3130              	.LFB34:
 202:src/kObjectAllocatorTest.cpp **** 
 203:src/kObjectAllocatorTest.cpp **** bool KObjectAllocatorTest::test7(size_t size) {
 3131              		.loc 2 203 47 is_stmt 1
 3132              		.cfi_startproc
 3133              	.LVL408:
 3134 1550 130101FF 		addi	sp,sp,-16
 3135              		.cfi_def_cfa_offset 16
 3136 1554 23348100 		sd	s0,8(sp)
 3137              		.cfi_offset 8, -8
 3138 1558 13040101 		addi	s0,sp,16
 3139              		.cfi_def_cfa 8, 0
 204:src/kObjectAllocatorTest.cpp ****     return true;
 3140              		.loc 2 204 5
 205:src/kObjectAllocatorTest.cpp **** }
 3141              		.loc 2 205 1 is_stmt 0
 3142 155c 13051000 		li	a0,1
 3143              	.LVL409:
 3144 1560 03348100 		ld	s0,8(sp)
 3145              		.cfi_restore 8
 3146              		.cfi_def_cfa 2, 16
 3147 1564 13010101 		addi	sp,sp,16
 3148              		.cfi_def_cfa_offset 0
 3149 1568 67800000 		jr	ra
 3150              		.cfi_endproc
 3151              	.LFE34:
 3153              		.align	2
 3154              		.globl	_ZN20KObjectAllocatorTest5test8Em
 3156              	_ZN20KObjectAllocatorTest5test8Em:
 3157              	.LFB35:
 206:src/kObjectAllocatorTest.cpp **** 
 207:src/kObjectAllocatorTest.cpp **** bool KObjectAllocatorTest::test8(size_t size) {
GAS LISTING /tmp/ccxAvD3a.s 			page 78


 3158              		.loc 2 207 47 is_stmt 1
 3159              		.cfi_startproc
 3160              	.LVL410:
 3161 156c 130101FF 		addi	sp,sp,-16
 3162              		.cfi_def_cfa_offset 16
 3163 1570 23348100 		sd	s0,8(sp)
 3164              		.cfi_offset 8, -8
 3165 1574 13040101 		addi	s0,sp,16
 3166              		.cfi_def_cfa 8, 0
 208:src/kObjectAllocatorTest.cpp ****     return true;
 3167              		.loc 2 208 5
 209:src/kObjectAllocatorTest.cpp **** }
 3168              		.loc 2 209 1 is_stmt 0
 3169 1578 13051000 		li	a0,1
 3170              	.LVL411:
 3171 157c 03348100 		ld	s0,8(sp)
 3172              		.cfi_restore 8
 3173              		.cfi_def_cfa 2, 16
 3174 1580 13010101 		addi	sp,sp,16
 3175              		.cfi_def_cfa_offset 0
 3176 1584 67800000 		jr	ra
 3177              		.cfi_endproc
 3178              	.LFE35:
 3180              		.align	2
 3181              		.globl	_ZN20KObjectAllocatorTest5test9Em
 3183              	_ZN20KObjectAllocatorTest5test9Em:
 3184              	.LFB36:
 210:src/kObjectAllocatorTest.cpp **** 
 211:src/kObjectAllocatorTest.cpp **** bool KObjectAllocatorTest::test9(size_t size) {
 3185              		.loc 2 211 47 is_stmt 1
 3186              		.cfi_startproc
 3187              	.LVL412:
 3188 1588 130101FF 		addi	sp,sp,-16
 3189              		.cfi_def_cfa_offset 16
 3190 158c 23348100 		sd	s0,8(sp)
 3191              		.cfi_offset 8, -8
 3192 1590 13040101 		addi	s0,sp,16
 3193              		.cfi_def_cfa 8, 0
 212:src/kObjectAllocatorTest.cpp ****     return true;
 3194              		.loc 2 212 5
 213:src/kObjectAllocatorTest.cpp **** }...
 3195              		.loc 2 213 1 is_stmt 0
 3196 1594 13051000 		li	a0,1
 3197              	.LVL413:
 3198 1598 03348100 		ld	s0,8(sp)
 3199              		.cfi_restore 8
 3200              		.cfi_def_cfa 2, 16
 3201 159c 13010101 		addi	sp,sp,16
 3202              		.cfi_def_cfa_offset 0
 3203 15a0 67800000 		jr	ra
 3204              		.cfi_endproc
 3205              	.LFE36:
 3207              		.align	2
 3208              		.globl	_ZN20KObjectAllocatorTest4testEmm
 3210              	_ZN20KObjectAllocatorTest4testEmm:
 3211              	.LFB22:
  16:src/kObjectAllocatorTest.cpp **** bool KObjectAllocatorTest::test(size_t i, size_t size) {
GAS LISTING /tmp/ccxAvD3a.s 			page 79


 3212              		.loc 2 16 56 is_stmt 1
 3213              		.cfi_startproc
 3214              	.LVL414:
 3215 15a4 93870500 		mv	a5,a1
  17:src/kObjectAllocatorTest.cpp ****     switch (i) {
 3216              		.loc 2 17 5
 3217 15a8 13079000 		li	a4,9
 3218 15ac 636CB70A 		bgtu	a1,a4,.L239
  16:src/kObjectAllocatorTest.cpp **** bool KObjectAllocatorTest::test(size_t i, size_t size) {
 3219              		.loc 2 16 56 is_stmt 0
 3220 15b0 130101FF 		addi	sp,sp,-16
 3221              		.cfi_def_cfa_offset 16
 3222 15b4 23341100 		sd	ra,8(sp)
 3223 15b8 23308100 		sd	s0,0(sp)
 3224              		.cfi_offset 1, -8
 3225              		.cfi_offset 8, -16
 3226 15bc 13040101 		addi	s0,sp,16
 3227              		.cfi_def_cfa 8, 0
 3228 15c0 93050600 		mv	a1,a2
 3229              	.LVL415:
 3230 15c4 93972700 		slli	a5,a5,2
 3231              	.LVL416:
 3232 15c8 17070000 		lla	a4,.L229
 3232      13070700 
 3233 15d0 B387E700 		add	a5,a5,a4
 3234 15d4 83A70700 		lw	a5,0(a5)
 3235 15d8 B387E700 		add	a5,a5,a4
 3236 15dc 67800700 		jr	a5
 3237              		.section	.rodata
 3238              		.align	2
 3239              		.align	2
 3240              	.L229:
 3241 0000 00000000 		.word	.L238-.L229
 3242 0004 00000000 		.word	.L237-.L229
 3243 0008 00000000 		.word	.L236-.L229
 3244 000c 00000000 		.word	.L235-.L229
 3245 0010 00000000 		.word	.L234-.L229
 3246 0014 00000000 		.word	.L233-.L229
 3247 0018 00000000 		.word	.L232-.L229
 3248 001c 00000000 		.word	.L231-.L229
 3249 0020 00000000 		.word	.L230-.L229
 3250 0024 00000000 		.word	.L228-.L229
 3251              		.text
 3252              	.L238:
  18:src/kObjectAllocatorTest.cpp ****         case 0: return test0(size); break;
 3253              		.loc 2 18 9 is_stmt 1
  18:src/kObjectAllocatorTest.cpp ****         case 0: return test0(size); break;
 3254              		.loc 2 18 17
  18:src/kObjectAllocatorTest.cpp ****         case 0: return test0(size); break;
 3255              		.loc 2 18 29 is_stmt 0
 3256 15e0 97000000 		call	_ZN20KObjectAllocatorTest5test0Em
 3256      E7800000 
 3257              	.LVL417:
 3258              	.L227:
  31:src/kObjectAllocatorTest.cpp **** }
 3259              		.loc 2 31 1
 3260 15e8 83308100 		ld	ra,8(sp)
GAS LISTING /tmp/ccxAvD3a.s 			page 80


 3261              		.cfi_remember_state
 3262              		.cfi_restore 1
 3263 15ec 03340100 		ld	s0,0(sp)
 3264              		.cfi_restore 8
 3265              		.cfi_def_cfa 2, 16
 3266 15f0 13010101 		addi	sp,sp,16
 3267              		.cfi_def_cfa_offset 0
 3268 15f4 67800000 		jr	ra
 3269              	.LVL418:
 3270              	.L237:
 3271              		.cfi_restore_state
  18:src/kObjectAllocatorTest.cpp ****         case 0: return test0(size); break;
 3272              		.loc 2 18 37 is_stmt 1
  19:src/kObjectAllocatorTest.cpp ****         case 1: return test1(size); break;
 3273              		.loc 2 19 9
  19:src/kObjectAllocatorTest.cpp ****         case 1: return test1(size); break;
 3274              		.loc 2 19 17
  19:src/kObjectAllocatorTest.cpp ****         case 1: return test1(size); break;
 3275              		.loc 2 19 29 is_stmt 0
 3276 15f8 97000000 		call	_ZN20KObjectAllocatorTest5test1Em
 3276      E7800000 
 3277              	.LVL419:
  19:src/kObjectAllocatorTest.cpp ****         case 1: return test1(size); break;
 3278              		.loc 2 19 34
 3279 1600 6FF09FFE 		j	.L227
 3280              	.LVL420:
 3281              	.L236:
  19:src/kObjectAllocatorTest.cpp ****         case 1: return test1(size); break;
 3282              		.loc 2 19 37 is_stmt 1
  20:src/kObjectAllocatorTest.cpp ****         case 2: return test2(size); break;
 3283              		.loc 2 20 9
  20:src/kObjectAllocatorTest.cpp ****         case 2: return test2(size); break;
 3284              		.loc 2 20 17
  20:src/kObjectAllocatorTest.cpp ****         case 2: return test2(size); break;
 3285              		.loc 2 20 29 is_stmt 0
 3286 1604 97000000 		call	_ZN20KObjectAllocatorTest5test2Em
 3286      E7800000 
 3287              	.LVL421:
  20:src/kObjectAllocatorTest.cpp ****         case 2: return test2(size); break;
 3288              		.loc 2 20 34
 3289 160c 6FF0DFFD 		j	.L227
 3290              	.LVL422:
 3291              	.L235:
  20:src/kObjectAllocatorTest.cpp ****         case 2: return test2(size); break;
 3292              		.loc 2 20 37 is_stmt 1
  21:src/kObjectAllocatorTest.cpp ****         case 3: return test3(size); break;
 3293              		.loc 2 21 9
  21:src/kObjectAllocatorTest.cpp ****         case 3: return test3(size); break;
 3294              		.loc 2 21 17
  21:src/kObjectAllocatorTest.cpp ****         case 3: return test3(size); break;
 3295              		.loc 2 21 29 is_stmt 0
 3296 1610 97000000 		call	_ZN20KObjectAllocatorTest5test3Em
 3296      E7800000 
 3297              	.LVL423:
  21:src/kObjectAllocatorTest.cpp ****         case 3: return test3(size); break;
 3298              		.loc 2 21 34
 3299 1618 6FF01FFD 		j	.L227
GAS LISTING /tmp/ccxAvD3a.s 			page 81


 3300              	.LVL424:
 3301              	.L234:
  21:src/kObjectAllocatorTest.cpp ****         case 3: return test3(size); break;
 3302              		.loc 2 21 37 is_stmt 1
  22:src/kObjectAllocatorTest.cpp ****         case 4: return test4(size); break;
 3303              		.loc 2 22 9
  22:src/kObjectAllocatorTest.cpp ****         case 4: return test4(size); break;
 3304              		.loc 2 22 17
  22:src/kObjectAllocatorTest.cpp ****         case 4: return test4(size); break;
 3305              		.loc 2 22 29 is_stmt 0
 3306 161c 97000000 		call	_ZN20KObjectAllocatorTest5test4Em
 3306      E7800000 
 3307              	.LVL425:
  22:src/kObjectAllocatorTest.cpp ****         case 4: return test4(size); break;
 3308              		.loc 2 22 34
 3309 1624 6FF05FFC 		j	.L227
 3310              	.LVL426:
 3311              	.L233:
  22:src/kObjectAllocatorTest.cpp ****         case 4: return test4(size); break;
 3312              		.loc 2 22 37 is_stmt 1
  23:src/kObjectAllocatorTest.cpp ****         case 5: return test5(size); break;
 3313              		.loc 2 23 9
  23:src/kObjectAllocatorTest.cpp ****         case 5: return test5(size); break;
 3314              		.loc 2 23 17
  23:src/kObjectAllocatorTest.cpp ****         case 5: return test5(size); break;
 3315              		.loc 2 23 29 is_stmt 0
 3316 1628 97000000 		call	_ZN20KObjectAllocatorTest5test5Em
 3316      E7800000 
 3317              	.LVL427:
  23:src/kObjectAllocatorTest.cpp ****         case 5: return test5(size); break;
 3318              		.loc 2 23 34
 3319 1630 6FF09FFB 		j	.L227
 3320              	.LVL428:
 3321              	.L232:
  23:src/kObjectAllocatorTest.cpp ****         case 5: return test5(size); break;
 3322              		.loc 2 23 37 is_stmt 1
  24:src/kObjectAllocatorTest.cpp ****         case 6: return test6(size); break;
 3323              		.loc 2 24 9
  24:src/kObjectAllocatorTest.cpp ****         case 6: return test6(size); break;
 3324              		.loc 2 24 17
  24:src/kObjectAllocatorTest.cpp ****         case 6: return test6(size); break;
 3325              		.loc 2 24 29 is_stmt 0
 3326 1634 97000000 		call	_ZN20KObjectAllocatorTest5test6Em
 3326      E7800000 
 3327              	.LVL429:
  24:src/kObjectAllocatorTest.cpp ****         case 6: return test6(size); break;
 3328              		.loc 2 24 34
 3329 163c 6FF0DFFA 		j	.L227
 3330              	.LVL430:
 3331              	.L231:
  24:src/kObjectAllocatorTest.cpp ****         case 6: return test6(size); break;
 3332              		.loc 2 24 37 is_stmt 1
  25:src/kObjectAllocatorTest.cpp ****         case 7: return test7(size); break;
 3333              		.loc 2 25 9
  25:src/kObjectAllocatorTest.cpp ****         case 7: return test7(size); break;
 3334              		.loc 2 25 17
  25:src/kObjectAllocatorTest.cpp ****         case 7: return test7(size); break;
GAS LISTING /tmp/ccxAvD3a.s 			page 82


 3335              		.loc 2 25 29 is_stmt 0
 3336 1640 97000000 		call	_ZN20KObjectAllocatorTest5test7Em
 3336      E7800000 
 3337              	.LVL431:
  25:src/kObjectAllocatorTest.cpp ****         case 7: return test7(size); break;
 3338              		.loc 2 25 34
 3339 1648 6FF01FFA 		j	.L227
 3340              	.LVL432:
 3341              	.L230:
  25:src/kObjectAllocatorTest.cpp ****         case 7: return test7(size); break;
 3342              		.loc 2 25 37 is_stmt 1
  26:src/kObjectAllocatorTest.cpp ****         case 8: return test8(size); break;
 3343              		.loc 2 26 9
  26:src/kObjectAllocatorTest.cpp ****         case 8: return test8(size); break;
 3344              		.loc 2 26 17
  26:src/kObjectAllocatorTest.cpp ****         case 8: return test8(size); break;
 3345              		.loc 2 26 29 is_stmt 0
 3346 164c 97000000 		call	_ZN20KObjectAllocatorTest5test8Em
 3346      E7800000 
 3347              	.LVL433:
  26:src/kObjectAllocatorTest.cpp ****         case 8: return test8(size); break;
 3348              		.loc 2 26 34
 3349 1654 6FF05FF9 		j	.L227
 3350              	.LVL434:
 3351              	.L228:
  26:src/kObjectAllocatorTest.cpp ****         case 8: return test8(size); break;
 3352              		.loc 2 26 37 is_stmt 1
  27:src/kObjectAllocatorTest.cpp ****         case 9: return test9(size); break;
 3353              		.loc 2 27 9
  27:src/kObjectAllocatorTest.cpp ****         case 9: return test9(size); break;
 3354              		.loc 2 27 17
  27:src/kObjectAllocatorTest.cpp ****         case 9: return test9(size); break;
 3355              		.loc 2 27 29 is_stmt 0
 3356 1658 97000000 		call	_ZN20KObjectAllocatorTest5test9Em
 3356      E7800000 
 3357              	.LVL435:
  27:src/kObjectAllocatorTest.cpp ****         case 9: return test9(size); break;
 3358              		.loc 2 27 34
 3359 1660 6FF09FF8 		j	.L227
 3360              	.LVL436:
 3361              	.L239:
 3362              		.cfi_def_cfa_register 2
 3363              		.cfi_restore 1
 3364              		.cfi_restore 8
  16:src/kObjectAllocatorTest.cpp **** bool KObjectAllocatorTest::test(size_t i, size_t size) {
 3365              		.loc 2 16 56
 3366 1664 13050000 		li	a0,0
 3367              	.LVL437:
  31:src/kObjectAllocatorTest.cpp **** }
 3368              		.loc 2 31 1
 3369 1668 67800000 		ret
 3370              		.cfi_endproc
 3371              	.LFE22:
 3373              		.section	.rodata.str1.8
 3374 005d 000000   		.align	3
 3375              	.LC3:
 3376 0060 4661696C 		.string	"Failed KObjectAllocator test "
GAS LISTING /tmp/ccxAvD3a.s 			page 83


 3376      6564204B 
 3376      4F626A65 
 3376      6374416C 
 3376      6C6F6361 
 3377 007e 0000     		.align	3
 3378              	.LC4:
 3379 0080 0A00     		.string	"\n"
 3380 0082 00000000 		.align	3
 3380      0000
 3381              	.LC5:
 3382 0088 50617373 		.string	"Passed "
 3382      65642000 
 3383              		.text
 3384              		.align	2
 3385              		.globl	_ZN20KObjectAllocatorTest8runTestsEv
 3387              	_ZN20KObjectAllocatorTest8runTestsEv:
 3388              	.LFB21:
   4:src/kObjectAllocatorTest.cpp **** bool KObjectAllocatorTest::runTests() {
 3389              		.loc 2 4 39 is_stmt 1
 3390              		.cfi_startproc
 3391              	.LVL438:
 3392 166c 130101FC 		addi	sp,sp,-64
 3393              		.cfi_def_cfa_offset 64
 3394 1670 233C1102 		sd	ra,56(sp)
 3395 1674 23388102 		sd	s0,48(sp)
 3396 1678 23349102 		sd	s1,40(sp)
 3397 167c 23302103 		sd	s2,32(sp)
 3398 1680 233C3101 		sd	s3,24(sp)
 3399 1684 23384101 		sd	s4,16(sp)
 3400 1688 23345101 		sd	s5,8(sp)
 3401 168c 23306101 		sd	s6,0(sp)
 3402              		.cfi_offset 1, -8
 3403              		.cfi_offset 8, -16
 3404              		.cfi_offset 9, -24
 3405              		.cfi_offset 18, -32
 3406              		.cfi_offset 19, -40
 3407              		.cfi_offset 20, -48
 3408              		.cfi_offset 21, -56
 3409              		.cfi_offset 22, -64
 3410 1690 13040104 		addi	s0,sp,64
 3411              		.cfi_def_cfa 8, 0
 3412 1694 93090500 		mv	s3,a0
   5:src/kObjectAllocatorTest.cpp ****     for (size_t size : sizes)
 3413              		.loc 2 5 5
 3414              	.LBB219:
   5:src/kObjectAllocatorTest.cpp ****     for (size_t size : sizes)
 3415              		.loc 2 5 24 is_stmt 0
 3416 1698 930A8500 		addi	s5,a0,8
 3417              	.LVL439:
 3418 169c 130B0504 		addi	s6,a0,64
 3419              	.LVL440:
 3420              	.L250:
   5:src/kObjectAllocatorTest.cpp ****     for (size_t size : sizes)
 3421              		.loc 2 5 24 is_stmt 1 discriminator 1
 3422 16a0 63886A0D 		beq	s5,s6,.L251
 3423              	.LBB220:
   5:src/kObjectAllocatorTest.cpp ****     for (size_t size : sizes)
GAS LISTING /tmp/ccxAvD3a.s 			page 84


 3424              		.loc 2 5 17 is_stmt 0 discriminator 2
 3425 16a4 03BA0A00 		ld	s4,0(s5)
 3426              	.LVL441:
   6:src/kObjectAllocatorTest.cpp ****     for (size_t i = 0; i < numberOfTests; ++i) {
 3427              		.loc 2 6 5 is_stmt 1 discriminator 2
 3428              	.LBB221:
   6:src/kObjectAllocatorTest.cpp ****     for (size_t i = 0; i < numberOfTests; ++i) {
 3429              		.loc 2 6 17 is_stmt 0 discriminator 2
 3430 16a8 93040000 		li	s1,0
 3431 16ac 6F000007 		j	.L249
 3432              	.LVL442:
 3433              	.L253:
   8:src/kObjectAllocatorTest.cpp ****             printString("Failed KObjectAllocator test ");
 3434              		.loc 2 8 13 is_stmt 1
   8:src/kObjectAllocatorTest.cpp ****             printString("Failed KObjectAllocator test ");
 3435              		.loc 2 8 24 is_stmt 0
 3436 16b0 17050000 		lla	a0,.LC3
 3436      13050500 
 3437 16b8 97000000 		call	_Z11printStringPKc@plt
 3437      E7800000 
 3438              	.LVL443:
   9:src/kObjectAllocatorTest.cpp ****             printInteger(i); printString("\n"); return false;
 3439              		.loc 2 9 13 is_stmt 1
   9:src/kObjectAllocatorTest.cpp ****             printInteger(i); printString("\n"); return false;
 3440              		.loc 2 9 25 is_stmt 0
 3441 16c0 13850400 		mv	a0,s1
 3442 16c4 97000000 		call	_Z12printIntegerm@plt
 3442      E7800000 
 3443              	.LVL444:
   9:src/kObjectAllocatorTest.cpp ****             printInteger(i); printString("\n"); return false;
 3444              		.loc 2 9 30 is_stmt 1
   9:src/kObjectAllocatorTest.cpp ****             printInteger(i); printString("\n"); return false;
 3445              		.loc 2 9 41 is_stmt 0
 3446 16cc 17050000 		lla	a0,.LC4
 3446      13050500 
 3447 16d4 97000000 		call	_Z11printStringPKc@plt
 3447      E7800000 
 3448              	.LVL445:
   9:src/kObjectAllocatorTest.cpp ****             printInteger(i); printString("\n"); return false;
 3449              		.loc 2 9 49 is_stmt 1
 3450              	.L245:
 3451              	.LBE221:
 3452              	.LBE220:
 3453              	.LBE219:
  14:src/kObjectAllocatorTest.cpp **** }
 3454              		.loc 2 14 1 is_stmt 0
 3455 16dc 13050900 		mv	a0,s2
 3456 16e0 83308103 		ld	ra,56(sp)
 3457              		.cfi_remember_state
 3458              		.cfi_restore 1
 3459 16e4 03340103 		ld	s0,48(sp)
 3460              		.cfi_restore 8
 3461              		.cfi_def_cfa 2, 64
 3462 16e8 83348102 		ld	s1,40(sp)
 3463              		.cfi_restore 9
 3464 16ec 03390102 		ld	s2,32(sp)
 3465              		.cfi_restore 18
GAS LISTING /tmp/ccxAvD3a.s 			page 85


 3466 16f0 83398101 		ld	s3,24(sp)
 3467              		.cfi_restore 19
 3468              	.LVL446:
 3469 16f4 033A0101 		ld	s4,16(sp)
 3470              		.cfi_restore 20
 3471 16f8 833A8100 		ld	s5,8(sp)
 3472              		.cfi_restore 21
 3473              	.LVL447:
 3474 16fc 033B0100 		ld	s6,0(sp)
 3475              		.cfi_restore 22
 3476              	.LVL448:
 3477 1700 13010104 		addi	sp,sp,64
 3478              		.cfi_def_cfa_offset 0
 3479 1704 67800000 		jr	ra
 3480              	.LVL449:
 3481              	.L254:
 3482              		.cfi_restore_state
 3483              	.LBB224:
 3484              	.LBB223:
 3485              	.LBB222:
  11:src/kObjectAllocatorTest.cpp ****         if (i != 0 && (i + 1) % 10 == 0) printString("\n");
 3486              		.loc 2 11 42 is_stmt 1 discriminator 2
  11:src/kObjectAllocatorTest.cpp ****         if (i != 0 && (i + 1) % 10 == 0) printString("\n");
 3487              		.loc 2 11 53 is_stmt 0 discriminator 2
 3488 1708 17050000 		lla	a0,.LC4
 3488      13050500 
 3489 1710 97000000 		call	_Z11printStringPKc@plt
 3489      E7800000 
 3490              	.LVL450:
 3491              	.L248:
   6:src/kObjectAllocatorTest.cpp ****     for (size_t i = 0; i < numberOfTests; ++i) {
 3492              		.loc 2 6 5 is_stmt 1 discriminator 2
 3493 1718 93841400 		addi	s1,s1,1
 3494              	.LVL451:
 3495              	.L249:
   6:src/kObjectAllocatorTest.cpp ****     for (size_t i = 0; i < numberOfTests; ++i) {
 3496              		.loc 2 6 26 discriminator 1
   6:src/kObjectAllocatorTest.cpp ****     for (size_t i = 0; i < numberOfTests; ++i) {
 3497              		.loc 2 6 28 is_stmt 0 discriminator 1
 3498 171c 83B70900 		ld	a5,0(s3)
   6:src/kObjectAllocatorTest.cpp ****     for (size_t i = 0; i < numberOfTests; ++i) {
 3499              		.loc 2 6 26 discriminator 1
 3500 1720 63F4F404 		bleu	a5,s1,.L246
   7:src/kObjectAllocatorTest.cpp ****         if (!test(i, size)) {
 3501              		.loc 2 7 9 is_stmt 1
   7:src/kObjectAllocatorTest.cpp ****         if (!test(i, size)) {
 3502              		.loc 2 7 18 is_stmt 0
 3503 1724 13060A00 		mv	a2,s4
 3504 1728 93850400 		mv	a1,s1
 3505 172c 13850900 		mv	a0,s3
 3506 1730 97000000 		call	_ZN20KObjectAllocatorTest4testEmm
 3506      E7800000 
 3507              	.LVL452:
 3508 1738 13090500 		mv	s2,a0
   7:src/kObjectAllocatorTest.cpp ****         if (!test(i, size)) {
 3509              		.loc 2 7 9
 3510 173c E30A05F6 		beqz	a0,.L253
GAS LISTING /tmp/ccxAvD3a.s 			page 86


  10:src/kObjectAllocatorTest.cpp ****         } else printString("Passed ");
 3511              		.loc 2 10 16 is_stmt 1
  10:src/kObjectAllocatorTest.cpp ****         } else printString("Passed ");
 3512              		.loc 2 10 27 is_stmt 0
 3513 1740 17050000 		lla	a0,.LC5
 3513      13050500 
 3514 1748 97000000 		call	_Z11printStringPKc@plt
 3514      E7800000 
 3515              	.LVL453:
  11:src/kObjectAllocatorTest.cpp ****         if (i != 0 && (i + 1) % 10 == 0) printString("\n");
 3516              		.loc 2 11 9 is_stmt 1
 3517 1750 E38404FC 		beqz	s1,.L248
  11:src/kObjectAllocatorTest.cpp ****         if (i != 0 && (i + 1) % 10 == 0) printString("\n");
 3518              		.loc 2 11 26 is_stmt 0 discriminator 1
 3519 1754 93871400 		addi	a5,s1,1
  11:src/kObjectAllocatorTest.cpp ****         if (i != 0 && (i + 1) % 10 == 0) printString("\n");
 3520              		.loc 2 11 31 discriminator 1
 3521 1758 1307A000 		li	a4,10
 3522 175c B3F7E702 		remu	a5,a5,a4
  11:src/kObjectAllocatorTest.cpp ****         if (i != 0 && (i + 1) % 10 == 0) printString("\n");
 3523              		.loc 2 11 20 discriminator 1
 3524 1760 E39C07FA 		bnez	a5,.L248
 3525 1764 6FF05FFA 		j	.L254
 3526              	.L246:
 3527              	.LBE222:
 3528              	.LBE223:
   5:src/kObjectAllocatorTest.cpp ****     for (size_t size : sizes)
 3529              		.loc 2 5 5 is_stmt 1 discriminator 3
 3530 1768 938A8A00 		addi	s5,s5,8
 3531              	.LVL454:
 3532 176c 6FF05FF3 		j	.L250
 3533              	.LVL455:
 3534              	.L251:
 3535              	.LBE224:
  13:src/kObjectAllocatorTest.cpp ****     return true;
 3536              		.loc 2 13 12 is_stmt 0
 3537 1770 13091000 		li	s2,1
 3538 1774 6FF09FF6 		j	.L245
 3539              		.cfi_endproc
 3540              	.LFE21:
 3542              		.section	.rodata
 3543              		.align	3
 3544              		.set	.LANCHOR0,. + 0
 3545              	.LC0:
 3546 0028 01       		.byte	1
 3547 0029 01       		.byte	1
 3548 002a 01       		.byte	1
 3549 002b 01       		.byte	1
 3550 002c 00       		.byte	0
 3551 002d 01       		.byte	1
 3552 002e 01       		.byte	1
 3553 002f 00       		.byte	0
 3554 0030 01       		.byte	1
 3555 0031 01       		.byte	1
 3556 0032 00       		.byte	0
 3557 0033 00       		.byte	0
 3558 0034 00       		.byte	0
GAS LISTING /tmp/ccxAvD3a.s 			page 87


 3559 0035 00       		.byte	0
 3560 0036 00       		.byte	0
 3561 0037 00       		.byte	0
 3562              		.text
 3563              	.Letext0:
 3564              		.file 3 "src/../h/../lib/hw.h"
 3565              		.file 4 "src/../h/memoryAllocator.hpp"
 3566              		.file 5 "src/../h/kObjectAllocatorTest.hpp"
 3567              		.file 6 "src/../h/print.hpp"
 10841              		.align	3
 10844              	DW.ref.__gxx_personality_v0:
 10845 0000 00000000 		.dword	__gxx_personality_v0
 10845      00000000 
 10846              		.ident	"GCC: (Ubuntu 9.4.0-1ubuntu1~20.04) 9.4.0"
 10847              		.section	.note.GNU-stack,"",@progbits
GAS LISTING /tmp/ccxAvD3a.s 			page 88

