GAS LISTING /tmp/ccbSKEpy.s 			page 1


   1              		.file	"kObjectAllocatorTest.cpp"
   2              		.option pic
   3              		.option norelax
   4              		.text
   5              	.Ltext0:
   6              		.section	.text._ZN16KObjectAllocatordlEPv,"axG",@progbits,_ZN16KObjectAllocatordlEPv,comdat
   7              		.align	2
   8              		.weak	_ZN16KObjectAllocatordlEPv
  10              	_ZN16KObjectAllocatordlEPv:
  11              	.LFB10:
  12              		.file 1 "src/../h/kObjectAllocator.hpp"
   1:src/../h/kObjectAllocator.hpp **** #ifndef KOBJECTALLOCATOR_HPP
   2:src/../h/kObjectAllocator.hpp **** #define KOBJECTALLOCATOR_HPP
   3:src/../h/kObjectAllocator.hpp **** 
   4:src/../h/kObjectAllocator.hpp **** #include "../h/memoryAllocator.hpp"
   5:src/../h/kObjectAllocator.hpp **** 
   6:src/../h/kObjectAllocator.hpp **** class KObjectAllocatorTest;
   7:src/../h/kObjectAllocator.hpp **** 
   8:src/../h/kObjectAllocator.hpp **** /*          ^
   9:src/../h/kObjectAllocator.hpp ****  *          |
  10:src/../h/kObjectAllocator.hpp ****  *          |
  11:src/../h/kObjectAllocator.hpp ****  *          |
  12:src/../h/kObjectAllocator.hpp ****  * DELETE THIS CLASS DECLARATION
  13:src/../h/kObjectAllocator.hpp ****  */
  14:src/../h/kObjectAllocator.hpp **** 
  15:src/../h/kObjectAllocator.hpp **** 
  16:src/../h/kObjectAllocator.hpp **** class KObjectAllocator {
  17:src/../h/kObjectAllocator.hpp **** public:
  18:src/../h/kObjectAllocator.hpp **** 
  19:src/../h/kObjectAllocator.hpp ****     /*
  20:src/../h/kObjectAllocator.hpp ****      *
  21:src/../h/kObjectAllocator.hpp ****      *
  22:src/../h/kObjectAllocator.hpp ****      *
  23:src/../h/kObjectAllocator.hpp ****      *
  24:src/../h/kObjectAllocator.hpp ****      *
  25:src/../h/kObjectAllocator.hpp ****      *
  26:src/../h/kObjectAllocator.hpp ****      *                      #####################################
  27:src/../h/kObjectAllocator.hpp ****      *                      #####################################
  28:src/../h/kObjectAllocator.hpp ****      *                      #####################################
  29:src/../h/kObjectAllocator.hpp ****      *                     ### NE SMEJU SE PREDATI TESTOVI !!! ###
  30:src/../h/kObjectAllocator.hpp ****      *                      #####################################
  31:src/../h/kObjectAllocator.hpp ****      *                      #####################################
  32:src/../h/kObjectAllocator.hpp ****      *                      #####################################
  33:src/../h/kObjectAllocator.hpp ****      *
  34:src/../h/kObjectAllocator.hpp ****      *
  35:src/../h/kObjectAllocator.hpp ****      *
  36:src/../h/kObjectAllocator.hpp ****      *
  37:src/../h/kObjectAllocator.hpp ****      *
  38:src/../h/kObjectAllocator.hpp ****      *
  39:src/../h/kObjectAllocator.hpp ****      */
  40:src/../h/kObjectAllocator.hpp ****     friend KObjectAllocatorTest;
  41:src/../h/kObjectAllocator.hpp **** 
  42:src/../h/kObjectAllocator.hpp ****     /*                         ^
  43:src/../h/kObjectAllocator.hpp ****      *                         |
  44:src/../h/kObjectAllocator.hpp ****      *      DELETE THIS FRIEND |
  45:src/../h/kObjectAllocator.hpp ****      *
  46:src/../h/kObjectAllocator.hpp ****      */
GAS LISTING /tmp/ccbSKEpy.s 			page 2


  47:src/../h/kObjectAllocator.hpp **** 
  48:src/../h/kObjectAllocator.hpp **** 
  49:src/../h/kObjectAllocator.hpp ****     KObjectAllocator(size_t objectSize) : KObjectAllocator(objectSize, 320) {}
  50:src/../h/kObjectAllocator.hpp ****     KObjectAllocator(size_t objectSize, size_t initialObjectNumber)
  51:src/../h/kObjectAllocator.hpp ****             : numberOfObjects(initialObjectNumber), objectSize(objectSize) {
  52:src/../h/kObjectAllocator.hpp ****         numberOfObjects = numberOfObjects / 8 * 8 + 8 * (numberOfObjects / 8 * 8 != numberOfObjects
  53:src/../h/kObjectAllocator.hpp ****         // one bit for each object which indicates whether memory
  54:src/../h/kObjectAllocator.hpp ****         // corresponding to that object is allocated or free
  55:src/../h/kObjectAllocator.hpp ****         memorySizeForBits = numberOfObjects / 8;
  56:src/../h/kObjectAllocator.hpp ****         bitVector = (uint8*) MemoryAllocator::instance()->kmem_alloc(
  57:src/../h/kObjectAllocator.hpp ****                 memorySizeForBits + numberOfObjects * objectSize
  58:src/../h/kObjectAllocator.hpp ****         );
  59:src/../h/kObjectAllocator.hpp ****         objectVector = bitVector + memorySizeForBits;   // start of memory for objects
  60:src/../h/kObjectAllocator.hpp ****         for (size_t i = 0; i < memorySizeForBits; bitVector[i++] = 0);
  61:src/../h/kObjectAllocator.hpp ****     }
  62:src/../h/kObjectAllocator.hpp ****     void* operator new(size_t size) {
  63:src/../h/kObjectAllocator.hpp ****         return MemoryAllocator::instance()->kmem_alloc(size);
  64:src/../h/kObjectAllocator.hpp ****     }
  65:src/../h/kObjectAllocator.hpp ****     void operator delete(void* p) {
  13              		.loc 1 65 10
  14              		.cfi_startproc
  15              	.LVL0:
  16 0000 130101FE 		addi	sp,sp,-32
  17              		.cfi_def_cfa_offset 32
  18 0004 233C1100 		sd	ra,24(sp)
  19 0008 23388100 		sd	s0,16(sp)
  20 000c 23349100 		sd	s1,8(sp)
  21              		.cfi_offset 1, -8
  22              		.cfi_offset 8, -16
  23              		.cfi_offset 9, -24
  24 0010 13040102 		addi	s0,sp,32
  25              		.cfi_def_cfa 8, 0
  26 0014 93040500 		mv	s1,a0
  66:src/../h/kObjectAllocator.hpp ****         MemoryAllocator::instance()->kmem_free(((KObjectAllocator*) p)->bitVector);
  27              		.loc 1 66 9
  28              		.loc 1 66 47 is_stmt 0
  29 0018 97000000 		call	_ZN15MemoryAllocator8instanceEv@plt
  29      E7800000 
  30              	.LVL1:
  31 0020 83B50402 		ld	a1,32(s1)
  32 0024 97000000 		call	_ZN15MemoryAllocator9kmem_freeEPv@plt
  32      E7800000 
  33              	.LVL2:
  67:src/../h/kObjectAllocator.hpp ****         MemoryAllocator::instance()->kmem_free(p);
  34              		.loc 1 67 9 is_stmt 1
  35              		.loc 1 67 47 is_stmt 0
  36 002c 97000000 		call	_ZN15MemoryAllocator8instanceEv@plt
  36      E7800000 
  37              	.LVL3:
  38 0034 93850400 		mv	a1,s1
  39 0038 97000000 		call	_ZN15MemoryAllocator9kmem_freeEPv@plt
  39      E7800000 
  40              	.LVL4:
  68:src/../h/kObjectAllocator.hpp ****     }
  41              		.loc 1 68 5
  42 0040 83308101 		ld	ra,24(sp)
  43              		.cfi_restore 1
GAS LISTING /tmp/ccbSKEpy.s 			page 3


  44 0044 03340101 		ld	s0,16(sp)
  45              		.cfi_restore 8
  46              		.cfi_def_cfa 2, 32
  47 0048 83348100 		ld	s1,8(sp)
  48              		.cfi_restore 9
  49              	.LVL5:
  50 004c 13010102 		addi	sp,sp,32
  51              		.cfi_def_cfa_offset 0
  52 0050 67800000 		jr	ra
  53              		.cfi_endproc
  54              	.LFE10:
  56              		.text
  57              		.align	2
  58              		.globl	_ZN20KObjectAllocatorTest15getValueOfBitAtEmmP16KObjectAllocator
  60              	_ZN20KObjectAllocatorTest15getValueOfBitAtEmmP16KObjectAllocator:
  61              	.LFB21:
  62              		.file 2 "src/kObjectAllocatorTest.cpp"
   1:src/kObjectAllocatorTest.cpp **** #include "../h/kObjectAllocatorTest.hpp"
   2:src/kObjectAllocatorTest.cpp **** #include "../h/print.hpp"
   3:src/kObjectAllocatorTest.cpp **** 
   4:src/kObjectAllocatorTest.cpp **** bool KObjectAllocatorTest::runTests() {
   5:src/kObjectAllocatorTest.cpp ****     for (size_t size : sizes)
   6:src/kObjectAllocatorTest.cpp ****     for (size_t i = 0; i < numberOfTests; ++i) {
   7:src/kObjectAllocatorTest.cpp ****         if (!test(i, size)) {
   8:src/kObjectAllocatorTest.cpp ****             printString("Failed KObjectAllocator test ");
   9:src/kObjectAllocatorTest.cpp ****             printInteger(i); printString("\n"); return false;
  10:src/kObjectAllocatorTest.cpp ****         } else printString("Passed ");
  11:src/kObjectAllocatorTest.cpp ****         if (i != 0 && (i + 1) % 10 == 0) printString("\n");
  12:src/kObjectAllocatorTest.cpp ****     }
  13:src/kObjectAllocatorTest.cpp ****     return true;
  14:src/kObjectAllocatorTest.cpp **** }
  15:src/kObjectAllocatorTest.cpp **** 
  16:src/kObjectAllocatorTest.cpp **** bool KObjectAllocatorTest::test(size_t i, size_t size) {
  17:src/kObjectAllocatorTest.cpp ****     switch (i) {
  18:src/kObjectAllocatorTest.cpp ****         case 0: return test0(size); break;
  19:src/kObjectAllocatorTest.cpp ****         case 1: return test1(size); break;
  20:src/kObjectAllocatorTest.cpp ****         case 2: return test2(size); break;
  21:src/kObjectAllocatorTest.cpp ****         case 3: return test3(size); break;
  22:src/kObjectAllocatorTest.cpp ****         case 4: return test4(size); break;
  23:src/kObjectAllocatorTest.cpp ****         case 5: return test5(size); break;
  24:src/kObjectAllocatorTest.cpp ****         case 6: return test6(size); break;
  25:src/kObjectAllocatorTest.cpp ****         case 7: return test7(size); break;
  26:src/kObjectAllocatorTest.cpp ****         case 8: return test8(size); break;
  27:src/kObjectAllocatorTest.cpp ****         case 9: return test9(size); break;
  28:src/kObjectAllocatorTest.cpp ****         default: break;
  29:src/kObjectAllocatorTest.cpp ****     }
  30:src/kObjectAllocatorTest.cpp ****     return false;
  31:src/kObjectAllocatorTest.cpp **** }
  32:src/kObjectAllocatorTest.cpp **** 
  33:src/kObjectAllocatorTest.cpp **** bool KObjectAllocatorTest::getValueOfBitAt(size_t byte, size_t bit, KObjectAllocator* objAlloc) {
  63              		.loc 2 33 97 is_stmt 1
  64              		.cfi_startproc
  65              	.LVL6:
  66 0000 130101FF 		addi	sp,sp,-16
  67              		.cfi_def_cfa_offset 16
  68 0004 23348100 		sd	s0,8(sp)
  69              		.cfi_offset 8, -8
GAS LISTING /tmp/ccbSKEpy.s 			page 4


  70 0008 13040101 		addi	s0,sp,16
  71              		.cfi_def_cfa 8, 0
  34:src/kObjectAllocatorTest.cpp ****     return (objAlloc->bitVector[byte] >> bit & (uint8) 1) != 0;
  72              		.loc 2 34 5
  73              		.loc 2 34 23 is_stmt 0
  74 000c 83B70602 		ld	a5,32(a3)
  75              		.loc 2 34 37
  76 0010 B387B700 		add	a5,a5,a1
  77 0014 03C50700 		lbu	a0,0(a5)
  78              	.LVL7:
  79              		.loc 2 34 39
  80 0018 3B55C540 		sraw	a0,a0,a2
  35:src/kObjectAllocatorTest.cpp **** }
  81              		.loc 2 35 1
  82 001c 13751500 		andi	a0,a0,1
  83 0020 03348100 		ld	s0,8(sp)
  84              		.cfi_restore 8
  85              		.cfi_def_cfa 2, 16
  86 0024 13010101 		addi	sp,sp,16
  87              		.cfi_def_cfa_offset 0
  88 0028 67800000 		jr	ra
  89              		.cfi_endproc
  90              	.LFE21:
  92              		.align	2
  93              		.globl	_ZN20KObjectAllocatorTest15getByteOfObjectEPvP16KObjectAllocator
  95              	_ZN20KObjectAllocatorTest15getByteOfObjectEPvP16KObjectAllocator:
  96              	.LFB22:
  36:src/kObjectAllocatorTest.cpp **** 
  37:src/kObjectAllocatorTest.cpp **** size_t KObjectAllocatorTest::getByteOfObject(void* obj, KObjectAllocator* objAlloc) {
  97              		.loc 2 37 85 is_stmt 1
  98              		.cfi_startproc
  99              	.LVL8:
 100 002c 130101FF 		addi	sp,sp,-16
 101              		.cfi_def_cfa_offset 16
 102 0030 23348100 		sd	s0,8(sp)
 103              		.cfi_offset 8, -8
 104 0034 13040101 		addi	s0,sp,16
 105              		.cfi_def_cfa 8, 0
  38:src/kObjectAllocatorTest.cpp ****     size_t diff = (size_t) ((uint8*) obj - objAlloc->objectVector);
 106              		.loc 2 38 5
 107              		.loc 2 38 54 is_stmt 0
 108 0038 03358601 		ld	a0,24(a2)
 109              	.LVL9:
 110              		.loc 2 38 42
 111 003c B385A540 		sub	a1,a1,a0
 112              	.LVL10:
  39:src/kObjectAllocatorTest.cpp ****     size_t byte = diff / objAlloc->objectSize / 8;
 113              		.loc 2 39 5 is_stmt 1
 114              		.loc 2 39 36 is_stmt 0
 115 0040 03350601 		ld	a0,16(a2)
 116              		.loc 2 39 24
 117 0044 33D5A502 		divu	a0,a1,a0
 118              	.LVL11:
  40:src/kObjectAllocatorTest.cpp ****     return byte;
 119              		.loc 2 40 5 is_stmt 1
  41:src/kObjectAllocatorTest.cpp **** }
 120              		.loc 2 41 1 is_stmt 0
GAS LISTING /tmp/ccbSKEpy.s 			page 5


 121 0048 13553500 		srli	a0,a0,3
 122              	.LVL12:
 123 004c 03348100 		ld	s0,8(sp)
 124              		.cfi_restore 8
 125              		.cfi_def_cfa 2, 16
 126 0050 13010101 		addi	sp,sp,16
 127              		.cfi_def_cfa_offset 0
 128 0054 67800000 		jr	ra
 129              		.cfi_endproc
 130              	.LFE22:
 132              		.align	2
 133              		.globl	_ZN20KObjectAllocatorTest14getBitOfObjectEPvP16KObjectAllocator
 135              	_ZN20KObjectAllocatorTest14getBitOfObjectEPvP16KObjectAllocator:
 136              	.LFB23:
  42:src/kObjectAllocatorTest.cpp **** 
  43:src/kObjectAllocatorTest.cpp **** size_t KObjectAllocatorTest::getBitOfObject(void* obj, KObjectAllocator* objAlloc) {
 137              		.loc 2 43 84 is_stmt 1
 138              		.cfi_startproc
 139              	.LVL13:
 140 0058 130101FF 		addi	sp,sp,-16
 141              		.cfi_def_cfa_offset 16
 142 005c 23348100 		sd	s0,8(sp)
 143              		.cfi_offset 8, -8
 144 0060 13040101 		addi	s0,sp,16
 145              		.cfi_def_cfa 8, 0
  44:src/kObjectAllocatorTest.cpp ****     size_t diff = (size_t) ((uint8*) obj - objAlloc->objectVector);
 146              		.loc 2 44 5
 147              		.loc 2 44 54 is_stmt 0
 148 0064 03358601 		ld	a0,24(a2)
 149              	.LVL14:
 150              		.loc 2 44 42
 151 0068 B385A540 		sub	a1,a1,a0
 152              	.LVL15:
  45:src/kObjectAllocatorTest.cpp ****     size_t byte = diff / objAlloc->objectSize / 8;
 153              		.loc 2 45 5 is_stmt 1
 154              		.loc 2 45 36 is_stmt 0
 155 006c 03350601 		ld	a0,16(a2)
 156              		.loc 2 45 24
 157 0070 33D5A502 		divu	a0,a1,a0
 158              	.LVL16:
  46:src/kObjectAllocatorTest.cpp ****     size_t bit = diff / objAlloc->objectSize - byte * 8;
 159              		.loc 2 46 5 is_stmt 1
 160              		.loc 2 46 53 is_stmt 0
 161 0074 937585FF 		andi	a1,a0,-8
 162              	.LVL17:
  47:src/kObjectAllocatorTest.cpp ****     return 7 - bit;
 163              		.loc 2 47 5 is_stmt 1
 164              		.loc 2 47 16 is_stmt 0
 165 0078 3385A540 		sub	a0,a1,a0
 166              	.LVL18:
  48:src/kObjectAllocatorTest.cpp **** }
 167              		.loc 2 48 1
 168 007c 13057500 		addi	a0,a0,7
 169 0080 03348100 		ld	s0,8(sp)
 170              		.cfi_restore 8
 171              		.cfi_def_cfa 2, 16
 172 0084 13010101 		addi	sp,sp,16
GAS LISTING /tmp/ccbSKEpy.s 			page 6


 173              		.cfi_def_cfa_offset 0
 174 0088 67800000 		jr	ra
 175              		.cfi_endproc
 176              	.LFE23:
 178              		.align	2
 179              		.globl	_ZN20KObjectAllocatorTest11getObjectAtEmmP16KObjectAllocator
 181              	_ZN20KObjectAllocatorTest11getObjectAtEmmP16KObjectAllocator:
 182              	.LFB24:
  49:src/kObjectAllocatorTest.cpp **** 
  50:src/kObjectAllocatorTest.cpp **** void* KObjectAllocatorTest::getObjectAt(size_t byte, size_t bit, KObjectAllocator* objAlloc) {
 183              		.loc 2 50 94 is_stmt 1
 184              		.cfi_startproc
 185              	.LVL19:
 186 008c 130101FF 		addi	sp,sp,-16
 187              		.cfi_def_cfa_offset 16
 188 0090 23348100 		sd	s0,8(sp)
 189              		.cfi_offset 8, -8
 190 0094 13040101 		addi	s0,sp,16
 191              		.cfi_def_cfa 8, 0
  51:src/kObjectAllocatorTest.cpp ****     return &objAlloc->objectVector[(byte * 8 + 7 - bit) * objAlloc->objectSize];
 192              		.loc 2 51 5
 193              		.loc 2 51 23 is_stmt 0
 194 0098 03B58601 		ld	a0,24(a3)
 195              	.LVL20:
 196              		.loc 2 51 42
 197 009c 93953500 		slli	a1,a1,3
 198              	.LVL21:
 199              		.loc 2 51 50
 200 00a0 B385C540 		sub	a1,a1,a2
 201 00a4 93857500 		addi	a1,a1,7
 202              		.loc 2 51 69
 203 00a8 03B60601 		ld	a2,16(a3)
 204              	.LVL22:
 205              		.loc 2 51 57
 206 00ac B385C502 		mul	a1,a1,a2
  52:src/kObjectAllocatorTest.cpp **** }
 207              		.loc 2 52 1
 208 00b0 3305B500 		add	a0,a0,a1
 209 00b4 03348100 		ld	s0,8(sp)
 210              		.cfi_restore 8
 211              		.cfi_def_cfa 2, 16
 212 00b8 13010101 		addi	sp,sp,16
 213              		.cfi_def_cfa_offset 0
 214 00bc 67800000 		jr	ra
 215              		.cfi_endproc
 216              	.LFE24:
 218              		.align	2
 219              		.globl	_ZN20KObjectAllocatorTest5test0Em
 221              	_ZN20KObjectAllocatorTest5test0Em:
 222              	.LFB25:
  53:src/kObjectAllocatorTest.cpp **** 
  54:src/kObjectAllocatorTest.cpp **** bool KObjectAllocatorTest::test0(size_t size) {
 223              		.loc 2 54 47 is_stmt 1
 224              		.cfi_startproc
 225              		.cfi_personality 0x9b,DW.ref.__gxx_personality_v0
 226              		.cfi_lsda 0x1b,.LLSDA25
 227              	.LVL23:
GAS LISTING /tmp/ccbSKEpy.s 			page 7


 228 00c0 130101F5 		addi	sp,sp,-176
 229              		.cfi_def_cfa_offset 176
 230 00c4 2334110A 		sd	ra,168(sp)
 231 00c8 2330810A 		sd	s0,160(sp)
 232 00cc 233C9108 		sd	s1,152(sp)
 233 00d0 23382109 		sd	s2,144(sp)
 234 00d4 23343109 		sd	s3,136(sp)
 235 00d8 23304109 		sd	s4,128(sp)
 236 00dc 233C5107 		sd	s5,120(sp)
 237 00e0 23386107 		sd	s6,112(sp)
 238 00e4 23347107 		sd	s7,104(sp)
 239              		.cfi_offset 1, -8
 240              		.cfi_offset 8, -16
 241              		.cfi_offset 9, -24
 242              		.cfi_offset 18, -32
 243              		.cfi_offset 19, -40
 244              		.cfi_offset 20, -48
 245              		.cfi_offset 21, -56
 246              		.cfi_offset 22, -64
 247              		.cfi_offset 23, -72
 248 00e8 1304010B 		addi	s0,sp,176
 249              		.cfi_def_cfa 8, 0
 250 00ec 93090500 		mv	s3,a0
 251 00f0 13890500 		mv	s2,a1
  55:src/kObjectAllocatorTest.cpp ****     KObjectAllocator* objAlloc = new KObjectAllocator(size, 9);
 252              		.loc 2 55 5
 253              	.LVL24:
 254              	.LBB69:
 255              	.LBB70:
  63:src/../h/kObjectAllocator.hpp ****     }
 256              		.loc 1 63 9
 257              	.LEHB0:
  63:src/../h/kObjectAllocator.hpp ****     }
 258              		.loc 1 63 55 is_stmt 0
 259 00f4 97000000 		call	_ZN15MemoryAllocator8instanceEv@plt
 259      E7800000 
 260              	.LVL25:
 261 00fc 93050003 		li	a1,48
 262 0100 97000000 		call	_ZN15MemoryAllocator10kmem_allocEm@plt
 262      E7800000 
 263              	.LVL26:
 264              	.LEHE0:
 265 0108 93040500 		mv	s1,a0
 266              	.LVL27:
 267              	.LBE70:
 268              	.LBE69:
 269              	.LBB71:
 270              	.LBB72:
  51:src/../h/kObjectAllocator.hpp ****         numberOfObjects = numberOfObjects / 8 * 8 + 8 * (numberOfObjects / 8 * 8 != numberOfObjects
 271              		.loc 1 51 74
 272 010c 23382501 		sd	s2,16(a0)
 273 0110 23340502 		sd	zero,40(a0)
 274              	.LBB73:
  52:src/../h/kObjectAllocator.hpp ****         // one bit for each object which indicates whether memory
 275              		.loc 1 52 9 is_stmt 1
  52:src/../h/kObjectAllocator.hpp ****         // one bit for each object which indicates whether memory
 276              		.loc 1 52 25 is_stmt 0
GAS LISTING /tmp/ccbSKEpy.s 			page 8


 277 0114 93070001 		li	a5,16
 278 0118 2330F500 		sd	a5,0(a0)
  55:src/../h/kObjectAllocator.hpp ****         bitVector = (uint8*) MemoryAllocator::instance()->kmem_alloc(
 279              		.loc 1 55 9 is_stmt 1
  55:src/../h/kObjectAllocator.hpp ****         bitVector = (uint8*) MemoryAllocator::instance()->kmem_alloc(
 280              		.loc 1 55 27 is_stmt 0
 281 011c 93072000 		li	a5,2
 282 0120 2334F500 		sd	a5,8(a0)
  56:src/../h/kObjectAllocator.hpp ****                 memorySizeForBits + numberOfObjects * objectSize
 283              		.loc 1 56 9 is_stmt 1
 284              	.LEHB1:
  56:src/../h/kObjectAllocator.hpp ****                 memorySizeForBits + numberOfObjects * objectSize
 285              		.loc 1 56 69 is_stmt 0
 286 0124 97000000 		call	_ZN15MemoryAllocator8instanceEv@plt
 286      E7800000 
 287              	.LVL28:
  57:src/../h/kObjectAllocator.hpp ****         );
 288              		.loc 1 57 17
 289 012c 83B58400 		ld	a1,8(s1)
  57:src/../h/kObjectAllocator.hpp ****         );
 290              		.loc 1 57 37
 291 0130 83B70400 		ld	a5,0(s1)
  57:src/../h/kObjectAllocator.hpp ****         );
 292              		.loc 1 57 53
 293 0134 B307F902 		mul	a5,s2,a5
  56:src/../h/kObjectAllocator.hpp ****                 memorySizeForBits + numberOfObjects * objectSize
 294              		.loc 1 56 69
 295 0138 B385F500 		add	a1,a1,a5
 296 013c 97000000 		call	_ZN15MemoryAllocator10kmem_allocEm@plt
 296      E7800000 
 297              	.LVL29:
 298              	.LEHE1:
  56:src/../h/kObjectAllocator.hpp ****                 memorySizeForBits + numberOfObjects * objectSize
 299              		.loc 1 56 19
 300 0144 23B0A402 		sd	a0,32(s1)
  59:src/../h/kObjectAllocator.hpp ****         for (size_t i = 0; i < memorySizeForBits; bitVector[i++] = 0);
 301              		.loc 1 59 9 is_stmt 1
  59:src/../h/kObjectAllocator.hpp ****         for (size_t i = 0; i < memorySizeForBits; bitVector[i++] = 0);
 302              		.loc 1 59 36 is_stmt 0
 303 0148 83B78400 		ld	a5,8(s1)
  59:src/../h/kObjectAllocator.hpp ****         for (size_t i = 0; i < memorySizeForBits; bitVector[i++] = 0);
 304              		.loc 1 59 34
 305 014c B307F500 		add	a5,a0,a5
  59:src/../h/kObjectAllocator.hpp ****         for (size_t i = 0; i < memorySizeForBits; bitVector[i++] = 0);
 306              		.loc 1 59 22
 307 0150 23BCF400 		sd	a5,24(s1)
  60:src/../h/kObjectAllocator.hpp ****     }
 308              		.loc 1 60 9 is_stmt 1
 309              	.LVL30:
 310              	.LBB74:
  60:src/../h/kObjectAllocator.hpp ****     }
 311              		.loc 1 60 21 is_stmt 0
 312 0154 93070000 		li	a5,0
 313              	.LVL31:
 314              	.L13:
  60:src/../h/kObjectAllocator.hpp ****     }
 315              		.loc 1 60 30 is_stmt 1
GAS LISTING /tmp/ccbSKEpy.s 			page 9


  60:src/../h/kObjectAllocator.hpp ****     }
 316              		.loc 1 60 32 is_stmt 0
 317 0158 03B78400 		ld	a4,8(s1)
  60:src/../h/kObjectAllocator.hpp ****     }
 318              		.loc 1 60 30
 319 015c 63FCE700 		bleu	a4,a5,.L12
  60:src/../h/kObjectAllocator.hpp ****     }
 320              		.loc 1 60 9 is_stmt 1
  60:src/../h/kObjectAllocator.hpp ****     }
 321              		.loc 1 60 51 is_stmt 0
 322 0160 03B70402 		ld	a4,32(s1)
 323              	.LVL32:
  60:src/../h/kObjectAllocator.hpp ****     }
 324              		.loc 1 60 64
 325 0164 3307F700 		add	a4,a4,a5
  60:src/../h/kObjectAllocator.hpp ****     }
 326              		.loc 1 60 66
 327 0168 23000700 		sb	zero,0(a4)
  60:src/../h/kObjectAllocator.hpp ****     }
 328              		.loc 1 60 62
 329 016c 93871700 		addi	a5,a5,1
 330              	.LVL33:
  60:src/../h/kObjectAllocator.hpp ****     }
 331              		.loc 1 60 9
 332 0170 6FF09FFE 		j	.L13
 333              	.L12:
 334              	.LVL34:
 335              	.LBE74:
 336              	.LBE73:
 337              	.LBE72:
 338              	.LBE71:
  56:src/kObjectAllocatorTest.cpp ****     if (objAlloc->getNumberOfObjects() != 16) { delete objAlloc; return false; }
 339              		.loc 2 56 5 is_stmt 1 discriminator 3
 340              	.LBB75:
 341              	.LBB76:
  69:src/../h/kObjectAllocator.hpp ****     void printInternalMemory();
  70:src/../h/kObjectAllocator.hpp ****     size_t getObjectSize() { return objectSize; }
  71:src/../h/kObjectAllocator.hpp ****     size_t getNumberOfObjects() { return numberOfObjects; }
 342              		.loc 1 71 35 discriminator 3
 343              		.loc 1 71 42 is_stmt 0 discriminator 3
 344 0174 03B70400 		ld	a4,0(s1)
 345              	.LVL35:
 346              	.LBE76:
 347              	.LBE75:
 348              		.loc 2 56 5 discriminator 3
 349 0178 93070001 		li	a5,16
 350 017c 6302F706 		beq	a4,a5,.L14
 351              		.loc 2 56 49 is_stmt 1 discriminator 1
 352              		.loc 2 56 64 is_stmt 0 discriminator 1
 353 0180 63860402 		beqz	s1,.L15
 354              	.LVL36:
 355              	.LBB77:
 356              	.LBB78:
  66:src/../h/kObjectAllocator.hpp ****         MemoryAllocator::instance()->kmem_free(p);
 357              		.loc 1 66 9 is_stmt 1 discriminator 2
 358              	.LEHB2:
  66:src/../h/kObjectAllocator.hpp ****         MemoryAllocator::instance()->kmem_free(p);
GAS LISTING /tmp/ccbSKEpy.s 			page 10


 359              		.loc 1 66 47 is_stmt 0 discriminator 2
 360 0184 97000000 		call	_ZN15MemoryAllocator8instanceEv@plt
 360      E7800000 
 361              	.LVL37:
 362 018c 83B50402 		ld	a1,32(s1)
 363 0190 97000000 		call	_ZN15MemoryAllocator9kmem_freeEPv@plt
 363      E7800000 
 364              	.LVL38:
  67:src/../h/kObjectAllocator.hpp ****     }
 365              		.loc 1 67 9 is_stmt 1 discriminator 2
  67:src/../h/kObjectAllocator.hpp ****     }
 366              		.loc 1 67 47 is_stmt 0 discriminator 2
 367 0198 97000000 		call	_ZN15MemoryAllocator8instanceEv@plt
 367      E7800000 
 368              	.LVL39:
 369 01a0 93850400 		mv	a1,s1
 370 01a4 97000000 		call	_ZN15MemoryAllocator9kmem_freeEPv@plt
 370      E7800000 
 371              	.LVL40:
 372              	.L15:
 373              	.LBE78:
 374              	.LBE77:
 375              		.loc 2 56 66 is_stmt 1 discriminator 3
 376              		.loc 2 56 73 is_stmt 0 discriminator 3
 377 01ac 130A0000 		li	s4,0
 378              	.LVL41:
 379              	.L51:
  57:src/kObjectAllocatorTest.cpp ****     if (objAlloc->getMemorySizeForBits() != 2) { delete objAlloc; return false; }
  58:src/kObjectAllocatorTest.cpp ****     if (objAlloc->getObjectSize() != size) { delete objAlloc; return false; }
  59:src/kObjectAllocatorTest.cpp ****     void* objArr[10]; for (size_t i = 0; i < 10; objArr[i++] = objAlloc->allocateNewObject());
  60:src/kObjectAllocatorTest.cpp ****     size_t byte = 0; size_t bit = 7;
  61:src/kObjectAllocatorTest.cpp ****     for (size_t i = 0; i < 10; ++i) {
  62:src/kObjectAllocatorTest.cpp ****         if (objArr[i] != getObjectAt(byte, bit, objAlloc)) { delete objAlloc; return false; }
  63:src/kObjectAllocatorTest.cpp ****         size_t objByte = getByteOfObject(objArr[i], objAlloc);
  64:src/kObjectAllocatorTest.cpp ****         size_t objBit = getBitOfObject(objArr[i], objAlloc);
  65:src/kObjectAllocatorTest.cpp ****         if (objByte != byte || objBit != bit) { delete objAlloc; return false; }
  66:src/kObjectAllocatorTest.cpp ****         if (!getValueOfBitAt(byte, bit, objAlloc)) { delete objAlloc; return false; }
  67:src/kObjectAllocatorTest.cpp ****         if (bit == 0) { ++byte; bit = 8; } --bit;
  68:src/kObjectAllocatorTest.cpp ****     }
  69:src/kObjectAllocatorTest.cpp ****     for (size_t i = 0; i < 6; ++i) {
  70:src/kObjectAllocatorTest.cpp ****         if (getValueOfBitAt(byte, bit, objAlloc)) { delete objAlloc; return false; }
  71:src/kObjectAllocatorTest.cpp ****         if (bit == 0) { ++byte; bit = 8; } --bit;
  72:src/kObjectAllocatorTest.cpp ****     }
  73:src/kObjectAllocatorTest.cpp ****     objAlloc->freeObject(objArr[4]);
  74:src/kObjectAllocatorTest.cpp ****     objAlloc->freeObject(objArr[7]);
  75:src/kObjectAllocatorTest.cpp ****     objAlloc->freeObject(objArr[8]);
  76:src/kObjectAllocatorTest.cpp ****     objArr[4] = objAlloc->allocateNewObject();
  77:src/kObjectAllocatorTest.cpp ****     if (objArr[4] != getObjectAt(1, 7, objAlloc)) { delete objAlloc; return false; }
  78:src/kObjectAllocatorTest.cpp ****     byte = getByteOfObject(objArr[4], objAlloc);
  79:src/kObjectAllocatorTest.cpp ****     bit = getBitOfObject(objArr[4], objAlloc);
  80:src/kObjectAllocatorTest.cpp ****     if (byte != 1 || bit != 7) { delete objAlloc; return false; }
  81:src/kObjectAllocatorTest.cpp ****     bool expectedBitValues[16] = {
  82:src/kObjectAllocatorTest.cpp ****             true, true, true, true, false, true, true, false,
  83:src/kObjectAllocatorTest.cpp ****             true, true, false, false, false, false, false, false
  84:src/kObjectAllocatorTest.cpp ****     };
  85:src/kObjectAllocatorTest.cpp ****     byte = 0; bit = 7;
  86:src/kObjectAllocatorTest.cpp ****     for (size_t i = 0; i < 16; ++i) {
GAS LISTING /tmp/ccbSKEpy.s 			page 11


  87:src/kObjectAllocatorTest.cpp ****         if (expectedBitValues[i] != getValueOfBitAt(byte, bit, objAlloc))
  88:src/kObjectAllocatorTest.cpp ****             { delete objAlloc; return false; } if (bit == 0) { ++byte; bit = 8; } --bit;
  89:src/kObjectAllocatorTest.cpp ****     }
  90:src/kObjectAllocatorTest.cpp ****     delete objAlloc;
  91:src/kObjectAllocatorTest.cpp ****     return true;
  92:src/kObjectAllocatorTest.cpp **** }
 380              		.loc 2 92 1
 381 01b0 13050A00 		mv	a0,s4
 382 01b4 8330810A 		ld	ra,168(sp)
 383              		.cfi_remember_state
 384              		.cfi_restore 1
 385 01b8 0334010A 		ld	s0,160(sp)
 386              		.cfi_restore 8
 387              		.cfi_def_cfa 2, 176
 388 01bc 83348109 		ld	s1,152(sp)
 389              		.cfi_restore 9
 390              	.LVL42:
 391 01c0 03390109 		ld	s2,144(sp)
 392              		.cfi_restore 18
 393 01c4 83398108 		ld	s3,136(sp)
 394              		.cfi_restore 19
 395              	.LVL43:
 396 01c8 033A0108 		ld	s4,128(sp)
 397              		.cfi_restore 20
 398 01cc 833A8107 		ld	s5,120(sp)
 399              		.cfi_restore 21
 400 01d0 033B0107 		ld	s6,112(sp)
 401              		.cfi_restore 22
 402 01d4 833B8106 		ld	s7,104(sp)
 403              		.cfi_restore 23
 404 01d8 1301010B 		addi	sp,sp,176
 405              		.cfi_def_cfa_offset 0
 406 01dc 67800000 		jr	ra
 407              	.LVL44:
 408              	.L14:
 409              		.cfi_restore_state
  57:src/kObjectAllocatorTest.cpp ****     if (objAlloc->getMemorySizeForBits() != 2) { delete objAlloc; return false; }
 410              		.loc 2 57 5 is_stmt 1
 411              	.LBB79:
 412              	.LBB80:
  72:src/../h/kObjectAllocator.hpp ****     size_t getMemorySizeForBits() { return memorySizeForBits; }
 413              		.loc 1 72 37
 414              		.loc 1 72 44 is_stmt 0
 415 01e0 03B78400 		ld	a4,8(s1)
 416              	.LVL45:
 417              	.LBE80:
 418              	.LBE79:
  57:src/kObjectAllocatorTest.cpp ****     if (objAlloc->getMemorySizeForBits() != 2) { delete objAlloc; return false; }
 419              		.loc 2 57 5
 420 01e4 93072000 		li	a5,2
 421 01e8 630CF702 		beq	a4,a5,.L17
  57:src/kObjectAllocatorTest.cpp ****     if (objAlloc->getMemorySizeForBits() != 2) { delete objAlloc; return false; }
 422              		.loc 2 57 50 is_stmt 1 discriminator 1
  57:src/kObjectAllocatorTest.cpp ****     if (objAlloc->getMemorySizeForBits() != 2) { delete objAlloc; return false; }
 423              		.loc 2 57 65 is_stmt 0 discriminator 1
 424 01ec 63860402 		beqz	s1,.L18
 425              	.LVL46:
GAS LISTING /tmp/ccbSKEpy.s 			page 12


 426              	.LBB81:
 427              	.LBB82:
  66:src/../h/kObjectAllocator.hpp ****         MemoryAllocator::instance()->kmem_free(p);
 428              		.loc 1 66 9 is_stmt 1 discriminator 2
  66:src/../h/kObjectAllocator.hpp ****         MemoryAllocator::instance()->kmem_free(p);
 429              		.loc 1 66 47 is_stmt 0 discriminator 2
 430 01f0 97000000 		call	_ZN15MemoryAllocator8instanceEv@plt
 430      E7800000 
 431              	.LVL47:
 432 01f8 83B50402 		ld	a1,32(s1)
 433 01fc 97000000 		call	_ZN15MemoryAllocator9kmem_freeEPv@plt
 433      E7800000 
 434              	.LVL48:
  67:src/../h/kObjectAllocator.hpp ****     }
 435              		.loc 1 67 9 is_stmt 1 discriminator 2
  67:src/../h/kObjectAllocator.hpp ****     }
 436              		.loc 1 67 47 is_stmt 0 discriminator 2
 437 0204 97000000 		call	_ZN15MemoryAllocator8instanceEv@plt
 437      E7800000 
 438              	.LVL49:
 439 020c 93850400 		mv	a1,s1
 440 0210 97000000 		call	_ZN15MemoryAllocator9kmem_freeEPv@plt
 440      E7800000 
 441              	.LVL50:
 442              	.L18:
 443              	.LBE82:
 444              	.LBE81:
  57:src/kObjectAllocatorTest.cpp ****     if (objAlloc->getObjectSize() != size) { delete objAlloc; return false; }
 445              		.loc 2 57 67 is_stmt 1 discriminator 3
  57:src/kObjectAllocatorTest.cpp ****     if (objAlloc->getObjectSize() != size) { delete objAlloc; return false; }
 446              		.loc 2 57 74 is_stmt 0 discriminator 3
 447 0218 130A0000 		li	s4,0
 448 021c 6FF05FF9 		j	.L51
 449              	.L17:
  58:src/kObjectAllocatorTest.cpp ****     void* objArr[10]; for (size_t i = 0; i < 10; objArr[i++] = objAlloc->allocateNewObject());
 450              		.loc 2 58 5 is_stmt 1
 451              	.LVL51:
 452              	.LBB83:
 453              	.LBB84:
  70:src/../h/kObjectAllocator.hpp ****     size_t getNumberOfObjects() { return numberOfObjects; }
 454              		.loc 1 70 30
  70:src/../h/kObjectAllocator.hpp ****     size_t getNumberOfObjects() { return numberOfObjects; }
 455              		.loc 1 70 37 is_stmt 0
 456 0220 83B70401 		ld	a5,16(s1)
 457              	.LVL52:
 458              	.LBE84:
 459              	.LBE83:
  58:src/kObjectAllocatorTest.cpp ****     void* objArr[10]; for (size_t i = 0; i < 10; objArr[i++] = objAlloc->allocateNewObject());
 460              		.loc 2 58 5
 461 0224 630CF902 		beq	s2,a5,.L46
  58:src/kObjectAllocatorTest.cpp ****     void* objArr[10]; for (size_t i = 0; i < 10; objArr[i++] = objAlloc->allocateNewObject());
 462              		.loc 2 58 46 is_stmt 1 discriminator 1
  58:src/kObjectAllocatorTest.cpp ****     void* objArr[10]; for (size_t i = 0; i < 10; objArr[i++] = objAlloc->allocateNewObject());
 463              		.loc 2 58 61 is_stmt 0 discriminator 1
 464 0228 63860402 		beqz	s1,.L20
 465              	.LVL53:
 466              	.LBB85:
GAS LISTING /tmp/ccbSKEpy.s 			page 13


 467              	.LBB86:
  66:src/../h/kObjectAllocator.hpp ****         MemoryAllocator::instance()->kmem_free(p);
 468              		.loc 1 66 9 is_stmt 1 discriminator 2
  66:src/../h/kObjectAllocator.hpp ****         MemoryAllocator::instance()->kmem_free(p);
 469              		.loc 1 66 47 is_stmt 0 discriminator 2
 470 022c 97000000 		call	_ZN15MemoryAllocator8instanceEv@plt
 470      E7800000 
 471              	.LVL54:
 472 0234 83B50402 		ld	a1,32(s1)
 473 0238 97000000 		call	_ZN15MemoryAllocator9kmem_freeEPv@plt
 473      E7800000 
 474              	.LVL55:
  67:src/../h/kObjectAllocator.hpp ****     }
 475              		.loc 1 67 9 is_stmt 1 discriminator 2
  67:src/../h/kObjectAllocator.hpp ****     }
 476              		.loc 1 67 47 is_stmt 0 discriminator 2
 477 0240 97000000 		call	_ZN15MemoryAllocator8instanceEv@plt
 477      E7800000 
 478              	.LVL56:
 479 0248 93850400 		mv	a1,s1
 480 024c 97000000 		call	_ZN15MemoryAllocator9kmem_freeEPv@plt
 480      E7800000 
 481              	.LVL57:
 482              	.L20:
 483              	.LBE86:
 484              	.LBE85:
  58:src/kObjectAllocatorTest.cpp ****     void* objArr[10]; for (size_t i = 0; i < 10; objArr[i++] = objAlloc->allocateNewObject());
 485              		.loc 2 58 63 is_stmt 1 discriminator 3
  58:src/kObjectAllocatorTest.cpp ****     void* objArr[10]; for (size_t i = 0; i < 10; objArr[i++] = objAlloc->allocateNewObject());
 486              		.loc 2 58 70 is_stmt 0 discriminator 3
 487 0254 130A0000 		li	s4,0
 488 0258 6FF09FF5 		j	.L51
 489              	.L46:
 490              	.LBB87:
  59:src/kObjectAllocatorTest.cpp ****     size_t byte = 0; size_t bit = 7;
 491              		.loc 2 59 35
 492 025c 13090000 		li	s2,0
 493              	.LVL58:
 494              	.L19:
  59:src/kObjectAllocatorTest.cpp ****     size_t byte = 0; size_t bit = 7;
 495              		.loc 2 59 44 is_stmt 1 discriminator 4
 496 0260 93079000 		li	a5,9
 497 0264 63E62703 		bgtu	s2,a5,.L47
  59:src/kObjectAllocatorTest.cpp ****     size_t byte = 0; size_t bit = 7;
 498              		.loc 2 59 23 discriminator 2
  59:src/kObjectAllocatorTest.cpp ****     size_t byte = 0; size_t bit = 7;
 499              		.loc 2 59 58 is_stmt 0 discriminator 2
 500 0268 130A1900 		addi	s4,s2,1
 501              	.LVL59:
  59:src/kObjectAllocatorTest.cpp ****     size_t byte = 0; size_t bit = 7;
 502              		.loc 2 59 91 discriminator 2
 503 026c 13850400 		mv	a0,s1
 504 0270 97000000 		call	_ZN16KObjectAllocator17allocateNewObjectEv@plt
 504      E7800000 
 505              	.LVL60:
  59:src/kObjectAllocatorTest.cpp ****     size_t byte = 0; size_t bit = 7;
 506              		.loc 2 59 62 discriminator 2
GAS LISTING /tmp/ccbSKEpy.s 			page 14


 507 0278 13193900 		slli	s2,s2,3
 508 027c 930704FB 		addi	a5,s0,-80
 509 0280 33892701 		add	s2,a5,s2
 510 0284 2338A9FA 		sd	a0,-80(s2)
  59:src/kObjectAllocatorTest.cpp ****     size_t byte = 0; size_t bit = 7;
 511              		.loc 2 59 58 discriminator 2
 512 0288 13090A00 		mv	s2,s4
  59:src/kObjectAllocatorTest.cpp ****     size_t byte = 0; size_t bit = 7;
 513              		.loc 2 59 23 discriminator 2
 514 028c 6FF05FFD 		j	.L19
 515              	.LVL61:
 516              	.L47:
 517              	.LBE87:
 518              	.LBB88:
  61:src/kObjectAllocatorTest.cpp ****         if (objArr[i] != getObjectAt(byte, bit, objAlloc)) { delete objAlloc; return false; }
 519              		.loc 2 61 17
 520 0290 130B0000 		li	s6,0
 521              	.LBE88:
  60:src/kObjectAllocatorTest.cpp ****     for (size_t i = 0; i < 10; ++i) {
 522              		.loc 2 60 29
 523 0294 13097000 		li	s2,7
 524              	.LVL62:
  60:src/kObjectAllocatorTest.cpp ****     for (size_t i = 0; i < 10; ++i) {
 525              		.loc 2 60 12
 526 0298 930A0000 		li	s5,0
 527 029c 6F00C00A 		j	.L21
 528              	.LVL63:
 529              	.L53:
 530              	.LBB97:
 531              	.LBB89:
  62:src/kObjectAllocatorTest.cpp ****         size_t objByte = getByteOfObject(objArr[i], objAlloc);
 532              		.loc 2 62 62 is_stmt 1 discriminator 1
  62:src/kObjectAllocatorTest.cpp ****         size_t objByte = getByteOfObject(objArr[i], objAlloc);
 533              		.loc 2 62 77 is_stmt 0 discriminator 1
 534 02a0 63860402 		beqz	s1,.L24
 535              	.LVL64:
 536              	.LBB90:
 537              	.LBB91:
  66:src/../h/kObjectAllocator.hpp ****         MemoryAllocator::instance()->kmem_free(p);
 538              		.loc 1 66 9 is_stmt 1 discriminator 2
  66:src/../h/kObjectAllocator.hpp ****         MemoryAllocator::instance()->kmem_free(p);
 539              		.loc 1 66 47 is_stmt 0 discriminator 2
 540 02a4 97000000 		call	_ZN15MemoryAllocator8instanceEv@plt
 540      E7800000 
 541              	.LVL65:
 542 02ac 83B50402 		ld	a1,32(s1)
 543 02b0 97000000 		call	_ZN15MemoryAllocator9kmem_freeEPv@plt
 543      E7800000 
 544              	.LVL66:
  67:src/../h/kObjectAllocator.hpp ****     }
 545              		.loc 1 67 9 is_stmt 1 discriminator 2
  67:src/../h/kObjectAllocator.hpp ****     }
 546              		.loc 1 67 47 is_stmt 0 discriminator 2
 547 02b8 97000000 		call	_ZN15MemoryAllocator8instanceEv@plt
 547      E7800000 
 548              	.LVL67:
 549 02c0 93850400 		mv	a1,s1
GAS LISTING /tmp/ccbSKEpy.s 			page 15


 550 02c4 97000000 		call	_ZN15MemoryAllocator9kmem_freeEPv@plt
 550      E7800000 
 551              	.LVL68:
 552              	.L24:
 553              	.LBE91:
 554              	.LBE90:
  62:src/kObjectAllocatorTest.cpp ****         size_t objByte = getByteOfObject(objArr[i], objAlloc);
 555              		.loc 2 62 79 is_stmt 1 discriminator 3
  62:src/kObjectAllocatorTest.cpp ****         size_t objByte = getByteOfObject(objArr[i], objAlloc);
 556              		.loc 2 62 86 is_stmt 0 discriminator 3
 557 02cc 130A0000 		li	s4,0
 558 02d0 6FF01FEE 		j	.L51
 559              	.LVL69:
 560              	.L25:
  65:src/kObjectAllocatorTest.cpp ****         if (!getValueOfBitAt(byte, bit, objAlloc)) { delete objAlloc; return false; }
 561              		.loc 2 65 49 is_stmt 1 discriminator 3
  65:src/kObjectAllocatorTest.cpp ****         if (!getValueOfBitAt(byte, bit, objAlloc)) { delete objAlloc; return false; }
 562              		.loc 2 65 64 is_stmt 0 discriminator 3
 563 02d4 63860402 		beqz	s1,.L27
 564              	.LVL70:
 565              	.LBB92:
 566              	.LBB93:
  66:src/../h/kObjectAllocator.hpp ****         MemoryAllocator::instance()->kmem_free(p);
 567              		.loc 1 66 9 is_stmt 1 discriminator 4
  66:src/../h/kObjectAllocator.hpp ****         MemoryAllocator::instance()->kmem_free(p);
 568              		.loc 1 66 47 is_stmt 0 discriminator 4
 569 02d8 97000000 		call	_ZN15MemoryAllocator8instanceEv@plt
 569      E7800000 
 570              	.LVL71:
 571 02e0 83B50402 		ld	a1,32(s1)
 572 02e4 97000000 		call	_ZN15MemoryAllocator9kmem_freeEPv@plt
 572      E7800000 
 573              	.LVL72:
  67:src/../h/kObjectAllocator.hpp ****     }
 574              		.loc 1 67 9 is_stmt 1 discriminator 4
  67:src/../h/kObjectAllocator.hpp ****     }
 575              		.loc 1 67 47 is_stmt 0 discriminator 4
 576 02ec 97000000 		call	_ZN15MemoryAllocator8instanceEv@plt
 576      E7800000 
 577              	.LVL73:
 578 02f4 93850400 		mv	a1,s1
 579 02f8 97000000 		call	_ZN15MemoryAllocator9kmem_freeEPv@plt
 579      E7800000 
 580              	.LVL74:
 581              	.L27:
 582              	.LBE93:
 583              	.LBE92:
  65:src/kObjectAllocatorTest.cpp ****         if (!getValueOfBitAt(byte, bit, objAlloc)) { delete objAlloc; return false; }
 584              		.loc 2 65 66 is_stmt 1 discriminator 5
  65:src/kObjectAllocatorTest.cpp ****         if (!getValueOfBitAt(byte, bit, objAlloc)) { delete objAlloc; return false; }
 585              		.loc 2 65 73 is_stmt 0 discriminator 5
 586 0300 130A0000 		li	s4,0
 587 0304 6FF0DFEA 		j	.L51
 588              	.L54:
  66:src/kObjectAllocatorTest.cpp ****         if (bit == 0) { ++byte; bit = 8; } --bit;
 589              		.loc 2 66 54 is_stmt 1 discriminator 1
  66:src/kObjectAllocatorTest.cpp ****         if (bit == 0) { ++byte; bit = 8; } --bit;
GAS LISTING /tmp/ccbSKEpy.s 			page 16


 590              		.loc 2 66 69 is_stmt 0 discriminator 1
 591 0308 E38404EA 		beqz	s1,.L51
 592              	.LVL75:
 593              	.LBB94:
 594              	.LBB95:
  66:src/../h/kObjectAllocator.hpp ****         MemoryAllocator::instance()->kmem_free(p);
 595              		.loc 1 66 9 is_stmt 1 discriminator 2
  66:src/../h/kObjectAllocator.hpp ****         MemoryAllocator::instance()->kmem_free(p);
 596              		.loc 1 66 47 is_stmt 0 discriminator 2
 597 030c 97000000 		call	_ZN15MemoryAllocator8instanceEv@plt
 597      E7800000 
 598              	.LVL76:
 599 0314 83B50402 		ld	a1,32(s1)
 600 0318 97000000 		call	_ZN15MemoryAllocator9kmem_freeEPv@plt
 600      E7800000 
 601              	.LVL77:
  67:src/../h/kObjectAllocator.hpp ****     }
 602              		.loc 1 67 9 is_stmt 1 discriminator 2
  67:src/../h/kObjectAllocator.hpp ****     }
 603              		.loc 1 67 47 is_stmt 0 discriminator 2
 604 0320 97000000 		call	_ZN15MemoryAllocator8instanceEv@plt
 604      E7800000 
 605              	.LVL78:
 606 0328 93850400 		mv	a1,s1
 607 032c 97000000 		call	_ZN15MemoryAllocator9kmem_freeEPv@plt
 607      E7800000 
 608              	.LVL79:
 609              	.LBE95:
 610              	.LBE94:
  66:src/kObjectAllocatorTest.cpp ****         if (bit == 0) { ++byte; bit = 8; } --bit;
 611              		.loc 2 66 71 is_stmt 1 discriminator 2
  66:src/kObjectAllocatorTest.cpp ****         if (bit == 0) { ++byte; bit = 8; } --bit;
 612              		.loc 2 66 78 is_stmt 0 discriminator 2
 613 0334 6FF0DFE7 		j	.L51
 614              	.L55:
  67:src/kObjectAllocatorTest.cpp ****     }
 615              		.loc 2 67 25 is_stmt 1 discriminator 1
 616 0338 938A1A00 		addi	s5,s5,1
 617              	.LVL80:
  67:src/kObjectAllocatorTest.cpp ****     }
 618              		.loc 2 67 33 discriminator 1
  67:src/kObjectAllocatorTest.cpp ****     }
 619              		.loc 2 67 37 is_stmt 0 discriminator 1
 620 033c 13098000 		li	s2,8
 621              	.LVL81:
 622              	.L30:
  67:src/kObjectAllocatorTest.cpp ****     }
 623              		.loc 2 67 44 is_stmt 1 discriminator 3
 624 0340 1309F9FF 		addi	s2,s2,-1
 625              	.LVL82:
 626              	.LBE89:
  61:src/kObjectAllocatorTest.cpp ****         if (objArr[i] != getObjectAt(byte, bit, objAlloc)) { delete objAlloc; return false; }
 627              		.loc 2 61 5 discriminator 3
 628 0344 130B1B00 		addi	s6,s6,1
 629              	.LVL83:
 630              	.L21:
  61:src/kObjectAllocatorTest.cpp ****         if (objArr[i] != getObjectAt(byte, bit, objAlloc)) { delete objAlloc; return false; }
GAS LISTING /tmp/ccbSKEpy.s 			page 17


 631              		.loc 2 61 26 discriminator 2
 632 0348 93079000 		li	a5,9
 633 034c 63E66709 		bgtu	s6,a5,.L48
 634              	.LBB96:
  62:src/kObjectAllocatorTest.cpp ****         size_t objByte = getByteOfObject(objArr[i], objAlloc);
 635              		.loc 2 62 9
  62:src/kObjectAllocatorTest.cpp ****         size_t objByte = getByteOfObject(objArr[i], objAlloc);
 636              		.loc 2 62 21 is_stmt 0
 637 0350 93173B00 		slli	a5,s6,3
 638 0354 130704FB 		addi	a4,s0,-80
 639 0358 B307F700 		add	a5,a4,a5
 640 035c 03BA07FB 		ld	s4,-80(a5)
  62:src/kObjectAllocatorTest.cpp ****         size_t objByte = getByteOfObject(objArr[i], objAlloc);
 641              		.loc 2 62 37
 642 0360 93860400 		mv	a3,s1
 643 0364 13060900 		mv	a2,s2
 644 0368 93850A00 		mv	a1,s5
 645 036c 13850900 		mv	a0,s3
 646 0370 97000000 		call	_ZN20KObjectAllocatorTest11getObjectAtEmmP16KObjectAllocator
 646      E7800000 
 647              	.LVL84:
  62:src/kObjectAllocatorTest.cpp ****         size_t objByte = getByteOfObject(objArr[i], objAlloc);
 648              		.loc 2 62 9
 649 0378 E314AAF2 		bne	s4,a0,.L53
  63:src/kObjectAllocatorTest.cpp ****         size_t objBit = getBitOfObject(objArr[i], objAlloc);
 650              		.loc 2 63 9 is_stmt 1
  63:src/kObjectAllocatorTest.cpp ****         size_t objBit = getBitOfObject(objArr[i], objAlloc);
 651              		.loc 2 63 41 is_stmt 0
 652 037c 13860400 		mv	a2,s1
 653 0380 93050A00 		mv	a1,s4
 654 0384 13850900 		mv	a0,s3
 655 0388 97000000 		call	_ZN20KObjectAllocatorTest15getByteOfObjectEPvP16KObjectAllocator
 655      E7800000 
 656              	.LVL85:
 657 0390 930B0500 		mv	s7,a0
 658              	.LVL86:
  64:src/kObjectAllocatorTest.cpp ****         if (objByte != byte || objBit != bit) { delete objAlloc; return false; }
 659              		.loc 2 64 9 is_stmt 1
  64:src/kObjectAllocatorTest.cpp ****         if (objByte != byte || objBit != bit) { delete objAlloc; return false; }
 660              		.loc 2 64 39 is_stmt 0
 661 0394 13860400 		mv	a2,s1
 662 0398 93050A00 		mv	a1,s4
 663 039c 13850900 		mv	a0,s3
 664              	.LVL87:
 665 03a0 97000000 		call	_ZN20KObjectAllocatorTest14getBitOfObjectEPvP16KObjectAllocator
 665      E7800000 
 666              	.LVL88:
  65:src/kObjectAllocatorTest.cpp ****         if (!getValueOfBitAt(byte, bit, objAlloc)) { delete objAlloc; return false; }
 667              		.loc 2 65 9 is_stmt 1
 668 03a8 E3967AF3 		bne	s5,s7,.L25
  65:src/kObjectAllocatorTest.cpp ****         if (!getValueOfBitAt(byte, bit, objAlloc)) { delete objAlloc; return false; }
 669              		.loc 2 65 29 is_stmt 0 discriminator 2
 670 03ac E314A9F2 		bne	s2,a0,.L25
  66:src/kObjectAllocatorTest.cpp ****         if (bit == 0) { ++byte; bit = 8; } --bit;
 671              		.loc 2 66 9 is_stmt 1
  66:src/kObjectAllocatorTest.cpp ****         if (bit == 0) { ++byte; bit = 8; } --bit;
 672              		.loc 2 66 29 is_stmt 0
GAS LISTING /tmp/ccbSKEpy.s 			page 18


 673 03b0 93860400 		mv	a3,s1
 674 03b4 13060900 		mv	a2,s2
 675 03b8 93850A00 		mv	a1,s5
 676 03bc 13850900 		mv	a0,s3
 677              	.LVL89:
 678 03c0 97000000 		call	_ZN20KObjectAllocatorTest15getValueOfBitAtEmmP16KObjectAllocator
 678      E7800000 
 679              	.LVL90:
 680 03c8 130A0500 		mv	s4,a0
  66:src/kObjectAllocatorTest.cpp ****         if (bit == 0) { ++byte; bit = 8; } --bit;
 681              		.loc 2 66 9
 682 03cc E30E05F2 		beqz	a0,.L54
  67:src/kObjectAllocatorTest.cpp ****     }
 683              		.loc 2 67 9 is_stmt 1
 684 03d0 E31809F6 		bnez	s2,.L30
 685 03d4 6FF05FF6 		j	.L55
 686              	.LVL91:
 687              	.L48:
 688              	.LBE96:
 689              	.LBE97:
 690              	.LBB98:
  69:src/kObjectAllocatorTest.cpp ****         if (getValueOfBitAt(byte, bit, objAlloc)) { delete objAlloc; return false; }
 691              		.loc 2 69 17 is_stmt 0
 692 03d8 130A0000 		li	s4,0
 693 03dc 6F008004 		j	.L22
 694              	.LVL92:
 695              	.L56:
  70:src/kObjectAllocatorTest.cpp ****         if (bit == 0) { ++byte; bit = 8; } --bit;
 696              		.loc 2 70 53 is_stmt 1 discriminator 1
  70:src/kObjectAllocatorTest.cpp ****         if (bit == 0) { ++byte; bit = 8; } --bit;
 697              		.loc 2 70 68 is_stmt 0 discriminator 1
 698 03e0 63860402 		beqz	s1,.L33
 699              	.LVL93:
 700              	.LBB99:
 701              	.LBB100:
  66:src/../h/kObjectAllocator.hpp ****         MemoryAllocator::instance()->kmem_free(p);
 702              		.loc 1 66 9 is_stmt 1 discriminator 2
  66:src/../h/kObjectAllocator.hpp ****         MemoryAllocator::instance()->kmem_free(p);
 703              		.loc 1 66 47 is_stmt 0 discriminator 2
 704 03e4 97000000 		call	_ZN15MemoryAllocator8instanceEv@plt
 704      E7800000 
 705              	.LVL94:
 706 03ec 83B50402 		ld	a1,32(s1)
 707 03f0 97000000 		call	_ZN15MemoryAllocator9kmem_freeEPv@plt
 707      E7800000 
 708              	.LVL95:
  67:src/../h/kObjectAllocator.hpp ****     }
 709              		.loc 1 67 9 is_stmt 1 discriminator 2
  67:src/../h/kObjectAllocator.hpp ****     }
 710              		.loc 1 67 47 is_stmt 0 discriminator 2
 711 03f8 97000000 		call	_ZN15MemoryAllocator8instanceEv@plt
 711      E7800000 
 712              	.LVL96:
 713 0400 93850400 		mv	a1,s1
 714 0404 97000000 		call	_ZN15MemoryAllocator9kmem_freeEPv@plt
 714      E7800000 
 715              	.LVL97:
GAS LISTING /tmp/ccbSKEpy.s 			page 19


 716              	.L33:
 717              	.LBE100:
 718              	.LBE99:
  70:src/kObjectAllocatorTest.cpp ****         if (bit == 0) { ++byte; bit = 8; } --bit;
 719              		.loc 2 70 70 is_stmt 1 discriminator 3
  70:src/kObjectAllocatorTest.cpp ****         if (bit == 0) { ++byte; bit = 8; } --bit;
 720              		.loc 2 70 77 is_stmt 0 discriminator 3
 721 040c 130A0000 		li	s4,0
 722              	.LVL98:
 723 0410 6FF01FDA 		j	.L51
 724              	.LVL99:
 725              	.L57:
  71:src/kObjectAllocatorTest.cpp ****     }
 726              		.loc 2 71 25 is_stmt 1 discriminator 1
 727 0414 938A1A00 		addi	s5,s5,1
 728              	.LVL100:
  71:src/kObjectAllocatorTest.cpp ****     }
 729              		.loc 2 71 33 discriminator 1
  71:src/kObjectAllocatorTest.cpp ****     }
 730              		.loc 2 71 37 is_stmt 0 discriminator 1
 731 0418 13098000 		li	s2,8
 732              	.LVL101:
 733              	.L34:
  71:src/kObjectAllocatorTest.cpp ****     }
 734              		.loc 2 71 44 is_stmt 1 discriminator 3
 735 041c 1309F9FF 		addi	s2,s2,-1
 736              	.LVL102:
  69:src/kObjectAllocatorTest.cpp ****         if (getValueOfBitAt(byte, bit, objAlloc)) { delete objAlloc; return false; }
 737              		.loc 2 69 5 discriminator 3
 738 0420 130A1A00 		addi	s4,s4,1
 739              	.LVL103:
 740              	.L22:
  69:src/kObjectAllocatorTest.cpp ****         if (getValueOfBitAt(byte, bit, objAlloc)) { delete objAlloc; return false; }
 741              		.loc 2 69 26 discriminator 2
 742 0424 93075000 		li	a5,5
 743 0428 63E44703 		bgtu	s4,a5,.L31
  70:src/kObjectAllocatorTest.cpp ****         if (bit == 0) { ++byte; bit = 8; } --bit;
 744              		.loc 2 70 9
  70:src/kObjectAllocatorTest.cpp ****         if (bit == 0) { ++byte; bit = 8; } --bit;
 745              		.loc 2 70 28 is_stmt 0
 746 042c 93860400 		mv	a3,s1
 747 0430 13060900 		mv	a2,s2
 748 0434 93850A00 		mv	a1,s5
 749 0438 13850900 		mv	a0,s3
 750 043c 97000000 		call	_ZN20KObjectAllocatorTest15getValueOfBitAtEmmP16KObjectAllocator
 750      E7800000 
 751              	.LVL104:
  70:src/kObjectAllocatorTest.cpp ****         if (bit == 0) { ++byte; bit = 8; } --bit;
 752              		.loc 2 70 9
 753 0444 E31E05F8 		bnez	a0,.L56
  71:src/kObjectAllocatorTest.cpp ****     }
 754              		.loc 2 71 9 is_stmt 1
 755 0448 E31A09FC 		bnez	s2,.L34
 756 044c 6FF09FFC 		j	.L57
 757              	.L31:
 758              	.LBE98:
  73:src/kObjectAllocatorTest.cpp ****     objAlloc->freeObject(objArr[7]);
GAS LISTING /tmp/ccbSKEpy.s 			page 20


 759              		.loc 2 73 5
  73:src/kObjectAllocatorTest.cpp ****     objAlloc->freeObject(objArr[7]);
 760              		.loc 2 73 25 is_stmt 0
 761 0450 833504F8 		ld	a1,-128(s0)
 762 0454 13850400 		mv	a0,s1
 763 0458 97000000 		call	_ZN16KObjectAllocator10freeObjectEPv@plt
 763      E7800000 
 764              	.LVL105:
  74:src/kObjectAllocatorTest.cpp ****     objAlloc->freeObject(objArr[8]);
 765              		.loc 2 74 5 is_stmt 1
  74:src/kObjectAllocatorTest.cpp ****     objAlloc->freeObject(objArr[8]);
 766              		.loc 2 74 25 is_stmt 0
 767 0460 833584F9 		ld	a1,-104(s0)
 768 0464 13850400 		mv	a0,s1
 769 0468 97000000 		call	_ZN16KObjectAllocator10freeObjectEPv@plt
 769      E7800000 
 770              	.LVL106:
  75:src/kObjectAllocatorTest.cpp ****     objArr[4] = objAlloc->allocateNewObject();
 771              		.loc 2 75 5 is_stmt 1
  75:src/kObjectAllocatorTest.cpp ****     objArr[4] = objAlloc->allocateNewObject();
 772              		.loc 2 75 25 is_stmt 0
 773 0470 833504FA 		ld	a1,-96(s0)
 774 0474 13850400 		mv	a0,s1
 775 0478 97000000 		call	_ZN16KObjectAllocator10freeObjectEPv@plt
 775      E7800000 
 776              	.LVL107:
  76:src/kObjectAllocatorTest.cpp ****     if (objArr[4] != getObjectAt(1, 7, objAlloc)) { delete objAlloc; return false; }
 777              		.loc 2 76 5 is_stmt 1
  76:src/kObjectAllocatorTest.cpp ****     if (objArr[4] != getObjectAt(1, 7, objAlloc)) { delete objAlloc; return false; }
 778              		.loc 2 76 44 is_stmt 0
 779 0480 13850400 		mv	a0,s1
 780 0484 97000000 		call	_ZN16KObjectAllocator17allocateNewObjectEv@plt
 780      E7800000 
 781              	.LVL108:
 782 048c 13090500 		mv	s2,a0
 783              	.LVL109:
  77:src/kObjectAllocatorTest.cpp ****     byte = getByteOfObject(objArr[4], objAlloc);
 784              		.loc 2 77 5 is_stmt 1
  77:src/kObjectAllocatorTest.cpp ****     byte = getByteOfObject(objArr[4], objAlloc);
 785              		.loc 2 77 33 is_stmt 0
 786 0490 93860400 		mv	a3,s1
 787 0494 13067000 		li	a2,7
 788 0498 93051000 		li	a1,1
 789 049c 13850900 		mv	a0,s3
 790 04a0 97000000 		call	_ZN20KObjectAllocatorTest11getObjectAtEmmP16KObjectAllocator
 790      E7800000 
 791              	.LVL110:
  77:src/kObjectAllocatorTest.cpp ****     byte = getByteOfObject(objArr[4], objAlloc);
 792              		.loc 2 77 5
 793 04a8 630CA902 		beq	s2,a0,.L35
  77:src/kObjectAllocatorTest.cpp ****     byte = getByteOfObject(objArr[4], objAlloc);
 794              		.loc 2 77 53 is_stmt 1 discriminator 1
  77:src/kObjectAllocatorTest.cpp ****     byte = getByteOfObject(objArr[4], objAlloc);
 795              		.loc 2 77 68 is_stmt 0 discriminator 1
 796 04ac 63860402 		beqz	s1,.L36
 797              	.LVL111:
 798              	.LBB101:
GAS LISTING /tmp/ccbSKEpy.s 			page 21


 799              	.LBB102:
  66:src/../h/kObjectAllocator.hpp ****         MemoryAllocator::instance()->kmem_free(p);
 800              		.loc 1 66 9 is_stmt 1 discriminator 2
  66:src/../h/kObjectAllocator.hpp ****         MemoryAllocator::instance()->kmem_free(p);
 801              		.loc 1 66 47 is_stmt 0 discriminator 2
 802 04b0 97000000 		call	_ZN15MemoryAllocator8instanceEv@plt
 802      E7800000 
 803              	.LVL112:
 804 04b8 83B50402 		ld	a1,32(s1)
 805 04bc 97000000 		call	_ZN15MemoryAllocator9kmem_freeEPv@plt
 805      E7800000 
 806              	.LVL113:
  67:src/../h/kObjectAllocator.hpp ****     }
 807              		.loc 1 67 9 is_stmt 1 discriminator 2
  67:src/../h/kObjectAllocator.hpp ****     }
 808              		.loc 1 67 47 is_stmt 0 discriminator 2
 809 04c4 97000000 		call	_ZN15MemoryAllocator8instanceEv@plt
 809      E7800000 
 810              	.LVL114:
 811 04cc 93850400 		mv	a1,s1
 812 04d0 97000000 		call	_ZN15MemoryAllocator9kmem_freeEPv@plt
 812      E7800000 
 813              	.LVL115:
 814              	.L36:
 815              	.LBE102:
 816              	.LBE101:
  77:src/kObjectAllocatorTest.cpp ****     byte = getByteOfObject(objArr[4], objAlloc);
 817              		.loc 2 77 70 is_stmt 1 discriminator 3
  77:src/kObjectAllocatorTest.cpp ****     byte = getByteOfObject(objArr[4], objAlloc);
 818              		.loc 2 77 77 is_stmt 0 discriminator 3
 819 04d8 130A0000 		li	s4,0
 820              	.LVL116:
 821 04dc 6FF05FCD 		j	.L51
 822              	.LVL117:
 823              	.L35:
  78:src/kObjectAllocatorTest.cpp ****     bit = getBitOfObject(objArr[4], objAlloc);
 824              		.loc 2 78 5 is_stmt 1
  78:src/kObjectAllocatorTest.cpp ****     bit = getBitOfObject(objArr[4], objAlloc);
 825              		.loc 2 78 27 is_stmt 0
 826 04e0 13860400 		mv	a2,s1
 827 04e4 93050900 		mv	a1,s2
 828 04e8 13850900 		mv	a0,s3
 829 04ec 97000000 		call	_ZN20KObjectAllocatorTest15getByteOfObjectEPvP16KObjectAllocator
 829      E7800000 
 830              	.LVL118:
 831 04f4 130A0500 		mv	s4,a0
 832              	.LVL119:
  79:src/kObjectAllocatorTest.cpp ****     if (byte != 1 || bit != 7) { delete objAlloc; return false; }
 833              		.loc 2 79 5 is_stmt 1
  79:src/kObjectAllocatorTest.cpp ****     if (byte != 1 || bit != 7) { delete objAlloc; return false; }
 834              		.loc 2 79 25 is_stmt 0
 835 04f8 13860400 		mv	a2,s1
 836 04fc 93050900 		mv	a1,s2
 837 0500 13850900 		mv	a0,s3
 838              	.LVL120:
 839 0504 97000000 		call	_ZN20KObjectAllocatorTest14getBitOfObjectEPvP16KObjectAllocator
 839      E7800000 
GAS LISTING /tmp/ccbSKEpy.s 			page 22


 840              	.LVL121:
 841 050c 13090500 		mv	s2,a0
 842              	.LVL122:
  80:src/kObjectAllocatorTest.cpp ****     bool expectedBitValues[16] = {
 843              		.loc 2 80 5 is_stmt 1
 844 0510 93071000 		li	a5,1
 845 0514 6316FA00 		bne	s4,a5,.L37
  80:src/kObjectAllocatorTest.cpp ****     bool expectedBitValues[16] = {
 846              		.loc 2 80 19 is_stmt 0 discriminator 2
 847 0518 93077000 		li	a5,7
 848 051c 630CF502 		beq	a0,a5,.L38
 849              	.L37:
  80:src/kObjectAllocatorTest.cpp ****     bool expectedBitValues[16] = {
 850              		.loc 2 80 34 is_stmt 1 discriminator 3
  80:src/kObjectAllocatorTest.cpp ****     bool expectedBitValues[16] = {
 851              		.loc 2 80 49 is_stmt 0 discriminator 3
 852 0520 63860402 		beqz	s1,.L39
 853              	.LVL123:
 854              	.LBB103:
 855              	.LBB104:
  66:src/../h/kObjectAllocator.hpp ****         MemoryAllocator::instance()->kmem_free(p);
 856              		.loc 1 66 9 is_stmt 1 discriminator 4
  66:src/../h/kObjectAllocator.hpp ****         MemoryAllocator::instance()->kmem_free(p);
 857              		.loc 1 66 47 is_stmt 0 discriminator 4
 858 0524 97000000 		call	_ZN15MemoryAllocator8instanceEv@plt
 858      E7800000 
 859              	.LVL124:
 860 052c 83B50402 		ld	a1,32(s1)
 861 0530 97000000 		call	_ZN15MemoryAllocator9kmem_freeEPv@plt
 861      E7800000 
 862              	.LVL125:
  67:src/../h/kObjectAllocator.hpp ****     }
 863              		.loc 1 67 9 is_stmt 1 discriminator 4
  67:src/../h/kObjectAllocator.hpp ****     }
 864              		.loc 1 67 47 is_stmt 0 discriminator 4
 865 0538 97000000 		call	_ZN15MemoryAllocator8instanceEv@plt
 865      E7800000 
 866              	.LVL126:
 867 0540 93850400 		mv	a1,s1
 868 0544 97000000 		call	_ZN15MemoryAllocator9kmem_freeEPv@plt
 868      E7800000 
 869              	.LVL127:
 870              	.L39:
 871              	.LBE104:
 872              	.LBE103:
  80:src/kObjectAllocatorTest.cpp ****     bool expectedBitValues[16] = {
 873              		.loc 2 80 51 is_stmt 1 discriminator 5
  80:src/kObjectAllocatorTest.cpp ****     bool expectedBitValues[16] = {
 874              		.loc 2 80 58 is_stmt 0 discriminator 5
 875 054c 130A0000 		li	s4,0
 876              	.LVL128:
 877 0550 6FF01FC6 		j	.L51
 878              	.LVL129:
 879              	.L38:
  81:src/kObjectAllocatorTest.cpp ****             true, true, true, true, false, true, true, false,
 880              		.loc 2 81 5 is_stmt 1
  81:src/kObjectAllocatorTest.cpp ****             true, true, true, true, false, true, true, false,
GAS LISTING /tmp/ccbSKEpy.s 			page 23


 881              		.loc 2 81 10 is_stmt 0
 882 0554 97070000 		lla	a5,.LANCHOR0
 882      93870700 
 883 055c 03B70700 		ld	a4,0(a5)
 884 0560 2338E4F4 		sd	a4,-176(s0)
 885 0564 83B78700 		ld	a5,8(a5)
 886 0568 233CF4F4 		sd	a5,-168(s0)
  85:src/kObjectAllocatorTest.cpp ****     for (size_t i = 0; i < 16; ++i) {
 887              		.loc 2 85 5 is_stmt 1
 888              	.LVL130:
  85:src/kObjectAllocatorTest.cpp ****     for (size_t i = 0; i < 16; ++i) {
 889              		.loc 2 85 15
  86:src/kObjectAllocatorTest.cpp ****         if (expectedBitValues[i] != getValueOfBitAt(byte, bit, objAlloc))
 890              		.loc 2 86 5
 891              	.LBB105:
  86:src/kObjectAllocatorTest.cpp ****         if (expectedBitValues[i] != getValueOfBitAt(byte, bit, objAlloc))
 892              		.loc 2 86 17 is_stmt 0
 893 056c 130A0000 		li	s4,0
 894              	.LBE105:
  85:src/kObjectAllocatorTest.cpp ****     for (size_t i = 0; i < 16; ++i) {
 895              		.loc 2 85 10
 896 0570 930A0000 		li	s5,0
 897 0574 6F000004 		j	.L44
 898              	.LVL131:
 899              	.L58:
 900              	.LBB108:
  88:src/kObjectAllocatorTest.cpp ****     }
 901              		.loc 2 88 15 is_stmt 1
  88:src/kObjectAllocatorTest.cpp ****     }
 902              		.loc 2 88 30 is_stmt 0
 903 0578 63860402 		beqz	s1,.L42
 904              	.LVL132:
 905              	.LBB106:
 906              	.LBB107:
  66:src/../h/kObjectAllocator.hpp ****         MemoryAllocator::instance()->kmem_free(p);
 907              		.loc 1 66 9 is_stmt 1 discriminator 1
  66:src/../h/kObjectAllocator.hpp ****         MemoryAllocator::instance()->kmem_free(p);
 908              		.loc 1 66 47 is_stmt 0 discriminator 1
 909 057c 97000000 		call	_ZN15MemoryAllocator8instanceEv@plt
 909      E7800000 
 910              	.LVL133:
 911 0584 83B50402 		ld	a1,32(s1)
 912 0588 97000000 		call	_ZN15MemoryAllocator9kmem_freeEPv@plt
 912      E7800000 
 913              	.LVL134:
  67:src/../h/kObjectAllocator.hpp ****     }
 914              		.loc 1 67 9 is_stmt 1 discriminator 1
  67:src/../h/kObjectAllocator.hpp ****     }
 915              		.loc 1 67 47 is_stmt 0 discriminator 1
 916 0590 97000000 		call	_ZN15MemoryAllocator8instanceEv@plt
 916      E7800000 
 917              	.LVL135:
 918 0598 93850400 		mv	a1,s1
 919 059c 97000000 		call	_ZN15MemoryAllocator9kmem_freeEPv@plt
 919      E7800000 
 920              	.LVL136:
 921              	.L42:
GAS LISTING /tmp/ccbSKEpy.s 			page 24


 922              	.LBE107:
 923              	.LBE106:
  88:src/kObjectAllocatorTest.cpp ****     }
 924              		.loc 2 88 32 is_stmt 1 discriminator 2
  88:src/kObjectAllocatorTest.cpp ****     }
 925              		.loc 2 88 39 is_stmt 0 discriminator 2
 926 05a4 130A0000 		li	s4,0
 927              	.LVL137:
 928 05a8 6FF09FC0 		j	.L51
 929              	.LVL138:
 930              	.L43:
  88:src/kObjectAllocatorTest.cpp ****     }
 931              		.loc 2 88 83 is_stmt 1 discriminator 5
 932 05ac 1309F9FF 		addi	s2,s2,-1
 933              	.LVL139:
  86:src/kObjectAllocatorTest.cpp ****         if (expectedBitValues[i] != getValueOfBitAt(byte, bit, objAlloc))
 934              		.loc 2 86 5 discriminator 5
 935 05b0 130A1A00 		addi	s4,s4,1
 936              	.LVL140:
 937              	.L44:
  86:src/kObjectAllocatorTest.cpp ****         if (expectedBitValues[i] != getValueOfBitAt(byte, bit, objAlloc))
 938              		.loc 2 86 26 discriminator 2
 939 05b4 9307F000 		li	a5,15
 940 05b8 63EE4703 		bgtu	s4,a5,.L40
  87:src/kObjectAllocatorTest.cpp ****             { delete objAlloc; return false; } if (bit == 0) { ++byte; bit = 8; } --bit;
 941              		.loc 2 87 9
  87:src/kObjectAllocatorTest.cpp ****             { delete objAlloc; return false; } if (bit == 0) { ++byte; bit = 8; } --bit;
 942              		.loc 2 87 32 is_stmt 0
 943 05bc 930704FB 		addi	a5,s0,-80
 944 05c0 B3874701 		add	a5,a5,s4
 945 05c4 03CB07FA 		lbu	s6,-96(a5)
  87:src/kObjectAllocatorTest.cpp ****             { delete objAlloc; return false; } if (bit == 0) { ++byte; bit = 8; } --bit;
 946              		.loc 2 87 52
 947 05c8 93860400 		mv	a3,s1
 948 05cc 13060900 		mv	a2,s2
 949 05d0 93850A00 		mv	a1,s5
 950 05d4 13850900 		mv	a0,s3
 951 05d8 97000000 		call	_ZN20KObjectAllocatorTest15getValueOfBitAtEmmP16KObjectAllocator
 951      E7800000 
 952              	.LVL141:
  87:src/kObjectAllocatorTest.cpp ****             { delete objAlloc; return false; } if (bit == 0) { ++byte; bit = 8; } --bit;
 953              		.loc 2 87 9
 954 05e0 E31CABF8 		bne	s6,a0,.L58
  88:src/kObjectAllocatorTest.cpp ****     }
 955              		.loc 2 88 48 is_stmt 1
 956 05e4 E31409FC 		bnez	s2,.L43
  88:src/kObjectAllocatorTest.cpp ****     }
 957              		.loc 2 88 64 discriminator 3
 958 05e8 938A1A00 		addi	s5,s5,1
 959              	.LVL142:
  88:src/kObjectAllocatorTest.cpp ****     }
 960              		.loc 2 88 72 discriminator 3
  88:src/kObjectAllocatorTest.cpp ****     }
 961              		.loc 2 88 76 is_stmt 0 discriminator 3
 962 05ec 13098000 		li	s2,8
 963 05f0 6FF0DFFB 		j	.L43
 964              	.LVL143:
GAS LISTING /tmp/ccbSKEpy.s 			page 25


 965              	.L40:
 966              	.LBE108:
  90:src/kObjectAllocatorTest.cpp ****     return true;
 967              		.loc 2 90 5 is_stmt 1
  90:src/kObjectAllocatorTest.cpp ****     return true;
 968              		.loc 2 90 20 is_stmt 0
 969 05f4 638A0402 		beqz	s1,.L49
 970              	.LVL144:
 971              	.LBB109:
 972              	.LBB110:
  66:src/../h/kObjectAllocator.hpp ****         MemoryAllocator::instance()->kmem_free(p);
 973              		.loc 1 66 9 is_stmt 1 discriminator 1
  66:src/../h/kObjectAllocator.hpp ****         MemoryAllocator::instance()->kmem_free(p);
 974              		.loc 1 66 47 is_stmt 0 discriminator 1
 975 05f8 97000000 		call	_ZN15MemoryAllocator8instanceEv@plt
 975      E7800000 
 976              	.LVL145:
 977 0600 83B50402 		ld	a1,32(s1)
 978 0604 97000000 		call	_ZN15MemoryAllocator9kmem_freeEPv@plt
 978      E7800000 
 979              	.LVL146:
  67:src/../h/kObjectAllocator.hpp ****     }
 980              		.loc 1 67 9 is_stmt 1 discriminator 1
  67:src/../h/kObjectAllocator.hpp ****     }
 981              		.loc 1 67 47 is_stmt 0 discriminator 1
 982 060c 97000000 		call	_ZN15MemoryAllocator8instanceEv@plt
 982      E7800000 
 983              	.LVL147:
 984 0614 93850400 		mv	a1,s1
 985 0618 97000000 		call	_ZN15MemoryAllocator9kmem_freeEPv@plt
 985      E7800000 
 986              	.LVL148:
 987              	.LEHE2:
 988              	.LBE110:
 989              	.LBE109:
  91:src/kObjectAllocatorTest.cpp **** }
 990              		.loc 2 91 12 discriminator 1
 991 0620 130A1000 		li	s4,1
 992              	.LVL149:
 993              	.LBB112:
 994              	.LBB111:
  68:src/../h/kObjectAllocator.hpp ****     void printInternalMemory();
 995              		.loc 1 68 5 discriminator 1
 996 0624 6FF0DFB8 		j	.L51
 997              	.LVL150:
 998              	.L49:
 999              	.LBE111:
 1000              	.LBE112:
  91:src/kObjectAllocatorTest.cpp **** }
 1001              		.loc 2 91 12
 1002 0628 130A1000 		li	s4,1
 1003              	.LVL151:
 1004 062c 6FF05FB8 		j	.L51
 1005              	.LVL152:
 1006              	.L50:
 1007 0630 13090500 		mv	s2,a0
 1008              	.LVL153:
GAS LISTING /tmp/ccbSKEpy.s 			page 26


  55:src/kObjectAllocatorTest.cpp ****     if (objAlloc->getNumberOfObjects() != 16) { delete objAlloc; return false; }
 1009              		.loc 2 55 62
 1010 0634 13850400 		mv	a0,s1
 1011 0638 97000000 		call	_ZN16KObjectAllocatordlEPv
 1011      E7800000 
 1012              	.LVL154:
 1013 0640 13050900 		mv	a0,s2
 1014              	.LEHB3:
 1015 0644 97000000 		call	_Unwind_Resume@plt
 1015      E7800000 
 1016              	.LVL155:
 1017              	.LEHE3:
 1018              		.cfi_endproc
 1019              	.LFE25:
 1020              		.globl	__gxx_personality_v0
 1021              		.section	.gcc_except_table,"a",@progbits
 1022              	.LLSDA25:
 1023 0000 FF       		.byte	0xff
 1024 0001 FF       		.byte	0xff
 1025 0002 03       		.byte	0x3
 1026 0003 34       		.byte	0x34
 1027 0004 00000000 		.4byte	.LEHB0-.LFB25
 1028 0008 00000000 		.4byte	.LEHE0-.LEHB0
 1029 000c 00000000 		.4byte	0
 1030 0010 00       		.byte	0
 1031 0011 00000000 		.4byte	.LEHB1-.LFB25
 1032 0015 00000000 		.4byte	.LEHE1-.LEHB1
 1033 0019 00000000 		.4byte	.L50-.LFB25
 1034 001d 00       		.byte	0
 1035 001e 00000000 		.4byte	.LEHB2-.LFB25
 1036 0022 00000000 		.4byte	.LEHE2-.LEHB2
 1037 0026 00000000 		.4byte	0
 1038 002a 00       		.byte	0
 1039 002b 00000000 		.4byte	.LEHB3-.LFB25
 1040 002f 00000000 		.4byte	.LEHE3-.LEHB3
 1041 0033 00000000 		.4byte	0
 1042 0037 00       		.byte	0
 1043              		.text
 1045              		.align	2
 1046              		.globl	_ZN20KObjectAllocatorTest5test1Em
 1048              	_ZN20KObjectAllocatorTest5test1Em:
 1049              	.LFB26:
  93:src/kObjectAllocatorTest.cpp **** 
  94:src/kObjectAllocatorTest.cpp **** bool KObjectAllocatorTest::test1(size_t size) {
 1050              		.loc 2 94 47 is_stmt 1
 1051              		.cfi_startproc
 1052              		.cfi_personality 0x9b,DW.ref.__gxx_personality_v0
 1053              		.cfi_lsda 0x1b,.LLSDA26
 1054              	.LVL156:
 1055 064c 13010181 		addi	sp,sp,-2032
 1056              		.cfi_def_cfa_offset 2032
 1057 0650 2334117E 		sd	ra,2024(sp)
 1058 0654 2330817E 		sd	s0,2016(sp)
 1059 0658 233C917C 		sd	s1,2008(sp)
 1060 065c 2338217D 		sd	s2,2000(sp)
 1061 0660 2334317D 		sd	s3,1992(sp)
 1062 0664 2330417D 		sd	s4,1984(sp)
GAS LISTING /tmp/ccbSKEpy.s 			page 27


 1063 0668 233C517B 		sd	s5,1976(sp)
 1064              		.cfi_offset 1, -8
 1065              		.cfi_offset 8, -16
 1066              		.cfi_offset 9, -24
 1067              		.cfi_offset 18, -32
 1068              		.cfi_offset 19, -40
 1069              		.cfi_offset 20, -48
 1070              		.cfi_offset 21, -56
 1071 066c 1304017F 		addi	s0,sp,2032
 1072              		.cfi_def_cfa 8, 0
 1073 0670 130101DB 		addi	sp,sp,-592
 1074 0674 93090500 		mv	s3,a0
 1075 0678 13890500 		mv	s2,a1
  95:src/kObjectAllocatorTest.cpp ****     KObjectAllocator* objAlloc = new KObjectAllocator(size);
 1076              		.loc 2 95 5
 1077              	.LVL157:
 1078              	.LBB146:
 1079              	.LBB147:
  63:src/../h/kObjectAllocator.hpp ****     }
 1080              		.loc 1 63 9
 1081              	.LEHB4:
  63:src/../h/kObjectAllocator.hpp ****     }
 1082              		.loc 1 63 55 is_stmt 0
 1083 067c 97000000 		call	_ZN15MemoryAllocator8instanceEv@plt
 1083      E7800000 
 1084              	.LVL158:
 1085 0684 93050003 		li	a1,48
 1086 0688 97000000 		call	_ZN15MemoryAllocator10kmem_allocEm@plt
 1086      E7800000 
 1087              	.LVL159:
 1088              	.LEHE4:
 1089 0690 93040500 		mv	s1,a0
 1090              	.LVL160:
 1091              	.LBE147:
 1092              	.LBE146:
 1093              	.LBB148:
 1094              	.LBB149:
 1095              	.LBB150:
  51:src/../h/kObjectAllocator.hpp ****         numberOfObjects = numberOfObjects / 8 * 8 + 8 * (numberOfObjects / 8 * 8 != numberOfObjects
 1096              		.loc 1 51 74
 1097 0694 23382501 		sd	s2,16(a0)
 1098 0698 23340502 		sd	zero,40(a0)
 1099              	.LBB151:
  52:src/../h/kObjectAllocator.hpp ****         // one bit for each object which indicates whether memory
 1100              		.loc 1 52 9 is_stmt 1
  52:src/../h/kObjectAllocator.hpp ****         // one bit for each object which indicates whether memory
 1101              		.loc 1 52 25 is_stmt 0
 1102 069c 93070014 		li	a5,320
 1103 06a0 2330F500 		sd	a5,0(a0)
  55:src/../h/kObjectAllocator.hpp ****         bitVector = (uint8*) MemoryAllocator::instance()->kmem_alloc(
 1104              		.loc 1 55 9 is_stmt 1
  55:src/../h/kObjectAllocator.hpp ****         bitVector = (uint8*) MemoryAllocator::instance()->kmem_alloc(
 1105              		.loc 1 55 27 is_stmt 0
 1106 06a4 93078002 		li	a5,40
 1107 06a8 2334F500 		sd	a5,8(a0)
  56:src/../h/kObjectAllocator.hpp ****                 memorySizeForBits + numberOfObjects * objectSize
 1108              		.loc 1 56 9 is_stmt 1
GAS LISTING /tmp/ccbSKEpy.s 			page 28


 1109              	.LEHB5:
  56:src/../h/kObjectAllocator.hpp ****                 memorySizeForBits + numberOfObjects * objectSize
 1110              		.loc 1 56 69 is_stmt 0
 1111 06ac 97000000 		call	_ZN15MemoryAllocator8instanceEv@plt
 1111      E7800000 
 1112              	.LVL161:
  57:src/../h/kObjectAllocator.hpp ****         );
 1113              		.loc 1 57 17
 1114 06b4 83B58400 		ld	a1,8(s1)
  57:src/../h/kObjectAllocator.hpp ****         );
 1115              		.loc 1 57 37
 1116 06b8 83B70400 		ld	a5,0(s1)
  57:src/../h/kObjectAllocator.hpp ****         );
 1117              		.loc 1 57 53
 1118 06bc B307F902 		mul	a5,s2,a5
  56:src/../h/kObjectAllocator.hpp ****                 memorySizeForBits + numberOfObjects * objectSize
 1119              		.loc 1 56 69
 1120 06c0 B385F500 		add	a1,a1,a5
 1121 06c4 97000000 		call	_ZN15MemoryAllocator10kmem_allocEm@plt
 1121      E7800000 
 1122              	.LVL162:
 1123              	.LEHE5:
  56:src/../h/kObjectAllocator.hpp ****                 memorySizeForBits + numberOfObjects * objectSize
 1124              		.loc 1 56 19
 1125 06cc 23B0A402 		sd	a0,32(s1)
  59:src/../h/kObjectAllocator.hpp ****         for (size_t i = 0; i < memorySizeForBits; bitVector[i++] = 0);
 1126              		.loc 1 59 9 is_stmt 1
  59:src/../h/kObjectAllocator.hpp ****         for (size_t i = 0; i < memorySizeForBits; bitVector[i++] = 0);
 1127              		.loc 1 59 36 is_stmt 0
 1128 06d0 83B78400 		ld	a5,8(s1)
  59:src/../h/kObjectAllocator.hpp ****         for (size_t i = 0; i < memorySizeForBits; bitVector[i++] = 0);
 1129              		.loc 1 59 34
 1130 06d4 3305F500 		add	a0,a0,a5
  59:src/../h/kObjectAllocator.hpp ****         for (size_t i = 0; i < memorySizeForBits; bitVector[i++] = 0);
 1131              		.loc 1 59 22
 1132 06d8 23BCA400 		sd	a0,24(s1)
  60:src/../h/kObjectAllocator.hpp ****     }
 1133              		.loc 1 60 9 is_stmt 1
 1134              	.LVL163:
 1135              	.LBB152:
  60:src/../h/kObjectAllocator.hpp ****     }
 1136              		.loc 1 60 21 is_stmt 0
 1137 06dc 93070000 		li	a5,0
 1138              	.LVL164:
 1139              	.L61:
  60:src/../h/kObjectAllocator.hpp ****     }
 1140              		.loc 1 60 30 is_stmt 1
  60:src/../h/kObjectAllocator.hpp ****     }
 1141              		.loc 1 60 32 is_stmt 0
 1142 06e0 03B78400 		ld	a4,8(s1)
  60:src/../h/kObjectAllocator.hpp ****     }
 1143              		.loc 1 60 30
 1144 06e4 63FCE700 		bleu	a4,a5,.L60
  60:src/../h/kObjectAllocator.hpp ****     }
 1145              		.loc 1 60 9 is_stmt 1
  60:src/../h/kObjectAllocator.hpp ****     }
 1146              		.loc 1 60 51 is_stmt 0
GAS LISTING /tmp/ccbSKEpy.s 			page 29


 1147 06e8 03B70402 		ld	a4,32(s1)
 1148              	.LVL165:
  60:src/../h/kObjectAllocator.hpp ****     }
 1149              		.loc 1 60 64
 1150 06ec 3307F700 		add	a4,a4,a5
  60:src/../h/kObjectAllocator.hpp ****     }
 1151              		.loc 1 60 66
 1152 06f0 23000700 		sb	zero,0(a4)
  60:src/../h/kObjectAllocator.hpp ****     }
 1153              		.loc 1 60 62
 1154 06f4 93871700 		addi	a5,a5,1
 1155              	.LVL166:
  60:src/../h/kObjectAllocator.hpp ****     }
 1156              		.loc 1 60 9
 1157 06f8 6FF09FFE 		j	.L61
 1158              	.L60:
 1159              	.LVL167:
 1160              	.LBE152:
 1161              	.LBE151:
 1162              	.LBE150:
 1163              	.LBE149:
 1164              	.LBE148:
  96:src/kObjectAllocatorTest.cpp ****     if (objAlloc->getNumberOfObjects() != 320) { delete objAlloc; return false; }
 1165              		.loc 2 96 5 is_stmt 1 discriminator 3
 1166              	.LBB153:
 1167              	.LBB154:
  71:src/../h/kObjectAllocator.hpp ****     size_t getMemorySizeForBits() { return memorySizeForBits; }
 1168              		.loc 1 71 35 discriminator 3
  71:src/../h/kObjectAllocator.hpp ****     size_t getMemorySizeForBits() { return memorySizeForBits; }
 1169              		.loc 1 71 42 is_stmt 0 discriminator 3
 1170 06fc 03B70400 		ld	a4,0(s1)
 1171              	.LVL168:
 1172              	.LBE154:
 1173              	.LBE153:
 1174              		.loc 2 96 5 discriminator 3
 1175 0700 93070014 		li	a5,320
 1176 0704 630EF704 		beq	a4,a5,.L62
 1177              		.loc 2 96 50 is_stmt 1 discriminator 1
 1178              		.loc 2 96 65 is_stmt 0 discriminator 1
 1179 0708 63860402 		beqz	s1,.L63
 1180              	.LVL169:
 1181              	.LBB155:
 1182              	.LBB156:
  66:src/../h/kObjectAllocator.hpp ****         MemoryAllocator::instance()->kmem_free(p);
 1183              		.loc 1 66 9 is_stmt 1 discriminator 2
 1184              	.LEHB6:
  66:src/../h/kObjectAllocator.hpp ****         MemoryAllocator::instance()->kmem_free(p);
 1185              		.loc 1 66 47 is_stmt 0 discriminator 2
 1186 070c 97000000 		call	_ZN15MemoryAllocator8instanceEv@plt
 1186      E7800000 
 1187              	.LVL170:
 1188 0714 83B50402 		ld	a1,32(s1)
 1189 0718 97000000 		call	_ZN15MemoryAllocator9kmem_freeEPv@plt
 1189      E7800000 
 1190              	.LVL171:
  67:src/../h/kObjectAllocator.hpp ****     }
 1191              		.loc 1 67 9 is_stmt 1 discriminator 2
GAS LISTING /tmp/ccbSKEpy.s 			page 30


  67:src/../h/kObjectAllocator.hpp ****     }
 1192              		.loc 1 67 47 is_stmt 0 discriminator 2
 1193 0720 97000000 		call	_ZN15MemoryAllocator8instanceEv@plt
 1193      E7800000 
 1194              	.LVL172:
 1195 0728 93850400 		mv	a1,s1
 1196 072c 97000000 		call	_ZN15MemoryAllocator9kmem_freeEPv@plt
 1196      E7800000 
 1197              	.LVL173:
 1198              	.L63:
 1199              	.LBE156:
 1200              	.LBE155:
 1201              		.loc 2 96 67 is_stmt 1 discriminator 3
 1202              		.loc 2 96 74 is_stmt 0 discriminator 3
 1203 0734 13050000 		li	a0,0
 1204              	.LVL174:
 1205              	.L120:
  97:src/kObjectAllocatorTest.cpp ****     if (objAlloc->getMemorySizeForBits() != 40) { delete objAlloc; return false; }
  98:src/kObjectAllocatorTest.cpp ****     if (objAlloc->getObjectSize() != size) { delete objAlloc; return false; }
  99:src/kObjectAllocatorTest.cpp ****     void* objArr[320]; for (size_t i = 0; i < 32; objArr[i++] = objAlloc->allocateNewObject());
 100:src/kObjectAllocatorTest.cpp ****     if (getByteOfObject(objArr[31], objAlloc) != 3
 101:src/kObjectAllocatorTest.cpp ****         || getBitOfObject(objArr[31], objAlloc) != 0)
 102:src/kObjectAllocatorTest.cpp ****         { delete objAlloc; return false; }
 103:src/kObjectAllocatorTest.cpp **** 
 104:src/kObjectAllocatorTest.cpp ****     if (objAlloc->nextNonTakenByte != 4) { delete objAlloc; return false; }
 105:src/kObjectAllocatorTest.cpp ****     for (size_t i = 32; i < 320; objArr[i++] = objAlloc->allocateNewObject());
 106:src/kObjectAllocatorTest.cpp ****     if (objAlloc->nextNonTakenByte != 40) { delete objAlloc; return false; }
 107:src/kObjectAllocatorTest.cpp **** 
 108:src/kObjectAllocatorTest.cpp ****     objAlloc->freeObject(objArr[7 * 8]);
 109:src/kObjectAllocatorTest.cpp ****     objArr[7 * 8] = objAlloc->allocateNewObject();
 110:src/kObjectAllocatorTest.cpp ****     if (getByteOfObject(objArr[7 * 8], objAlloc) != 7
 111:src/kObjectAllocatorTest.cpp ****         || getBitOfObject(objArr[7 * 8], objAlloc) != 7)
 112:src/kObjectAllocatorTest.cpp ****         { delete objAlloc; return false; }
 113:src/kObjectAllocatorTest.cpp ****     if (objAlloc->nextNonTakenByte != 7) { delete objAlloc; return false; }
 114:src/kObjectAllocatorTest.cpp **** 
 115:src/kObjectAllocatorTest.cpp ****     objAlloc->freeObject(objArr[6 * 8 + 3]);
 116:src/kObjectAllocatorTest.cpp ****     objAlloc->freeObject(objArr[7 * 8 + 4]);
 117:src/kObjectAllocatorTest.cpp ****     objAlloc->freeObject(objArr[38 * 8 + 5]);
 118:src/kObjectAllocatorTest.cpp **** 
 119:src/kObjectAllocatorTest.cpp ****     objArr[7 * 8 + 4] = objAlloc->allocateNewObject();
 120:src/kObjectAllocatorTest.cpp ****     if (getByteOfObject(objArr[7 * 8 + 4], objAlloc) != 7
 121:src/kObjectAllocatorTest.cpp ****         || getBitOfObject(objArr[7 * 8 + 4], objAlloc) != 3)
 122:src/kObjectAllocatorTest.cpp ****         { delete objAlloc; return false; }
 123:src/kObjectAllocatorTest.cpp ****     if (objAlloc->nextNonTakenByte != 7) { delete objAlloc; return false; }
 124:src/kObjectAllocatorTest.cpp ****     objAlloc->freeObject(objArr[3 * 8 + 5]);
 125:src/kObjectAllocatorTest.cpp **** 
 126:src/kObjectAllocatorTest.cpp ****     objArr[38 * 8 + 5] = objAlloc->allocateNewObject();
 127:src/kObjectAllocatorTest.cpp ****     if (getByteOfObject(objArr[38 * 8 + 5], objAlloc) != 38
 128:src/kObjectAllocatorTest.cpp ****         || getBitOfObject(objArr[38 * 8 + 5], objAlloc) != 2)
 129:src/kObjectAllocatorTest.cpp ****     { delete objAlloc; return false; }
 130:src/kObjectAllocatorTest.cpp ****     if (objAlloc->nextNonTakenByte != 38) { delete objAlloc; return false; }
 131:src/kObjectAllocatorTest.cpp **** 
 132:src/kObjectAllocatorTest.cpp **** 
 133:src/kObjectAllocatorTest.cpp ****     objArr[3 * 8 + 5] = objAlloc->allocateNewObject();
 134:src/kObjectAllocatorTest.cpp ****     if (getByteOfObject(objArr[3 * 8 + 5], objAlloc) != 3 || getBitOfObject(objArr[3 * 8 + 5], objA
 135:src/kObjectAllocatorTest.cpp ****     if (objAlloc->nextNonTakenByte != 3) { delete objAlloc; return false; }
 136:src/kObjectAllocatorTest.cpp **** 
GAS LISTING /tmp/ccbSKEpy.s 			page 31


 137:src/kObjectAllocatorTest.cpp ****     objArr[6 * 8 + 3] = objAlloc->allocateNewObject();
 138:src/kObjectAllocatorTest.cpp ****     if (getByteOfObject(objArr[6 * 8 + 3], objAlloc) != 6
 139:src/kObjectAllocatorTest.cpp ****         || getBitOfObject(objArr[6 * 8 + 3], objAlloc) != 4)
 140:src/kObjectAllocatorTest.cpp ****     { delete objAlloc; return false; }
 141:src/kObjectAllocatorTest.cpp ****     if (objAlloc->nextNonTakenByte != 6) { delete objAlloc; return false; }
 142:src/kObjectAllocatorTest.cpp **** 
 143:src/kObjectAllocatorTest.cpp ****     for (int i = 0; i < 100; ++i) {
 144:src/kObjectAllocatorTest.cpp ****         objAlloc->freeObject(objArr[319]);
 145:src/kObjectAllocatorTest.cpp ****         objArr[319] = objAlloc->allocateNewObject();
 146:src/kObjectAllocatorTest.cpp ****         if (getByteOfObject(objArr[319], objAlloc) != 39
 147:src/kObjectAllocatorTest.cpp ****             || getBitOfObject(objArr[319], objAlloc) != 0)
 148:src/kObjectAllocatorTest.cpp ****         { delete objAlloc; return false; }
 149:src/kObjectAllocatorTest.cpp ****         if (objAlloc->nextNonTakenByte != 40) { delete objAlloc; return false; }
 150:src/kObjectAllocatorTest.cpp **** 
 151:src/kObjectAllocatorTest.cpp ****         objAlloc->freeObject(objArr[1]);
 152:src/kObjectAllocatorTest.cpp ****         objArr[1] = objAlloc->allocateNewObject();
 153:src/kObjectAllocatorTest.cpp ****         if (getByteOfObject(objArr[1], objAlloc) != 0
 154:src/kObjectAllocatorTest.cpp ****             || getBitOfObject(objArr[1], objAlloc) != 6)
 155:src/kObjectAllocatorTest.cpp ****         { delete objAlloc; return false; }
 156:src/kObjectAllocatorTest.cpp ****         if (objAlloc->nextNonTakenByte != 0) { delete objAlloc; return false; }
 157:src/kObjectAllocatorTest.cpp ****     }
 158:src/kObjectAllocatorTest.cpp **** 
 159:src/kObjectAllocatorTest.cpp ****     if (objAlloc->allocateNewObject()) { delete objAlloc; return false; }
 160:src/kObjectAllocatorTest.cpp ****     delete objAlloc;
 161:src/kObjectAllocatorTest.cpp ****     return true;
 162:src/kObjectAllocatorTest.cpp **** }
 1206              		.loc 2 162 1
 1207 0738 13010125 		addi	sp,sp,592
 1208              		.cfi_remember_state
 1209              		.cfi_def_cfa 2, 2032
 1210 073c 8330817E 		ld	ra,2024(sp)
 1211              		.cfi_restore 1
 1212 0740 0334017E 		ld	s0,2016(sp)
 1213              		.cfi_restore 8
 1214 0744 8334817D 		ld	s1,2008(sp)
 1215              		.cfi_restore 9
 1216              	.LVL175:
 1217 0748 0339017D 		ld	s2,2000(sp)
 1218              		.cfi_restore 18
 1219 074c 8339817C 		ld	s3,1992(sp)
 1220              		.cfi_restore 19
 1221              	.LVL176:
 1222 0750 033A017C 		ld	s4,1984(sp)
 1223              		.cfi_restore 20
 1224 0754 833A817B 		ld	s5,1976(sp)
 1225              		.cfi_restore 21
 1226 0758 1301017F 		addi	sp,sp,2032
 1227              		.cfi_def_cfa_offset 0
 1228 075c 67800000 		jr	ra
 1229              	.LVL177:
 1230              	.L62:
 1231              		.cfi_restore_state
  97:src/kObjectAllocatorTest.cpp ****     if (objAlloc->getMemorySizeForBits() != 40) { delete objAlloc; return false; }
 1232              		.loc 2 97 5 is_stmt 1
 1233              	.LBB157:
 1234              	.LBB158:
 1235              		.loc 1 72 37
GAS LISTING /tmp/ccbSKEpy.s 			page 32


 1236              		.loc 1 72 44 is_stmt 0
 1237 0760 03B78400 		ld	a4,8(s1)
 1238              	.LVL178:
 1239              	.LBE158:
 1240              	.LBE157:
  97:src/kObjectAllocatorTest.cpp ****     if (objAlloc->getMemorySizeForBits() != 40) { delete objAlloc; return false; }
 1241              		.loc 2 97 5
 1242 0764 93078002 		li	a5,40
 1243 0768 630CF702 		beq	a4,a5,.L65
  97:src/kObjectAllocatorTest.cpp ****     if (objAlloc->getMemorySizeForBits() != 40) { delete objAlloc; return false; }
 1244              		.loc 2 97 51 is_stmt 1 discriminator 1
  97:src/kObjectAllocatorTest.cpp ****     if (objAlloc->getMemorySizeForBits() != 40) { delete objAlloc; return false; }
 1245              		.loc 2 97 66 is_stmt 0 discriminator 1
 1246 076c 63860402 		beqz	s1,.L66
 1247              	.LVL179:
 1248              	.LBB159:
 1249              	.LBB160:
  66:src/../h/kObjectAllocator.hpp ****         MemoryAllocator::instance()->kmem_free(p);
 1250              		.loc 1 66 9 is_stmt 1 discriminator 2
  66:src/../h/kObjectAllocator.hpp ****         MemoryAllocator::instance()->kmem_free(p);
 1251              		.loc 1 66 47 is_stmt 0 discriminator 2
 1252 0770 97000000 		call	_ZN15MemoryAllocator8instanceEv@plt
 1252      E7800000 
 1253              	.LVL180:
 1254 0778 83B50402 		ld	a1,32(s1)
 1255 077c 97000000 		call	_ZN15MemoryAllocator9kmem_freeEPv@plt
 1255      E7800000 
 1256              	.LVL181:
  67:src/../h/kObjectAllocator.hpp ****     }
 1257              		.loc 1 67 9 is_stmt 1 discriminator 2
  67:src/../h/kObjectAllocator.hpp ****     }
 1258              		.loc 1 67 47 is_stmt 0 discriminator 2
 1259 0784 97000000 		call	_ZN15MemoryAllocator8instanceEv@plt
 1259      E7800000 
 1260              	.LVL182:
 1261 078c 93850400 		mv	a1,s1
 1262 0790 97000000 		call	_ZN15MemoryAllocator9kmem_freeEPv@plt
 1262      E7800000 
 1263              	.LVL183:
 1264              	.L66:
 1265              	.LBE160:
 1266              	.LBE159:
  97:src/kObjectAllocatorTest.cpp ****     if (objAlloc->getMemorySizeForBits() != 40) { delete objAlloc; return false; }
 1267              		.loc 2 97 68 is_stmt 1 discriminator 3
  97:src/kObjectAllocatorTest.cpp ****     if (objAlloc->getMemorySizeForBits() != 40) { delete objAlloc; return false; }
 1268              		.loc 2 97 75 is_stmt 0 discriminator 3
 1269 0798 13050000 		li	a0,0
 1270 079c 6FF0DFF9 		j	.L120
 1271              	.L65:
  98:src/kObjectAllocatorTest.cpp ****     void* objArr[320]; for (size_t i = 0; i < 32; objArr[i++] = objAlloc->allocateNewObject());
 1272              		.loc 2 98 5 is_stmt 1
 1273              	.LVL184:
 1274              	.LBB161:
 1275              	.LBB162:
  70:src/../h/kObjectAllocator.hpp ****     size_t getNumberOfObjects() { return numberOfObjects; }
 1276              		.loc 1 70 30
  70:src/../h/kObjectAllocator.hpp ****     size_t getNumberOfObjects() { return numberOfObjects; }
GAS LISTING /tmp/ccbSKEpy.s 			page 33


 1277              		.loc 1 70 37 is_stmt 0
 1278 07a0 83B70401 		ld	a5,16(s1)
 1279              	.LVL185:
 1280              	.LBE162:
 1281              	.LBE161:
  98:src/kObjectAllocatorTest.cpp ****     void* objArr[320]; for (size_t i = 0; i < 32; objArr[i++] = objAlloc->allocateNewObject());
 1282              		.loc 2 98 5
 1283 07a4 630CF902 		beq	s2,a5,.L117
  98:src/kObjectAllocatorTest.cpp ****     void* objArr[320]; for (size_t i = 0; i < 32; objArr[i++] = objAlloc->allocateNewObject());
 1284              		.loc 2 98 46 is_stmt 1 discriminator 1
  98:src/kObjectAllocatorTest.cpp ****     void* objArr[320]; for (size_t i = 0; i < 32; objArr[i++] = objAlloc->allocateNewObject());
 1285              		.loc 2 98 61 is_stmt 0 discriminator 1
 1286 07a8 63860402 		beqz	s1,.L68
 1287              	.LVL186:
 1288              	.LBB163:
 1289              	.LBB164:
  66:src/../h/kObjectAllocator.hpp ****         MemoryAllocator::instance()->kmem_free(p);
 1290              		.loc 1 66 9 is_stmt 1 discriminator 2
  66:src/../h/kObjectAllocator.hpp ****         MemoryAllocator::instance()->kmem_free(p);
 1291              		.loc 1 66 47 is_stmt 0 discriminator 2
 1292 07ac 97000000 		call	_ZN15MemoryAllocator8instanceEv@plt
 1292      E7800000 
 1293              	.LVL187:
 1294 07b4 83B50402 		ld	a1,32(s1)
 1295 07b8 97000000 		call	_ZN15MemoryAllocator9kmem_freeEPv@plt
 1295      E7800000 
 1296              	.LVL188:
  67:src/../h/kObjectAllocator.hpp ****     }
 1297              		.loc 1 67 9 is_stmt 1 discriminator 2
  67:src/../h/kObjectAllocator.hpp ****     }
 1298              		.loc 1 67 47 is_stmt 0 discriminator 2
 1299 07c0 97000000 		call	_ZN15MemoryAllocator8instanceEv@plt
 1299      E7800000 
 1300              	.LVL189:
 1301 07c8 93850400 		mv	a1,s1
 1302 07cc 97000000 		call	_ZN15MemoryAllocator9kmem_freeEPv@plt
 1302      E7800000 
 1303              	.LVL190:
 1304              	.L68:
 1305              	.LBE164:
 1306              	.LBE163:
  98:src/kObjectAllocatorTest.cpp ****     void* objArr[320]; for (size_t i = 0; i < 32; objArr[i++] = objAlloc->allocateNewObject());
 1307              		.loc 2 98 63 is_stmt 1 discriminator 3
  98:src/kObjectAllocatorTest.cpp ****     void* objArr[320]; for (size_t i = 0; i < 32; objArr[i++] = objAlloc->allocateNewObject());
 1308              		.loc 2 98 70 is_stmt 0 discriminator 3
 1309 07d4 13050000 		li	a0,0
 1310 07d8 6FF01FF6 		j	.L120
 1311              	.L117:
 1312              	.LBB165:
  99:src/kObjectAllocatorTest.cpp ****     if (getByteOfObject(objArr[31], objAlloc) != 3
 1313              		.loc 2 99 36
 1314 07dc 13090000 		li	s2,0
 1315              	.LVL191:
 1316              	.L67:
  99:src/kObjectAllocatorTest.cpp ****     if (getByteOfObject(objArr[31], objAlloc) != 3
 1317              		.loc 2 99 45 is_stmt 1 discriminator 4
 1318 07e0 9307F001 		li	a5,31
GAS LISTING /tmp/ccbSKEpy.s 			page 34


 1319 07e4 63EA2703 		bgtu	s2,a5,.L69
  99:src/kObjectAllocatorTest.cpp ****     if (getByteOfObject(objArr[31], objAlloc) != 3
 1320              		.loc 2 99 24 discriminator 2
  99:src/kObjectAllocatorTest.cpp ****     if (getByteOfObject(objArr[31], objAlloc) != 3
 1321              		.loc 2 99 59 is_stmt 0 discriminator 2
 1322 07e8 130A1900 		addi	s4,s2,1
 1323              	.LVL192:
  99:src/kObjectAllocatorTest.cpp ****     if (getByteOfObject(objArr[31], objAlloc) != 3
 1324              		.loc 2 99 92 discriminator 2
 1325 07ec 13850400 		mv	a0,s1
 1326 07f0 97000000 		call	_ZN16KObjectAllocator17allocateNewObjectEv@plt
 1326      E7800000 
 1327              	.LVL193:
  99:src/kObjectAllocatorTest.cpp ****     if (getByteOfObject(objArr[31], objAlloc) != 3
 1328              		.loc 2 99 63 discriminator 2
 1329 07f8 B7F7FFFF 		li	a5,-4096
 1330 07fc 13193900 		slli	s2,s2,3
 1331 0800 130704FC 		addi	a4,s0,-64
 1332 0804 B307F700 		add	a5,a4,a5
 1333 0808 33892701 		add	s2,a5,s2
 1334 080c 2330A960 		sd	a0,1536(s2)
  99:src/kObjectAllocatorTest.cpp ****     if (getByteOfObject(objArr[31], objAlloc) != 3
 1335              		.loc 2 99 59 discriminator 2
 1336 0810 13090A00 		mv	s2,s4
  99:src/kObjectAllocatorTest.cpp ****     if (getByteOfObject(objArr[31], objAlloc) != 3
 1337              		.loc 2 99 24 discriminator 2
 1338 0814 6FF0DFFC 		j	.L67
 1339              	.LVL194:
 1340              	.L69:
 1341              	.LBE165:
 100:src/kObjectAllocatorTest.cpp ****         || getBitOfObject(objArr[31], objAlloc) != 0)
 1342              		.loc 2 100 5 is_stmt 1
 100:src/kObjectAllocatorTest.cpp ****         || getBitOfObject(objArr[31], objAlloc) != 0)
 1343              		.loc 2 100 24 is_stmt 0
 1344 0818 B7F7FFFF 		li	a5,-4096
 1345 081c 130704FC 		addi	a4,s0,-64
 1346 0820 B307F700 		add	a5,a4,a5
 1347 0824 03B9876F 		ld	s2,1784(a5)
 1348              	.LVL195:
 1349 0828 13860400 		mv	a2,s1
 1350 082c 93050900 		mv	a1,s2
 1351 0830 13850900 		mv	a0,s3
 1352 0834 97000000 		call	_ZN20KObjectAllocatorTest15getByteOfObjectEPvP16KObjectAllocator
 1352      E7800000 
 1353              	.LVL196:
 101:src/kObjectAllocatorTest.cpp ****         { delete objAlloc; return false; }
 1354              		.loc 2 101 9
 1355 083c 93073000 		li	a5,3
 1356 0840 6312F506 		bne	a0,a5,.L70
 101:src/kObjectAllocatorTest.cpp ****         { delete objAlloc; return false; }
 1357              		.loc 2 101 26 discriminator 2
 1358 0844 13860400 		mv	a2,s1
 1359 0848 93050900 		mv	a1,s2
 1360 084c 13850900 		mv	a0,s3
 1361 0850 97000000 		call	_ZN20KObjectAllocatorTest14getBitOfObjectEPvP16KObjectAllocator
 1361      E7800000 
 1362              	.LVL197:
GAS LISTING /tmp/ccbSKEpy.s 			page 35


 101:src/kObjectAllocatorTest.cpp ****         { delete objAlloc; return false; }
 1363              		.loc 2 101 9 discriminator 2
 1364 0858 63160504 		bnez	a0,.L70
 104:src/kObjectAllocatorTest.cpp ****     for (size_t i = 32; i < 320; objArr[i++] = objAlloc->allocateNewObject());
 1365              		.loc 2 104 5 is_stmt 1
 104:src/kObjectAllocatorTest.cpp ****     for (size_t i = 32; i < 320; objArr[i++] = objAlloc->allocateNewObject());
 1366              		.loc 2 104 19 is_stmt 0
 1367 085c 03B78402 		ld	a4,40(s1)
 104:src/kObjectAllocatorTest.cpp ****     for (size_t i = 32; i < 320; objArr[i++] = objAlloc->allocateNewObject());
 1368              		.loc 2 104 5
 1369 0860 93074000 		li	a5,4
 1370 0864 631AF706 		bne	a4,a5,.L74
 1371              	.LBB166:
 105:src/kObjectAllocatorTest.cpp ****     if (objAlloc->nextNonTakenByte != 40) { delete objAlloc; return false; }
 1372              		.loc 2 105 17
 1373 0868 13090002 		li	s2,32
 1374              	.L75:
 1375              	.LVL198:
 105:src/kObjectAllocatorTest.cpp ****     if (objAlloc->nextNonTakenByte != 40) { delete objAlloc; return false; }
 1376              		.loc 2 105 27 is_stmt 1 discriminator 4
 1377 086c 9307F013 		li	a5,319
 1378 0870 63EE2709 		bgtu	s2,a5,.L77
 105:src/kObjectAllocatorTest.cpp ****     if (objAlloc->nextNonTakenByte != 40) { delete objAlloc; return false; }
 1379              		.loc 2 105 5 discriminator 2
 105:src/kObjectAllocatorTest.cpp ****     if (objAlloc->nextNonTakenByte != 40) { delete objAlloc; return false; }
 1380              		.loc 2 105 42 is_stmt 0 discriminator 2
 1381 0874 130A1900 		addi	s4,s2,1
 1382              	.LVL199:
 105:src/kObjectAllocatorTest.cpp ****     if (objAlloc->nextNonTakenByte != 40) { delete objAlloc; return false; }
 1383              		.loc 2 105 75 discriminator 2
 1384 0878 13850400 		mv	a0,s1
 1385 087c 97000000 		call	_ZN16KObjectAllocator17allocateNewObjectEv@plt
 1385      E7800000 
 1386              	.LVL200:
 105:src/kObjectAllocatorTest.cpp ****     if (objAlloc->nextNonTakenByte != 40) { delete objAlloc; return false; }
 1387              		.loc 2 105 46 discriminator 2
 1388 0884 B7F7FFFF 		li	a5,-4096
 1389 0888 13193900 		slli	s2,s2,3
 1390 088c 130704FC 		addi	a4,s0,-64
 1391 0890 B307F700 		add	a5,a4,a5
 1392 0894 33892701 		add	s2,a5,s2
 1393 0898 2330A960 		sd	a0,1536(s2)
 105:src/kObjectAllocatorTest.cpp ****     if (objAlloc->nextNonTakenByte != 40) { delete objAlloc; return false; }
 1394              		.loc 2 105 42 discriminator 2
 1395 089c 13090A00 		mv	s2,s4
 105:src/kObjectAllocatorTest.cpp ****     if (objAlloc->nextNonTakenByte != 40) { delete objAlloc; return false; }
 1396              		.loc 2 105 5 discriminator 2
 1397 08a0 6FF0DFFC 		j	.L75
 1398              	.LVL201:
 1399              	.L70:
 1400              	.LBE166:
 102:src/kObjectAllocatorTest.cpp **** 
 1401              		.loc 2 102 11 is_stmt 1 discriminator 3
 102:src/kObjectAllocatorTest.cpp **** 
 1402              		.loc 2 102 26 is_stmt 0 discriminator 3
 1403 08a4 63860402 		beqz	s1,.L73
 1404              	.LVL202:
GAS LISTING /tmp/ccbSKEpy.s 			page 36


 1405              	.LBB167:
 1406              	.LBB168:
  66:src/../h/kObjectAllocator.hpp ****         MemoryAllocator::instance()->kmem_free(p);
 1407              		.loc 1 66 9 is_stmt 1 discriminator 1
  66:src/../h/kObjectAllocator.hpp ****         MemoryAllocator::instance()->kmem_free(p);
 1408              		.loc 1 66 47 is_stmt 0 discriminator 1
 1409 08a8 97000000 		call	_ZN15MemoryAllocator8instanceEv@plt
 1409      E7800000 
 1410              	.LVL203:
 1411 08b0 83B50402 		ld	a1,32(s1)
 1412 08b4 97000000 		call	_ZN15MemoryAllocator9kmem_freeEPv@plt
 1412      E7800000 
 1413              	.LVL204:
  67:src/../h/kObjectAllocator.hpp ****     }
 1414              		.loc 1 67 9 is_stmt 1 discriminator 1
  67:src/../h/kObjectAllocator.hpp ****     }
 1415              		.loc 1 67 47 is_stmt 0 discriminator 1
 1416 08bc 97000000 		call	_ZN15MemoryAllocator8instanceEv@plt
 1416      E7800000 
 1417              	.LVL205:
 1418 08c4 93850400 		mv	a1,s1
 1419 08c8 97000000 		call	_ZN15MemoryAllocator9kmem_freeEPv@plt
 1419      E7800000 
 1420              	.LVL206:
 1421              	.L73:
 1422              	.LBE168:
 1423              	.LBE167:
 102:src/kObjectAllocatorTest.cpp **** 
 1424              		.loc 2 102 28 is_stmt 1 discriminator 2
 102:src/kObjectAllocatorTest.cpp **** 
 1425              		.loc 2 102 35 is_stmt 0 discriminator 2
 1426 08d0 13050000 		li	a0,0
 1427 08d4 6FF05FE6 		j	.L120
 1428              	.L74:
 104:src/kObjectAllocatorTest.cpp ****     for (size_t i = 32; i < 320; objArr[i++] = objAlloc->allocateNewObject());
 1429              		.loc 2 104 44 is_stmt 1 discriminator 1
 104:src/kObjectAllocatorTest.cpp ****     for (size_t i = 32; i < 320; objArr[i++] = objAlloc->allocateNewObject());
 1430              		.loc 2 104 59 is_stmt 0 discriminator 1
 1431 08d8 63860402 		beqz	s1,.L76
 1432              	.LVL207:
 1433              	.LBB169:
 1434              	.LBB170:
  66:src/../h/kObjectAllocator.hpp ****         MemoryAllocator::instance()->kmem_free(p);
 1435              		.loc 1 66 9 is_stmt 1 discriminator 2
  66:src/../h/kObjectAllocator.hpp ****         MemoryAllocator::instance()->kmem_free(p);
 1436              		.loc 1 66 47 is_stmt 0 discriminator 2
 1437 08dc 97000000 		call	_ZN15MemoryAllocator8instanceEv@plt
 1437      E7800000 
 1438              	.LVL208:
 1439 08e4 83B50402 		ld	a1,32(s1)
 1440 08e8 97000000 		call	_ZN15MemoryAllocator9kmem_freeEPv@plt
 1440      E7800000 
 1441              	.LVL209:
  67:src/../h/kObjectAllocator.hpp ****     }
 1442              		.loc 1 67 9 is_stmt 1 discriminator 2
  67:src/../h/kObjectAllocator.hpp ****     }
 1443              		.loc 1 67 47 is_stmt 0 discriminator 2
GAS LISTING /tmp/ccbSKEpy.s 			page 37


 1444 08f0 97000000 		call	_ZN15MemoryAllocator8instanceEv@plt
 1444      E7800000 
 1445              	.LVL210:
 1446 08f8 93850400 		mv	a1,s1
 1447 08fc 97000000 		call	_ZN15MemoryAllocator9kmem_freeEPv@plt
 1447      E7800000 
 1448              	.LVL211:
 1449              	.L76:
 1450              	.LBE170:
 1451              	.LBE169:
 104:src/kObjectAllocatorTest.cpp ****     for (size_t i = 32; i < 320; objArr[i++] = objAlloc->allocateNewObject());
 1452              		.loc 2 104 61 is_stmt 1 discriminator 3
 104:src/kObjectAllocatorTest.cpp ****     for (size_t i = 32; i < 320; objArr[i++] = objAlloc->allocateNewObject());
 1453              		.loc 2 104 68 is_stmt 0 discriminator 3
 1454 0904 13050000 		li	a0,0
 1455 0908 6FF01FE3 		j	.L120
 1456              	.LVL212:
 1457              	.L77:
 106:src/kObjectAllocatorTest.cpp **** 
 1458              		.loc 2 106 5 is_stmt 1
 106:src/kObjectAllocatorTest.cpp **** 
 1459              		.loc 2 106 19 is_stmt 0
 1460 090c 03B78402 		ld	a4,40(s1)
 106:src/kObjectAllocatorTest.cpp **** 
 1461              		.loc 2 106 5
 1462 0910 93078002 		li	a5,40
 1463 0914 630CF702 		beq	a4,a5,.L78
 106:src/kObjectAllocatorTest.cpp **** 
 1464              		.loc 2 106 45 is_stmt 1 discriminator 1
 106:src/kObjectAllocatorTest.cpp **** 
 1465              		.loc 2 106 60 is_stmt 0 discriminator 1
 1466 0918 63860402 		beqz	s1,.L79
 1467              	.LVL213:
 1468              	.LBB171:
 1469              	.LBB172:
  66:src/../h/kObjectAllocator.hpp ****         MemoryAllocator::instance()->kmem_free(p);
 1470              		.loc 1 66 9 is_stmt 1 discriminator 2
  66:src/../h/kObjectAllocator.hpp ****         MemoryAllocator::instance()->kmem_free(p);
 1471              		.loc 1 66 47 is_stmt 0 discriminator 2
 1472 091c 97000000 		call	_ZN15MemoryAllocator8instanceEv@plt
 1472      E7800000 
 1473              	.LVL214:
 1474 0924 83B50402 		ld	a1,32(s1)
 1475 0928 97000000 		call	_ZN15MemoryAllocator9kmem_freeEPv@plt
 1475      E7800000 
 1476              	.LVL215:
  67:src/../h/kObjectAllocator.hpp ****     }
 1477              		.loc 1 67 9 is_stmt 1 discriminator 2
  67:src/../h/kObjectAllocator.hpp ****     }
 1478              		.loc 1 67 47 is_stmt 0 discriminator 2
 1479 0930 97000000 		call	_ZN15MemoryAllocator8instanceEv@plt
 1479      E7800000 
 1480              	.LVL216:
 1481 0938 93850400 		mv	a1,s1
 1482 093c 97000000 		call	_ZN15MemoryAllocator9kmem_freeEPv@plt
 1482      E7800000 
 1483              	.LVL217:
GAS LISTING /tmp/ccbSKEpy.s 			page 38


 1484              	.L79:
 1485              	.LBE172:
 1486              	.LBE171:
 106:src/kObjectAllocatorTest.cpp **** 
 1487              		.loc 2 106 62 is_stmt 1 discriminator 3
 106:src/kObjectAllocatorTest.cpp **** 
 1488              		.loc 2 106 69 is_stmt 0 discriminator 3
 1489 0944 13050000 		li	a0,0
 1490 0948 6FF01FDF 		j	.L120
 1491              	.L78:
 108:src/kObjectAllocatorTest.cpp ****     objArr[7 * 8] = objAlloc->allocateNewObject();
 1492              		.loc 2 108 5 is_stmt 1
 108:src/kObjectAllocatorTest.cpp ****     objArr[7 * 8] = objAlloc->allocateNewObject();
 1493              		.loc 2 108 25 is_stmt 0
 1494 094c B7F7FFFF 		li	a5,-4096
 1495 0950 130704FC 		addi	a4,s0,-64
 1496 0954 B307F700 		add	a5,a4,a5
 1497 0958 83B5077C 		ld	a1,1984(a5)
 1498 095c 13850400 		mv	a0,s1
 1499 0960 97000000 		call	_ZN16KObjectAllocator10freeObjectEPv@plt
 1499      E7800000 
 1500              	.LVL218:
 109:src/kObjectAllocatorTest.cpp ****     if (getByteOfObject(objArr[7 * 8], objAlloc) != 7
 1501              		.loc 2 109 5 is_stmt 1
 109:src/kObjectAllocatorTest.cpp ****     if (getByteOfObject(objArr[7 * 8], objAlloc) != 7
 1502              		.loc 2 109 48 is_stmt 0
 1503 0968 13850400 		mv	a0,s1
 1504 096c 97000000 		call	_ZN16KObjectAllocator17allocateNewObjectEv@plt
 1504      E7800000 
 1505              	.LVL219:
 1506 0974 13090500 		mv	s2,a0
 1507              	.LVL220:
 110:src/kObjectAllocatorTest.cpp ****         || getBitOfObject(objArr[7 * 8], objAlloc) != 7)
 1508              		.loc 2 110 5 is_stmt 1
 110:src/kObjectAllocatorTest.cpp ****         || getBitOfObject(objArr[7 * 8], objAlloc) != 7)
 1509              		.loc 2 110 24 is_stmt 0
 1510 0978 13860400 		mv	a2,s1
 1511 097c 93050500 		mv	a1,a0
 1512 0980 13850900 		mv	a0,s3
 1513 0984 97000000 		call	_ZN20KObjectAllocatorTest15getByteOfObjectEPvP16KObjectAllocator
 1513      E7800000 
 1514              	.LVL221:
 111:src/kObjectAllocatorTest.cpp ****         { delete objAlloc; return false; }
 1515              		.loc 2 111 9
 1516 098c 93077000 		li	a5,7
 1517 0990 6310F504 		bne	a0,a5,.L80
 111:src/kObjectAllocatorTest.cpp ****         { delete objAlloc; return false; }
 1518              		.loc 2 111 26 discriminator 2
 1519 0994 13860400 		mv	a2,s1
 1520 0998 93050900 		mv	a1,s2
 1521 099c 13850900 		mv	a0,s3
 1522 09a0 97000000 		call	_ZN20KObjectAllocatorTest14getBitOfObjectEPvP16KObjectAllocator
 1522      E7800000 
 1523              	.LVL222:
 111:src/kObjectAllocatorTest.cpp ****         { delete objAlloc; return false; }
 1524              		.loc 2 111 9 discriminator 2
 1525 09a8 93077000 		li	a5,7
GAS LISTING /tmp/ccbSKEpy.s 			page 39


 1526 09ac 6312F502 		bne	a0,a5,.L80
 113:src/kObjectAllocatorTest.cpp **** 
 1527              		.loc 2 113 5 is_stmt 1
 113:src/kObjectAllocatorTest.cpp **** 
 1528              		.loc 2 113 19 is_stmt 0
 1529 09b0 03B78402 		ld	a4,40(s1)
 113:src/kObjectAllocatorTest.cpp **** 
 1530              		.loc 2 113 5
 1531 09b4 6308F704 		beq	a4,a5,.L127
 113:src/kObjectAllocatorTest.cpp **** 
 1532              		.loc 2 113 44 is_stmt 1 discriminator 1
 113:src/kObjectAllocatorTest.cpp **** 
 1533              		.loc 2 113 59 is_stmt 0 discriminator 1
 1534 09b8 63880400 		beqz	s1,.L84
 113:src/kObjectAllocatorTest.cpp **** 
 1535              		.loc 2 113 51 discriminator 2
 1536 09bc 13850400 		mv	a0,s1
 1537 09c0 97000000 		call	_ZN16KObjectAllocatordlEPv
 1537      E7800000 
 1538              	.LVL223:
 1539              	.L84:
 113:src/kObjectAllocatorTest.cpp **** 
 1540              		.loc 2 113 61 is_stmt 1 discriminator 3
 113:src/kObjectAllocatorTest.cpp **** 
 1541              		.loc 2 113 68 is_stmt 0 discriminator 3
 1542 09c8 13050000 		li	a0,0
 1543 09cc 6FF0DFD6 		j	.L120
 1544              	.L80:
 112:src/kObjectAllocatorTest.cpp ****     if (objAlloc->nextNonTakenByte != 7) { delete objAlloc; return false; }
 1545              		.loc 2 112 11 is_stmt 1 discriminator 3
 112:src/kObjectAllocatorTest.cpp ****     if (objAlloc->nextNonTakenByte != 7) { delete objAlloc; return false; }
 1546              		.loc 2 112 26 is_stmt 0 discriminator 3
 1547 09d0 63860402 		beqz	s1,.L83
 1548              	.LVL224:
 1549              	.LBB173:
 1550              	.LBB174:
  66:src/../h/kObjectAllocator.hpp ****         MemoryAllocator::instance()->kmem_free(p);
 1551              		.loc 1 66 9 is_stmt 1 discriminator 1
  66:src/../h/kObjectAllocator.hpp ****         MemoryAllocator::instance()->kmem_free(p);
 1552              		.loc 1 66 47 is_stmt 0 discriminator 1
 1553 09d4 97000000 		call	_ZN15MemoryAllocator8instanceEv@plt
 1553      E7800000 
 1554              	.LVL225:
 1555 09dc 83B50402 		ld	a1,32(s1)
 1556 09e0 97000000 		call	_ZN15MemoryAllocator9kmem_freeEPv@plt
 1556      E7800000 
 1557              	.LVL226:
  67:src/../h/kObjectAllocator.hpp ****     }
 1558              		.loc 1 67 9 is_stmt 1 discriminator 1
  67:src/../h/kObjectAllocator.hpp ****     }
 1559              		.loc 1 67 47 is_stmt 0 discriminator 1
 1560 09e8 97000000 		call	_ZN15MemoryAllocator8instanceEv@plt
 1560      E7800000 
 1561              	.LVL227:
 1562 09f0 93850400 		mv	a1,s1
 1563 09f4 97000000 		call	_ZN15MemoryAllocator9kmem_freeEPv@plt
 1563      E7800000 
GAS LISTING /tmp/ccbSKEpy.s 			page 40


 1564              	.LVL228:
 1565              	.L83:
 1566              	.LBE174:
 1567              	.LBE173:
 112:src/kObjectAllocatorTest.cpp ****     if (objAlloc->nextNonTakenByte != 7) { delete objAlloc; return false; }
 1568              		.loc 2 112 28 is_stmt 1 discriminator 2
 112:src/kObjectAllocatorTest.cpp ****     if (objAlloc->nextNonTakenByte != 7) { delete objAlloc; return false; }
 1569              		.loc 2 112 35 is_stmt 0 discriminator 2
 1570 09fc 13050000 		li	a0,0
 1571 0a00 6FF09FD3 		j	.L120
 1572              	.L127:
 115:src/kObjectAllocatorTest.cpp ****     objAlloc->freeObject(objArr[7 * 8 + 4]);
 1573              		.loc 2 115 5 is_stmt 1
 115:src/kObjectAllocatorTest.cpp ****     objAlloc->freeObject(objArr[7 * 8 + 4]);
 1574              		.loc 2 115 25 is_stmt 0
 1575 0a04 37F9FFFF 		li	s2,-4096
 1576 0a08 930704FC 		addi	a5,s0,-64
 1577 0a0c 33892701 		add	s2,a5,s2
 1578 0a10 83358979 		ld	a1,1944(s2)
 1579 0a14 13850400 		mv	a0,s1
 1580 0a18 97000000 		call	_ZN16KObjectAllocator10freeObjectEPv@plt
 1580      E7800000 
 1581              	.LVL229:
 116:src/kObjectAllocatorTest.cpp ****     objAlloc->freeObject(objArr[38 * 8 + 5]);
 1582              		.loc 2 116 5 is_stmt 1
 116:src/kObjectAllocatorTest.cpp ****     objAlloc->freeObject(objArr[38 * 8 + 5]);
 1583              		.loc 2 116 25 is_stmt 0
 1584 0a20 8335097E 		ld	a1,2016(s2)
 1585 0a24 13850400 		mv	a0,s1
 1586 0a28 97000000 		call	_ZN16KObjectAllocator10freeObjectEPv@plt
 1586      E7800000 
 1587              	.LVL230:
 117:src/kObjectAllocatorTest.cpp **** 
 1588              		.loc 2 117 5 is_stmt 1
 117:src/kObjectAllocatorTest.cpp **** 
 1589              		.loc 2 117 25 is_stmt 0
 1590 0a30 833584F6 		ld	a1,-152(s0)
 1591 0a34 13850400 		mv	a0,s1
 1592 0a38 97000000 		call	_ZN16KObjectAllocator10freeObjectEPv@plt
 1592      E7800000 
 1593              	.LVL231:
 119:src/kObjectAllocatorTest.cpp ****     if (getByteOfObject(objArr[7 * 8 + 4], objAlloc) != 7
 1594              		.loc 2 119 5 is_stmt 1
 119:src/kObjectAllocatorTest.cpp ****     if (getByteOfObject(objArr[7 * 8 + 4], objAlloc) != 7
 1595              		.loc 2 119 52 is_stmt 0
 1596 0a40 13850400 		mv	a0,s1
 1597 0a44 97000000 		call	_ZN16KObjectAllocator17allocateNewObjectEv@plt
 1597      E7800000 
 1598              	.LVL232:
 1599 0a4c 13090500 		mv	s2,a0
 120:src/kObjectAllocatorTest.cpp ****         || getBitOfObject(objArr[7 * 8 + 4], objAlloc) != 3)
 1600              		.loc 2 120 5 is_stmt 1
 120:src/kObjectAllocatorTest.cpp ****         || getBitOfObject(objArr[7 * 8 + 4], objAlloc) != 3)
 1601              		.loc 2 120 24 is_stmt 0
 1602 0a50 13860400 		mv	a2,s1
 1603 0a54 93050500 		mv	a1,a0
 1604 0a58 13850900 		mv	a0,s3
GAS LISTING /tmp/ccbSKEpy.s 			page 41


 1605 0a5c 97000000 		call	_ZN20KObjectAllocatorTest15getByteOfObjectEPvP16KObjectAllocator
 1605      E7800000 
 1606              	.LVL233:
 121:src/kObjectAllocatorTest.cpp ****         { delete objAlloc; return false; }
 1607              		.loc 2 121 9
 1608 0a64 93077000 		li	a5,7
 1609 0a68 6312F504 		bne	a0,a5,.L85
 121:src/kObjectAllocatorTest.cpp ****         { delete objAlloc; return false; }
 1610              		.loc 2 121 26 discriminator 2
 1611 0a6c 13860400 		mv	a2,s1
 1612 0a70 93050900 		mv	a1,s2
 1613 0a74 13850900 		mv	a0,s3
 1614 0a78 97000000 		call	_ZN20KObjectAllocatorTest14getBitOfObjectEPvP16KObjectAllocator
 1614      E7800000 
 1615              	.LVL234:
 121:src/kObjectAllocatorTest.cpp ****         { delete objAlloc; return false; }
 1616              		.loc 2 121 9 discriminator 2
 1617 0a80 93073000 		li	a5,3
 1618 0a84 6314F502 		bne	a0,a5,.L85
 123:src/kObjectAllocatorTest.cpp ****     objAlloc->freeObject(objArr[3 * 8 + 5]);
 1619              		.loc 2 123 5 is_stmt 1
 123:src/kObjectAllocatorTest.cpp ****     objAlloc->freeObject(objArr[3 * 8 + 5]);
 1620              		.loc 2 123 19 is_stmt 0
 1621 0a88 03B78402 		ld	a4,40(s1)
 123:src/kObjectAllocatorTest.cpp ****     objAlloc->freeObject(objArr[3 * 8 + 5]);
 1622              		.loc 2 123 5
 1623 0a8c 93077000 		li	a5,7
 1624 0a90 630AF702 		beq	a4,a5,.L128
 123:src/kObjectAllocatorTest.cpp ****     objAlloc->freeObject(objArr[3 * 8 + 5]);
 1625              		.loc 2 123 44 is_stmt 1 discriminator 1
 123:src/kObjectAllocatorTest.cpp ****     objAlloc->freeObject(objArr[3 * 8 + 5]);
 1626              		.loc 2 123 59 is_stmt 0 discriminator 1
 1627 0a94 63880400 		beqz	s1,.L89
 123:src/kObjectAllocatorTest.cpp ****     objAlloc->freeObject(objArr[3 * 8 + 5]);
 1628              		.loc 2 123 51 discriminator 2
 1629 0a98 13850400 		mv	a0,s1
 1630 0a9c 97000000 		call	_ZN16KObjectAllocatordlEPv
 1630      E7800000 
 1631              	.LVL235:
 1632              	.L89:
 123:src/kObjectAllocatorTest.cpp ****     objAlloc->freeObject(objArr[3 * 8 + 5]);
 1633              		.loc 2 123 61 is_stmt 1 discriminator 3
 123:src/kObjectAllocatorTest.cpp ****     objAlloc->freeObject(objArr[3 * 8 + 5]);
 1634              		.loc 2 123 68 is_stmt 0 discriminator 3
 1635 0aa4 13050000 		li	a0,0
 1636 0aa8 6FF01FC9 		j	.L120
 1637              	.L85:
 122:src/kObjectAllocatorTest.cpp ****     if (objAlloc->nextNonTakenByte != 7) { delete objAlloc; return false; }
 1638              		.loc 2 122 11 is_stmt 1 discriminator 3
 122:src/kObjectAllocatorTest.cpp ****     if (objAlloc->nextNonTakenByte != 7) { delete objAlloc; return false; }
 1639              		.loc 2 122 26 is_stmt 0 discriminator 3
 1640 0aac 63880400 		beqz	s1,.L88
 122:src/kObjectAllocatorTest.cpp ****     if (objAlloc->nextNonTakenByte != 7) { delete objAlloc; return false; }
 1641              		.loc 2 122 18 discriminator 1
 1642 0ab0 13850400 		mv	a0,s1
 1643 0ab4 97000000 		call	_ZN16KObjectAllocatordlEPv
 1643      E7800000 
GAS LISTING /tmp/ccbSKEpy.s 			page 42


 1644              	.LVL236:
 1645              	.L88:
 122:src/kObjectAllocatorTest.cpp ****     if (objAlloc->nextNonTakenByte != 7) { delete objAlloc; return false; }
 1646              		.loc 2 122 28 is_stmt 1 discriminator 2
 122:src/kObjectAllocatorTest.cpp ****     if (objAlloc->nextNonTakenByte != 7) { delete objAlloc; return false; }
 1647              		.loc 2 122 35 is_stmt 0 discriminator 2
 1648 0abc 13050000 		li	a0,0
 1649 0ac0 6FF09FC7 		j	.L120
 1650              	.L128:
 124:src/kObjectAllocatorTest.cpp **** 
 1651              		.loc 2 124 5 is_stmt 1
 124:src/kObjectAllocatorTest.cpp **** 
 1652              		.loc 2 124 25 is_stmt 0
 1653 0ac4 B7F7FFFF 		li	a5,-4096
 1654 0ac8 130704FC 		addi	a4,s0,-64
 1655 0acc B307F700 		add	a5,a4,a5
 1656 0ad0 83B5876E 		ld	a1,1768(a5)
 1657 0ad4 13850400 		mv	a0,s1
 1658 0ad8 97000000 		call	_ZN16KObjectAllocator10freeObjectEPv@plt
 1658      E7800000 
 1659              	.LVL237:
 126:src/kObjectAllocatorTest.cpp ****     if (getByteOfObject(objArr[38 * 8 + 5], objAlloc) != 38
 1660              		.loc 2 126 5 is_stmt 1
 126:src/kObjectAllocatorTest.cpp ****     if (getByteOfObject(objArr[38 * 8 + 5], objAlloc) != 38
 1661              		.loc 2 126 53 is_stmt 0
 1662 0ae0 13850400 		mv	a0,s1
 1663 0ae4 97000000 		call	_ZN16KObjectAllocator17allocateNewObjectEv@plt
 1663      E7800000 
 1664              	.LVL238:
 1665 0aec 13090500 		mv	s2,a0
 127:src/kObjectAllocatorTest.cpp ****         || getBitOfObject(objArr[38 * 8 + 5], objAlloc) != 2)
 1666              		.loc 2 127 5 is_stmt 1
 127:src/kObjectAllocatorTest.cpp ****         || getBitOfObject(objArr[38 * 8 + 5], objAlloc) != 2)
 1667              		.loc 2 127 24 is_stmt 0
 1668 0af0 13860400 		mv	a2,s1
 1669 0af4 93050500 		mv	a1,a0
 1670 0af8 13850900 		mv	a0,s3
 1671 0afc 97000000 		call	_ZN20KObjectAllocatorTest15getByteOfObjectEPvP16KObjectAllocator
 1671      E7800000 
 1672              	.LVL239:
 128:src/kObjectAllocatorTest.cpp ****     { delete objAlloc; return false; }
 1673              		.loc 2 128 9
 1674 0b04 93076002 		li	a5,38
 1675 0b08 6312F504 		bne	a0,a5,.L90
 128:src/kObjectAllocatorTest.cpp ****     { delete objAlloc; return false; }
 1676              		.loc 2 128 26 discriminator 2
 1677 0b0c 13860400 		mv	a2,s1
 1678 0b10 93050900 		mv	a1,s2
 1679 0b14 13850900 		mv	a0,s3
 1680 0b18 97000000 		call	_ZN20KObjectAllocatorTest14getBitOfObjectEPvP16KObjectAllocator
 1680      E7800000 
 1681              	.LVL240:
 128:src/kObjectAllocatorTest.cpp ****     { delete objAlloc; return false; }
 1682              		.loc 2 128 9 discriminator 2
 1683 0b20 93072000 		li	a5,2
 1684 0b24 6314F502 		bne	a0,a5,.L90
 130:src/kObjectAllocatorTest.cpp **** 
GAS LISTING /tmp/ccbSKEpy.s 			page 43


 1685              		.loc 2 130 5 is_stmt 1
 130:src/kObjectAllocatorTest.cpp **** 
 1686              		.loc 2 130 19 is_stmt 0
 1687 0b28 03B78402 		ld	a4,40(s1)
 130:src/kObjectAllocatorTest.cpp **** 
 1688              		.loc 2 130 5
 1689 0b2c 93076002 		li	a5,38
 1690 0b30 630AF702 		beq	a4,a5,.L129
 130:src/kObjectAllocatorTest.cpp **** 
 1691              		.loc 2 130 45 is_stmt 1 discriminator 1
 130:src/kObjectAllocatorTest.cpp **** 
 1692              		.loc 2 130 60 is_stmt 0 discriminator 1
 1693 0b34 63880400 		beqz	s1,.L94
 130:src/kObjectAllocatorTest.cpp **** 
 1694              		.loc 2 130 52 discriminator 2
 1695 0b38 13850400 		mv	a0,s1
 1696 0b3c 97000000 		call	_ZN16KObjectAllocatordlEPv
 1696      E7800000 
 1697              	.LVL241:
 1698              	.L94:
 130:src/kObjectAllocatorTest.cpp **** 
 1699              		.loc 2 130 62 is_stmt 1 discriminator 3
 130:src/kObjectAllocatorTest.cpp **** 
 1700              		.loc 2 130 69 is_stmt 0 discriminator 3
 1701 0b44 13050000 		li	a0,0
 1702 0b48 6FF01FBF 		j	.L120
 1703              	.L90:
 129:src/kObjectAllocatorTest.cpp ****     if (objAlloc->nextNonTakenByte != 38) { delete objAlloc; return false; }
 1704              		.loc 2 129 7 is_stmt 1 discriminator 3
 129:src/kObjectAllocatorTest.cpp ****     if (objAlloc->nextNonTakenByte != 38) { delete objAlloc; return false; }
 1705              		.loc 2 129 22 is_stmt 0 discriminator 3
 1706 0b4c 63880400 		beqz	s1,.L93
 129:src/kObjectAllocatorTest.cpp ****     if (objAlloc->nextNonTakenByte != 38) { delete objAlloc; return false; }
 1707              		.loc 2 129 14 discriminator 1
 1708 0b50 13850400 		mv	a0,s1
 1709 0b54 97000000 		call	_ZN16KObjectAllocatordlEPv
 1709      E7800000 
 1710              	.LVL242:
 1711              	.L93:
 129:src/kObjectAllocatorTest.cpp ****     if (objAlloc->nextNonTakenByte != 38) { delete objAlloc; return false; }
 1712              		.loc 2 129 24 is_stmt 1 discriminator 2
 129:src/kObjectAllocatorTest.cpp ****     if (objAlloc->nextNonTakenByte != 38) { delete objAlloc; return false; }
 1713              		.loc 2 129 31 is_stmt 0 discriminator 2
 1714 0b5c 13050000 		li	a0,0
 1715 0b60 6FF09FBD 		j	.L120
 1716              	.L129:
 133:src/kObjectAllocatorTest.cpp ****     if (getByteOfObject(objArr[3 * 8 + 5], objAlloc) != 3 || getBitOfObject(objArr[3 * 8 + 5], objA
 1717              		.loc 2 133 5 is_stmt 1
 133:src/kObjectAllocatorTest.cpp ****     if (getByteOfObject(objArr[3 * 8 + 5], objAlloc) != 3 || getBitOfObject(objArr[3 * 8 + 5], objA
 1718              		.loc 2 133 52 is_stmt 0
 1719 0b64 13850400 		mv	a0,s1
 1720 0b68 97000000 		call	_ZN16KObjectAllocator17allocateNewObjectEv@plt
 1720      E7800000 
 1721              	.LVL243:
 1722 0b70 13090500 		mv	s2,a0
 134:src/kObjectAllocatorTest.cpp ****     if (objAlloc->nextNonTakenByte != 3) { delete objAlloc; return false; }
 1723              		.loc 2 134 5 is_stmt 1
GAS LISTING /tmp/ccbSKEpy.s 			page 44


 134:src/kObjectAllocatorTest.cpp ****     if (objAlloc->nextNonTakenByte != 3) { delete objAlloc; return false; }
 1724              		.loc 2 134 24 is_stmt 0
 1725 0b74 13860400 		mv	a2,s1
 1726 0b78 93050500 		mv	a1,a0
 1727 0b7c 13850900 		mv	a0,s3
 1728 0b80 97000000 		call	_ZN20KObjectAllocatorTest15getByteOfObjectEPvP16KObjectAllocator
 1728      E7800000 
 1729              	.LVL244:
 134:src/kObjectAllocatorTest.cpp ****     if (objAlloc->nextNonTakenByte != 3) { delete objAlloc; return false; }
 1730              		.loc 2 134 59
 1731 0b88 93073000 		li	a5,3
 1732 0b8c 6304F502 		beq	a0,a5,.L130
 1733              	.L95:
 135:src/kObjectAllocatorTest.cpp **** 
 1734              		.loc 2 135 5 is_stmt 1 discriminator 3
 135:src/kObjectAllocatorTest.cpp **** 
 1735              		.loc 2 135 19 is_stmt 0 discriminator 3
 1736 0b90 03B78402 		ld	a4,40(s1)
 135:src/kObjectAllocatorTest.cpp **** 
 1737              		.loc 2 135 5 discriminator 3
 1738 0b94 93073000 		li	a5,3
 1739 0b98 630CF702 		beq	a4,a5,.L96
 135:src/kObjectAllocatorTest.cpp **** 
 1740              		.loc 2 135 44 is_stmt 1 discriminator 1
 135:src/kObjectAllocatorTest.cpp **** 
 1741              		.loc 2 135 59 is_stmt 0 discriminator 1
 1742 0b9c 63880400 		beqz	s1,.L97
 135:src/kObjectAllocatorTest.cpp **** 
 1743              		.loc 2 135 51 discriminator 2
 1744 0ba0 13850400 		mv	a0,s1
 1745 0ba4 97000000 		call	_ZN16KObjectAllocatordlEPv
 1745      E7800000 
 1746              	.LVL245:
 1747              	.L97:
 135:src/kObjectAllocatorTest.cpp **** 
 1748              		.loc 2 135 61 is_stmt 1 discriminator 3
 135:src/kObjectAllocatorTest.cpp **** 
 1749              		.loc 2 135 68 is_stmt 0 discriminator 3
 1750 0bac 13050000 		li	a0,0
 1751 0bb0 6FF09FB8 		j	.L120
 1752              	.L130:
 134:src/kObjectAllocatorTest.cpp ****     if (objAlloc->nextNonTakenByte != 3) { delete objAlloc; return false; }
 1753              		.loc 2 134 76 discriminator 2
 1754 0bb4 13860400 		mv	a2,s1
 1755 0bb8 93050900 		mv	a1,s2
 1756 0bbc 13850900 		mv	a0,s3
 1757 0bc0 97000000 		call	_ZN20KObjectAllocatorTest14getBitOfObjectEPvP16KObjectAllocator
 1757      E7800000 
 1758              	.LVL246:
 134:src/kObjectAllocatorTest.cpp ****     if (objAlloc->nextNonTakenByte != 3) { delete objAlloc; return false; }
 1759              		.loc 2 134 59 discriminator 2
 1760 0bc8 93072000 		li	a5,2
 1761 0bcc E312F5FC 		bne	a0,a5,.L95
 1762              	.L96:
 137:src/kObjectAllocatorTest.cpp ****     if (getByteOfObject(objArr[6 * 8 + 3], objAlloc) != 6
 1763              		.loc 2 137 5 is_stmt 1
 137:src/kObjectAllocatorTest.cpp ****     if (getByteOfObject(objArr[6 * 8 + 3], objAlloc) != 6
GAS LISTING /tmp/ccbSKEpy.s 			page 45


 1764              		.loc 2 137 52 is_stmt 0
 1765 0bd0 13850400 		mv	a0,s1
 1766 0bd4 97000000 		call	_ZN16KObjectAllocator17allocateNewObjectEv@plt
 1766      E7800000 
 1767              	.LVL247:
 1768 0bdc 13090500 		mv	s2,a0
 138:src/kObjectAllocatorTest.cpp ****         || getBitOfObject(objArr[6 * 8 + 3], objAlloc) != 4)
 1769              		.loc 2 138 5 is_stmt 1
 138:src/kObjectAllocatorTest.cpp ****         || getBitOfObject(objArr[6 * 8 + 3], objAlloc) != 4)
 1770              		.loc 2 138 24 is_stmt 0
 1771 0be0 13860400 		mv	a2,s1
 1772 0be4 93050500 		mv	a1,a0
 1773 0be8 13850900 		mv	a0,s3
 1774 0bec 97000000 		call	_ZN20KObjectAllocatorTest15getByteOfObjectEPvP16KObjectAllocator
 1774      E7800000 
 1775              	.LVL248:
 139:src/kObjectAllocatorTest.cpp ****     { delete objAlloc; return false; }
 1776              		.loc 2 139 9
 1777 0bf4 93076000 		li	a5,6
 1778 0bf8 6318F510 		bne	a0,a5,.L98
 139:src/kObjectAllocatorTest.cpp ****     { delete objAlloc; return false; }
 1779              		.loc 2 139 26 discriminator 2
 1780 0bfc 13860400 		mv	a2,s1
 1781 0c00 93050900 		mv	a1,s2
 1782 0c04 13850900 		mv	a0,s3
 1783 0c08 97000000 		call	_ZN20KObjectAllocatorTest14getBitOfObjectEPvP16KObjectAllocator
 1783      E7800000 
 1784              	.LVL249:
 139:src/kObjectAllocatorTest.cpp ****     { delete objAlloc; return false; }
 1785              		.loc 2 139 9 discriminator 2
 1786 0c10 93074000 		li	a5,4
 1787 0c14 631AF50E 		bne	a0,a5,.L98
 141:src/kObjectAllocatorTest.cpp **** 
 1788              		.loc 2 141 5 is_stmt 1
 141:src/kObjectAllocatorTest.cpp **** 
 1789              		.loc 2 141 19 is_stmt 0
 1790 0c18 03B78402 		ld	a4,40(s1)
 141:src/kObjectAllocatorTest.cpp **** 
 1791              		.loc 2 141 5
 1792 0c1c 93076000 		li	a5,6
 1793 0c20 6310F710 		bne	a4,a5,.L99
 1794              	.LBB175:
 143:src/kObjectAllocatorTest.cpp ****         objAlloc->freeObject(objArr[319]);
 1795              		.loc 2 143 14
 1796 0c24 930A0000 		li	s5,0
 1797              	.L100:
 1798              	.LVL250:
 143:src/kObjectAllocatorTest.cpp ****         objAlloc->freeObject(objArr[319]);
 1799              		.loc 2 143 23 is_stmt 1 discriminator 1
 1800 0c28 93073006 		li	a5,99
 1801 0c2c 63C65717 		bgt	s5,a5,.L103
 144:src/kObjectAllocatorTest.cpp ****         objArr[319] = objAlloc->allocateNewObject();
 1802              		.loc 2 144 9
 144:src/kObjectAllocatorTest.cpp ****         objArr[319] = objAlloc->allocateNewObject();
 1803              		.loc 2 144 29 is_stmt 0
 1804 0c30 833584FB 		ld	a1,-72(s0)
 1805 0c34 13850400 		mv	a0,s1
GAS LISTING /tmp/ccbSKEpy.s 			page 46


 1806 0c38 97000000 		call	_ZN16KObjectAllocator10freeObjectEPv@plt
 1806      E7800000 
 1807              	.LVL251:
 145:src/kObjectAllocatorTest.cpp ****         if (getByteOfObject(objArr[319], objAlloc) != 39
 1808              		.loc 2 145 9 is_stmt 1
 145:src/kObjectAllocatorTest.cpp ****         if (getByteOfObject(objArr[319], objAlloc) != 39
 1809              		.loc 2 145 50 is_stmt 0
 1810 0c40 13850400 		mv	a0,s1
 1811 0c44 97000000 		call	_ZN16KObjectAllocator17allocateNewObjectEv@plt
 1811      E7800000 
 1812              	.LVL252:
 1813 0c4c 13090500 		mv	s2,a0
 145:src/kObjectAllocatorTest.cpp ****         if (getByteOfObject(objArr[319], objAlloc) != 39
 1814              		.loc 2 145 21
 1815 0c50 233CA4FA 		sd	a0,-72(s0)
 146:src/kObjectAllocatorTest.cpp ****             || getBitOfObject(objArr[319], objAlloc) != 0)
 1816              		.loc 2 146 9 is_stmt 1
 146:src/kObjectAllocatorTest.cpp ****             || getBitOfObject(objArr[319], objAlloc) != 0)
 1817              		.loc 2 146 28 is_stmt 0
 1818 0c54 13860400 		mv	a2,s1
 1819 0c58 93050500 		mv	a1,a0
 1820 0c5c 13850900 		mv	a0,s3
 1821 0c60 97000000 		call	_ZN20KObjectAllocatorTest15getByteOfObjectEPvP16KObjectAllocator
 1821      E7800000 
 1822              	.LVL253:
 147:src/kObjectAllocatorTest.cpp ****         { delete objAlloc; return false; }
 1823              		.loc 2 147 13
 1824 0c68 93077002 		li	a5,39
 1825 0c6c 6316F50C 		bne	a0,a5,.L104
 147:src/kObjectAllocatorTest.cpp ****         { delete objAlloc; return false; }
 1826              		.loc 2 147 30 discriminator 2
 1827 0c70 13860400 		mv	a2,s1
 1828 0c74 93050900 		mv	a1,s2
 1829 0c78 13850900 		mv	a0,s3
 1830 0c7c 97000000 		call	_ZN20KObjectAllocatorTest14getBitOfObjectEPvP16KObjectAllocator
 1830      E7800000 
 1831              	.LVL254:
 147:src/kObjectAllocatorTest.cpp ****         { delete objAlloc; return false; }
 1832              		.loc 2 147 13 discriminator 2
 1833 0c84 631A050A 		bnez	a0,.L104
 149:src/kObjectAllocatorTest.cpp **** 
 1834              		.loc 2 149 9 is_stmt 1
 149:src/kObjectAllocatorTest.cpp **** 
 1835              		.loc 2 149 23 is_stmt 0
 1836 0c88 03B78402 		ld	a4,40(s1)
 149:src/kObjectAllocatorTest.cpp **** 
 1837              		.loc 2 149 9
 1838 0c8c 93078002 		li	a5,40
 1839 0c90 6310F70C 		bne	a4,a5,.L131
 151:src/kObjectAllocatorTest.cpp ****         objArr[1] = objAlloc->allocateNewObject();
 1840              		.loc 2 151 9 is_stmt 1
 151:src/kObjectAllocatorTest.cpp ****         objArr[1] = objAlloc->allocateNewObject();
 1841              		.loc 2 151 29 is_stmt 0
 1842 0c94 37FAFFFF 		li	s4,-4096
 1843 0c98 930704FC 		addi	a5,s0,-64
 1844 0c9c 338A4701 		add	s4,a5,s4
 1845 0ca0 83358A60 		ld	a1,1544(s4)
GAS LISTING /tmp/ccbSKEpy.s 			page 47


 1846 0ca4 13850400 		mv	a0,s1
 1847 0ca8 97000000 		call	_ZN16KObjectAllocator10freeObjectEPv@plt
 1847      E7800000 
 1848              	.LVL255:
 152:src/kObjectAllocatorTest.cpp ****         if (getByteOfObject(objArr[1], objAlloc) != 0
 1849              		.loc 2 152 9 is_stmt 1
 152:src/kObjectAllocatorTest.cpp ****         if (getByteOfObject(objArr[1], objAlloc) != 0
 1850              		.loc 2 152 48 is_stmt 0
 1851 0cb0 13850400 		mv	a0,s1
 1852 0cb4 97000000 		call	_ZN16KObjectAllocator17allocateNewObjectEv@plt
 1852      E7800000 
 1853              	.LVL256:
 1854 0cbc 13090500 		mv	s2,a0
 152:src/kObjectAllocatorTest.cpp ****         if (getByteOfObject(objArr[1], objAlloc) != 0
 1855              		.loc 2 152 19
 1856 0cc0 2334AA60 		sd	a0,1544(s4)
 153:src/kObjectAllocatorTest.cpp ****             || getBitOfObject(objArr[1], objAlloc) != 6)
 1857              		.loc 2 153 9 is_stmt 1
 153:src/kObjectAllocatorTest.cpp ****             || getBitOfObject(objArr[1], objAlloc) != 6)
 1858              		.loc 2 153 28 is_stmt 0
 1859 0cc4 13860400 		mv	a2,s1
 1860 0cc8 93050500 		mv	a1,a0
 1861 0ccc 13850900 		mv	a0,s3
 1862 0cd0 97000000 		call	_ZN20KObjectAllocatorTest15getByteOfObjectEPvP16KObjectAllocator
 1862      E7800000 
 1863              	.LVL257:
 154:src/kObjectAllocatorTest.cpp ****         { delete objAlloc; return false; }
 1864              		.loc 2 154 13
 1865 0cd8 63180508 		bnez	a0,.L109
 154:src/kObjectAllocatorTest.cpp ****         { delete objAlloc; return false; }
 1866              		.loc 2 154 30 discriminator 2
 1867 0cdc 13860400 		mv	a2,s1
 1868 0ce0 93050900 		mv	a1,s2
 1869 0ce4 13850900 		mv	a0,s3
 1870 0ce8 97000000 		call	_ZN20KObjectAllocatorTest14getBitOfObjectEPvP16KObjectAllocator
 1870      E7800000 
 1871              	.LVL258:
 154:src/kObjectAllocatorTest.cpp ****         { delete objAlloc; return false; }
 1872              		.loc 2 154 13 discriminator 2
 1873 0cf0 93076000 		li	a5,6
 1874 0cf4 631AF506 		bne	a0,a5,.L109
 156:src/kObjectAllocatorTest.cpp ****     }
 1875              		.loc 2 156 9 is_stmt 1
 156:src/kObjectAllocatorTest.cpp ****     }
 1876              		.loc 2 156 23 is_stmt 0
 1877 0cf8 83B78402 		ld	a5,40(s1)
 156:src/kObjectAllocatorTest.cpp ****     }
 1878              		.loc 2 156 9
 1879 0cfc 63920708 		bnez	a5,.L132
 143:src/kObjectAllocatorTest.cpp ****         objAlloc->freeObject(objArr[319]);
 1880              		.loc 2 143 5 is_stmt 1 discriminator 2
 1881 0d00 9B8A1A00 		addiw	s5,s5,1
 1882              	.LVL259:
 1883 0d04 6FF05FF2 		j	.L100
 1884              	.L98:
 1885              	.LBE175:
 140:src/kObjectAllocatorTest.cpp ****     if (objAlloc->nextNonTakenByte != 6) { delete objAlloc; return false; }
GAS LISTING /tmp/ccbSKEpy.s 			page 48


 1886              		.loc 2 140 7 discriminator 3
 140:src/kObjectAllocatorTest.cpp ****     if (objAlloc->nextNonTakenByte != 6) { delete objAlloc; return false; }
 1887              		.loc 2 140 22 is_stmt 0 discriminator 3
 1888 0d08 63880400 		beqz	s1,.L101
 140:src/kObjectAllocatorTest.cpp ****     if (objAlloc->nextNonTakenByte != 6) { delete objAlloc; return false; }
 1889              		.loc 2 140 14 discriminator 1
 1890 0d0c 13850400 		mv	a0,s1
 1891 0d10 97000000 		call	_ZN16KObjectAllocatordlEPv
 1891      E7800000 
 1892              	.LVL260:
 1893              	.L101:
 140:src/kObjectAllocatorTest.cpp ****     if (objAlloc->nextNonTakenByte != 6) { delete objAlloc; return false; }
 1894              		.loc 2 140 24 is_stmt 1 discriminator 2
 140:src/kObjectAllocatorTest.cpp ****     if (objAlloc->nextNonTakenByte != 6) { delete objAlloc; return false; }
 1895              		.loc 2 140 31 is_stmt 0 discriminator 2
 1896 0d18 13050000 		li	a0,0
 1897 0d1c 6FF0DFA1 		j	.L120
 1898              	.L99:
 141:src/kObjectAllocatorTest.cpp **** 
 1899              		.loc 2 141 44 is_stmt 1 discriminator 1
 141:src/kObjectAllocatorTest.cpp **** 
 1900              		.loc 2 141 59 is_stmt 0 discriminator 1
 1901 0d20 63880400 		beqz	s1,.L102
 141:src/kObjectAllocatorTest.cpp **** 
 1902              		.loc 2 141 51 discriminator 2
 1903 0d24 13850400 		mv	a0,s1
 1904 0d28 97000000 		call	_ZN16KObjectAllocatordlEPv
 1904      E7800000 
 1905              	.LVL261:
 1906              	.L102:
 141:src/kObjectAllocatorTest.cpp **** 
 1907              		.loc 2 141 61 is_stmt 1 discriminator 3
 141:src/kObjectAllocatorTest.cpp **** 
 1908              		.loc 2 141 68 is_stmt 0 discriminator 3
 1909 0d30 13050000 		li	a0,0
 1910 0d34 6FF05FA0 		j	.L120
 1911              	.LVL262:
 1912              	.L104:
 1913              	.LBB176:
 148:src/kObjectAllocatorTest.cpp ****         if (objAlloc->nextNonTakenByte != 40) { delete objAlloc; return false; }
 1914              		.loc 2 148 11 is_stmt 1 discriminator 3
 148:src/kObjectAllocatorTest.cpp ****         if (objAlloc->nextNonTakenByte != 40) { delete objAlloc; return false; }
 1915              		.loc 2 148 26 is_stmt 0 discriminator 3
 1916 0d38 63880400 		beqz	s1,.L107
 148:src/kObjectAllocatorTest.cpp ****         if (objAlloc->nextNonTakenByte != 40) { delete objAlloc; return false; }
 1917              		.loc 2 148 18 discriminator 1
 1918 0d3c 13850400 		mv	a0,s1
 1919 0d40 97000000 		call	_ZN16KObjectAllocatordlEPv
 1919      E7800000 
 1920              	.LVL263:
 1921              	.L107:
 148:src/kObjectAllocatorTest.cpp ****         if (objAlloc->nextNonTakenByte != 40) { delete objAlloc; return false; }
 1922              		.loc 2 148 28 is_stmt 1 discriminator 2
 148:src/kObjectAllocatorTest.cpp ****         if (objAlloc->nextNonTakenByte != 40) { delete objAlloc; return false; }
 1923              		.loc 2 148 35 is_stmt 0 discriminator 2
 1924 0d48 13050000 		li	a0,0
 1925 0d4c 6FF0DF9E 		j	.L120
GAS LISTING /tmp/ccbSKEpy.s 			page 49


 1926              	.L131:
 149:src/kObjectAllocatorTest.cpp **** 
 1927              		.loc 2 149 49 is_stmt 1 discriminator 1
 149:src/kObjectAllocatorTest.cpp **** 
 1928              		.loc 2 149 64 is_stmt 0 discriminator 1
 1929 0d50 63880400 		beqz	s1,.L108
 149:src/kObjectAllocatorTest.cpp **** 
 1930              		.loc 2 149 56 discriminator 2
 1931 0d54 13850400 		mv	a0,s1
 1932 0d58 97000000 		call	_ZN16KObjectAllocatordlEPv
 1932      E7800000 
 1933              	.LVL264:
 1934              	.L108:
 149:src/kObjectAllocatorTest.cpp **** 
 1935              		.loc 2 149 66 is_stmt 1 discriminator 3
 149:src/kObjectAllocatorTest.cpp **** 
 1936              		.loc 2 149 73 is_stmt 0 discriminator 3
 1937 0d60 13050000 		li	a0,0
 1938 0d64 6FF05F9D 		j	.L120
 1939              	.L109:
 155:src/kObjectAllocatorTest.cpp ****         if (objAlloc->nextNonTakenByte != 0) { delete objAlloc; return false; }
 1940              		.loc 2 155 11 is_stmt 1 discriminator 3
 155:src/kObjectAllocatorTest.cpp ****         if (objAlloc->nextNonTakenByte != 0) { delete objAlloc; return false; }
 1941              		.loc 2 155 26 is_stmt 0 discriminator 3
 1942 0d68 63880400 		beqz	s1,.L112
 155:src/kObjectAllocatorTest.cpp ****         if (objAlloc->nextNonTakenByte != 0) { delete objAlloc; return false; }
 1943              		.loc 2 155 18 discriminator 1
 1944 0d6c 13850400 		mv	a0,s1
 1945 0d70 97000000 		call	_ZN16KObjectAllocatordlEPv
 1945      E7800000 
 1946              	.LVL265:
 1947              	.L112:
 155:src/kObjectAllocatorTest.cpp ****         if (objAlloc->nextNonTakenByte != 0) { delete objAlloc; return false; }
 1948              		.loc 2 155 28 is_stmt 1 discriminator 2
 155:src/kObjectAllocatorTest.cpp ****         if (objAlloc->nextNonTakenByte != 0) { delete objAlloc; return false; }
 1949              		.loc 2 155 35 is_stmt 0 discriminator 2
 1950 0d78 13050000 		li	a0,0
 1951 0d7c 6FF0DF9B 		j	.L120
 1952              	.L132:
 156:src/kObjectAllocatorTest.cpp ****     }
 1953              		.loc 2 156 48 is_stmt 1 discriminator 1
 156:src/kObjectAllocatorTest.cpp ****     }
 1954              		.loc 2 156 63 is_stmt 0 discriminator 1
 1955 0d80 63880400 		beqz	s1,.L113
 156:src/kObjectAllocatorTest.cpp ****     }
 1956              		.loc 2 156 55 discriminator 2
 1957 0d84 13850400 		mv	a0,s1
 1958 0d88 97000000 		call	_ZN16KObjectAllocatordlEPv
 1958      E7800000 
 1959              	.LVL266:
 1960              	.L113:
 156:src/kObjectAllocatorTest.cpp ****     }
 1961              		.loc 2 156 65 is_stmt 1 discriminator 3
 156:src/kObjectAllocatorTest.cpp ****     }
 1962              		.loc 2 156 72 is_stmt 0 discriminator 3
 1963 0d90 13050000 		li	a0,0
 1964 0d94 6FF05F9A 		j	.L120
GAS LISTING /tmp/ccbSKEpy.s 			page 50


 1965              	.L103:
 1966              	.LBE176:
 159:src/kObjectAllocatorTest.cpp ****     delete objAlloc;
 1967              		.loc 2 159 5 is_stmt 1
 159:src/kObjectAllocatorTest.cpp ****     delete objAlloc;
 1968              		.loc 2 159 36 is_stmt 0
 1969 0d98 13850400 		mv	a0,s1
 1970 0d9c 97000000 		call	_ZN16KObjectAllocator17allocateNewObjectEv@plt
 1970      E7800000 
 1971              	.LVL267:
 159:src/kObjectAllocatorTest.cpp ****     delete objAlloc;
 1972              		.loc 2 159 5
 1973 0da4 630E0500 		beqz	a0,.L114
 159:src/kObjectAllocatorTest.cpp ****     delete objAlloc;
 1974              		.loc 2 159 42 is_stmt 1 discriminator 2
 159:src/kObjectAllocatorTest.cpp ****     delete objAlloc;
 1975              		.loc 2 159 57 is_stmt 0 discriminator 2
 1976 0da8 63880400 		beqz	s1,.L115
 159:src/kObjectAllocatorTest.cpp ****     delete objAlloc;
 1977              		.loc 2 159 49 discriminator 3
 1978 0dac 13850400 		mv	a0,s1
 1979 0db0 97000000 		call	_ZN16KObjectAllocatordlEPv
 1979      E7800000 
 1980              	.LVL268:
 1981              	.L115:
 159:src/kObjectAllocatorTest.cpp ****     delete objAlloc;
 1982              		.loc 2 159 59 is_stmt 1 discriminator 4
 159:src/kObjectAllocatorTest.cpp ****     delete objAlloc;
 1983              		.loc 2 159 66 is_stmt 0 discriminator 4
 1984 0db8 13050000 		li	a0,0
 1985 0dbc 6FF0DF97 		j	.L120
 1986              	.L114:
 160:src/kObjectAllocatorTest.cpp ****     return true;
 1987              		.loc 2 160 5 is_stmt 1
 160:src/kObjectAllocatorTest.cpp ****     return true;
 1988              		.loc 2 160 20 is_stmt 0
 1989 0dc0 638C0400 		beqz	s1,.L118
 160:src/kObjectAllocatorTest.cpp ****     return true;
 1990              		.loc 2 160 12 discriminator 1
 1991 0dc4 13850400 		mv	a0,s1
 1992 0dc8 97000000 		call	_ZN16KObjectAllocatordlEPv
 1992      E7800000 
 1993              	.LVL269:
 1994              	.LEHE6:
 161:src/kObjectAllocatorTest.cpp **** }
 1995              		.loc 2 161 12 discriminator 1
 1996 0dd0 13051000 		li	a0,1
 1997 0dd4 6FF05F96 		j	.L120
 1998              	.L118:
 161:src/kObjectAllocatorTest.cpp **** }
 1999              		.loc 2 161 12
 2000 0dd8 13051000 		li	a0,1
 2001 0ddc 6FF0DF95 		j	.L120
 2002              	.LVL270:
 2003              	.L119:
 2004 0de0 13090500 		mv	s2,a0
 2005              	.LVL271:
GAS LISTING /tmp/ccbSKEpy.s 			page 51


  95:src/kObjectAllocatorTest.cpp ****     if (objAlloc->getNumberOfObjects() != 320) { delete objAlloc; return false; }
 2006              		.loc 2 95 59
 2007 0de4 13850400 		mv	a0,s1
 2008 0de8 97000000 		call	_ZN16KObjectAllocatordlEPv
 2008      E7800000 
 2009              	.LVL272:
 2010 0df0 13050900 		mv	a0,s2
 2011              	.LEHB7:
 2012 0df4 97000000 		call	_Unwind_Resume@plt
 2012      E7800000 
 2013              	.LVL273:
 2014              	.LEHE7:
 2015              		.cfi_endproc
 2016              	.LFE26:
 2017              		.section	.gcc_except_table
 2018              	.LLSDA26:
 2019 0038 FF       		.byte	0xff
 2020 0039 FF       		.byte	0xff
 2021 003a 03       		.byte	0x3
 2022 003b 34       		.byte	0x34
 2023 003c 00000000 		.4byte	.LEHB4-.LFB26
 2024 0040 00000000 		.4byte	.LEHE4-.LEHB4
 2025 0044 00000000 		.4byte	0
 2026 0048 00       		.byte	0
 2027 0049 00000000 		.4byte	.LEHB5-.LFB26
 2028 004d 00000000 		.4byte	.LEHE5-.LEHB5
 2029 0051 00000000 		.4byte	.L119-.LFB26
 2030 0055 00       		.byte	0
 2031 0056 00000000 		.4byte	.LEHB6-.LFB26
 2032 005a 00000000 		.4byte	.LEHE6-.LEHB6
 2033 005e 00000000 		.4byte	0
 2034 0062 00       		.byte	0
 2035 0063 00000000 		.4byte	.LEHB7-.LFB26
 2036 0067 00000000 		.4byte	.LEHE7-.LEHB7
 2037 006b 00000000 		.4byte	0
 2038 006f 00       		.byte	0
 2039              		.text
 2041              		.align	2
 2042              		.globl	_ZN20KObjectAllocatorTest5test2Em
 2044              	_ZN20KObjectAllocatorTest5test2Em:
 2045              	.LFB27:
 163:src/kObjectAllocatorTest.cpp **** 
 164:src/kObjectAllocatorTest.cpp **** bool KObjectAllocatorTest::test2(size_t size) {
 2046              		.loc 2 164 47 is_stmt 1
 2047              		.cfi_startproc
 2048              	.LVL274:
 2049 0dfc 130101FF 		addi	sp,sp,-16
 2050              		.cfi_def_cfa_offset 16
 2051 0e00 23348100 		sd	s0,8(sp)
 2052              		.cfi_offset 8, -8
 2053 0e04 13040101 		addi	s0,sp,16
 2054              		.cfi_def_cfa 8, 0
 165:src/kObjectAllocatorTest.cpp ****     return true;
 2055              		.loc 2 165 5
 166:src/kObjectAllocatorTest.cpp **** }
 2056              		.loc 2 166 1 is_stmt 0
 2057 0e08 13051000 		li	a0,1
GAS LISTING /tmp/ccbSKEpy.s 			page 52


 2058              	.LVL275:
 2059 0e0c 03348100 		ld	s0,8(sp)
 2060              		.cfi_restore 8
 2061              		.cfi_def_cfa 2, 16
 2062 0e10 13010101 		addi	sp,sp,16
 2063              		.cfi_def_cfa_offset 0
 2064 0e14 67800000 		jr	ra
 2065              		.cfi_endproc
 2066              	.LFE27:
 2068              		.align	2
 2069              		.globl	_ZN20KObjectAllocatorTest5test3Em
 2071              	_ZN20KObjectAllocatorTest5test3Em:
 2072              	.LFB28:
 167:src/kObjectAllocatorTest.cpp **** 
 168:src/kObjectAllocatorTest.cpp **** bool KObjectAllocatorTest::test3(size_t size) {
 2073              		.loc 2 168 47 is_stmt 1
 2074              		.cfi_startproc
 2075              	.LVL276:
 2076 0e18 130101FF 		addi	sp,sp,-16
 2077              		.cfi_def_cfa_offset 16
 2078 0e1c 23348100 		sd	s0,8(sp)
 2079              		.cfi_offset 8, -8
 2080 0e20 13040101 		addi	s0,sp,16
 2081              		.cfi_def_cfa 8, 0
 169:src/kObjectAllocatorTest.cpp ****     return true;
 2082              		.loc 2 169 5
 170:src/kObjectAllocatorTest.cpp **** }
 2083              		.loc 2 170 1 is_stmt 0
 2084 0e24 13051000 		li	a0,1
 2085              	.LVL277:
 2086 0e28 03348100 		ld	s0,8(sp)
 2087              		.cfi_restore 8
 2088              		.cfi_def_cfa 2, 16
 2089 0e2c 13010101 		addi	sp,sp,16
 2090              		.cfi_def_cfa_offset 0
 2091 0e30 67800000 		jr	ra
 2092              		.cfi_endproc
 2093              	.LFE28:
 2095              		.align	2
 2096              		.globl	_ZN20KObjectAllocatorTest5test4Em
 2098              	_ZN20KObjectAllocatorTest5test4Em:
 2099              	.LFB29:
 171:src/kObjectAllocatorTest.cpp **** 
 172:src/kObjectAllocatorTest.cpp **** bool KObjectAllocatorTest::test4(size_t size) {
 2100              		.loc 2 172 47 is_stmt 1
 2101              		.cfi_startproc
 2102              	.LVL278:
 2103 0e34 130101FF 		addi	sp,sp,-16
 2104              		.cfi_def_cfa_offset 16
 2105 0e38 23348100 		sd	s0,8(sp)
 2106              		.cfi_offset 8, -8
 2107 0e3c 13040101 		addi	s0,sp,16
 2108              		.cfi_def_cfa 8, 0
 173:src/kObjectAllocatorTest.cpp ****     return true;
 2109              		.loc 2 173 5
 174:src/kObjectAllocatorTest.cpp **** }
 2110              		.loc 2 174 1 is_stmt 0
GAS LISTING /tmp/ccbSKEpy.s 			page 53


 2111 0e40 13051000 		li	a0,1
 2112              	.LVL279:
 2113 0e44 03348100 		ld	s0,8(sp)
 2114              		.cfi_restore 8
 2115              		.cfi_def_cfa 2, 16
 2116 0e48 13010101 		addi	sp,sp,16
 2117              		.cfi_def_cfa_offset 0
 2118 0e4c 67800000 		jr	ra
 2119              		.cfi_endproc
 2120              	.LFE29:
 2122              		.align	2
 2123              		.globl	_ZN20KObjectAllocatorTest5test5Em
 2125              	_ZN20KObjectAllocatorTest5test5Em:
 2126              	.LFB30:
 175:src/kObjectAllocatorTest.cpp **** 
 176:src/kObjectAllocatorTest.cpp **** bool KObjectAllocatorTest::test5(size_t size) {
 2127              		.loc 2 176 47 is_stmt 1
 2128              		.cfi_startproc
 2129              	.LVL280:
 2130 0e50 130101FF 		addi	sp,sp,-16
 2131              		.cfi_def_cfa_offset 16
 2132 0e54 23348100 		sd	s0,8(sp)
 2133              		.cfi_offset 8, -8
 2134 0e58 13040101 		addi	s0,sp,16
 2135              		.cfi_def_cfa 8, 0
 177:src/kObjectAllocatorTest.cpp ****     return true;
 2136              		.loc 2 177 5
 178:src/kObjectAllocatorTest.cpp **** }
 2137              		.loc 2 178 1 is_stmt 0
 2138 0e5c 13051000 		li	a0,1
 2139              	.LVL281:
 2140 0e60 03348100 		ld	s0,8(sp)
 2141              		.cfi_restore 8
 2142              		.cfi_def_cfa 2, 16
 2143 0e64 13010101 		addi	sp,sp,16
 2144              		.cfi_def_cfa_offset 0
 2145 0e68 67800000 		jr	ra
 2146              		.cfi_endproc
 2147              	.LFE30:
 2149              		.align	2
 2150              		.globl	_ZN20KObjectAllocatorTest5test6Em
 2152              	_ZN20KObjectAllocatorTest5test6Em:
 2153              	.LFB31:
 179:src/kObjectAllocatorTest.cpp **** 
 180:src/kObjectAllocatorTest.cpp **** bool KObjectAllocatorTest::test6(size_t size) {
 2154              		.loc 2 180 47 is_stmt 1
 2155              		.cfi_startproc
 2156              	.LVL282:
 2157 0e6c 130101FF 		addi	sp,sp,-16
 2158              		.cfi_def_cfa_offset 16
 2159 0e70 23348100 		sd	s0,8(sp)
 2160              		.cfi_offset 8, -8
 2161 0e74 13040101 		addi	s0,sp,16
 2162              		.cfi_def_cfa 8, 0
 181:src/kObjectAllocatorTest.cpp ****     return true;
 2163              		.loc 2 181 5
 182:src/kObjectAllocatorTest.cpp **** }
GAS LISTING /tmp/ccbSKEpy.s 			page 54


 2164              		.loc 2 182 1 is_stmt 0
 2165 0e78 13051000 		li	a0,1
 2166              	.LVL283:
 2167 0e7c 03348100 		ld	s0,8(sp)
 2168              		.cfi_restore 8
 2169              		.cfi_def_cfa 2, 16
 2170 0e80 13010101 		addi	sp,sp,16
 2171              		.cfi_def_cfa_offset 0
 2172 0e84 67800000 		jr	ra
 2173              		.cfi_endproc
 2174              	.LFE31:
 2176              		.align	2
 2177              		.globl	_ZN20KObjectAllocatorTest5test7Em
 2179              	_ZN20KObjectAllocatorTest5test7Em:
 2180              	.LFB32:
 183:src/kObjectAllocatorTest.cpp **** 
 184:src/kObjectAllocatorTest.cpp **** bool KObjectAllocatorTest::test7(size_t size) {
 2181              		.loc 2 184 47 is_stmt 1
 2182              		.cfi_startproc
 2183              	.LVL284:
 2184 0e88 130101FF 		addi	sp,sp,-16
 2185              		.cfi_def_cfa_offset 16
 2186 0e8c 23348100 		sd	s0,8(sp)
 2187              		.cfi_offset 8, -8
 2188 0e90 13040101 		addi	s0,sp,16
 2189              		.cfi_def_cfa 8, 0
 185:src/kObjectAllocatorTest.cpp ****     return true;
 2190              		.loc 2 185 5
 186:src/kObjectAllocatorTest.cpp **** }
 2191              		.loc 2 186 1 is_stmt 0
 2192 0e94 13051000 		li	a0,1
 2193              	.LVL285:
 2194 0e98 03348100 		ld	s0,8(sp)
 2195              		.cfi_restore 8
 2196              		.cfi_def_cfa 2, 16
 2197 0e9c 13010101 		addi	sp,sp,16
 2198              		.cfi_def_cfa_offset 0
 2199 0ea0 67800000 		jr	ra
 2200              		.cfi_endproc
 2201              	.LFE32:
 2203              		.align	2
 2204              		.globl	_ZN20KObjectAllocatorTest5test8Em
 2206              	_ZN20KObjectAllocatorTest5test8Em:
 2207              	.LFB33:
 187:src/kObjectAllocatorTest.cpp **** 
 188:src/kObjectAllocatorTest.cpp **** bool KObjectAllocatorTest::test8(size_t size) {
 2208              		.loc 2 188 47 is_stmt 1
 2209              		.cfi_startproc
 2210              	.LVL286:
 2211 0ea4 130101FF 		addi	sp,sp,-16
 2212              		.cfi_def_cfa_offset 16
 2213 0ea8 23348100 		sd	s0,8(sp)
 2214              		.cfi_offset 8, -8
 2215 0eac 13040101 		addi	s0,sp,16
 2216              		.cfi_def_cfa 8, 0
 189:src/kObjectAllocatorTest.cpp ****     return true;
 2217              		.loc 2 189 5
GAS LISTING /tmp/ccbSKEpy.s 			page 55


 190:src/kObjectAllocatorTest.cpp **** }
 2218              		.loc 2 190 1 is_stmt 0
 2219 0eb0 13051000 		li	a0,1
 2220              	.LVL287:
 2221 0eb4 03348100 		ld	s0,8(sp)
 2222              		.cfi_restore 8
 2223              		.cfi_def_cfa 2, 16
 2224 0eb8 13010101 		addi	sp,sp,16
 2225              		.cfi_def_cfa_offset 0
 2226 0ebc 67800000 		jr	ra
 2227              		.cfi_endproc
 2228              	.LFE33:
 2230              		.align	2
 2231              		.globl	_ZN20KObjectAllocatorTest5test9Em
 2233              	_ZN20KObjectAllocatorTest5test9Em:
 2234              	.LFB34:
 191:src/kObjectAllocatorTest.cpp **** 
 192:src/kObjectAllocatorTest.cpp **** bool KObjectAllocatorTest::test9(size_t size) {
 2235              		.loc 2 192 47 is_stmt 1
 2236              		.cfi_startproc
 2237              	.LVL288:
 2238 0ec0 130101FF 		addi	sp,sp,-16
 2239              		.cfi_def_cfa_offset 16
 2240 0ec4 23348100 		sd	s0,8(sp)
 2241              		.cfi_offset 8, -8
 2242 0ec8 13040101 		addi	s0,sp,16
 2243              		.cfi_def_cfa 8, 0
 193:src/kObjectAllocatorTest.cpp ****     return true;
 2244              		.loc 2 193 5
 194:src/kObjectAllocatorTest.cpp **** }...
 2245              		.loc 2 194 1 is_stmt 0
 2246 0ecc 13051000 		li	a0,1
 2247              	.LVL289:
 2248 0ed0 03348100 		ld	s0,8(sp)
 2249              		.cfi_restore 8
 2250              		.cfi_def_cfa 2, 16
 2251 0ed4 13010101 		addi	sp,sp,16
 2252              		.cfi_def_cfa_offset 0
 2253 0ed8 67800000 		jr	ra
 2254              		.cfi_endproc
 2255              	.LFE34:
 2257              		.align	2
 2258              		.globl	_ZN20KObjectAllocatorTest4testEmm
 2260              	_ZN20KObjectAllocatorTest4testEmm:
 2261              	.LFB20:
  16:src/kObjectAllocatorTest.cpp **** bool KObjectAllocatorTest::test(size_t i, size_t size) {
 2262              		.loc 2 16 56 is_stmt 1
 2263              		.cfi_startproc
 2264              	.LVL290:
 2265 0edc 93870500 		mv	a5,a1
  17:src/kObjectAllocatorTest.cpp ****     switch (i) {
 2266              		.loc 2 17 5
 2267 0ee0 13079000 		li	a4,9
 2268 0ee4 636CB70A 		bgtu	a1,a4,.L162
  16:src/kObjectAllocatorTest.cpp **** bool KObjectAllocatorTest::test(size_t i, size_t size) {
 2269              		.loc 2 16 56 is_stmt 0
 2270 0ee8 130101FF 		addi	sp,sp,-16
GAS LISTING /tmp/ccbSKEpy.s 			page 56


 2271              		.cfi_def_cfa_offset 16
 2272 0eec 23341100 		sd	ra,8(sp)
 2273 0ef0 23308100 		sd	s0,0(sp)
 2274              		.cfi_offset 1, -8
 2275              		.cfi_offset 8, -16
 2276 0ef4 13040101 		addi	s0,sp,16
 2277              		.cfi_def_cfa 8, 0
 2278 0ef8 93050600 		mv	a1,a2
 2279              	.LVL291:
 2280 0efc 93972700 		slli	a5,a5,2
 2281              	.LVL292:
 2282 0f00 17070000 		lla	a4,.L152
 2282      13070700 
 2283 0f08 B387E700 		add	a5,a5,a4
 2284 0f0c 83A70700 		lw	a5,0(a5)
 2285 0f10 B387E700 		add	a5,a5,a4
 2286 0f14 67800700 		jr	a5
 2287              		.section	.rodata
 2288              		.align	2
 2289              		.align	2
 2290              	.L152:
 2291 0000 00000000 		.word	.L161-.L152
 2292 0004 00000000 		.word	.L160-.L152
 2293 0008 00000000 		.word	.L159-.L152
 2294 000c 00000000 		.word	.L158-.L152
 2295 0010 00000000 		.word	.L157-.L152
 2296 0014 00000000 		.word	.L156-.L152
 2297 0018 00000000 		.word	.L155-.L152
 2298 001c 00000000 		.word	.L154-.L152
 2299 0020 00000000 		.word	.L153-.L152
 2300 0024 00000000 		.word	.L151-.L152
 2301              		.text
 2302              	.L161:
  18:src/kObjectAllocatorTest.cpp ****         case 0: return test0(size); break;
 2303              		.loc 2 18 9 is_stmt 1
  18:src/kObjectAllocatorTest.cpp ****         case 0: return test0(size); break;
 2304              		.loc 2 18 17
  18:src/kObjectAllocatorTest.cpp ****         case 0: return test0(size); break;
 2305              		.loc 2 18 29 is_stmt 0
 2306 0f18 97000000 		call	_ZN20KObjectAllocatorTest5test0Em
 2306      E7800000 
 2307              	.LVL293:
 2308              	.L150:
  31:src/kObjectAllocatorTest.cpp **** }
 2309              		.loc 2 31 1
 2310 0f20 83308100 		ld	ra,8(sp)
 2311              		.cfi_remember_state
 2312              		.cfi_restore 1
 2313 0f24 03340100 		ld	s0,0(sp)
 2314              		.cfi_restore 8
 2315              		.cfi_def_cfa 2, 16
 2316 0f28 13010101 		addi	sp,sp,16
 2317              		.cfi_def_cfa_offset 0
 2318 0f2c 67800000 		jr	ra
 2319              	.LVL294:
 2320              	.L160:
 2321              		.cfi_restore_state
GAS LISTING /tmp/ccbSKEpy.s 			page 57


  18:src/kObjectAllocatorTest.cpp ****         case 0: return test0(size); break;
 2322              		.loc 2 18 37 is_stmt 1
  19:src/kObjectAllocatorTest.cpp ****         case 1: return test1(size); break;
 2323              		.loc 2 19 9
  19:src/kObjectAllocatorTest.cpp ****         case 1: return test1(size); break;
 2324              		.loc 2 19 17
  19:src/kObjectAllocatorTest.cpp ****         case 1: return test1(size); break;
 2325              		.loc 2 19 29 is_stmt 0
 2326 0f30 97000000 		call	_ZN20KObjectAllocatorTest5test1Em
 2326      E7800000 
 2327              	.LVL295:
  19:src/kObjectAllocatorTest.cpp ****         case 1: return test1(size); break;
 2328              		.loc 2 19 34
 2329 0f38 6FF09FFE 		j	.L150
 2330              	.LVL296:
 2331              	.L159:
  19:src/kObjectAllocatorTest.cpp ****         case 1: return test1(size); break;
 2332              		.loc 2 19 37 is_stmt 1
  20:src/kObjectAllocatorTest.cpp ****         case 2: return test2(size); break;
 2333              		.loc 2 20 9
  20:src/kObjectAllocatorTest.cpp ****         case 2: return test2(size); break;
 2334              		.loc 2 20 17
  20:src/kObjectAllocatorTest.cpp ****         case 2: return test2(size); break;
 2335              		.loc 2 20 29 is_stmt 0
 2336 0f3c 97000000 		call	_ZN20KObjectAllocatorTest5test2Em
 2336      E7800000 
 2337              	.LVL297:
  20:src/kObjectAllocatorTest.cpp ****         case 2: return test2(size); break;
 2338              		.loc 2 20 34
 2339 0f44 6FF0DFFD 		j	.L150
 2340              	.LVL298:
 2341              	.L158:
  20:src/kObjectAllocatorTest.cpp ****         case 2: return test2(size); break;
 2342              		.loc 2 20 37 is_stmt 1
  21:src/kObjectAllocatorTest.cpp ****         case 3: return test3(size); break;
 2343              		.loc 2 21 9
  21:src/kObjectAllocatorTest.cpp ****         case 3: return test3(size); break;
 2344              		.loc 2 21 17
  21:src/kObjectAllocatorTest.cpp ****         case 3: return test3(size); break;
 2345              		.loc 2 21 29 is_stmt 0
 2346 0f48 97000000 		call	_ZN20KObjectAllocatorTest5test3Em
 2346      E7800000 
 2347              	.LVL299:
  21:src/kObjectAllocatorTest.cpp ****         case 3: return test3(size); break;
 2348              		.loc 2 21 34
 2349 0f50 6FF01FFD 		j	.L150
 2350              	.LVL300:
 2351              	.L157:
  21:src/kObjectAllocatorTest.cpp ****         case 3: return test3(size); break;
 2352              		.loc 2 21 37 is_stmt 1
  22:src/kObjectAllocatorTest.cpp ****         case 4: return test4(size); break;
 2353              		.loc 2 22 9
  22:src/kObjectAllocatorTest.cpp ****         case 4: return test4(size); break;
 2354              		.loc 2 22 17
  22:src/kObjectAllocatorTest.cpp ****         case 4: return test4(size); break;
 2355              		.loc 2 22 29 is_stmt 0
 2356 0f54 97000000 		call	_ZN20KObjectAllocatorTest5test4Em
GAS LISTING /tmp/ccbSKEpy.s 			page 58


 2356      E7800000 
 2357              	.LVL301:
  22:src/kObjectAllocatorTest.cpp ****         case 4: return test4(size); break;
 2358              		.loc 2 22 34
 2359 0f5c 6FF05FFC 		j	.L150
 2360              	.LVL302:
 2361              	.L156:
  22:src/kObjectAllocatorTest.cpp ****         case 4: return test4(size); break;
 2362              		.loc 2 22 37 is_stmt 1
  23:src/kObjectAllocatorTest.cpp ****         case 5: return test5(size); break;
 2363              		.loc 2 23 9
  23:src/kObjectAllocatorTest.cpp ****         case 5: return test5(size); break;
 2364              		.loc 2 23 17
  23:src/kObjectAllocatorTest.cpp ****         case 5: return test5(size); break;
 2365              		.loc 2 23 29 is_stmt 0
 2366 0f60 97000000 		call	_ZN20KObjectAllocatorTest5test5Em
 2366      E7800000 
 2367              	.LVL303:
  23:src/kObjectAllocatorTest.cpp ****         case 5: return test5(size); break;
 2368              		.loc 2 23 34
 2369 0f68 6FF09FFB 		j	.L150
 2370              	.LVL304:
 2371              	.L155:
  23:src/kObjectAllocatorTest.cpp ****         case 5: return test5(size); break;
 2372              		.loc 2 23 37 is_stmt 1
  24:src/kObjectAllocatorTest.cpp ****         case 6: return test6(size); break;
 2373              		.loc 2 24 9
  24:src/kObjectAllocatorTest.cpp ****         case 6: return test6(size); break;
 2374              		.loc 2 24 17
  24:src/kObjectAllocatorTest.cpp ****         case 6: return test6(size); break;
 2375              		.loc 2 24 29 is_stmt 0
 2376 0f6c 97000000 		call	_ZN20KObjectAllocatorTest5test6Em
 2376      E7800000 
 2377              	.LVL305:
  24:src/kObjectAllocatorTest.cpp ****         case 6: return test6(size); break;
 2378              		.loc 2 24 34
 2379 0f74 6FF0DFFA 		j	.L150
 2380              	.LVL306:
 2381              	.L154:
  24:src/kObjectAllocatorTest.cpp ****         case 6: return test6(size); break;
 2382              		.loc 2 24 37 is_stmt 1
  25:src/kObjectAllocatorTest.cpp ****         case 7: return test7(size); break;
 2383              		.loc 2 25 9
  25:src/kObjectAllocatorTest.cpp ****         case 7: return test7(size); break;
 2384              		.loc 2 25 17
  25:src/kObjectAllocatorTest.cpp ****         case 7: return test7(size); break;
 2385              		.loc 2 25 29 is_stmt 0
 2386 0f78 97000000 		call	_ZN20KObjectAllocatorTest5test7Em
 2386      E7800000 
 2387              	.LVL307:
  25:src/kObjectAllocatorTest.cpp ****         case 7: return test7(size); break;
 2388              		.loc 2 25 34
 2389 0f80 6FF01FFA 		j	.L150
 2390              	.LVL308:
 2391              	.L153:
  25:src/kObjectAllocatorTest.cpp ****         case 7: return test7(size); break;
 2392              		.loc 2 25 37 is_stmt 1
GAS LISTING /tmp/ccbSKEpy.s 			page 59


  26:src/kObjectAllocatorTest.cpp ****         case 8: return test8(size); break;
 2393              		.loc 2 26 9
  26:src/kObjectAllocatorTest.cpp ****         case 8: return test8(size); break;
 2394              		.loc 2 26 17
  26:src/kObjectAllocatorTest.cpp ****         case 8: return test8(size); break;
 2395              		.loc 2 26 29 is_stmt 0
 2396 0f84 97000000 		call	_ZN20KObjectAllocatorTest5test8Em
 2396      E7800000 
 2397              	.LVL309:
  26:src/kObjectAllocatorTest.cpp ****         case 8: return test8(size); break;
 2398              		.loc 2 26 34
 2399 0f8c 6FF05FF9 		j	.L150
 2400              	.LVL310:
 2401              	.L151:
  26:src/kObjectAllocatorTest.cpp ****         case 8: return test8(size); break;
 2402              		.loc 2 26 37 is_stmt 1
  27:src/kObjectAllocatorTest.cpp ****         case 9: return test9(size); break;
 2403              		.loc 2 27 9
  27:src/kObjectAllocatorTest.cpp ****         case 9: return test9(size); break;
 2404              		.loc 2 27 17
  27:src/kObjectAllocatorTest.cpp ****         case 9: return test9(size); break;
 2405              		.loc 2 27 29 is_stmt 0
 2406 0f90 97000000 		call	_ZN20KObjectAllocatorTest5test9Em
 2406      E7800000 
 2407              	.LVL311:
  27:src/kObjectAllocatorTest.cpp ****         case 9: return test9(size); break;
 2408              		.loc 2 27 34
 2409 0f98 6FF09FF8 		j	.L150
 2410              	.LVL312:
 2411              	.L162:
 2412              		.cfi_def_cfa_register 2
 2413              		.cfi_restore 1
 2414              		.cfi_restore 8
  16:src/kObjectAllocatorTest.cpp **** bool KObjectAllocatorTest::test(size_t i, size_t size) {
 2415              		.loc 2 16 56
 2416 0f9c 13050000 		li	a0,0
 2417              	.LVL313:
  31:src/kObjectAllocatorTest.cpp **** }
 2418              		.loc 2 31 1
 2419 0fa0 67800000 		ret
 2420              		.cfi_endproc
 2421              	.LFE20:
 2423              		.section	.rodata.str1.8,"aMS",@progbits,1
 2424              		.align	3
 2425              	.LC1:
 2426 0000 4661696C 		.string	"Failed KObjectAllocator test "
 2426      6564204B 
 2426      4F626A65 
 2426      6374416C 
 2426      6C6F6361 
 2427 001e 0000     		.align	3
 2428              	.LC2:
 2429 0020 0A00     		.string	"\n"
 2430 0022 00000000 		.align	3
 2430      0000
 2431              	.LC3:
 2432 0028 50617373 		.string	"Passed "
GAS LISTING /tmp/ccbSKEpy.s 			page 60


 2432      65642000 
 2433              		.text
 2434              		.align	2
 2435              		.globl	_ZN20KObjectAllocatorTest8runTestsEv
 2437              	_ZN20KObjectAllocatorTest8runTestsEv:
 2438              	.LFB19:
   4:src/kObjectAllocatorTest.cpp **** bool KObjectAllocatorTest::runTests() {
 2439              		.loc 2 4 39 is_stmt 1
 2440              		.cfi_startproc
 2441              	.LVL314:
 2442 0fa4 130101FC 		addi	sp,sp,-64
 2443              		.cfi_def_cfa_offset 64
 2444 0fa8 233C1102 		sd	ra,56(sp)
 2445 0fac 23388102 		sd	s0,48(sp)
 2446 0fb0 23349102 		sd	s1,40(sp)
 2447 0fb4 23302103 		sd	s2,32(sp)
 2448 0fb8 233C3101 		sd	s3,24(sp)
 2449 0fbc 23384101 		sd	s4,16(sp)
 2450 0fc0 23345101 		sd	s5,8(sp)
 2451 0fc4 23306101 		sd	s6,0(sp)
 2452              		.cfi_offset 1, -8
 2453              		.cfi_offset 8, -16
 2454              		.cfi_offset 9, -24
 2455              		.cfi_offset 18, -32
 2456              		.cfi_offset 19, -40
 2457              		.cfi_offset 20, -48
 2458              		.cfi_offset 21, -56
 2459              		.cfi_offset 22, -64
 2460 0fc8 13040104 		addi	s0,sp,64
 2461              		.cfi_def_cfa 8, 0
 2462 0fcc 93090500 		mv	s3,a0
   5:src/kObjectAllocatorTest.cpp ****     for (size_t size : sizes)
 2463              		.loc 2 5 5
 2464              	.LBB177:
   5:src/kObjectAllocatorTest.cpp ****     for (size_t size : sizes)
 2465              		.loc 2 5 24 is_stmt 0
 2466 0fd0 930A8500 		addi	s5,a0,8
 2467              	.LVL315:
 2468 0fd4 130B0504 		addi	s6,a0,64
 2469              	.LVL316:
 2470              	.L173:
   5:src/kObjectAllocatorTest.cpp ****     for (size_t size : sizes)
 2471              		.loc 2 5 24 is_stmt 1 discriminator 1
 2472 0fd8 63886A0D 		beq	s5,s6,.L174
 2473              	.LBB178:
   5:src/kObjectAllocatorTest.cpp ****     for (size_t size : sizes)
 2474              		.loc 2 5 17 is_stmt 0 discriminator 2
 2475 0fdc 03BA0A00 		ld	s4,0(s5)
 2476              	.LVL317:
   6:src/kObjectAllocatorTest.cpp ****     for (size_t i = 0; i < numberOfTests; ++i) {
 2477              		.loc 2 6 5 is_stmt 1 discriminator 2
 2478              	.LBB179:
   6:src/kObjectAllocatorTest.cpp ****     for (size_t i = 0; i < numberOfTests; ++i) {
 2479              		.loc 2 6 17 is_stmt 0 discriminator 2
 2480 0fe0 93040000 		li	s1,0
 2481 0fe4 6F000007 		j	.L172
 2482              	.LVL318:
GAS LISTING /tmp/ccbSKEpy.s 			page 61


 2483              	.L176:
   8:src/kObjectAllocatorTest.cpp ****             printString("Failed KObjectAllocator test ");
 2484              		.loc 2 8 13 is_stmt 1
   8:src/kObjectAllocatorTest.cpp ****             printString("Failed KObjectAllocator test ");
 2485              		.loc 2 8 24 is_stmt 0
 2486 0fe8 17050000 		lla	a0,.LC1
 2486      13050500 
 2487 0ff0 97000000 		call	_Z11printStringPKc@plt
 2487      E7800000 
 2488              	.LVL319:
   9:src/kObjectAllocatorTest.cpp ****             printInteger(i); printString("\n"); return false;
 2489              		.loc 2 9 13 is_stmt 1
   9:src/kObjectAllocatorTest.cpp ****             printInteger(i); printString("\n"); return false;
 2490              		.loc 2 9 25 is_stmt 0
 2491 0ff8 13850400 		mv	a0,s1
 2492 0ffc 97000000 		call	_Z12printIntegerm@plt
 2492      E7800000 
 2493              	.LVL320:
   9:src/kObjectAllocatorTest.cpp ****             printInteger(i); printString("\n"); return false;
 2494              		.loc 2 9 30 is_stmt 1
   9:src/kObjectAllocatorTest.cpp ****             printInteger(i); printString("\n"); return false;
 2495              		.loc 2 9 41 is_stmt 0
 2496 1004 17050000 		lla	a0,.LC2
 2496      13050500 
 2497 100c 97000000 		call	_Z11printStringPKc@plt
 2497      E7800000 
 2498              	.LVL321:
   9:src/kObjectAllocatorTest.cpp ****             printInteger(i); printString("\n"); return false;
 2499              		.loc 2 9 49 is_stmt 1
 2500              	.L168:
 2501              	.LBE179:
 2502              	.LBE178:
 2503              	.LBE177:
  14:src/kObjectAllocatorTest.cpp **** }
 2504              		.loc 2 14 1 is_stmt 0
 2505 1014 13050900 		mv	a0,s2
 2506 1018 83308103 		ld	ra,56(sp)
 2507              		.cfi_remember_state
 2508              		.cfi_restore 1
 2509 101c 03340103 		ld	s0,48(sp)
 2510              		.cfi_restore 8
 2511              		.cfi_def_cfa 2, 64
 2512 1020 83348102 		ld	s1,40(sp)
 2513              		.cfi_restore 9
 2514 1024 03390102 		ld	s2,32(sp)
 2515              		.cfi_restore 18
 2516 1028 83398101 		ld	s3,24(sp)
 2517              		.cfi_restore 19
 2518              	.LVL322:
 2519 102c 033A0101 		ld	s4,16(sp)
 2520              		.cfi_restore 20
 2521 1030 833A8100 		ld	s5,8(sp)
 2522              		.cfi_restore 21
 2523              	.LVL323:
 2524 1034 033B0100 		ld	s6,0(sp)
 2525              		.cfi_restore 22
 2526              	.LVL324:
GAS LISTING /tmp/ccbSKEpy.s 			page 62


 2527 1038 13010104 		addi	sp,sp,64
 2528              		.cfi_def_cfa_offset 0
 2529 103c 67800000 		jr	ra
 2530              	.LVL325:
 2531              	.L177:
 2532              		.cfi_restore_state
 2533              	.LBB182:
 2534              	.LBB181:
 2535              	.LBB180:
  11:src/kObjectAllocatorTest.cpp ****         if (i != 0 && (i + 1) % 10 == 0) printString("\n");
 2536              		.loc 2 11 42 is_stmt 1 discriminator 2
  11:src/kObjectAllocatorTest.cpp ****         if (i != 0 && (i + 1) % 10 == 0) printString("\n");
 2537              		.loc 2 11 53 is_stmt 0 discriminator 2
 2538 1040 17050000 		lla	a0,.LC2
 2538      13050500 
 2539 1048 97000000 		call	_Z11printStringPKc@plt
 2539      E7800000 
 2540              	.LVL326:
 2541              	.L171:
   6:src/kObjectAllocatorTest.cpp ****     for (size_t i = 0; i < numberOfTests; ++i) {
 2542              		.loc 2 6 5 is_stmt 1 discriminator 2
 2543 1050 93841400 		addi	s1,s1,1
 2544              	.LVL327:
 2545              	.L172:
   6:src/kObjectAllocatorTest.cpp ****     for (size_t i = 0; i < numberOfTests; ++i) {
 2546              		.loc 2 6 26 discriminator 1
   6:src/kObjectAllocatorTest.cpp ****     for (size_t i = 0; i < numberOfTests; ++i) {
 2547              		.loc 2 6 28 is_stmt 0 discriminator 1
 2548 1054 83B70900 		ld	a5,0(s3)
   6:src/kObjectAllocatorTest.cpp ****     for (size_t i = 0; i < numberOfTests; ++i) {
 2549              		.loc 2 6 26 discriminator 1
 2550 1058 63F4F404 		bleu	a5,s1,.L169
   7:src/kObjectAllocatorTest.cpp ****         if (!test(i, size)) {
 2551              		.loc 2 7 9 is_stmt 1
   7:src/kObjectAllocatorTest.cpp ****         if (!test(i, size)) {
 2552              		.loc 2 7 18 is_stmt 0
 2553 105c 13060A00 		mv	a2,s4
 2554 1060 93850400 		mv	a1,s1
 2555 1064 13850900 		mv	a0,s3
 2556 1068 97000000 		call	_ZN20KObjectAllocatorTest4testEmm
 2556      E7800000 
 2557              	.LVL328:
 2558 1070 13090500 		mv	s2,a0
   7:src/kObjectAllocatorTest.cpp ****         if (!test(i, size)) {
 2559              		.loc 2 7 9
 2560 1074 E30A05F6 		beqz	a0,.L176
  10:src/kObjectAllocatorTest.cpp ****         } else printString("Passed ");
 2561              		.loc 2 10 16 is_stmt 1
  10:src/kObjectAllocatorTest.cpp ****         } else printString("Passed ");
 2562              		.loc 2 10 27 is_stmt 0
 2563 1078 17050000 		lla	a0,.LC3
 2563      13050500 
 2564 1080 97000000 		call	_Z11printStringPKc@plt
 2564      E7800000 
 2565              	.LVL329:
  11:src/kObjectAllocatorTest.cpp ****         if (i != 0 && (i + 1) % 10 == 0) printString("\n");
 2566              		.loc 2 11 9 is_stmt 1
GAS LISTING /tmp/ccbSKEpy.s 			page 63


 2567 1088 E38404FC 		beqz	s1,.L171
  11:src/kObjectAllocatorTest.cpp ****         if (i != 0 && (i + 1) % 10 == 0) printString("\n");
 2568              		.loc 2 11 26 is_stmt 0 discriminator 1
 2569 108c 93871400 		addi	a5,s1,1
  11:src/kObjectAllocatorTest.cpp ****         if (i != 0 && (i + 1) % 10 == 0) printString("\n");
 2570              		.loc 2 11 31 discriminator 1
 2571 1090 1307A000 		li	a4,10
 2572 1094 B3F7E702 		remu	a5,a5,a4
  11:src/kObjectAllocatorTest.cpp ****         if (i != 0 && (i + 1) % 10 == 0) printString("\n");
 2573              		.loc 2 11 20 discriminator 1
 2574 1098 E39C07FA 		bnez	a5,.L171
 2575 109c 6FF05FFA 		j	.L177
 2576              	.L169:
 2577              	.LBE180:
 2578              	.LBE181:
   5:src/kObjectAllocatorTest.cpp ****     for (size_t size : sizes)
 2579              		.loc 2 5 5 is_stmt 1 discriminator 3
 2580 10a0 938A8A00 		addi	s5,s5,8
 2581              	.LVL330:
 2582 10a4 6FF05FF3 		j	.L173
 2583              	.LVL331:
 2584              	.L174:
 2585              	.LBE182:
  13:src/kObjectAllocatorTest.cpp ****     return true;
 2586              		.loc 2 13 12 is_stmt 0
 2587 10a8 13091000 		li	s2,1
 2588 10ac 6FF09FF6 		j	.L168
 2589              		.cfi_endproc
 2590              	.LFE19:
 2592              		.section	.rodata
 2593              		.align	3
 2594              		.set	.LANCHOR0,. + 0
 2595              	.LC0:
 2596 0028 01       		.byte	1
 2597 0029 01       		.byte	1
 2598 002a 01       		.byte	1
 2599 002b 01       		.byte	1
 2600 002c 00       		.byte	0
 2601 002d 01       		.byte	1
 2602 002e 01       		.byte	1
 2603 002f 00       		.byte	0
 2604 0030 01       		.byte	1
 2605 0031 01       		.byte	1
 2606 0032 00       		.byte	0
 2607 0033 00       		.byte	0
 2608 0034 00       		.byte	0
 2609 0035 00       		.byte	0
 2610 0036 00       		.byte	0
 2611 0037 00       		.byte	0
 2612              		.text
 2613              	.Letext0:
 2614              		.file 3 "src/../h/../lib/hw.h"
 2615              		.file 4 "src/../h/memoryAllocator.hpp"
 2616              		.file 5 "src/../h/kObjectAllocatorTest.hpp"
 2617              		.file 6 "src/../h/print.hpp"
 9085              		.align	3
 9088              	DW.ref.__gxx_personality_v0:
GAS LISTING /tmp/ccbSKEpy.s 			page 64


 9089 0000 00000000 		.dword	__gxx_personality_v0
 9089      00000000 
 9090              		.ident	"GCC: (Ubuntu 9.4.0-1ubuntu1~20.04) 9.4.0"
 9091              		.section	.note.GNU-stack,"",@progbits
GAS LISTING /tmp/ccbSKEpy.s 			page 65


DEFINED SYMBOLS
                            *ABS*:0000000000000000 kObjectAllocatorTest.cpp
     /tmp/ccbSKEpy.s:10     .text._ZN16KObjectAllocatordlEPv:0000000000000000 _ZN16KObjectAllocatordlEPv
     /tmp/ccbSKEpy.s:14     .text._ZN16KObjectAllocatordlEPv:0000000000000000 .L0 
     /tmp/ccbSKEpy.s:16     .text._ZN16KObjectAllocatordlEPv:0000000000000000 .L0 
     /tmp/ccbSKEpy.s:17     .text._ZN16KObjectAllocatordlEPv:0000000000000004 .L0 
     /tmp/ccbSKEpy.s:21     .text._ZN16KObjectAllocatordlEPv:0000000000000010 .L0 
     /tmp/ccbSKEpy.s:22     .text._ZN16KObjectAllocatordlEPv:0000000000000010 .L0 
     /tmp/ccbSKEpy.s:23     .text._ZN16KObjectAllocatordlEPv:0000000000000010 .L0 
     /tmp/ccbSKEpy.s:25     .text._ZN16KObjectAllocatordlEPv:0000000000000014 .L0 
     /tmp/ccbSKEpy.s:28     .text._ZN16KObjectAllocatordlEPv:0000000000000018 .L0 
     /tmp/ccbSKEpy.s:29     .text._ZN16KObjectAllocatordlEPv:0000000000000018 .L0 
     /tmp/ccbSKEpy.s:35     .text._ZN16KObjectAllocatordlEPv:000000000000002c .L0 
     /tmp/ccbSKEpy.s:36     .text._ZN16KObjectAllocatordlEPv:000000000000002c .L0 
     /tmp/ccbSKEpy.s:42     .text._ZN16KObjectAllocatordlEPv:0000000000000040 .L0 
     /tmp/ccbSKEpy.s:43     .text._ZN16KObjectAllocatordlEPv:0000000000000044 .L0 
     /tmp/ccbSKEpy.s:45     .text._ZN16KObjectAllocatordlEPv:0000000000000048 .L0 
     /tmp/ccbSKEpy.s:46     .text._ZN16KObjectAllocatordlEPv:0000000000000048 .L0 
     /tmp/ccbSKEpy.s:48     .text._ZN16KObjectAllocatordlEPv:000000000000004c .L0 
     /tmp/ccbSKEpy.s:51     .text._ZN16KObjectAllocatordlEPv:0000000000000050 .L0 
     /tmp/ccbSKEpy.s:53     .text._ZN16KObjectAllocatordlEPv:0000000000000054 .L0 
     /tmp/ccbSKEpy.s:60     .text:0000000000000000 _ZN20KObjectAllocatorTest15getValueOfBitAtEmmP16KObjectAllocator
     /tmp/ccbSKEpy.s:64     .text:0000000000000000 .L0 
     /tmp/ccbSKEpy.s:66     .text:0000000000000000 .L0 
     /tmp/ccbSKEpy.s:67     .text:0000000000000004 .L0 
     /tmp/ccbSKEpy.s:69     .text:0000000000000008 .L0 
     /tmp/ccbSKEpy.s:71     .text:000000000000000c .L0 
     /tmp/ccbSKEpy.s:73     .text:000000000000000c .L0 
     /tmp/ccbSKEpy.s:74     .text:000000000000000c .L0 
     /tmp/ccbSKEpy.s:76     .text:0000000000000010 .L0 
     /tmp/ccbSKEpy.s:80     .text:0000000000000018 .L0 
     /tmp/ccbSKEpy.s:82     .text:000000000000001c .L0 
     /tmp/ccbSKEpy.s:84     .text:0000000000000024 .L0 
     /tmp/ccbSKEpy.s:85     .text:0000000000000024 .L0 
     /tmp/ccbSKEpy.s:87     .text:0000000000000028 .L0 
     /tmp/ccbSKEpy.s:89     .text:000000000000002c .L0 
     /tmp/ccbSKEpy.s:95     .text:000000000000002c _ZN20KObjectAllocatorTest15getByteOfObjectEPvP16KObjectAllocator
     /tmp/ccbSKEpy.s:98     .text:000000000000002c .L0 
     /tmp/ccbSKEpy.s:100    .text:000000000000002c .L0 
     /tmp/ccbSKEpy.s:101    .text:0000000000000030 .L0 
     /tmp/ccbSKEpy.s:103    .text:0000000000000034 .L0 
     /tmp/ccbSKEpy.s:105    .text:0000000000000038 .L0 
     /tmp/ccbSKEpy.s:107    .text:0000000000000038 .L0 
     /tmp/ccbSKEpy.s:108    .text:0000000000000038 .L0 
     /tmp/ccbSKEpy.s:111    .text:000000000000003c .L0 
     /tmp/ccbSKEpy.s:114    .text:0000000000000040 .L0 
     /tmp/ccbSKEpy.s:115    .text:0000000000000040 .L0 
     /tmp/ccbSKEpy.s:117    .text:0000000000000044 .L0 
     /tmp/ccbSKEpy.s:120    .text:0000000000000048 .L0 
     /tmp/ccbSKEpy.s:121    .text:0000000000000048 .L0 
     /tmp/ccbSKEpy.s:124    .text:0000000000000050 .L0 
     /tmp/ccbSKEpy.s:125    .text:0000000000000050 .L0 
     /tmp/ccbSKEpy.s:127    .text:0000000000000054 .L0 
     /tmp/ccbSKEpy.s:129    .text:0000000000000058 .L0 
     /tmp/ccbSKEpy.s:135    .text:0000000000000058 _ZN20KObjectAllocatorTest14getBitOfObjectEPvP16KObjectAllocator
     /tmp/ccbSKEpy.s:138    .text:0000000000000058 .L0 
     /tmp/ccbSKEpy.s:140    .text:0000000000000058 .L0 
GAS LISTING /tmp/ccbSKEpy.s 			page 66


     /tmp/ccbSKEpy.s:141    .text:000000000000005c .L0 
     /tmp/ccbSKEpy.s:143    .text:0000000000000060 .L0 
     /tmp/ccbSKEpy.s:145    .text:0000000000000064 .L0 
     /tmp/ccbSKEpy.s:147    .text:0000000000000064 .L0 
     /tmp/ccbSKEpy.s:148    .text:0000000000000064 .L0 
     /tmp/ccbSKEpy.s:151    .text:0000000000000068 .L0 
     /tmp/ccbSKEpy.s:154    .text:000000000000006c .L0 
     /tmp/ccbSKEpy.s:155    .text:000000000000006c .L0 
     /tmp/ccbSKEpy.s:157    .text:0000000000000070 .L0 
     /tmp/ccbSKEpy.s:160    .text:0000000000000074 .L0 
     /tmp/ccbSKEpy.s:161    .text:0000000000000074 .L0 
     /tmp/ccbSKEpy.s:164    .text:0000000000000078 .L0 
     /tmp/ccbSKEpy.s:165    .text:0000000000000078 .L0 
     /tmp/ccbSKEpy.s:168    .text:000000000000007c .L0 
     /tmp/ccbSKEpy.s:170    .text:0000000000000084 .L0 
     /tmp/ccbSKEpy.s:171    .text:0000000000000084 .L0 
     /tmp/ccbSKEpy.s:173    .text:0000000000000088 .L0 
     /tmp/ccbSKEpy.s:175    .text:000000000000008c .L0 
     /tmp/ccbSKEpy.s:181    .text:000000000000008c _ZN20KObjectAllocatorTest11getObjectAtEmmP16KObjectAllocator
     /tmp/ccbSKEpy.s:184    .text:000000000000008c .L0 
     /tmp/ccbSKEpy.s:186    .text:000000000000008c .L0 
     /tmp/ccbSKEpy.s:187    .text:0000000000000090 .L0 
     /tmp/ccbSKEpy.s:189    .text:0000000000000094 .L0 
     /tmp/ccbSKEpy.s:191    .text:0000000000000098 .L0 
     /tmp/ccbSKEpy.s:193    .text:0000000000000098 .L0 
     /tmp/ccbSKEpy.s:194    .text:0000000000000098 .L0 
     /tmp/ccbSKEpy.s:197    .text:000000000000009c .L0 
     /tmp/ccbSKEpy.s:200    .text:00000000000000a0 .L0 
     /tmp/ccbSKEpy.s:203    .text:00000000000000a8 .L0 
     /tmp/ccbSKEpy.s:206    .text:00000000000000ac .L0 
     /tmp/ccbSKEpy.s:208    .text:00000000000000b0 .L0 
     /tmp/ccbSKEpy.s:210    .text:00000000000000b8 .L0 
     /tmp/ccbSKEpy.s:211    .text:00000000000000b8 .L0 
     /tmp/ccbSKEpy.s:213    .text:00000000000000bc .L0 
     /tmp/ccbSKEpy.s:215    .text:00000000000000c0 .L0 
     /tmp/ccbSKEpy.s:221    .text:00000000000000c0 _ZN20KObjectAllocatorTest5test0Em
     /tmp/ccbSKEpy.s:224    .text:00000000000000c0 .L0 
     /tmp/ccbSKEpy.s:9088   .data.rel.local.DW.ref.__gxx_personality_v0:0000000000000000 DW.ref.__gxx_personality_v0
     /tmp/ccbSKEpy.s:228    .text:00000000000000c0 .L0 
     /tmp/ccbSKEpy.s:229    .text:00000000000000c4 .L0 
     /tmp/ccbSKEpy.s:239    .text:00000000000000e8 .L0 
     /tmp/ccbSKEpy.s:240    .text:00000000000000e8 .L0 
     /tmp/ccbSKEpy.s:241    .text:00000000000000e8 .L0 
     /tmp/ccbSKEpy.s:242    .text:00000000000000e8 .L0 
     /tmp/ccbSKEpy.s:243    .text:00000000000000e8 .L0 
     /tmp/ccbSKEpy.s:244    .text:00000000000000e8 .L0 
     /tmp/ccbSKEpy.s:245    .text:00000000000000e8 .L0 
     /tmp/ccbSKEpy.s:246    .text:00000000000000e8 .L0 
     /tmp/ccbSKEpy.s:247    .text:00000000000000e8 .L0 
     /tmp/ccbSKEpy.s:249    .text:00000000000000ec .L0 
     /tmp/ccbSKEpy.s:256    .text:00000000000000f4 .L0 
     /tmp/ccbSKEpy.s:258    .text:00000000000000f4 .L0 
     /tmp/ccbSKEpy.s:259    .text:00000000000000f4 .L0 
     /tmp/ccbSKEpy.s:272    .text:000000000000010c .L0 
     /tmp/ccbSKEpy.s:276    .text:0000000000000114 .L0 
     /tmp/ccbSKEpy.s:277    .text:0000000000000114 .L0 
     /tmp/ccbSKEpy.s:280    .text:000000000000011c .L0 
GAS LISTING /tmp/ccbSKEpy.s 			page 67


     /tmp/ccbSKEpy.s:281    .text:000000000000011c .L0 
     /tmp/ccbSKEpy.s:285    .text:0000000000000124 .L0 
     /tmp/ccbSKEpy.s:286    .text:0000000000000124 .L0 
     /tmp/ccbSKEpy.s:289    .text:000000000000012c .L0 
     /tmp/ccbSKEpy.s:291    .text:0000000000000130 .L0 
     /tmp/ccbSKEpy.s:293    .text:0000000000000134 .L0 
     /tmp/ccbSKEpy.s:295    .text:0000000000000138 .L0 
     /tmp/ccbSKEpy.s:300    .text:0000000000000144 .L0 
     /tmp/ccbSKEpy.s:302    .text:0000000000000148 .L0 
     /tmp/ccbSKEpy.s:303    .text:0000000000000148 .L0 
     /tmp/ccbSKEpy.s:305    .text:000000000000014c .L0 
     /tmp/ccbSKEpy.s:307    .text:0000000000000150 .L0 
     /tmp/ccbSKEpy.s:311    .text:0000000000000154 .L0 
     /tmp/ccbSKEpy.s:312    .text:0000000000000154 .L0 
     /tmp/ccbSKEpy.s:316    .text:0000000000000158 .L0 
     /tmp/ccbSKEpy.s:317    .text:0000000000000158 .L0 
     /tmp/ccbSKEpy.s:319    .text:000000000000015c .L0 
     /tmp/ccbSKEpy.s:321    .text:0000000000000160 .L0 
     /tmp/ccbSKEpy.s:322    .text:0000000000000160 .L0 
     /tmp/ccbSKEpy.s:325    .text:0000000000000164 .L0 
     /tmp/ccbSKEpy.s:327    .text:0000000000000168 .L0 
     /tmp/ccbSKEpy.s:329    .text:000000000000016c .L0 
     /tmp/ccbSKEpy.s:332    .text:0000000000000170 .L0 
     /tmp/ccbSKEpy.s:342    .text:0000000000000174 .L0 
     /tmp/ccbSKEpy.s:343    .text:0000000000000174 .L0 
     /tmp/ccbSKEpy.s:344    .text:0000000000000174 .L0 
     /tmp/ccbSKEpy.s:349    .text:0000000000000178 .L0 
     /tmp/ccbSKEpy.s:352    .text:0000000000000180 .L0 
     /tmp/ccbSKEpy.s:353    .text:0000000000000180 .L0 
     /tmp/ccbSKEpy.s:359    .text:0000000000000184 .L0 
     /tmp/ccbSKEpy.s:360    .text:0000000000000184 .L0 
     /tmp/ccbSKEpy.s:366    .text:0000000000000198 .L0 
     /tmp/ccbSKEpy.s:367    .text:0000000000000198 .L0 
     /tmp/ccbSKEpy.s:376    .text:00000000000001ac .L0 
     /tmp/ccbSKEpy.s:377    .text:00000000000001ac .L0 
     /tmp/ccbSKEpy.s:381    .text:00000000000001b0 .L0 
     /tmp/ccbSKEpy.s:383    .text:00000000000001b8 .L0 
     /tmp/ccbSKEpy.s:384    .text:00000000000001b8 .L0 
     /tmp/ccbSKEpy.s:386    .text:00000000000001bc .L0 
     /tmp/ccbSKEpy.s:387    .text:00000000000001bc .L0 
     /tmp/ccbSKEpy.s:389    .text:00000000000001c0 .L0 
     /tmp/ccbSKEpy.s:392    .text:00000000000001c4 .L0 
     /tmp/ccbSKEpy.s:394    .text:00000000000001c8 .L0 
     /tmp/ccbSKEpy.s:397    .text:00000000000001cc .L0 
     /tmp/ccbSKEpy.s:399    .text:00000000000001d0 .L0 
     /tmp/ccbSKEpy.s:401    .text:00000000000001d4 .L0 
     /tmp/ccbSKEpy.s:403    .text:00000000000001d8 .L0 
     /tmp/ccbSKEpy.s:405    .text:00000000000001dc .L0 
     /tmp/ccbSKEpy.s:409    .text:00000000000001e0 .L0 
     /tmp/ccbSKEpy.s:413    .text:00000000000001e0 .L0 
     /tmp/ccbSKEpy.s:414    .text:00000000000001e0 .L0 
     /tmp/ccbSKEpy.s:415    .text:00000000000001e0 .L0 
     /tmp/ccbSKEpy.s:420    .text:00000000000001e4 .L0 
     /tmp/ccbSKEpy.s:423    .text:00000000000001ec .L0 
     /tmp/ccbSKEpy.s:424    .text:00000000000001ec .L0 
     /tmp/ccbSKEpy.s:429    .text:00000000000001f0 .L0 
     /tmp/ccbSKEpy.s:430    .text:00000000000001f0 .L0 
GAS LISTING /tmp/ccbSKEpy.s 			page 68


     /tmp/ccbSKEpy.s:436    .text:0000000000000204 .L0 
     /tmp/ccbSKEpy.s:437    .text:0000000000000204 .L0 
     /tmp/ccbSKEpy.s:446    .text:0000000000000218 .L0 
     /tmp/ccbSKEpy.s:447    .text:0000000000000218 .L0 
     /tmp/ccbSKEpy.s:454    .text:0000000000000220 .L0 
     /tmp/ccbSKEpy.s:455    .text:0000000000000220 .L0 
     /tmp/ccbSKEpy.s:456    .text:0000000000000220 .L0 
     /tmp/ccbSKEpy.s:461    .text:0000000000000224 .L0 
     /tmp/ccbSKEpy.s:463    .text:0000000000000228 .L0 
     /tmp/ccbSKEpy.s:464    .text:0000000000000228 .L0 
     /tmp/ccbSKEpy.s:469    .text:000000000000022c .L0 
     /tmp/ccbSKEpy.s:470    .text:000000000000022c .L0 
     /tmp/ccbSKEpy.s:476    .text:0000000000000240 .L0 
     /tmp/ccbSKEpy.s:477    .text:0000000000000240 .L0 
     /tmp/ccbSKEpy.s:486    .text:0000000000000254 .L0 
     /tmp/ccbSKEpy.s:487    .text:0000000000000254 .L0 
     /tmp/ccbSKEpy.s:492    .text:000000000000025c .L0 
     /tmp/ccbSKEpy.s:496    .text:0000000000000260 .L0 
     /tmp/ccbSKEpy.s:499    .text:0000000000000268 .L0 
     /tmp/ccbSKEpy.s:500    .text:0000000000000268 .L0 
     /tmp/ccbSKEpy.s:503    .text:000000000000026c .L0 
     /tmp/ccbSKEpy.s:507    .text:0000000000000278 .L0 
     /tmp/ccbSKEpy.s:512    .text:0000000000000288 .L0 
     /tmp/ccbSKEpy.s:514    .text:000000000000028c .L0 
     /tmp/ccbSKEpy.s:520    .text:0000000000000290 .L0 
     /tmp/ccbSKEpy.s:523    .text:0000000000000294 .L0 
     /tmp/ccbSKEpy.s:526    .text:0000000000000298 .L0 
     /tmp/ccbSKEpy.s:533    .text:00000000000002a0 .L0 
     /tmp/ccbSKEpy.s:534    .text:00000000000002a0 .L0 
     /tmp/ccbSKEpy.s:539    .text:00000000000002a4 .L0 
     /tmp/ccbSKEpy.s:540    .text:00000000000002a4 .L0 
     /tmp/ccbSKEpy.s:546    .text:00000000000002b8 .L0 
     /tmp/ccbSKEpy.s:547    .text:00000000000002b8 .L0 
     /tmp/ccbSKEpy.s:556    .text:00000000000002cc .L0 
     /tmp/ccbSKEpy.s:557    .text:00000000000002cc .L0 
     /tmp/ccbSKEpy.s:562    .text:00000000000002d4 .L0 
     /tmp/ccbSKEpy.s:563    .text:00000000000002d4 .L0 
     /tmp/ccbSKEpy.s:568    .text:00000000000002d8 .L0 
     /tmp/ccbSKEpy.s:569    .text:00000000000002d8 .L0 
     /tmp/ccbSKEpy.s:575    .text:00000000000002ec .L0 
     /tmp/ccbSKEpy.s:576    .text:00000000000002ec .L0 
     /tmp/ccbSKEpy.s:585    .text:0000000000000300 .L0 
     /tmp/ccbSKEpy.s:586    .text:0000000000000300 .L0 
     /tmp/ccbSKEpy.s:590    .text:0000000000000308 .L0 
     /tmp/ccbSKEpy.s:591    .text:0000000000000308 .L0 
     /tmp/ccbSKEpy.s:596    .text:000000000000030c .L0 
     /tmp/ccbSKEpy.s:597    .text:000000000000030c .L0 
     /tmp/ccbSKEpy.s:603    .text:0000000000000320 .L0 
     /tmp/ccbSKEpy.s:604    .text:0000000000000320 .L0 
     /tmp/ccbSKEpy.s:612    .text:0000000000000334 .L0 
     /tmp/ccbSKEpy.s:613    .text:0000000000000334 .L0 
     /tmp/ccbSKEpy.s:616    .text:0000000000000338 .L0 
     /tmp/ccbSKEpy.s:619    .text:000000000000033c .L0 
     /tmp/ccbSKEpy.s:620    .text:000000000000033c .L0 
     /tmp/ccbSKEpy.s:624    .text:0000000000000340 .L0 
     /tmp/ccbSKEpy.s:628    .text:0000000000000344 .L0 
     /tmp/ccbSKEpy.s:632    .text:0000000000000348 .L0 
GAS LISTING /tmp/ccbSKEpy.s 			page 69


     /tmp/ccbSKEpy.s:636    .text:0000000000000350 .L0 
     /tmp/ccbSKEpy.s:637    .text:0000000000000350 .L0 
     /tmp/ccbSKEpy.s:642    .text:0000000000000360 .L0 
     /tmp/ccbSKEpy.s:649    .text:0000000000000378 .L0 
     /tmp/ccbSKEpy.s:651    .text:000000000000037c .L0 
     /tmp/ccbSKEpy.s:652    .text:000000000000037c .L0 
     /tmp/ccbSKEpy.s:660    .text:0000000000000394 .L0 
     /tmp/ccbSKEpy.s:661    .text:0000000000000394 .L0 
     /tmp/ccbSKEpy.s:668    .text:00000000000003a8 .L0 
     /tmp/ccbSKEpy.s:670    .text:00000000000003ac .L0 
     /tmp/ccbSKEpy.s:672    .text:00000000000003b0 .L0 
     /tmp/ccbSKEpy.s:673    .text:00000000000003b0 .L0 
     /tmp/ccbSKEpy.s:682    .text:00000000000003cc .L0 
     /tmp/ccbSKEpy.s:684    .text:00000000000003d0 .L0 
     /tmp/ccbSKEpy.s:692    .text:00000000000003d8 .L0 
     /tmp/ccbSKEpy.s:697    .text:00000000000003e0 .L0 
     /tmp/ccbSKEpy.s:698    .text:00000000000003e0 .L0 
     /tmp/ccbSKEpy.s:703    .text:00000000000003e4 .L0 
     /tmp/ccbSKEpy.s:704    .text:00000000000003e4 .L0 
     /tmp/ccbSKEpy.s:710    .text:00000000000003f8 .L0 
     /tmp/ccbSKEpy.s:711    .text:00000000000003f8 .L0 
     /tmp/ccbSKEpy.s:720    .text:000000000000040c .L0 
     /tmp/ccbSKEpy.s:721    .text:000000000000040c .L0 
     /tmp/ccbSKEpy.s:727    .text:0000000000000414 .L0 
     /tmp/ccbSKEpy.s:730    .text:0000000000000418 .L0 
     /tmp/ccbSKEpy.s:731    .text:0000000000000418 .L0 
     /tmp/ccbSKEpy.s:735    .text:000000000000041c .L0 
     /tmp/ccbSKEpy.s:738    .text:0000000000000420 .L0 
     /tmp/ccbSKEpy.s:742    .text:0000000000000424 .L0 
     /tmp/ccbSKEpy.s:745    .text:000000000000042c .L0 
     /tmp/ccbSKEpy.s:746    .text:000000000000042c .L0 
     /tmp/ccbSKEpy.s:753    .text:0000000000000444 .L0 
     /tmp/ccbSKEpy.s:755    .text:0000000000000448 .L0 
     /tmp/ccbSKEpy.s:760    .text:0000000000000450 .L0 
     /tmp/ccbSKEpy.s:761    .text:0000000000000450 .L0 
     /tmp/ccbSKEpy.s:766    .text:0000000000000460 .L0 
     /tmp/ccbSKEpy.s:767    .text:0000000000000460 .L0 
     /tmp/ccbSKEpy.s:772    .text:0000000000000470 .L0 
     /tmp/ccbSKEpy.s:773    .text:0000000000000470 .L0 
     /tmp/ccbSKEpy.s:778    .text:0000000000000480 .L0 
     /tmp/ccbSKEpy.s:779    .text:0000000000000480 .L0 
     /tmp/ccbSKEpy.s:785    .text:0000000000000490 .L0 
     /tmp/ccbSKEpy.s:786    .text:0000000000000490 .L0 
     /tmp/ccbSKEpy.s:793    .text:00000000000004a8 .L0 
     /tmp/ccbSKEpy.s:795    .text:00000000000004ac .L0 
     /tmp/ccbSKEpy.s:796    .text:00000000000004ac .L0 
     /tmp/ccbSKEpy.s:801    .text:00000000000004b0 .L0 
     /tmp/ccbSKEpy.s:802    .text:00000000000004b0 .L0 
     /tmp/ccbSKEpy.s:808    .text:00000000000004c4 .L0 
     /tmp/ccbSKEpy.s:809    .text:00000000000004c4 .L0 
     /tmp/ccbSKEpy.s:818    .text:00000000000004d8 .L0 
     /tmp/ccbSKEpy.s:819    .text:00000000000004d8 .L0 
     /tmp/ccbSKEpy.s:825    .text:00000000000004e0 .L0 
     /tmp/ccbSKEpy.s:826    .text:00000000000004e0 .L0 
     /tmp/ccbSKEpy.s:834    .text:00000000000004f8 .L0 
     /tmp/ccbSKEpy.s:835    .text:00000000000004f8 .L0 
     /tmp/ccbSKEpy.s:844    .text:0000000000000510 .L0 
GAS LISTING /tmp/ccbSKEpy.s 			page 70


     /tmp/ccbSKEpy.s:847    .text:0000000000000518 .L0 
     /tmp/ccbSKEpy.s:851    .text:0000000000000520 .L0 
     /tmp/ccbSKEpy.s:852    .text:0000000000000520 .L0 
     /tmp/ccbSKEpy.s:857    .text:0000000000000524 .L0 
     /tmp/ccbSKEpy.s:858    .text:0000000000000524 .L0 
     /tmp/ccbSKEpy.s:864    .text:0000000000000538 .L0 
     /tmp/ccbSKEpy.s:865    .text:0000000000000538 .L0 
     /tmp/ccbSKEpy.s:874    .text:000000000000054c .L0 
     /tmp/ccbSKEpy.s:875    .text:000000000000054c .L0 
     /tmp/ccbSKEpy.s:881    .text:0000000000000554 .L0 
     /tmp/ccbSKEpy.s:882    .text:0000000000000554 .L0 
     /tmp/ccbSKEpy.s:889    .text:000000000000056c .L0 
     /tmp/ccbSKEpy.s:890    .text:000000000000056c .L0 
     /tmp/ccbSKEpy.s:892    .text:000000000000056c .L0 
     /tmp/ccbSKEpy.s:893    .text:000000000000056c .L0 
     /tmp/ccbSKEpy.s:896    .text:0000000000000570 .L0 
     /tmp/ccbSKEpy.s:902    .text:0000000000000578 .L0 
     /tmp/ccbSKEpy.s:903    .text:0000000000000578 .L0 
     /tmp/ccbSKEpy.s:908    .text:000000000000057c .L0 
     /tmp/ccbSKEpy.s:909    .text:000000000000057c .L0 
     /tmp/ccbSKEpy.s:915    .text:0000000000000590 .L0 
     /tmp/ccbSKEpy.s:916    .text:0000000000000590 .L0 
     /tmp/ccbSKEpy.s:925    .text:00000000000005a4 .L0 
     /tmp/ccbSKEpy.s:926    .text:00000000000005a4 .L0 
     /tmp/ccbSKEpy.s:932    .text:00000000000005ac .L0 
     /tmp/ccbSKEpy.s:935    .text:00000000000005b0 .L0 
     /tmp/ccbSKEpy.s:939    .text:00000000000005b4 .L0 
     /tmp/ccbSKEpy.s:942    .text:00000000000005bc .L0 
     /tmp/ccbSKEpy.s:943    .text:00000000000005bc .L0 
     /tmp/ccbSKEpy.s:947    .text:00000000000005c8 .L0 
     /tmp/ccbSKEpy.s:954    .text:00000000000005e0 .L0 
     /tmp/ccbSKEpy.s:956    .text:00000000000005e4 .L0 
     /tmp/ccbSKEpy.s:958    .text:00000000000005e8 .L0 
     /tmp/ccbSKEpy.s:961    .text:00000000000005ec .L0 
     /tmp/ccbSKEpy.s:962    .text:00000000000005ec .L0 
     /tmp/ccbSKEpy.s:968    .text:00000000000005f4 .L0 
     /tmp/ccbSKEpy.s:969    .text:00000000000005f4 .L0 
     /tmp/ccbSKEpy.s:974    .text:00000000000005f8 .L0 
     /tmp/ccbSKEpy.s:975    .text:00000000000005f8 .L0 
     /tmp/ccbSKEpy.s:981    .text:000000000000060c .L0 
     /tmp/ccbSKEpy.s:982    .text:000000000000060c .L0 
     /tmp/ccbSKEpy.s:991    .text:0000000000000620 .L0 
     /tmp/ccbSKEpy.s:996    .text:0000000000000624 .L0 
     /tmp/ccbSKEpy.s:1002   .text:0000000000000628 .L0 
     /tmp/ccbSKEpy.s:1010   .text:0000000000000634 .L0 
     /tmp/ccbSKEpy.s:1018   .text:000000000000064c .L0 
     /tmp/ccbSKEpy.s:1048   .text:000000000000064c _ZN20KObjectAllocatorTest5test1Em
     /tmp/ccbSKEpy.s:1051   .text:000000000000064c .L0 
     /tmp/ccbSKEpy.s:1055   .text:000000000000064c .L0 
     /tmp/ccbSKEpy.s:1056   .text:0000000000000650 .L0 
     /tmp/ccbSKEpy.s:1064   .text:000000000000066c .L0 
     /tmp/ccbSKEpy.s:1065   .text:000000000000066c .L0 
     /tmp/ccbSKEpy.s:1066   .text:000000000000066c .L0 
     /tmp/ccbSKEpy.s:1067   .text:000000000000066c .L0 
     /tmp/ccbSKEpy.s:1068   .text:000000000000066c .L0 
     /tmp/ccbSKEpy.s:1069   .text:000000000000066c .L0 
     /tmp/ccbSKEpy.s:1070   .text:000000000000066c .L0 
GAS LISTING /tmp/ccbSKEpy.s 			page 71


     /tmp/ccbSKEpy.s:1072   .text:0000000000000670 .L0 
     /tmp/ccbSKEpy.s:1080   .text:000000000000067c .L0 
     /tmp/ccbSKEpy.s:1082   .text:000000000000067c .L0 
     /tmp/ccbSKEpy.s:1083   .text:000000000000067c .L0 
     /tmp/ccbSKEpy.s:1097   .text:0000000000000694 .L0 
     /tmp/ccbSKEpy.s:1101   .text:000000000000069c .L0 
     /tmp/ccbSKEpy.s:1102   .text:000000000000069c .L0 
     /tmp/ccbSKEpy.s:1105   .text:00000000000006a4 .L0 
     /tmp/ccbSKEpy.s:1106   .text:00000000000006a4 .L0 
     /tmp/ccbSKEpy.s:1110   .text:00000000000006ac .L0 
     /tmp/ccbSKEpy.s:1111   .text:00000000000006ac .L0 
     /tmp/ccbSKEpy.s:1114   .text:00000000000006b4 .L0 
     /tmp/ccbSKEpy.s:1116   .text:00000000000006b8 .L0 
     /tmp/ccbSKEpy.s:1118   .text:00000000000006bc .L0 
     /tmp/ccbSKEpy.s:1120   .text:00000000000006c0 .L0 
     /tmp/ccbSKEpy.s:1125   .text:00000000000006cc .L0 
     /tmp/ccbSKEpy.s:1127   .text:00000000000006d0 .L0 
     /tmp/ccbSKEpy.s:1128   .text:00000000000006d0 .L0 
     /tmp/ccbSKEpy.s:1130   .text:00000000000006d4 .L0 
     /tmp/ccbSKEpy.s:1132   .text:00000000000006d8 .L0 
     /tmp/ccbSKEpy.s:1136   .text:00000000000006dc .L0 
     /tmp/ccbSKEpy.s:1137   .text:00000000000006dc .L0 
     /tmp/ccbSKEpy.s:1141   .text:00000000000006e0 .L0 
     /tmp/ccbSKEpy.s:1142   .text:00000000000006e0 .L0 
     /tmp/ccbSKEpy.s:1144   .text:00000000000006e4 .L0 
     /tmp/ccbSKEpy.s:1146   .text:00000000000006e8 .L0 
     /tmp/ccbSKEpy.s:1147   .text:00000000000006e8 .L0 
     /tmp/ccbSKEpy.s:1150   .text:00000000000006ec .L0 
     /tmp/ccbSKEpy.s:1152   .text:00000000000006f0 .L0 
     /tmp/ccbSKEpy.s:1154   .text:00000000000006f4 .L0 
     /tmp/ccbSKEpy.s:1157   .text:00000000000006f8 .L0 
     /tmp/ccbSKEpy.s:1168   .text:00000000000006fc .L0 
     /tmp/ccbSKEpy.s:1169   .text:00000000000006fc .L0 
     /tmp/ccbSKEpy.s:1170   .text:00000000000006fc .L0 
     /tmp/ccbSKEpy.s:1175   .text:0000000000000700 .L0 
     /tmp/ccbSKEpy.s:1178   .text:0000000000000708 .L0 
     /tmp/ccbSKEpy.s:1179   .text:0000000000000708 .L0 
     /tmp/ccbSKEpy.s:1185   .text:000000000000070c .L0 
     /tmp/ccbSKEpy.s:1186   .text:000000000000070c .L0 
     /tmp/ccbSKEpy.s:1192   .text:0000000000000720 .L0 
     /tmp/ccbSKEpy.s:1193   .text:0000000000000720 .L0 
     /tmp/ccbSKEpy.s:1202   .text:0000000000000734 .L0 
     /tmp/ccbSKEpy.s:1203   .text:0000000000000734 .L0 
     /tmp/ccbSKEpy.s:1207   .text:0000000000000738 .L0 
     /tmp/ccbSKEpy.s:1208   .text:000000000000073c .L0 
     /tmp/ccbSKEpy.s:1209   .text:000000000000073c .L0 
     /tmp/ccbSKEpy.s:1211   .text:0000000000000740 .L0 
     /tmp/ccbSKEpy.s:1213   .text:0000000000000744 .L0 
     /tmp/ccbSKEpy.s:1215   .text:0000000000000748 .L0 
     /tmp/ccbSKEpy.s:1218   .text:000000000000074c .L0 
     /tmp/ccbSKEpy.s:1220   .text:0000000000000750 .L0 
     /tmp/ccbSKEpy.s:1223   .text:0000000000000754 .L0 
     /tmp/ccbSKEpy.s:1225   .text:0000000000000758 .L0 
     /tmp/ccbSKEpy.s:1227   .text:000000000000075c .L0 
     /tmp/ccbSKEpy.s:1231   .text:0000000000000760 .L0 
     /tmp/ccbSKEpy.s:1235   .text:0000000000000760 .L0 
     /tmp/ccbSKEpy.s:1236   .text:0000000000000760 .L0 
GAS LISTING /tmp/ccbSKEpy.s 			page 72


     /tmp/ccbSKEpy.s:1237   .text:0000000000000760 .L0 
     /tmp/ccbSKEpy.s:1242   .text:0000000000000764 .L0 
     /tmp/ccbSKEpy.s:1245   .text:000000000000076c .L0 
     /tmp/ccbSKEpy.s:1246   .text:000000000000076c .L0 
     /tmp/ccbSKEpy.s:1251   .text:0000000000000770 .L0 
     /tmp/ccbSKEpy.s:1252   .text:0000000000000770 .L0 
     /tmp/ccbSKEpy.s:1258   .text:0000000000000784 .L0 
     /tmp/ccbSKEpy.s:1259   .text:0000000000000784 .L0 
     /tmp/ccbSKEpy.s:1268   .text:0000000000000798 .L0 
     /tmp/ccbSKEpy.s:1269   .text:0000000000000798 .L0 
     /tmp/ccbSKEpy.s:1276   .text:00000000000007a0 .L0 
     /tmp/ccbSKEpy.s:1277   .text:00000000000007a0 .L0 
     /tmp/ccbSKEpy.s:1278   .text:00000000000007a0 .L0 
     /tmp/ccbSKEpy.s:1283   .text:00000000000007a4 .L0 
     /tmp/ccbSKEpy.s:1285   .text:00000000000007a8 .L0 
     /tmp/ccbSKEpy.s:1286   .text:00000000000007a8 .L0 
     /tmp/ccbSKEpy.s:1291   .text:00000000000007ac .L0 
     /tmp/ccbSKEpy.s:1292   .text:00000000000007ac .L0 
     /tmp/ccbSKEpy.s:1298   .text:00000000000007c0 .L0 
     /tmp/ccbSKEpy.s:1299   .text:00000000000007c0 .L0 
     /tmp/ccbSKEpy.s:1308   .text:00000000000007d4 .L0 
     /tmp/ccbSKEpy.s:1309   .text:00000000000007d4 .L0 
     /tmp/ccbSKEpy.s:1314   .text:00000000000007dc .L0 
     /tmp/ccbSKEpy.s:1318   .text:00000000000007e0 .L0 
     /tmp/ccbSKEpy.s:1321   .text:00000000000007e8 .L0 
     /tmp/ccbSKEpy.s:1322   .text:00000000000007e8 .L0 
     /tmp/ccbSKEpy.s:1325   .text:00000000000007ec .L0 
     /tmp/ccbSKEpy.s:1329   .text:00000000000007f8 .L0 
     /tmp/ccbSKEpy.s:1336   .text:0000000000000810 .L0 
     /tmp/ccbSKEpy.s:1338   .text:0000000000000814 .L0 
     /tmp/ccbSKEpy.s:1343   .text:0000000000000818 .L0 
     /tmp/ccbSKEpy.s:1344   .text:0000000000000818 .L0 
     /tmp/ccbSKEpy.s:1355   .text:000000000000083c .L0 
     /tmp/ccbSKEpy.s:1358   .text:0000000000000844 .L0 
     /tmp/ccbSKEpy.s:1364   .text:0000000000000858 .L0 
     /tmp/ccbSKEpy.s:1366   .text:000000000000085c .L0 
     /tmp/ccbSKEpy.s:1367   .text:000000000000085c .L0 
     /tmp/ccbSKEpy.s:1369   .text:0000000000000860 .L0 
     /tmp/ccbSKEpy.s:1373   .text:0000000000000868 .L0 
     /tmp/ccbSKEpy.s:1377   .text:000000000000086c .L0 
     /tmp/ccbSKEpy.s:1380   .text:0000000000000874 .L0 
     /tmp/ccbSKEpy.s:1381   .text:0000000000000874 .L0 
     /tmp/ccbSKEpy.s:1384   .text:0000000000000878 .L0 
     /tmp/ccbSKEpy.s:1388   .text:0000000000000884 .L0 
     /tmp/ccbSKEpy.s:1395   .text:000000000000089c .L0 
     /tmp/ccbSKEpy.s:1397   .text:00000000000008a0 .L0 
     /tmp/ccbSKEpy.s:1402   .text:00000000000008a4 .L0 
     /tmp/ccbSKEpy.s:1403   .text:00000000000008a4 .L0 
     /tmp/ccbSKEpy.s:1408   .text:00000000000008a8 .L0 
     /tmp/ccbSKEpy.s:1409   .text:00000000000008a8 .L0 
     /tmp/ccbSKEpy.s:1415   .text:00000000000008bc .L0 
     /tmp/ccbSKEpy.s:1416   .text:00000000000008bc .L0 
     /tmp/ccbSKEpy.s:1425   .text:00000000000008d0 .L0 
     /tmp/ccbSKEpy.s:1426   .text:00000000000008d0 .L0 
     /tmp/ccbSKEpy.s:1430   .text:00000000000008d8 .L0 
     /tmp/ccbSKEpy.s:1431   .text:00000000000008d8 .L0 
     /tmp/ccbSKEpy.s:1436   .text:00000000000008dc .L0 
GAS LISTING /tmp/ccbSKEpy.s 			page 73


     /tmp/ccbSKEpy.s:1437   .text:00000000000008dc .L0 
     /tmp/ccbSKEpy.s:1443   .text:00000000000008f0 .L0 
     /tmp/ccbSKEpy.s:1444   .text:00000000000008f0 .L0 
     /tmp/ccbSKEpy.s:1453   .text:0000000000000904 .L0 
     /tmp/ccbSKEpy.s:1454   .text:0000000000000904 .L0 
     /tmp/ccbSKEpy.s:1459   .text:000000000000090c .L0 
     /tmp/ccbSKEpy.s:1460   .text:000000000000090c .L0 
     /tmp/ccbSKEpy.s:1462   .text:0000000000000910 .L0 
     /tmp/ccbSKEpy.s:1465   .text:0000000000000918 .L0 
     /tmp/ccbSKEpy.s:1466   .text:0000000000000918 .L0 
     /tmp/ccbSKEpy.s:1471   .text:000000000000091c .L0 
     /tmp/ccbSKEpy.s:1472   .text:000000000000091c .L0 
     /tmp/ccbSKEpy.s:1478   .text:0000000000000930 .L0 
     /tmp/ccbSKEpy.s:1479   .text:0000000000000930 .L0 
     /tmp/ccbSKEpy.s:1488   .text:0000000000000944 .L0 
     /tmp/ccbSKEpy.s:1489   .text:0000000000000944 .L0 
     /tmp/ccbSKEpy.s:1493   .text:000000000000094c .L0 
     /tmp/ccbSKEpy.s:1494   .text:000000000000094c .L0 
     /tmp/ccbSKEpy.s:1502   .text:0000000000000968 .L0 
     /tmp/ccbSKEpy.s:1503   .text:0000000000000968 .L0 
     /tmp/ccbSKEpy.s:1509   .text:0000000000000978 .L0 
     /tmp/ccbSKEpy.s:1510   .text:0000000000000978 .L0 
     /tmp/ccbSKEpy.s:1516   .text:000000000000098c .L0 
     /tmp/ccbSKEpy.s:1519   .text:0000000000000994 .L0 
     /tmp/ccbSKEpy.s:1525   .text:00000000000009a8 .L0 
     /tmp/ccbSKEpy.s:1528   .text:00000000000009b0 .L0 
     /tmp/ccbSKEpy.s:1529   .text:00000000000009b0 .L0 
     /tmp/ccbSKEpy.s:1531   .text:00000000000009b4 .L0 
     /tmp/ccbSKEpy.s:1533   .text:00000000000009b8 .L0 
     /tmp/ccbSKEpy.s:1534   .text:00000000000009b8 .L0 
     /tmp/ccbSKEpy.s:1536   .text:00000000000009bc .L0 
     /tmp/ccbSKEpy.s:1541   .text:00000000000009c8 .L0 
     /tmp/ccbSKEpy.s:1542   .text:00000000000009c8 .L0 
     /tmp/ccbSKEpy.s:1546   .text:00000000000009d0 .L0 
     /tmp/ccbSKEpy.s:1547   .text:00000000000009d0 .L0 
     /tmp/ccbSKEpy.s:1552   .text:00000000000009d4 .L0 
     /tmp/ccbSKEpy.s:1553   .text:00000000000009d4 .L0 
     /tmp/ccbSKEpy.s:1559   .text:00000000000009e8 .L0 
     /tmp/ccbSKEpy.s:1560   .text:00000000000009e8 .L0 
     /tmp/ccbSKEpy.s:1569   .text:00000000000009fc .L0 
     /tmp/ccbSKEpy.s:1570   .text:00000000000009fc .L0 
     /tmp/ccbSKEpy.s:1574   .text:0000000000000a04 .L0 
     /tmp/ccbSKEpy.s:1575   .text:0000000000000a04 .L0 
     /tmp/ccbSKEpy.s:1583   .text:0000000000000a20 .L0 
     /tmp/ccbSKEpy.s:1584   .text:0000000000000a20 .L0 
     /tmp/ccbSKEpy.s:1589   .text:0000000000000a30 .L0 
     /tmp/ccbSKEpy.s:1590   .text:0000000000000a30 .L0 
     /tmp/ccbSKEpy.s:1595   .text:0000000000000a40 .L0 
     /tmp/ccbSKEpy.s:1596   .text:0000000000000a40 .L0 
     /tmp/ccbSKEpy.s:1601   .text:0000000000000a50 .L0 
     /tmp/ccbSKEpy.s:1602   .text:0000000000000a50 .L0 
     /tmp/ccbSKEpy.s:1608   .text:0000000000000a64 .L0 
     /tmp/ccbSKEpy.s:1611   .text:0000000000000a6c .L0 
     /tmp/ccbSKEpy.s:1617   .text:0000000000000a80 .L0 
     /tmp/ccbSKEpy.s:1620   .text:0000000000000a88 .L0 
     /tmp/ccbSKEpy.s:1621   .text:0000000000000a88 .L0 
     /tmp/ccbSKEpy.s:1623   .text:0000000000000a8c .L0 
GAS LISTING /tmp/ccbSKEpy.s 			page 74


     /tmp/ccbSKEpy.s:1626   .text:0000000000000a94 .L0 
     /tmp/ccbSKEpy.s:1627   .text:0000000000000a94 .L0 
     /tmp/ccbSKEpy.s:1629   .text:0000000000000a98 .L0 
     /tmp/ccbSKEpy.s:1634   .text:0000000000000aa4 .L0 
     /tmp/ccbSKEpy.s:1635   .text:0000000000000aa4 .L0 
     /tmp/ccbSKEpy.s:1639   .text:0000000000000aac .L0 
     /tmp/ccbSKEpy.s:1640   .text:0000000000000aac .L0 
     /tmp/ccbSKEpy.s:1642   .text:0000000000000ab0 .L0 
     /tmp/ccbSKEpy.s:1647   .text:0000000000000abc .L0 
     /tmp/ccbSKEpy.s:1648   .text:0000000000000abc .L0 
     /tmp/ccbSKEpy.s:1652   .text:0000000000000ac4 .L0 
     /tmp/ccbSKEpy.s:1653   .text:0000000000000ac4 .L0 
     /tmp/ccbSKEpy.s:1661   .text:0000000000000ae0 .L0 
     /tmp/ccbSKEpy.s:1662   .text:0000000000000ae0 .L0 
     /tmp/ccbSKEpy.s:1667   .text:0000000000000af0 .L0 
     /tmp/ccbSKEpy.s:1668   .text:0000000000000af0 .L0 
     /tmp/ccbSKEpy.s:1674   .text:0000000000000b04 .L0 
     /tmp/ccbSKEpy.s:1677   .text:0000000000000b0c .L0 
     /tmp/ccbSKEpy.s:1683   .text:0000000000000b20 .L0 
     /tmp/ccbSKEpy.s:1686   .text:0000000000000b28 .L0 
     /tmp/ccbSKEpy.s:1687   .text:0000000000000b28 .L0 
     /tmp/ccbSKEpy.s:1689   .text:0000000000000b2c .L0 
     /tmp/ccbSKEpy.s:1692   .text:0000000000000b34 .L0 
     /tmp/ccbSKEpy.s:1693   .text:0000000000000b34 .L0 
     /tmp/ccbSKEpy.s:1695   .text:0000000000000b38 .L0 
     /tmp/ccbSKEpy.s:1700   .text:0000000000000b44 .L0 
     /tmp/ccbSKEpy.s:1701   .text:0000000000000b44 .L0 
     /tmp/ccbSKEpy.s:1705   .text:0000000000000b4c .L0 
     /tmp/ccbSKEpy.s:1706   .text:0000000000000b4c .L0 
     /tmp/ccbSKEpy.s:1708   .text:0000000000000b50 .L0 
     /tmp/ccbSKEpy.s:1713   .text:0000000000000b5c .L0 
     /tmp/ccbSKEpy.s:1714   .text:0000000000000b5c .L0 
     /tmp/ccbSKEpy.s:1718   .text:0000000000000b64 .L0 
     /tmp/ccbSKEpy.s:1719   .text:0000000000000b64 .L0 
     /tmp/ccbSKEpy.s:1724   .text:0000000000000b74 .L0 
     /tmp/ccbSKEpy.s:1725   .text:0000000000000b74 .L0 
     /tmp/ccbSKEpy.s:1731   .text:0000000000000b88 .L0 
     /tmp/ccbSKEpy.s:1735   .text:0000000000000b90 .L0 
     /tmp/ccbSKEpy.s:1736   .text:0000000000000b90 .L0 
     /tmp/ccbSKEpy.s:1738   .text:0000000000000b94 .L0 
     /tmp/ccbSKEpy.s:1741   .text:0000000000000b9c .L0 
     /tmp/ccbSKEpy.s:1742   .text:0000000000000b9c .L0 
     /tmp/ccbSKEpy.s:1744   .text:0000000000000ba0 .L0 
     /tmp/ccbSKEpy.s:1749   .text:0000000000000bac .L0 
     /tmp/ccbSKEpy.s:1750   .text:0000000000000bac .L0 
     /tmp/ccbSKEpy.s:1754   .text:0000000000000bb4 .L0 
     /tmp/ccbSKEpy.s:1760   .text:0000000000000bc8 .L0 
     /tmp/ccbSKEpy.s:1764   .text:0000000000000bd0 .L0 
     /tmp/ccbSKEpy.s:1765   .text:0000000000000bd0 .L0 
     /tmp/ccbSKEpy.s:1770   .text:0000000000000be0 .L0 
     /tmp/ccbSKEpy.s:1771   .text:0000000000000be0 .L0 
     /tmp/ccbSKEpy.s:1777   .text:0000000000000bf4 .L0 
     /tmp/ccbSKEpy.s:1780   .text:0000000000000bfc .L0 
     /tmp/ccbSKEpy.s:1786   .text:0000000000000c10 .L0 
     /tmp/ccbSKEpy.s:1789   .text:0000000000000c18 .L0 
     /tmp/ccbSKEpy.s:1790   .text:0000000000000c18 .L0 
     /tmp/ccbSKEpy.s:1792   .text:0000000000000c1c .L0 
GAS LISTING /tmp/ccbSKEpy.s 			page 75


     /tmp/ccbSKEpy.s:1796   .text:0000000000000c24 .L0 
     /tmp/ccbSKEpy.s:1800   .text:0000000000000c28 .L0 
     /tmp/ccbSKEpy.s:1803   .text:0000000000000c30 .L0 
     /tmp/ccbSKEpy.s:1804   .text:0000000000000c30 .L0 
     /tmp/ccbSKEpy.s:1809   .text:0000000000000c40 .L0 
     /tmp/ccbSKEpy.s:1810   .text:0000000000000c40 .L0 
     /tmp/ccbSKEpy.s:1815   .text:0000000000000c50 .L0 
     /tmp/ccbSKEpy.s:1817   .text:0000000000000c54 .L0 
     /tmp/ccbSKEpy.s:1818   .text:0000000000000c54 .L0 
     /tmp/ccbSKEpy.s:1824   .text:0000000000000c68 .L0 
     /tmp/ccbSKEpy.s:1827   .text:0000000000000c70 .L0 
     /tmp/ccbSKEpy.s:1833   .text:0000000000000c84 .L0 
     /tmp/ccbSKEpy.s:1835   .text:0000000000000c88 .L0 
     /tmp/ccbSKEpy.s:1836   .text:0000000000000c88 .L0 
     /tmp/ccbSKEpy.s:1838   .text:0000000000000c8c .L0 
     /tmp/ccbSKEpy.s:1841   .text:0000000000000c94 .L0 
     /tmp/ccbSKEpy.s:1842   .text:0000000000000c94 .L0 
     /tmp/ccbSKEpy.s:1850   .text:0000000000000cb0 .L0 
     /tmp/ccbSKEpy.s:1851   .text:0000000000000cb0 .L0 
     /tmp/ccbSKEpy.s:1856   .text:0000000000000cc0 .L0 
     /tmp/ccbSKEpy.s:1858   .text:0000000000000cc4 .L0 
     /tmp/ccbSKEpy.s:1859   .text:0000000000000cc4 .L0 
     /tmp/ccbSKEpy.s:1865   .text:0000000000000cd8 .L0 
     /tmp/ccbSKEpy.s:1867   .text:0000000000000cdc .L0 
     /tmp/ccbSKEpy.s:1873   .text:0000000000000cf0 .L0 
     /tmp/ccbSKEpy.s:1876   .text:0000000000000cf8 .L0 
     /tmp/ccbSKEpy.s:1877   .text:0000000000000cf8 .L0 
     /tmp/ccbSKEpy.s:1879   .text:0000000000000cfc .L0 
     /tmp/ccbSKEpy.s:1881   .text:0000000000000d00 .L0 
     /tmp/ccbSKEpy.s:1887   .text:0000000000000d08 .L0 
     /tmp/ccbSKEpy.s:1888   .text:0000000000000d08 .L0 
     /tmp/ccbSKEpy.s:1890   .text:0000000000000d0c .L0 
     /tmp/ccbSKEpy.s:1895   .text:0000000000000d18 .L0 
     /tmp/ccbSKEpy.s:1896   .text:0000000000000d18 .L0 
     /tmp/ccbSKEpy.s:1900   .text:0000000000000d20 .L0 
     /tmp/ccbSKEpy.s:1901   .text:0000000000000d20 .L0 
     /tmp/ccbSKEpy.s:1903   .text:0000000000000d24 .L0 
     /tmp/ccbSKEpy.s:1908   .text:0000000000000d30 .L0 
     /tmp/ccbSKEpy.s:1909   .text:0000000000000d30 .L0 
     /tmp/ccbSKEpy.s:1915   .text:0000000000000d38 .L0 
     /tmp/ccbSKEpy.s:1916   .text:0000000000000d38 .L0 
     /tmp/ccbSKEpy.s:1918   .text:0000000000000d3c .L0 
     /tmp/ccbSKEpy.s:1923   .text:0000000000000d48 .L0 
     /tmp/ccbSKEpy.s:1924   .text:0000000000000d48 .L0 
     /tmp/ccbSKEpy.s:1928   .text:0000000000000d50 .L0 
     /tmp/ccbSKEpy.s:1929   .text:0000000000000d50 .L0 
     /tmp/ccbSKEpy.s:1931   .text:0000000000000d54 .L0 
     /tmp/ccbSKEpy.s:1936   .text:0000000000000d60 .L0 
     /tmp/ccbSKEpy.s:1937   .text:0000000000000d60 .L0 
     /tmp/ccbSKEpy.s:1941   .text:0000000000000d68 .L0 
     /tmp/ccbSKEpy.s:1942   .text:0000000000000d68 .L0 
     /tmp/ccbSKEpy.s:1944   .text:0000000000000d6c .L0 
     /tmp/ccbSKEpy.s:1949   .text:0000000000000d78 .L0 
     /tmp/ccbSKEpy.s:1950   .text:0000000000000d78 .L0 
     /tmp/ccbSKEpy.s:1954   .text:0000000000000d80 .L0 
     /tmp/ccbSKEpy.s:1955   .text:0000000000000d80 .L0 
     /tmp/ccbSKEpy.s:1957   .text:0000000000000d84 .L0 
GAS LISTING /tmp/ccbSKEpy.s 			page 76


     /tmp/ccbSKEpy.s:1962   .text:0000000000000d90 .L0 
     /tmp/ccbSKEpy.s:1963   .text:0000000000000d90 .L0 
     /tmp/ccbSKEpy.s:1968   .text:0000000000000d98 .L0 
     /tmp/ccbSKEpy.s:1969   .text:0000000000000d98 .L0 
     /tmp/ccbSKEpy.s:1973   .text:0000000000000da4 .L0 
     /tmp/ccbSKEpy.s:1975   .text:0000000000000da8 .L0 
     /tmp/ccbSKEpy.s:1976   .text:0000000000000da8 .L0 
     /tmp/ccbSKEpy.s:1978   .text:0000000000000dac .L0 
     /tmp/ccbSKEpy.s:1983   .text:0000000000000db8 .L0 
     /tmp/ccbSKEpy.s:1984   .text:0000000000000db8 .L0 
     /tmp/ccbSKEpy.s:1988   .text:0000000000000dc0 .L0 
     /tmp/ccbSKEpy.s:1989   .text:0000000000000dc0 .L0 
     /tmp/ccbSKEpy.s:1991   .text:0000000000000dc4 .L0 
     /tmp/ccbSKEpy.s:1996   .text:0000000000000dd0 .L0 
     /tmp/ccbSKEpy.s:2000   .text:0000000000000dd8 .L0 
     /tmp/ccbSKEpy.s:2007   .text:0000000000000de4 .L0 
     /tmp/ccbSKEpy.s:2015   .text:0000000000000dfc .L0 
     /tmp/ccbSKEpy.s:2044   .text:0000000000000dfc _ZN20KObjectAllocatorTest5test2Em
     /tmp/ccbSKEpy.s:2047   .text:0000000000000dfc .L0 
     /tmp/ccbSKEpy.s:2049   .text:0000000000000dfc .L0 
     /tmp/ccbSKEpy.s:2050   .text:0000000000000e00 .L0 
     /tmp/ccbSKEpy.s:2052   .text:0000000000000e04 .L0 
     /tmp/ccbSKEpy.s:2054   .text:0000000000000e08 .L0 
     /tmp/ccbSKEpy.s:2056   .text:0000000000000e08 .L0 
     /tmp/ccbSKEpy.s:2057   .text:0000000000000e08 .L0 
     /tmp/ccbSKEpy.s:2060   .text:0000000000000e10 .L0 
     /tmp/ccbSKEpy.s:2061   .text:0000000000000e10 .L0 
     /tmp/ccbSKEpy.s:2063   .text:0000000000000e14 .L0 
     /tmp/ccbSKEpy.s:2065   .text:0000000000000e18 .L0 
     /tmp/ccbSKEpy.s:2071   .text:0000000000000e18 _ZN20KObjectAllocatorTest5test3Em
     /tmp/ccbSKEpy.s:2074   .text:0000000000000e18 .L0 
     /tmp/ccbSKEpy.s:2076   .text:0000000000000e18 .L0 
     /tmp/ccbSKEpy.s:2077   .text:0000000000000e1c .L0 
     /tmp/ccbSKEpy.s:2079   .text:0000000000000e20 .L0 
     /tmp/ccbSKEpy.s:2081   .text:0000000000000e24 .L0 
     /tmp/ccbSKEpy.s:2083   .text:0000000000000e24 .L0 
     /tmp/ccbSKEpy.s:2084   .text:0000000000000e24 .L0 
     /tmp/ccbSKEpy.s:2087   .text:0000000000000e2c .L0 
     /tmp/ccbSKEpy.s:2088   .text:0000000000000e2c .L0 
     /tmp/ccbSKEpy.s:2090   .text:0000000000000e30 .L0 
     /tmp/ccbSKEpy.s:2092   .text:0000000000000e34 .L0 
     /tmp/ccbSKEpy.s:2098   .text:0000000000000e34 _ZN20KObjectAllocatorTest5test4Em
     /tmp/ccbSKEpy.s:2101   .text:0000000000000e34 .L0 
     /tmp/ccbSKEpy.s:2103   .text:0000000000000e34 .L0 
     /tmp/ccbSKEpy.s:2104   .text:0000000000000e38 .L0 
     /tmp/ccbSKEpy.s:2106   .text:0000000000000e3c .L0 
     /tmp/ccbSKEpy.s:2108   .text:0000000000000e40 .L0 
     /tmp/ccbSKEpy.s:2110   .text:0000000000000e40 .L0 
     /tmp/ccbSKEpy.s:2111   .text:0000000000000e40 .L0 
     /tmp/ccbSKEpy.s:2114   .text:0000000000000e48 .L0 
     /tmp/ccbSKEpy.s:2115   .text:0000000000000e48 .L0 
     /tmp/ccbSKEpy.s:2117   .text:0000000000000e4c .L0 
     /tmp/ccbSKEpy.s:2119   .text:0000000000000e50 .L0 
     /tmp/ccbSKEpy.s:2125   .text:0000000000000e50 _ZN20KObjectAllocatorTest5test5Em
     /tmp/ccbSKEpy.s:2128   .text:0000000000000e50 .L0 
     /tmp/ccbSKEpy.s:2130   .text:0000000000000e50 .L0 
     /tmp/ccbSKEpy.s:2131   .text:0000000000000e54 .L0 
GAS LISTING /tmp/ccbSKEpy.s 			page 77


     /tmp/ccbSKEpy.s:2133   .text:0000000000000e58 .L0 
     /tmp/ccbSKEpy.s:2135   .text:0000000000000e5c .L0 
     /tmp/ccbSKEpy.s:2137   .text:0000000000000e5c .L0 
     /tmp/ccbSKEpy.s:2138   .text:0000000000000e5c .L0 
     /tmp/ccbSKEpy.s:2141   .text:0000000000000e64 .L0 
     /tmp/ccbSKEpy.s:2142   .text:0000000000000e64 .L0 
     /tmp/ccbSKEpy.s:2144   .text:0000000000000e68 .L0 
     /tmp/ccbSKEpy.s:2146   .text:0000000000000e6c .L0 
     /tmp/ccbSKEpy.s:2152   .text:0000000000000e6c _ZN20KObjectAllocatorTest5test6Em
     /tmp/ccbSKEpy.s:2155   .text:0000000000000e6c .L0 
     /tmp/ccbSKEpy.s:2157   .text:0000000000000e6c .L0 
     /tmp/ccbSKEpy.s:2158   .text:0000000000000e70 .L0 
     /tmp/ccbSKEpy.s:2160   .text:0000000000000e74 .L0 
     /tmp/ccbSKEpy.s:2162   .text:0000000000000e78 .L0 
     /tmp/ccbSKEpy.s:2164   .text:0000000000000e78 .L0 
     /tmp/ccbSKEpy.s:2165   .text:0000000000000e78 .L0 
     /tmp/ccbSKEpy.s:2168   .text:0000000000000e80 .L0 
     /tmp/ccbSKEpy.s:2169   .text:0000000000000e80 .L0 
     /tmp/ccbSKEpy.s:2171   .text:0000000000000e84 .L0 
     /tmp/ccbSKEpy.s:2173   .text:0000000000000e88 .L0 
     /tmp/ccbSKEpy.s:2179   .text:0000000000000e88 _ZN20KObjectAllocatorTest5test7Em
     /tmp/ccbSKEpy.s:2182   .text:0000000000000e88 .L0 
     /tmp/ccbSKEpy.s:2184   .text:0000000000000e88 .L0 
     /tmp/ccbSKEpy.s:2185   .text:0000000000000e8c .L0 
     /tmp/ccbSKEpy.s:2187   .text:0000000000000e90 .L0 
     /tmp/ccbSKEpy.s:2189   .text:0000000000000e94 .L0 
     /tmp/ccbSKEpy.s:2191   .text:0000000000000e94 .L0 
     /tmp/ccbSKEpy.s:2192   .text:0000000000000e94 .L0 
     /tmp/ccbSKEpy.s:2195   .text:0000000000000e9c .L0 
     /tmp/ccbSKEpy.s:2196   .text:0000000000000e9c .L0 
     /tmp/ccbSKEpy.s:2198   .text:0000000000000ea0 .L0 
     /tmp/ccbSKEpy.s:2200   .text:0000000000000ea4 .L0 
     /tmp/ccbSKEpy.s:2206   .text:0000000000000ea4 _ZN20KObjectAllocatorTest5test8Em
     /tmp/ccbSKEpy.s:2209   .text:0000000000000ea4 .L0 
     /tmp/ccbSKEpy.s:2211   .text:0000000000000ea4 .L0 
     /tmp/ccbSKEpy.s:2212   .text:0000000000000ea8 .L0 
     /tmp/ccbSKEpy.s:2214   .text:0000000000000eac .L0 
     /tmp/ccbSKEpy.s:2216   .text:0000000000000eb0 .L0 
     /tmp/ccbSKEpy.s:2218   .text:0000000000000eb0 .L0 
     /tmp/ccbSKEpy.s:2219   .text:0000000000000eb0 .L0 
     /tmp/ccbSKEpy.s:2222   .text:0000000000000eb8 .L0 
     /tmp/ccbSKEpy.s:2223   .text:0000000000000eb8 .L0 
     /tmp/ccbSKEpy.s:2225   .text:0000000000000ebc .L0 
     /tmp/ccbSKEpy.s:2227   .text:0000000000000ec0 .L0 
     /tmp/ccbSKEpy.s:2233   .text:0000000000000ec0 _ZN20KObjectAllocatorTest5test9Em
     /tmp/ccbSKEpy.s:2236   .text:0000000000000ec0 .L0 
     /tmp/ccbSKEpy.s:2238   .text:0000000000000ec0 .L0 
     /tmp/ccbSKEpy.s:2239   .text:0000000000000ec4 .L0 
     /tmp/ccbSKEpy.s:2241   .text:0000000000000ec8 .L0 
     /tmp/ccbSKEpy.s:2243   .text:0000000000000ecc .L0 
     /tmp/ccbSKEpy.s:2245   .text:0000000000000ecc .L0 
     /tmp/ccbSKEpy.s:2246   .text:0000000000000ecc .L0 
     /tmp/ccbSKEpy.s:2249   .text:0000000000000ed4 .L0 
     /tmp/ccbSKEpy.s:2250   .text:0000000000000ed4 .L0 
     /tmp/ccbSKEpy.s:2252   .text:0000000000000ed8 .L0 
     /tmp/ccbSKEpy.s:2254   .text:0000000000000edc .L0 
     /tmp/ccbSKEpy.s:2260   .text:0000000000000edc _ZN20KObjectAllocatorTest4testEmm
GAS LISTING /tmp/ccbSKEpy.s 			page 78


     /tmp/ccbSKEpy.s:2263   .text:0000000000000edc .L0 
     /tmp/ccbSKEpy.s:2265   .text:0000000000000edc .L0 
     /tmp/ccbSKEpy.s:2267   .text:0000000000000ee0 .L0 
     /tmp/ccbSKEpy.s:2270   .text:0000000000000ee8 .L0 
     /tmp/ccbSKEpy.s:2271   .text:0000000000000eec .L0 
     /tmp/ccbSKEpy.s:2274   .text:0000000000000ef4 .L0 
     /tmp/ccbSKEpy.s:2275   .text:0000000000000ef4 .L0 
     /tmp/ccbSKEpy.s:2277   .text:0000000000000ef8 .L0 
     /tmp/ccbSKEpy.s:2304   .text:0000000000000f18 .L0 
     /tmp/ccbSKEpy.s:2305   .text:0000000000000f18 .L0 
     /tmp/ccbSKEpy.s:2306   .text:0000000000000f18 .L0 
     /tmp/ccbSKEpy.s:2310   .text:0000000000000f20 .L0 
     /tmp/ccbSKEpy.s:2311   .text:0000000000000f24 .L0 
     /tmp/ccbSKEpy.s:2312   .text:0000000000000f24 .L0 
     /tmp/ccbSKEpy.s:2314   .text:0000000000000f28 .L0 
     /tmp/ccbSKEpy.s:2315   .text:0000000000000f28 .L0 
     /tmp/ccbSKEpy.s:2317   .text:0000000000000f2c .L0 
     /tmp/ccbSKEpy.s:2321   .text:0000000000000f30 .L0 
     /tmp/ccbSKEpy.s:2323   .text:0000000000000f30 .L0 
     /tmp/ccbSKEpy.s:2324   .text:0000000000000f30 .L0 
     /tmp/ccbSKEpy.s:2325   .text:0000000000000f30 .L0 
     /tmp/ccbSKEpy.s:2326   .text:0000000000000f30 .L0 
     /tmp/ccbSKEpy.s:2329   .text:0000000000000f38 .L0 
     /tmp/ccbSKEpy.s:2333   .text:0000000000000f3c .L0 
     /tmp/ccbSKEpy.s:2334   .text:0000000000000f3c .L0 
     /tmp/ccbSKEpy.s:2335   .text:0000000000000f3c .L0 
     /tmp/ccbSKEpy.s:2336   .text:0000000000000f3c .L0 
     /tmp/ccbSKEpy.s:2339   .text:0000000000000f44 .L0 
     /tmp/ccbSKEpy.s:2343   .text:0000000000000f48 .L0 
     /tmp/ccbSKEpy.s:2344   .text:0000000000000f48 .L0 
     /tmp/ccbSKEpy.s:2345   .text:0000000000000f48 .L0 
     /tmp/ccbSKEpy.s:2346   .text:0000000000000f48 .L0 
     /tmp/ccbSKEpy.s:2349   .text:0000000000000f50 .L0 
     /tmp/ccbSKEpy.s:2353   .text:0000000000000f54 .L0 
     /tmp/ccbSKEpy.s:2354   .text:0000000000000f54 .L0 
     /tmp/ccbSKEpy.s:2355   .text:0000000000000f54 .L0 
     /tmp/ccbSKEpy.s:2356   .text:0000000000000f54 .L0 
     /tmp/ccbSKEpy.s:2359   .text:0000000000000f5c .L0 
     /tmp/ccbSKEpy.s:2363   .text:0000000000000f60 .L0 
     /tmp/ccbSKEpy.s:2364   .text:0000000000000f60 .L0 
     /tmp/ccbSKEpy.s:2365   .text:0000000000000f60 .L0 
     /tmp/ccbSKEpy.s:2366   .text:0000000000000f60 .L0 
     /tmp/ccbSKEpy.s:2369   .text:0000000000000f68 .L0 
     /tmp/ccbSKEpy.s:2373   .text:0000000000000f6c .L0 
     /tmp/ccbSKEpy.s:2374   .text:0000000000000f6c .L0 
     /tmp/ccbSKEpy.s:2375   .text:0000000000000f6c .L0 
     /tmp/ccbSKEpy.s:2376   .text:0000000000000f6c .L0 
     /tmp/ccbSKEpy.s:2379   .text:0000000000000f74 .L0 
     /tmp/ccbSKEpy.s:2383   .text:0000000000000f78 .L0 
     /tmp/ccbSKEpy.s:2384   .text:0000000000000f78 .L0 
     /tmp/ccbSKEpy.s:2385   .text:0000000000000f78 .L0 
     /tmp/ccbSKEpy.s:2386   .text:0000000000000f78 .L0 
     /tmp/ccbSKEpy.s:2389   .text:0000000000000f80 .L0 
     /tmp/ccbSKEpy.s:2393   .text:0000000000000f84 .L0 
     /tmp/ccbSKEpy.s:2394   .text:0000000000000f84 .L0 
     /tmp/ccbSKEpy.s:2395   .text:0000000000000f84 .L0 
     /tmp/ccbSKEpy.s:2396   .text:0000000000000f84 .L0 
GAS LISTING /tmp/ccbSKEpy.s 			page 79


     /tmp/ccbSKEpy.s:2399   .text:0000000000000f8c .L0 
     /tmp/ccbSKEpy.s:2403   .text:0000000000000f90 .L0 
     /tmp/ccbSKEpy.s:2404   .text:0000000000000f90 .L0 
     /tmp/ccbSKEpy.s:2405   .text:0000000000000f90 .L0 
     /tmp/ccbSKEpy.s:2406   .text:0000000000000f90 .L0 
     /tmp/ccbSKEpy.s:2409   .text:0000000000000f98 .L0 
     /tmp/ccbSKEpy.s:2412   .text:0000000000000f9c .L0 
     /tmp/ccbSKEpy.s:2413   .text:0000000000000f9c .L0 
     /tmp/ccbSKEpy.s:2414   .text:0000000000000f9c .L0 
     /tmp/ccbSKEpy.s:2416   .text:0000000000000f9c .L0 
     /tmp/ccbSKEpy.s:2419   .text:0000000000000fa0 .L0 
     /tmp/ccbSKEpy.s:2420   .text:0000000000000fa4 .L0 
     /tmp/ccbSKEpy.s:2437   .text:0000000000000fa4 _ZN20KObjectAllocatorTest8runTestsEv
     /tmp/ccbSKEpy.s:2440   .text:0000000000000fa4 .L0 
     /tmp/ccbSKEpy.s:2442   .text:0000000000000fa4 .L0 
     /tmp/ccbSKEpy.s:2443   .text:0000000000000fa8 .L0 
     /tmp/ccbSKEpy.s:2452   .text:0000000000000fc8 .L0 
     /tmp/ccbSKEpy.s:2453   .text:0000000000000fc8 .L0 
     /tmp/ccbSKEpy.s:2454   .text:0000000000000fc8 .L0 
     /tmp/ccbSKEpy.s:2455   .text:0000000000000fc8 .L0 
     /tmp/ccbSKEpy.s:2456   .text:0000000000000fc8 .L0 
     /tmp/ccbSKEpy.s:2457   .text:0000000000000fc8 .L0 
     /tmp/ccbSKEpy.s:2458   .text:0000000000000fc8 .L0 
     /tmp/ccbSKEpy.s:2459   .text:0000000000000fc8 .L0 
     /tmp/ccbSKEpy.s:2461   .text:0000000000000fcc .L0 
     /tmp/ccbSKEpy.s:2465   .text:0000000000000fd0 .L0 
     /tmp/ccbSKEpy.s:2466   .text:0000000000000fd0 .L0 
     /tmp/ccbSKEpy.s:2472   .text:0000000000000fd8 .L0 
     /tmp/ccbSKEpy.s:2475   .text:0000000000000fdc .L0 
     /tmp/ccbSKEpy.s:2479   .text:0000000000000fe0 .L0 
     /tmp/ccbSKEpy.s:2480   .text:0000000000000fe0 .L0 
     /tmp/ccbSKEpy.s:2485   .text:0000000000000fe8 .L0 
     /tmp/ccbSKEpy.s:2486   .text:0000000000000fe8 .L0 
     /tmp/ccbSKEpy.s:2490   .text:0000000000000ff8 .L0 
     /tmp/ccbSKEpy.s:2491   .text:0000000000000ff8 .L0 
     /tmp/ccbSKEpy.s:2495   .text:0000000000001004 .L0 
     /tmp/ccbSKEpy.s:2496   .text:0000000000001004 .L0 
     /tmp/ccbSKEpy.s:2504   .text:0000000000001014 .L0 
     /tmp/ccbSKEpy.s:2505   .text:0000000000001014 .L0 
     /tmp/ccbSKEpy.s:2507   .text:000000000000101c .L0 
     /tmp/ccbSKEpy.s:2508   .text:000000000000101c .L0 
     /tmp/ccbSKEpy.s:2510   .text:0000000000001020 .L0 
     /tmp/ccbSKEpy.s:2511   .text:0000000000001020 .L0 
     /tmp/ccbSKEpy.s:2513   .text:0000000000001024 .L0 
     /tmp/ccbSKEpy.s:2515   .text:0000000000001028 .L0 
     /tmp/ccbSKEpy.s:2517   .text:000000000000102c .L0 
     /tmp/ccbSKEpy.s:2520   .text:0000000000001030 .L0 
     /tmp/ccbSKEpy.s:2522   .text:0000000000001034 .L0 
     /tmp/ccbSKEpy.s:2525   .text:0000000000001038 .L0 
     /tmp/ccbSKEpy.s:2528   .text:000000000000103c .L0 
     /tmp/ccbSKEpy.s:2532   .text:0000000000001040 .L0 
     /tmp/ccbSKEpy.s:2537   .text:0000000000001040 .L0 
     /tmp/ccbSKEpy.s:2538   .text:0000000000001040 .L0 
     /tmp/ccbSKEpy.s:2543   .text:0000000000001050 .L0 
     /tmp/ccbSKEpy.s:2547   .text:0000000000001054 .L0 
     /tmp/ccbSKEpy.s:2548   .text:0000000000001054 .L0 
     /tmp/ccbSKEpy.s:2550   .text:0000000000001058 .L0 
GAS LISTING /tmp/ccbSKEpy.s 			page 80


     /tmp/ccbSKEpy.s:2552   .text:000000000000105c .L0 
     /tmp/ccbSKEpy.s:2553   .text:000000000000105c .L0 
     /tmp/ccbSKEpy.s:2560   .text:0000000000001074 .L0 
     /tmp/ccbSKEpy.s:2562   .text:0000000000001078 .L0 
     /tmp/ccbSKEpy.s:2563   .text:0000000000001078 .L0 
     /tmp/ccbSKEpy.s:2567   .text:0000000000001088 .L0 
     /tmp/ccbSKEpy.s:2569   .text:000000000000108c .L0 
     /tmp/ccbSKEpy.s:2571   .text:0000000000001090 .L0 
     /tmp/ccbSKEpy.s:2574   .text:0000000000001098 .L0 
     /tmp/ccbSKEpy.s:2580   .text:00000000000010a0 .L0 
     /tmp/ccbSKEpy.s:2587   .text:00000000000010a8 .L0 
     /tmp/ccbSKEpy.s:2589   .text:00000000000010b0 .L0 
     /tmp/ccbSKEpy.s:2594   .rodata:0000000000000028 .LANCHOR0
     /tmp/ccbSKEpy.s:56     .text._ZN16KObjectAllocatordlEPv:0000000000000054 .L0 
     /tmp/ccbSKEpy.s:2618   .text:00000000000010b0 .L0 
     /tmp/ccbSKEpy.s:882    .text:0000000000000554 .L0 
     /tmp/ccbSKEpy.s:2290   .rodata:0000000000000000 .L152
     /tmp/ccbSKEpy.s:2282   .text:0000000000000f00 .L0 
     /tmp/ccbSKEpy.s:2425   .rodata.str1.8:0000000000000000 .LC1
     /tmp/ccbSKEpy.s:2486   .text:0000000000000fe8 .L0 
     /tmp/ccbSKEpy.s:2428   .rodata.str1.8:0000000000000020 .LC2
     /tmp/ccbSKEpy.s:2496   .text:0000000000001004 .L0 
     /tmp/ccbSKEpy.s:2538   .text:0000000000001040 .L0 
     /tmp/ccbSKEpy.s:2431   .rodata.str1.8:0000000000000028 .LC3
     /tmp/ccbSKEpy.s:2563   .text:0000000000001078 .L0 
     /tmp/ccbSKEpy.s:333    .text:0000000000000174 .L12
     /tmp/ccbSKEpy.s:314    .text:0000000000000158 .L13
     /tmp/ccbSKEpy.s:408    .text:00000000000001e0 .L14
     /tmp/ccbSKEpy.s:372    .text:00000000000001ac .L15
     /tmp/ccbSKEpy.s:449    .text:0000000000000220 .L17
     /tmp/ccbSKEpy.s:442    .text:0000000000000218 .L18
     /tmp/ccbSKEpy.s:379    .text:00000000000001b0 .L51
     /tmp/ccbSKEpy.s:489    .text:000000000000025c .L46
     /tmp/ccbSKEpy.s:482    .text:0000000000000254 .L20
     /tmp/ccbSKEpy.s:516    .text:0000000000000290 .L47
     /tmp/ccbSKEpy.s:494    .text:0000000000000260 .L19
     /tmp/ccbSKEpy.s:630    .text:0000000000000348 .L21
     /tmp/ccbSKEpy.s:552    .text:00000000000002cc .L24
     /tmp/ccbSKEpy.s:581    .text:0000000000000300 .L27
     /tmp/ccbSKEpy.s:687    .text:00000000000003d8 .L48
     /tmp/ccbSKEpy.s:529    .text:00000000000002a0 .L53
     /tmp/ccbSKEpy.s:560    .text:00000000000002d4 .L25
     /tmp/ccbSKEpy.s:588    .text:0000000000000308 .L54
     /tmp/ccbSKEpy.s:622    .text:0000000000000340 .L30
     /tmp/ccbSKEpy.s:614    .text:0000000000000338 .L55
     /tmp/ccbSKEpy.s:740    .text:0000000000000424 .L22
     /tmp/ccbSKEpy.s:716    .text:000000000000040c .L33
     /tmp/ccbSKEpy.s:757    .text:0000000000000450 .L31
     /tmp/ccbSKEpy.s:695    .text:00000000000003e0 .L56
     /tmp/ccbSKEpy.s:733    .text:000000000000041c .L34
     /tmp/ccbSKEpy.s:725    .text:0000000000000414 .L57
     /tmp/ccbSKEpy.s:823    .text:00000000000004e0 .L35
     /tmp/ccbSKEpy.s:814    .text:00000000000004d8 .L36
     /tmp/ccbSKEpy.s:849    .text:0000000000000520 .L37
     /tmp/ccbSKEpy.s:879    .text:0000000000000554 .L38
     /tmp/ccbSKEpy.s:870    .text:000000000000054c .L39
     /tmp/ccbSKEpy.s:937    .text:00000000000005b4 .L44
GAS LISTING /tmp/ccbSKEpy.s 			page 81


     /tmp/ccbSKEpy.s:921    .text:00000000000005a4 .L42
     /tmp/ccbSKEpy.s:965    .text:00000000000005f4 .L40
     /tmp/ccbSKEpy.s:899    .text:0000000000000578 .L58
     /tmp/ccbSKEpy.s:930    .text:00000000000005ac .L43
     /tmp/ccbSKEpy.s:998    .text:0000000000000628 .L49
     /tmp/ccbSKEpy.s:1158   .text:00000000000006fc .L60
     /tmp/ccbSKEpy.s:1139   .text:00000000000006e0 .L61
     /tmp/ccbSKEpy.s:1230   .text:0000000000000760 .L62
     /tmp/ccbSKEpy.s:1198   .text:0000000000000734 .L63
     /tmp/ccbSKEpy.s:1271   .text:00000000000007a0 .L65
     /tmp/ccbSKEpy.s:1264   .text:0000000000000798 .L66
     /tmp/ccbSKEpy.s:1205   .text:0000000000000738 .L120
     /tmp/ccbSKEpy.s:1311   .text:00000000000007dc .L117
     /tmp/ccbSKEpy.s:1304   .text:00000000000007d4 .L68
     /tmp/ccbSKEpy.s:1340   .text:0000000000000818 .L69
     /tmp/ccbSKEpy.s:1316   .text:00000000000007e0 .L67
     /tmp/ccbSKEpy.s:1399   .text:00000000000008a4 .L70
     /tmp/ccbSKEpy.s:1428   .text:00000000000008d8 .L74
     /tmp/ccbSKEpy.s:1457   .text:000000000000090c .L77
     /tmp/ccbSKEpy.s:1374   .text:000000000000086c .L75
     /tmp/ccbSKEpy.s:1421   .text:00000000000008d0 .L73
     /tmp/ccbSKEpy.s:1449   .text:0000000000000904 .L76
     /tmp/ccbSKEpy.s:1491   .text:000000000000094c .L78
     /tmp/ccbSKEpy.s:1484   .text:0000000000000944 .L79
     /tmp/ccbSKEpy.s:1544   .text:00000000000009d0 .L80
     /tmp/ccbSKEpy.s:1572   .text:0000000000000a04 .L127
     /tmp/ccbSKEpy.s:1539   .text:00000000000009c8 .L84
     /tmp/ccbSKEpy.s:1565   .text:00000000000009fc .L83
     /tmp/ccbSKEpy.s:1637   .text:0000000000000aac .L85
     /tmp/ccbSKEpy.s:1650   .text:0000000000000ac4 .L128
     /tmp/ccbSKEpy.s:1632   .text:0000000000000aa4 .L89
     /tmp/ccbSKEpy.s:1645   .text:0000000000000abc .L88
     /tmp/ccbSKEpy.s:1703   .text:0000000000000b4c .L90
     /tmp/ccbSKEpy.s:1716   .text:0000000000000b64 .L129
     /tmp/ccbSKEpy.s:1698   .text:0000000000000b44 .L94
     /tmp/ccbSKEpy.s:1711   .text:0000000000000b5c .L93
     /tmp/ccbSKEpy.s:1752   .text:0000000000000bb4 .L130
     /tmp/ccbSKEpy.s:1762   .text:0000000000000bd0 .L96
     /tmp/ccbSKEpy.s:1747   .text:0000000000000bac .L97
     /tmp/ccbSKEpy.s:1733   .text:0000000000000b90 .L95
     /tmp/ccbSKEpy.s:1884   .text:0000000000000d08 .L98
     /tmp/ccbSKEpy.s:1898   .text:0000000000000d20 .L99
     /tmp/ccbSKEpy.s:1965   .text:0000000000000d98 .L103
     /tmp/ccbSKEpy.s:1912   .text:0000000000000d38 .L104
     /tmp/ccbSKEpy.s:1926   .text:0000000000000d50 .L131
     /tmp/ccbSKEpy.s:1939   .text:0000000000000d68 .L109
     /tmp/ccbSKEpy.s:1952   .text:0000000000000d80 .L132
     /tmp/ccbSKEpy.s:1797   .text:0000000000000c28 .L100
     /tmp/ccbSKEpy.s:1893   .text:0000000000000d18 .L101
     /tmp/ccbSKEpy.s:1906   .text:0000000000000d30 .L102
     /tmp/ccbSKEpy.s:1921   .text:0000000000000d48 .L107
     /tmp/ccbSKEpy.s:1934   .text:0000000000000d60 .L108
     /tmp/ccbSKEpy.s:1947   .text:0000000000000d78 .L112
     /tmp/ccbSKEpy.s:1960   .text:0000000000000d90 .L113
     /tmp/ccbSKEpy.s:1986   .text:0000000000000dc0 .L114
     /tmp/ccbSKEpy.s:1981   .text:0000000000000db8 .L115
     /tmp/ccbSKEpy.s:1998   .text:0000000000000dd8 .L118
GAS LISTING /tmp/ccbSKEpy.s 			page 82


     /tmp/ccbSKEpy.s:2411   .text:0000000000000f9c .L162
     /tmp/ccbSKEpy.s:2308   .text:0000000000000f20 .L150
     /tmp/ccbSKEpy.s:2584   .text:00000000000010a8 .L174
     /tmp/ccbSKEpy.s:2545   .text:0000000000001054 .L172
     /tmp/ccbSKEpy.s:2576   .text:00000000000010a0 .L169
     /tmp/ccbSKEpy.s:2483   .text:0000000000000fe8 .L176
     /tmp/ccbSKEpy.s:2541   .text:0000000000001050 .L171
     /tmp/ccbSKEpy.s:2531   .text:0000000000001040 .L177
     /tmp/ccbSKEpy.s:2470   .text:0000000000000fd8 .L173
     /tmp/ccbSKEpy.s:2500   .text:0000000000001014 .L168
     /tmp/ccbSKEpy.s:257    .text:00000000000000f4 .LEHB0
     /tmp/ccbSKEpy.s:222    .text:00000000000000c0 .LFB25
     /tmp/ccbSKEpy.s:264    .text:0000000000000108 .LEHE0
     /tmp/ccbSKEpy.s:284    .text:0000000000000124 .LEHB1
     /tmp/ccbSKEpy.s:298    .text:0000000000000144 .LEHE1
     /tmp/ccbSKEpy.s:1006   .text:0000000000000630 .L50
     /tmp/ccbSKEpy.s:358    .text:0000000000000184 .LEHB2
     /tmp/ccbSKEpy.s:987    .text:0000000000000620 .LEHE2
     /tmp/ccbSKEpy.s:1014   .text:0000000000000644 .LEHB3
     /tmp/ccbSKEpy.s:1017   .text:000000000000064c .LEHE3
     /tmp/ccbSKEpy.s:1081   .text:000000000000067c .LEHB4
     /tmp/ccbSKEpy.s:1049   .text:000000000000064c .LFB26
     /tmp/ccbSKEpy.s:1088   .text:0000000000000690 .LEHE4
     /tmp/ccbSKEpy.s:1109   .text:00000000000006ac .LEHB5
     /tmp/ccbSKEpy.s:1123   .text:00000000000006cc .LEHE5
     /tmp/ccbSKEpy.s:2003   .text:0000000000000de0 .L119
     /tmp/ccbSKEpy.s:1184   .text:000000000000070c .LEHB6
     /tmp/ccbSKEpy.s:1994   .text:0000000000000dd0 .LEHE6
     /tmp/ccbSKEpy.s:2011   .text:0000000000000df4 .LEHB7
     /tmp/ccbSKEpy.s:2014   .text:0000000000000dfc .LEHE7
     /tmp/ccbSKEpy.s:2302   .text:0000000000000f18 .L161
     /tmp/ccbSKEpy.s:2320   .text:0000000000000f30 .L160
     /tmp/ccbSKEpy.s:2331   .text:0000000000000f3c .L159
     /tmp/ccbSKEpy.s:2341   .text:0000000000000f48 .L158
     /tmp/ccbSKEpy.s:2351   .text:0000000000000f54 .L157
     /tmp/ccbSKEpy.s:2361   .text:0000000000000f60 .L156
     /tmp/ccbSKEpy.s:2371   .text:0000000000000f6c .L155
     /tmp/ccbSKEpy.s:2381   .text:0000000000000f78 .L154
     /tmp/ccbSKEpy.s:2391   .text:0000000000000f84 .L153
     /tmp/ccbSKEpy.s:2401   .text:0000000000000f90 .L151
     /tmp/ccbSKEpy.s:6324   .debug_abbrev:0000000000000000 .Ldebug_abbrev0
     /tmp/ccbSKEpy.s:9030   .debug_str:0000000000000a4e .LASF138
     /tmp/ccbSKEpy.s:8984   .debug_str:0000000000000813 .LASF139
     /tmp/ccbSKEpy.s:8988   .debug_str:0000000000000842 .LASF140
     /tmp/ccbSKEpy.s:8738   .debug_ranges:0000000000000000 .Ldebug_ranges0
     /tmp/ccbSKEpy.s:8788   .debug_line:0000000000000000 .Ldebug_line0
     /tmp/ccbSKEpy.s:9012   .debug_str:00000000000009c3 .LASF0
     /tmp/ccbSKEpy.s:8954   .debug_str:00000000000006c5 .LASF1
     /tmp/ccbSKEpy.s:8968   .debug_str:0000000000000747 .LASF2
     /tmp/ccbSKEpy.s:8938   .debug_str:000000000000060b .LASF3
     /tmp/ccbSKEpy.s:8860   .debug_str:00000000000002f8 .LASF4
     /tmp/ccbSKEpy.s:8910   .debug_str:000000000000051b .LASF5
     /tmp/ccbSKEpy.s:8820   .debug_str:0000000000000137 .LASF6
     /tmp/ccbSKEpy.s:8970   .debug_str:000000000000075a .LASF7
     /tmp/ccbSKEpy.s:8952   .debug_str:00000000000006b2 .LASF8
     /tmp/ccbSKEpy.s:9048   .debug_str:0000000000000ba6 .LASF9
     /tmp/ccbSKEpy.s:8892   .debug_str:00000000000003c6 .LASF10
GAS LISTING /tmp/ccbSKEpy.s 			page 83


     /tmp/ccbSKEpy.s:8982   .debug_str:0000000000000804 .LASF11
     /tmp/ccbSKEpy.s:9036   .debug_str:0000000000000b47 .LASF12
     /tmp/ccbSKEpy.s:8822   .debug_str:000000000000013e .LASF13
     /tmp/ccbSKEpy.s:8798   .debug_str:0000000000000077 .LASF14
     /tmp/ccbSKEpy.s:8840   .debug_str:00000000000001fb .LASF15
     /tmp/ccbSKEpy.s:9002   .debug_str:000000000000094e .LASF16
     /tmp/ccbSKEpy.s:8856   .debug_str:00000000000002da .LASF17
     /tmp/ccbSKEpy.s:8934   .debug_str:00000000000005d9 .LASF50
     /tmp/ccbSKEpy.s:8986   .debug_str:0000000000000830 .LASF141
     /tmp/ccbSKEpy.s:8930   .debug_str:00000000000005c2 .LASF18
     /tmp/ccbSKEpy.s:9076   .debug_str:0000000000000ce3 .LASF19
     /tmp/ccbSKEpy.s:8962   .debug_str:0000000000000716 .LASF142
     /tmp/ccbSKEpy.s:9034   .debug_str:0000000000000b27 .LASF143
     /tmp/ccbSKEpy.s:9046   .debug_str:0000000000000b8f .LASF36
     /tmp/ccbSKEpy.s:8842   .debug_str:0000000000000207 .LASF38
     /tmp/ccbSKEpy.s:9018   .debug_str:00000000000009f4 .LASF24
     /tmp/ccbSKEpy.s:8974   .debug_str:000000000000077d .LASF26
     /tmp/ccbSKEpy.s:9042   .debug_str:0000000000000b7e .LASF20
     /tmp/ccbSKEpy.s:8998   .debug_str:00000000000008ff .LASF22
     /tmp/ccbSKEpy.s:9054   .debug_str:0000000000000be5 .LASF21
     /tmp/ccbSKEpy.s:8806   .debug_str:00000000000000b0 .LASF23
     /tmp/ccbSKEpy.s:9004   .debug_str:0000000000000964 .LASF25
     /tmp/ccbSKEpy.s:8994   .debug_str:0000000000000888 .LASF27
     /tmp/ccbSKEpy.s:8830   .debug_str:00000000000001b1 .LASF28
     /tmp/ccbSKEpy.s:8846   .debug_str:000000000000025c .LASF29
     /tmp/ccbSKEpy.s:8922   .debug_str:0000000000000584 .LASF30
     /tmp/ccbSKEpy.s:9050   .debug_str:0000000000000bb6 .LASF31
     /tmp/ccbSKEpy.s:8932   .debug_str:00000000000005cb .LASF32
     /tmp/ccbSKEpy.s:8844   .debug_str:0000000000000236 .LASF33
     /tmp/ccbSKEpy.s:9056   .debug_str:0000000000000bef .LASF34
     /tmp/ccbSKEpy.s:8904   .debug_str:000000000000048e .LASF35
     /tmp/ccbSKEpy.s:8880   .debug_str:0000000000000355 .LASF37
     /tmp/ccbSKEpy.s:8912   .debug_str:0000000000000522 .LASF39
     /tmp/ccbSKEpy.s:8812   .debug_str:00000000000000e7 .LASF40
     /tmp/ccbSKEpy.s:9060   .debug_str:0000000000000c3f .LASF41
     /tmp/ccbSKEpy.s:9016   .debug_str:00000000000009de .LASF42
     /tmp/ccbSKEpy.s:9024   .debug_str:0000000000000a28 .LASF43
     /tmp/ccbSKEpy.s:8990   .debug_str:0000000000000875 .LASF44
     /tmp/ccbSKEpy.s:8980   .debug_str:00000000000007e4 .LASF45
     /tmp/ccbSKEpy.s:9052   .debug_str:0000000000000bdb .LASF46
     /tmp/ccbSKEpy.s:8918   .debug_str:0000000000000573 .LASF47
     /tmp/ccbSKEpy.s:9072   .debug_str:0000000000000cb5 .LASF48
     /tmp/ccbSKEpy.s:8794   .debug_str:0000000000000046 .LASF49
     /tmp/ccbSKEpy.s:8894   .debug_str:00000000000003d4 .LASF51
     /tmp/ccbSKEpy.s:8828   .debug_str:0000000000000197 .LASF52
     /tmp/ccbSKEpy.s:8826   .debug_str:000000000000017c .LASF53
     /tmp/ccbSKEpy.s:8832   .debug_str:00000000000001c9 .LASF54
     /tmp/ccbSKEpy.s:8946   .debug_str:000000000000064f .LASF55
     /tmp/ccbSKEpy.s:9020   .debug_str:0000000000000a06 .LASF82
     /tmp/ccbSKEpy.s:8790   .debug_str:0000000000000000 .LASF83
     /tmp/ccbSKEpy.s:8902   .debug_str:000000000000047a .LASF56
     /tmp/ccbSKEpy.s:9066   .debug_str:0000000000000c70 .LASF57
     /tmp/ccbSKEpy.s:8848   .debug_str:000000000000028c .LASF58
     /tmp/ccbSKEpy.s:8948   .debug_str:0000000000000669 .LASF59
     /tmp/ccbSKEpy.s:9008   .debug_str:000000000000099e .LASF60
     /tmp/ccbSKEpy.s:8978   .debug_str:00000000000007b8 .LASF61
     /tmp/ccbSKEpy.s:9032   .debug_str:0000000000000b12 .LASF62
GAS LISTING /tmp/ccbSKEpy.s 			page 84


     /tmp/ccbSKEpy.s:8824   .debug_str:000000000000014e .LASF63
     /tmp/ccbSKEpy.s:9010   .debug_str:00000000000009b1 .LASF64
     /tmp/ccbSKEpy.s:8792   .debug_str:000000000000001b .LASF65
     /tmp/ccbSKEpy.s:9028   .debug_str:0000000000000a43 .LASF66
     /tmp/ccbSKEpy.s:8866   .debug_str:000000000000030d .LASF67
     /tmp/ccbSKEpy.s:8924   .debug_str:0000000000000591 .LASF68
     /tmp/ccbSKEpy.s:8898   .debug_str:0000000000000422 .LASF69
     /tmp/ccbSKEpy.s:8966   .debug_str:0000000000000734 .LASF70
     /tmp/ccbSKEpy.s:9000   .debug_str:0000000000000922 .LASF71
     /tmp/ccbSKEpy.s:8972   .debug_str:000000000000076d .LASF72
     /tmp/ccbSKEpy.s:8956   .debug_str:00000000000006d2 .LASF73
     /tmp/ccbSKEpy.s:8916   .debug_str:0000000000000568 .LASF74
     /tmp/ccbSKEpy.s:9062   .debug_str:0000000000000c57 .LASF75
     /tmp/ccbSKEpy.s:8886   .debug_str:0000000000000393 .LASF76
     /tmp/ccbSKEpy.s:8976   .debug_str:00000000000007a7 .LASF77
     /tmp/ccbSKEpy.s:8876   .debug_str:000000000000034a .LASF78
     /tmp/ccbSKEpy.s:8964   .debug_str:000000000000071f .LASF79
     /tmp/ccbSKEpy.s:9078   .debug_str:0000000000000ce8 .LASF80
     /tmp/ccbSKEpy.s:8940   .debug_str:0000000000000619 .LASF81
     /tmp/ccbSKEpy.s:8914   .debug_str:0000000000000549 .LASF84
     /tmp/ccbSKEpy.s:8864   .debug_str:0000000000000304 .LASF85
     /tmp/ccbSKEpy.s:8906   .debug_str:00000000000004b5 .LASF86
     /tmp/ccbSKEpy.s:8958   .debug_str:00000000000006e4 .LASF87
     /tmp/ccbSKEpy.s:9058   .debug_str:0000000000000bfe .LASF88
     /tmp/ccbSKEpy.s:8808   .debug_str:00000000000000d2 .LASF89
     /tmp/ccbSKEpy.s:8908   .debug_str:00000000000004da .LASF90
     /tmp/ccbSKEpy.s:8928   .debug_str:00000000000005b3 .LASF91
     /tmp/ccbSKEpy.s:8996   .debug_str:00000000000008bf .LASF92
     /tmp/ccbSKEpy.s:9080   .debug_str:0000000000000d06 .LASF93
     /tmp/ccbSKEpy.s:8896   .debug_str:00000000000003e5 .LASF94
     /tmp/ccbSKEpy.s:8862   .debug_str:00000000000002fe .LASF95
     /tmp/ccbSKEpy.s:8950   .debug_str:0000000000000690 .LASF96
     /tmp/ccbSKEpy.s:9040   .debug_str:0000000000000b78 .LASF97
     /tmp/ccbSKEpy.s:8960   .debug_str:00000000000006f4 .LASF98
     /tmp/ccbSKEpy.s:9044   .debug_str:0000000000000b89 .LASF99
     /tmp/ccbSKEpy.s:8936   .debug_str:00000000000005e9 .LASF100
     /tmp/ccbSKEpy.s:8868   .debug_str:0000000000000332 .LASF101
     /tmp/ccbSKEpy.s:8900   .debug_str:0000000000000458 .LASF102
     /tmp/ccbSKEpy.s:8870   .debug_str:0000000000000338 .LASF103
     /tmp/ccbSKEpy.s:8888   .debug_str:000000000000039d .LASF104
     /tmp/ccbSKEpy.s:8872   .debug_str:000000000000033e .LASF105
     /tmp/ccbSKEpy.s:8854   .debug_str:00000000000002b8 .LASF106
     /tmp/ccbSKEpy.s:8874   .debug_str:0000000000000344 .LASF107
     /tmp/ccbSKEpy.s:8814   .debug_str:00000000000000f4 .LASF108
     /tmp/ccbSKEpy.s:8944   .debug_str:0000000000000649 .LASF109
     /tmp/ccbSKEpy.s:9074   .debug_str:0000000000000cc1 .LASF110
     /tmp/ccbSKEpy.s:8878   .debug_str:000000000000034f .LASF111
     /tmp/ccbSKEpy.s:9038   .debug_str:0000000000000b56 .LASF112
     /tmp/ccbSKEpy.s:8920   .debug_str:000000000000057e .LASF113
     /tmp/ccbSKEpy.s:8796   .debug_str:0000000000000055 .LASF114
     /tmp/ccbSKEpy.s:8838   .debug_str:00000000000001f6 .LASF115
     /tmp/ccbSKEpy.s:8882   .debug_str:0000000000000364 .LASF116
     /tmp/ccbSKEpy.s:8800   .debug_str:0000000000000087 .LASF117
     /tmp/ccbSKEpy.s:8850   .debug_str:000000000000029a .LASF118
     /tmp/ccbSKEpy.s:2234   .text:0000000000000ec0 .LFB34
     /tmp/ccbSKEpy.s:2255   .text:0000000000000edc .LFE34
     /tmp/ccbSKEpy.s:9068   .debug_str:0000000000000c9d .LASF119
GAS LISTING /tmp/ccbSKEpy.s 			page 85


     /tmp/ccbSKEpy.s:7308   .debug_loc:0000000000000000 .LLST73
     /tmp/ccbSKEpy.s:9026   .debug_str:0000000000000a3e .LASF120
     /tmp/ccbSKEpy.s:2207   .text:0000000000000ea4 .LFB33
     /tmp/ccbSKEpy.s:2228   .text:0000000000000ec0 .LFE33
     /tmp/ccbSKEpy.s:7322   .debug_loc:0000000000000039 .LLST72
     /tmp/ccbSKEpy.s:2180   .text:0000000000000e88 .LFB32
     /tmp/ccbSKEpy.s:2201   .text:0000000000000ea4 .LFE32
     /tmp/ccbSKEpy.s:7336   .debug_loc:0000000000000072 .LLST71
     /tmp/ccbSKEpy.s:2153   .text:0000000000000e6c .LFB31
     /tmp/ccbSKEpy.s:2174   .text:0000000000000e88 .LFE31
     /tmp/ccbSKEpy.s:7350   .debug_loc:00000000000000ab .LLST70
     /tmp/ccbSKEpy.s:2126   .text:0000000000000e50 .LFB30
     /tmp/ccbSKEpy.s:2147   .text:0000000000000e6c .LFE30
     /tmp/ccbSKEpy.s:7364   .debug_loc:00000000000000e4 .LLST69
     /tmp/ccbSKEpy.s:2099   .text:0000000000000e34 .LFB29
     /tmp/ccbSKEpy.s:2120   .text:0000000000000e50 .LFE29
     /tmp/ccbSKEpy.s:7378   .debug_loc:000000000000011d .LLST68
     /tmp/ccbSKEpy.s:2072   .text:0000000000000e18 .LFB28
     /tmp/ccbSKEpy.s:2093   .text:0000000000000e34 .LFE28
     /tmp/ccbSKEpy.s:7392   .debug_loc:0000000000000156 .LLST67
     /tmp/ccbSKEpy.s:2045   .text:0000000000000dfc .LFB27
     /tmp/ccbSKEpy.s:2066   .text:0000000000000e18 .LFE27
     /tmp/ccbSKEpy.s:7406   .debug_loc:000000000000018f .LLST66
     /tmp/ccbSKEpy.s:2016   .text:0000000000000dfc .LFE26
     /tmp/ccbSKEpy.s:7420   .debug_loc:00000000000001c8 .LLST43
     /tmp/ccbSKEpy.s:7442   .debug_loc:0000000000000227 .LLST44
     /tmp/ccbSKEpy.s:9014   .debug_str:00000000000009d5 .LASF121
     /tmp/ccbSKEpy.s:7482   .debug_loc:00000000000002c5 .LLST45
     /tmp/ccbSKEpy.s:8890   .debug_str:00000000000003bf .LASF122
     /tmp/ccbSKEpy.s:1312   .text:00000000000007dc .LBB165
     /tmp/ccbSKEpy.s:1341   .text:0000000000000818 .LBE165
     /tmp/ccbSKEpy.s:7493   .debug_loc:00000000000002fb .LLST59
     /tmp/ccbSKEpy.s:1327   .text:00000000000007f8 .LVL193
     /tmp/ccbSKEpy.s:1371   .text:0000000000000868 .LBB166
     /tmp/ccbSKEpy.s:1400   .text:00000000000008a4 .LBE166
     /tmp/ccbSKEpy.s:7508   .debug_loc:0000000000000344 .LLST60
     /tmp/ccbSKEpy.s:1386   .text:0000000000000884 .LVL200
     /tmp/ccbSKEpy.s:7523   .debug_loc:000000000000038d .LLST65
     /tmp/ccbSKEpy.s:1807   .text:0000000000000c40 .LVL251
     /tmp/ccbSKEpy.s:1812   .text:0000000000000c4c .LVL252
     /tmp/ccbSKEpy.s:1822   .text:0000000000000c68 .LVL253
     /tmp/ccbSKEpy.s:1831   .text:0000000000000c84 .LVL254
     /tmp/ccbSKEpy.s:1848   .text:0000000000000cb0 .LVL255
     /tmp/ccbSKEpy.s:1853   .text:0000000000000cbc .LVL256
     /tmp/ccbSKEpy.s:1863   .text:0000000000000cd8 .LVL257
     /tmp/ccbSKEpy.s:1871   .text:0000000000000cf0 .LVL258
     /tmp/ccbSKEpy.s:1920   .text:0000000000000d48 .LVL263
     /tmp/ccbSKEpy.s:1933   .text:0000000000000d60 .LVL264
     /tmp/ccbSKEpy.s:1946   .text:0000000000000d78 .LVL265
     /tmp/ccbSKEpy.s:1959   .text:0000000000000d90 .LVL266
     /tmp/ccbSKEpy.s:1078   .text:000000000000067c .LBB146
     /tmp/ccbSKEpy.s:1092   .text:0000000000000694 .LBE146
     /tmp/ccbSKEpy.s:7534   .debug_loc:00000000000003c3 .LLST46
     /tmp/ccbSKEpy.s:1084   .text:0000000000000684 .LVL158
     /tmp/ccbSKEpy.s:1087   .text:0000000000000690 .LVL159
     /tmp/ccbSKEpy.s:1093   .text:0000000000000694 .LBB148
     /tmp/ccbSKEpy.s:1164   .text:00000000000006fc .LBE148
GAS LISTING /tmp/ccbSKEpy.s 			page 86


     /tmp/ccbSKEpy.s:7543   .debug_loc:00000000000003e8 .LLST47
     /tmp/ccbSKEpy.s:7561   .debug_loc:0000000000000434 .LLST48
     /tmp/ccbSKEpy.s:1094   .text:0000000000000694 .LBB149
     /tmp/ccbSKEpy.s:1163   .text:00000000000006fc .LBE149
     /tmp/ccbSKEpy.s:7572   .debug_loc:000000000000046a .LLST49
     /tmp/ccbSKEpy.s:7587   .debug_loc:00000000000004a6 .LLST50
     /tmp/ccbSKEpy.s:1135   .text:00000000000006dc .LBB152
     /tmp/ccbSKEpy.s:1160   .text:00000000000006fc .LBE152
     /tmp/ccbSKEpy.s:7605   .debug_loc:00000000000004f2 .LLST52
     /tmp/ccbSKEpy.s:1112   .text:00000000000006b4 .LVL161
     /tmp/ccbSKEpy.s:1122   .text:00000000000006cc .LVL162
     /tmp/ccbSKEpy.s:1166   .text:00000000000006fc .LBB153
     /tmp/ccbSKEpy.s:1173   .text:0000000000000700 .LBE153
     /tmp/ccbSKEpy.s:7627   .debug_loc:0000000000000551 .LLST53
     /tmp/ccbSKEpy.s:1181   .text:000000000000070c .LBB155
     /tmp/ccbSKEpy.s:1200   .text:0000000000000734 .LBE155
     /tmp/ccbSKEpy.s:7634   .debug_loc:0000000000000574 .LLST54
     /tmp/ccbSKEpy.s:1187   .text:0000000000000714 .LVL170
     /tmp/ccbSKEpy.s:1190   .text:0000000000000720 .LVL171
     /tmp/ccbSKEpy.s:1194   .text:0000000000000728 .LVL172
     /tmp/ccbSKEpy.s:1197   .text:0000000000000734 .LVL173
     /tmp/ccbSKEpy.s:1233   .text:0000000000000760 .LBB157
     /tmp/ccbSKEpy.s:1240   .text:0000000000000764 .LBE157
     /tmp/ccbSKEpy.s:7641   .debug_loc:0000000000000597 .LLST55
     /tmp/ccbSKEpy.s:1248   .text:0000000000000770 .LBB159
     /tmp/ccbSKEpy.s:1266   .text:0000000000000798 .LBE159
     /tmp/ccbSKEpy.s:7648   .debug_loc:00000000000005ba .LLST56
     /tmp/ccbSKEpy.s:1253   .text:0000000000000778 .LVL180
     /tmp/ccbSKEpy.s:1256   .text:0000000000000784 .LVL181
     /tmp/ccbSKEpy.s:1260   .text:000000000000078c .LVL182
     /tmp/ccbSKEpy.s:1263   .text:0000000000000798 .LVL183
     /tmp/ccbSKEpy.s:1274   .text:00000000000007a0 .LBB161
     /tmp/ccbSKEpy.s:1281   .text:00000000000007a4 .LBE161
     /tmp/ccbSKEpy.s:7655   .debug_loc:00000000000005dd .LLST57
     /tmp/ccbSKEpy.s:1288   .text:00000000000007ac .LBB163
     /tmp/ccbSKEpy.s:1306   .text:00000000000007d4 .LBE163
     /tmp/ccbSKEpy.s:7662   .debug_loc:0000000000000600 .LLST58
     /tmp/ccbSKEpy.s:1293   .text:00000000000007b4 .LVL187
     /tmp/ccbSKEpy.s:1296   .text:00000000000007c0 .LVL188
     /tmp/ccbSKEpy.s:1300   .text:00000000000007c8 .LVL189
     /tmp/ccbSKEpy.s:1303   .text:00000000000007d4 .LVL190
     /tmp/ccbSKEpy.s:1405   .text:00000000000008a8 .LBB167
     /tmp/ccbSKEpy.s:1423   .text:00000000000008d0 .LBE167
     /tmp/ccbSKEpy.s:7669   .debug_loc:0000000000000623 .LLST61
     /tmp/ccbSKEpy.s:1410   .text:00000000000008b0 .LVL203
     /tmp/ccbSKEpy.s:1413   .text:00000000000008bc .LVL204
     /tmp/ccbSKEpy.s:1417   .text:00000000000008c4 .LVL205
     /tmp/ccbSKEpy.s:1420   .text:00000000000008d0 .LVL206
     /tmp/ccbSKEpy.s:1433   .text:00000000000008dc .LBB169
     /tmp/ccbSKEpy.s:1451   .text:0000000000000904 .LBE169
     /tmp/ccbSKEpy.s:7676   .debug_loc:0000000000000646 .LLST62
     /tmp/ccbSKEpy.s:1438   .text:00000000000008e4 .LVL208
     /tmp/ccbSKEpy.s:1441   .text:00000000000008f0 .LVL209
     /tmp/ccbSKEpy.s:1445   .text:00000000000008f8 .LVL210
     /tmp/ccbSKEpy.s:1448   .text:0000000000000904 .LVL211
     /tmp/ccbSKEpy.s:1468   .text:000000000000091c .LBB171
     /tmp/ccbSKEpy.s:1486   .text:0000000000000944 .LBE171
GAS LISTING /tmp/ccbSKEpy.s 			page 87


     /tmp/ccbSKEpy.s:7683   .debug_loc:0000000000000669 .LLST63
     /tmp/ccbSKEpy.s:1473   .text:0000000000000924 .LVL214
     /tmp/ccbSKEpy.s:1476   .text:0000000000000930 .LVL215
     /tmp/ccbSKEpy.s:1480   .text:0000000000000938 .LVL216
     /tmp/ccbSKEpy.s:1483   .text:0000000000000944 .LVL217
     /tmp/ccbSKEpy.s:1549   .text:00000000000009d4 .LBB173
     /tmp/ccbSKEpy.s:1567   .text:00000000000009fc .LBE173
     /tmp/ccbSKEpy.s:7690   .debug_loc:000000000000068c .LLST64
     /tmp/ccbSKEpy.s:1554   .text:00000000000009dc .LVL225
     /tmp/ccbSKEpy.s:1557   .text:00000000000009e8 .LVL226
     /tmp/ccbSKEpy.s:1561   .text:00000000000009f0 .LVL227
     /tmp/ccbSKEpy.s:1564   .text:00000000000009fc .LVL228
     /tmp/ccbSKEpy.s:1353   .text:000000000000083c .LVL196
     /tmp/ccbSKEpy.s:1362   .text:0000000000000858 .LVL197
     /tmp/ccbSKEpy.s:1500   .text:0000000000000968 .LVL218
     /tmp/ccbSKEpy.s:1505   .text:0000000000000974 .LVL219
     /tmp/ccbSKEpy.s:1514   .text:000000000000098c .LVL221
     /tmp/ccbSKEpy.s:1523   .text:00000000000009a8 .LVL222
     /tmp/ccbSKEpy.s:1538   .text:00000000000009c8 .LVL223
     /tmp/ccbSKEpy.s:1581   .text:0000000000000a20 .LVL229
     /tmp/ccbSKEpy.s:1587   .text:0000000000000a30 .LVL230
     /tmp/ccbSKEpy.s:1593   .text:0000000000000a40 .LVL231
     /tmp/ccbSKEpy.s:1598   .text:0000000000000a4c .LVL232
     /tmp/ccbSKEpy.s:1606   .text:0000000000000a64 .LVL233
     /tmp/ccbSKEpy.s:1615   .text:0000000000000a80 .LVL234
     /tmp/ccbSKEpy.s:1631   .text:0000000000000aa4 .LVL235
     /tmp/ccbSKEpy.s:1644   .text:0000000000000abc .LVL236
     /tmp/ccbSKEpy.s:1659   .text:0000000000000ae0 .LVL237
     /tmp/ccbSKEpy.s:1664   .text:0000000000000aec .LVL238
     /tmp/ccbSKEpy.s:1672   .text:0000000000000b04 .LVL239
     /tmp/ccbSKEpy.s:1681   .text:0000000000000b20 .LVL240
     /tmp/ccbSKEpy.s:1697   .text:0000000000000b44 .LVL241
     /tmp/ccbSKEpy.s:1710   .text:0000000000000b5c .LVL242
     /tmp/ccbSKEpy.s:1721   .text:0000000000000b70 .LVL243
     /tmp/ccbSKEpy.s:1729   .text:0000000000000b88 .LVL244
     /tmp/ccbSKEpy.s:1746   .text:0000000000000bac .LVL245
     /tmp/ccbSKEpy.s:1758   .text:0000000000000bc8 .LVL246
     /tmp/ccbSKEpy.s:1767   .text:0000000000000bdc .LVL247
     /tmp/ccbSKEpy.s:1775   .text:0000000000000bf4 .LVL248
     /tmp/ccbSKEpy.s:1784   .text:0000000000000c10 .LVL249
     /tmp/ccbSKEpy.s:1892   .text:0000000000000d18 .LVL260
     /tmp/ccbSKEpy.s:1905   .text:0000000000000d30 .LVL261
     /tmp/ccbSKEpy.s:1971   .text:0000000000000da4 .LVL267
     /tmp/ccbSKEpy.s:1980   .text:0000000000000db8 .LVL268
     /tmp/ccbSKEpy.s:1993   .text:0000000000000dd0 .LVL269
     /tmp/ccbSKEpy.s:2009   .text:0000000000000df0 .LVL272
     /tmp/ccbSKEpy.s:2013   .text:0000000000000dfc .LVL273
     /tmp/ccbSKEpy.s:1019   .text:000000000000064c .LFE25
     /tmp/ccbSKEpy.s:7697   .debug_loc:00000000000006af .LLST13
     /tmp/ccbSKEpy.s:7719   .debug_loc:000000000000070e .LLST14
     /tmp/ccbSKEpy.s:7759   .debug_loc:00000000000007ac .LLST15
     /tmp/ccbSKEpy.s:8926   .debug_str:00000000000005ae .LASF123
     /tmp/ccbSKEpy.s:7770   .debug_loc:00000000000007e2 .LLST16
     /tmp/ccbSKEpy.s:7798   .debug_loc:0000000000000865 .LLST17
     /tmp/ccbSKEpy.s:9022   .debug_str:0000000000000a16 .LASF124
     /tmp/ccbSKEpy.s:490    .text:000000000000025c .LBB87
     /tmp/ccbSKEpy.s:517    .text:0000000000000290 .LBE87
GAS LISTING /tmp/ccbSKEpy.s 			page 88


     /tmp/ccbSKEpy.s:7853   .debug_loc:000000000000095d .LLST29
     /tmp/ccbSKEpy.s:505    .text:0000000000000278 .LVL60
     /tmp/ccbSKEpy.s:7868   .debug_loc:00000000000009a6 .LLST30
     /tmp/ccbSKEpy.s:8858   .debug_str:00000000000002f0 .LASF125
     /tmp/ccbSKEpy.s:7875   .debug_loc:00000000000009c9 .LLST31
     /tmp/ccbSKEpy.s:8818   .debug_str:0000000000000130 .LASF126
     /tmp/ccbSKEpy.s:7890   .debug_loc:0000000000000a12 .LLST32
     /tmp/ccbSKEpy.s:536    .text:00000000000002a4 .LBB90
     /tmp/ccbSKEpy.s:554    .text:00000000000002cc .LBE90
     /tmp/ccbSKEpy.s:7901   .debug_loc:0000000000000a48 .LLST33
     /tmp/ccbSKEpy.s:541    .text:00000000000002ac .LVL65
     /tmp/ccbSKEpy.s:544    .text:00000000000002b8 .LVL66
     /tmp/ccbSKEpy.s:548    .text:00000000000002c0 .LVL67
     /tmp/ccbSKEpy.s:551    .text:00000000000002cc .LVL68
     /tmp/ccbSKEpy.s:565    .text:00000000000002d8 .LBB92
     /tmp/ccbSKEpy.s:583    .text:0000000000000300 .LBE92
     /tmp/ccbSKEpy.s:7908   .debug_loc:0000000000000a6b .LLST34
     /tmp/ccbSKEpy.s:570    .text:00000000000002e0 .LVL71
     /tmp/ccbSKEpy.s:573    .text:00000000000002ec .LVL72
     /tmp/ccbSKEpy.s:577    .text:00000000000002f4 .LVL73
     /tmp/ccbSKEpy.s:580    .text:0000000000000300 .LVL74
     /tmp/ccbSKEpy.s:593    .text:000000000000030c .LBB94
     /tmp/ccbSKEpy.s:610    .text:0000000000000334 .LBE94
     /tmp/ccbSKEpy.s:7915   .debug_loc:0000000000000a8e .LLST35
     /tmp/ccbSKEpy.s:598    .text:0000000000000314 .LVL76
     /tmp/ccbSKEpy.s:601    .text:0000000000000320 .LVL77
     /tmp/ccbSKEpy.s:605    .text:0000000000000328 .LVL78
     /tmp/ccbSKEpy.s:608    .text:0000000000000334 .LVL79
     /tmp/ccbSKEpy.s:647    .text:0000000000000378 .LVL84
     /tmp/ccbSKEpy.s:656    .text:0000000000000390 .LVL85
     /tmp/ccbSKEpy.s:666    .text:00000000000003a8 .LVL88
     /tmp/ccbSKEpy.s:679    .text:00000000000003c8 .LVL90
     /tmp/ccbSKEpy.s:690    .text:00000000000003d8 .LBB98
     /tmp/ccbSKEpy.s:758    .text:0000000000000450 .LBE98
     /tmp/ccbSKEpy.s:7922   .debug_loc:0000000000000ab1 .LLST36
     /tmp/ccbSKEpy.s:700    .text:00000000000003e4 .LBB99
     /tmp/ccbSKEpy.s:718    .text:000000000000040c .LBE99
     /tmp/ccbSKEpy.s:7937   .debug_loc:0000000000000afa .LLST37
     /tmp/ccbSKEpy.s:705    .text:00000000000003ec .LVL94
     /tmp/ccbSKEpy.s:708    .text:00000000000003f8 .LVL95
     /tmp/ccbSKEpy.s:712    .text:0000000000000400 .LVL96
     /tmp/ccbSKEpy.s:715    .text:000000000000040c .LVL97
     /tmp/ccbSKEpy.s:751    .text:0000000000000444 .LVL104
     /tmp/ccbSKEpy.s:7944   .debug_loc:0000000000000b1d .LLST40
     /tmp/ccbSKEpy.s:905    .text:000000000000057c .LBB106
     /tmp/ccbSKEpy.s:923    .text:00000000000005a4 .LBE106
     /tmp/ccbSKEpy.s:7964   .debug_loc:0000000000000b7a .LLST41
     /tmp/ccbSKEpy.s:910    .text:0000000000000584 .LVL133
     /tmp/ccbSKEpy.s:913    .text:0000000000000590 .LVL134
     /tmp/ccbSKEpy.s:917    .text:0000000000000598 .LVL135
     /tmp/ccbSKEpy.s:920    .text:00000000000005a4 .LVL136
     /tmp/ccbSKEpy.s:952    .text:00000000000005e0 .LVL141
     /tmp/ccbSKEpy.s:254    .text:00000000000000f4 .LBB69
     /tmp/ccbSKEpy.s:268    .text:000000000000010c .LBE69
     /tmp/ccbSKEpy.s:7971   .debug_loc:0000000000000b9d .LLST18
     /tmp/ccbSKEpy.s:260    .text:00000000000000fc .LVL25
     /tmp/ccbSKEpy.s:263    .text:0000000000000108 .LVL26
GAS LISTING /tmp/ccbSKEpy.s 			page 89


     /tmp/ccbSKEpy.s:269    .text:000000000000010c .LBB71
     /tmp/ccbSKEpy.s:338    .text:0000000000000174 .LBE71
     /tmp/ccbSKEpy.s:7980   .debug_loc:0000000000000bc2 .LLST19
     /tmp/ccbSKEpy.s:7993   .debug_loc:0000000000000bfa .LLST20
     /tmp/ccbSKEpy.s:8011   .debug_loc:0000000000000c46 .LLST21
     /tmp/ccbSKEpy.s:310    .text:0000000000000154 .LBB74
     /tmp/ccbSKEpy.s:335    .text:0000000000000174 .LBE74
     /tmp/ccbSKEpy.s:8022   .debug_loc:0000000000000c7c .LLST22
     /tmp/ccbSKEpy.s:287    .text:000000000000012c .LVL28
     /tmp/ccbSKEpy.s:297    .text:0000000000000144 .LVL29
     /tmp/ccbSKEpy.s:340    .text:0000000000000174 .LBB75
     /tmp/ccbSKEpy.s:347    .text:0000000000000178 .LBE75
     /tmp/ccbSKEpy.s:8044   .debug_loc:0000000000000cdb .LLST23
     /tmp/ccbSKEpy.s:355    .text:0000000000000184 .LBB77
     /tmp/ccbSKEpy.s:374    .text:00000000000001ac .LBE77
     /tmp/ccbSKEpy.s:8051   .debug_loc:0000000000000cfe .LLST24
     /tmp/ccbSKEpy.s:361    .text:000000000000018c .LVL37
     /tmp/ccbSKEpy.s:364    .text:0000000000000198 .LVL38
     /tmp/ccbSKEpy.s:368    .text:00000000000001a0 .LVL39
     /tmp/ccbSKEpy.s:371    .text:00000000000001ac .LVL40
     /tmp/ccbSKEpy.s:411    .text:00000000000001e0 .LBB79
     /tmp/ccbSKEpy.s:418    .text:00000000000001e4 .LBE79
     /tmp/ccbSKEpy.s:8058   .debug_loc:0000000000000d21 .LLST25
     /tmp/ccbSKEpy.s:426    .text:00000000000001f0 .LBB81
     /tmp/ccbSKEpy.s:444    .text:0000000000000218 .LBE81
     /tmp/ccbSKEpy.s:8065   .debug_loc:0000000000000d44 .LLST26
     /tmp/ccbSKEpy.s:431    .text:00000000000001f8 .LVL47
     /tmp/ccbSKEpy.s:434    .text:0000000000000204 .LVL48
     /tmp/ccbSKEpy.s:438    .text:000000000000020c .LVL49
     /tmp/ccbSKEpy.s:441    .text:0000000000000218 .LVL50
     /tmp/ccbSKEpy.s:452    .text:0000000000000220 .LBB83
     /tmp/ccbSKEpy.s:459    .text:0000000000000224 .LBE83
     /tmp/ccbSKEpy.s:8072   .debug_loc:0000000000000d67 .LLST27
     /tmp/ccbSKEpy.s:466    .text:000000000000022c .LBB85
     /tmp/ccbSKEpy.s:484    .text:0000000000000254 .LBE85
     /tmp/ccbSKEpy.s:8079   .debug_loc:0000000000000d8a .LLST28
     /tmp/ccbSKEpy.s:471    .text:0000000000000234 .LVL54
     /tmp/ccbSKEpy.s:474    .text:0000000000000240 .LVL55
     /tmp/ccbSKEpy.s:478    .text:0000000000000248 .LVL56
     /tmp/ccbSKEpy.s:481    .text:0000000000000254 .LVL57
     /tmp/ccbSKEpy.s:798    .text:00000000000004b0 .LBB101
     /tmp/ccbSKEpy.s:816    .text:00000000000004d8 .LBE101
     /tmp/ccbSKEpy.s:8086   .debug_loc:0000000000000dad .LLST38
     /tmp/ccbSKEpy.s:803    .text:00000000000004b8 .LVL112
     /tmp/ccbSKEpy.s:806    .text:00000000000004c4 .LVL113
     /tmp/ccbSKEpy.s:810    .text:00000000000004cc .LVL114
     /tmp/ccbSKEpy.s:813    .text:00000000000004d8 .LVL115
     /tmp/ccbSKEpy.s:854    .text:0000000000000524 .LBB103
     /tmp/ccbSKEpy.s:872    .text:000000000000054c .LBE103
     /tmp/ccbSKEpy.s:8093   .debug_loc:0000000000000dd0 .LLST39
     /tmp/ccbSKEpy.s:859    .text:000000000000052c .LVL124
     /tmp/ccbSKEpy.s:862    .text:0000000000000538 .LVL125
     /tmp/ccbSKEpy.s:866    .text:0000000000000540 .LVL126
     /tmp/ccbSKEpy.s:869    .text:000000000000054c .LVL127
     /tmp/ccbSKEpy.s:971    .text:00000000000005f8 .LBB109
     /tmp/ccbSKEpy.s:8100   .debug_loc:0000000000000df3 .LLST42
     /tmp/ccbSKEpy.s:976    .text:0000000000000600 .LVL145
GAS LISTING /tmp/ccbSKEpy.s 			page 90


     /tmp/ccbSKEpy.s:979    .text:000000000000060c .LVL146
     /tmp/ccbSKEpy.s:983    .text:0000000000000614 .LVL147
     /tmp/ccbSKEpy.s:986    .text:0000000000000620 .LVL148
     /tmp/ccbSKEpy.s:764    .text:0000000000000460 .LVL105
     /tmp/ccbSKEpy.s:770    .text:0000000000000470 .LVL106
     /tmp/ccbSKEpy.s:776    .text:0000000000000480 .LVL107
     /tmp/ccbSKEpy.s:781    .text:000000000000048c .LVL108
     /tmp/ccbSKEpy.s:791    .text:00000000000004a8 .LVL110
     /tmp/ccbSKEpy.s:830    .text:00000000000004f4 .LVL118
     /tmp/ccbSKEpy.s:840    .text:000000000000050c .LVL121
     /tmp/ccbSKEpy.s:1012   .text:0000000000000640 .LVL154
     /tmp/ccbSKEpy.s:1016   .text:000000000000064c .LVL155
     /tmp/ccbSKEpy.s:182    .text:000000000000008c .LFB24
     /tmp/ccbSKEpy.s:216    .text:00000000000000c0 .LFE24
     /tmp/ccbSKEpy.s:8107   .debug_loc:0000000000000e16 .LLST10
     /tmp/ccbSKEpy.s:8121   .debug_loc:0000000000000e4f .LLST11
     /tmp/ccbSKEpy.s:8135   .debug_loc:0000000000000e88 .LLST12
     /tmp/ccbSKEpy.s:136    .text:0000000000000058 .LFB23
     /tmp/ccbSKEpy.s:176    .text:000000000000008c .LFE23
     /tmp/ccbSKEpy.s:8149   .debug_loc:0000000000000ec1 .LLST5
     /tmp/ccbSKEpy.s:8163   .debug_loc:0000000000000efa .LLST6
     /tmp/ccbSKEpy.s:8810   .debug_str:00000000000000e2 .LASF127
     /tmp/ccbSKEpy.s:8177   .debug_loc:0000000000000f33 .LLST7
     /tmp/ccbSKEpy.s:8195   .debug_loc:0000000000000f70 .LLST8
     /tmp/ccbSKEpy.s:8229   .debug_loc:0000000000000fbd .LLST9
     /tmp/ccbSKEpy.s:96     .text:000000000000002c .LFB22
     /tmp/ccbSKEpy.s:130    .text:0000000000000058 .LFE22
     /tmp/ccbSKEpy.s:8265   .debug_loc:000000000000100c .LLST2
     /tmp/ccbSKEpy.s:8279   .debug_loc:0000000000001045 .LLST3
     /tmp/ccbSKEpy.s:8293   .debug_loc:000000000000107e .LLST4
     /tmp/ccbSKEpy.s:61     .text:0000000000000000 .LFB21
     /tmp/ccbSKEpy.s:90     .text:000000000000002c .LFE21
     /tmp/ccbSKEpy.s:8308   .debug_loc:00000000000010b8 .LLST1
     /tmp/ccbSKEpy.s:2261   .text:0000000000000edc .LFB20
     /tmp/ccbSKEpy.s:2421   .text:0000000000000fa4 .LFE20
     /tmp/ccbSKEpy.s:8322   .debug_loc:00000000000010f1 .LLST74
     /tmp/ccbSKEpy.s:8446   .debug_loc:00000000000012c4 .LLST75
     /tmp/ccbSKEpy.s:8468   .debug_loc:0000000000001323 .LLST76
     /tmp/ccbSKEpy.s:2307   .text:0000000000000f20 .LVL293
     /tmp/ccbSKEpy.s:2327   .text:0000000000000f38 .LVL295
     /tmp/ccbSKEpy.s:2337   .text:0000000000000f44 .LVL297
     /tmp/ccbSKEpy.s:2347   .text:0000000000000f50 .LVL299
     /tmp/ccbSKEpy.s:2357   .text:0000000000000f5c .LVL301
     /tmp/ccbSKEpy.s:2367   .text:0000000000000f68 .LVL303
     /tmp/ccbSKEpy.s:2377   .text:0000000000000f74 .LVL305
     /tmp/ccbSKEpy.s:2387   .text:0000000000000f80 .LVL307
     /tmp/ccbSKEpy.s:2397   .text:0000000000000f8c .LVL309
     /tmp/ccbSKEpy.s:2407   .text:0000000000000f98 .LVL311
     /tmp/ccbSKEpy.s:2438   .text:0000000000000fa4 .LFB19
     /tmp/ccbSKEpy.s:2590   .text:00000000000010b0 .LFE19
     /tmp/ccbSKEpy.s:8585   .debug_loc:00000000000014e0 .LLST77
     /tmp/ccbSKEpy.s:8613   .debug_loc:0000000000001554 .LLST78
     /tmp/ccbSKEpy.s:9064   .debug_str:0000000000000c64 .LASF128
     /tmp/ccbSKEpy.s:8624   .debug_loc:000000000000158a .LLST79
     /tmp/ccbSKEpy.s:8834   .debug_str:00000000000001d6 .LASF129
     /tmp/ccbSKEpy.s:8658   .debug_loc:0000000000001604 .LLST80
     /tmp/ccbSKEpy.s:8992   .debug_str:000000000000087e .LASF130
GAS LISTING /tmp/ccbSKEpy.s 			page 91


     /tmp/ccbSKEpy.s:8669   .debug_loc:000000000000163a .LLST81
     /tmp/ccbSKEpy.s:8689   .debug_loc:0000000000001688 .LLST82
     /tmp/ccbSKEpy.s:2488   .text:0000000000000ff8 .LVL319
     /tmp/ccbSKEpy.s:2493   .text:0000000000001004 .LVL320
     /tmp/ccbSKEpy.s:2498   .text:0000000000001014 .LVL321
     /tmp/ccbSKEpy.s:2540   .text:0000000000001050 .LVL326
     /tmp/ccbSKEpy.s:2557   .text:0000000000001070 .LVL328
     /tmp/ccbSKEpy.s:2565   .text:0000000000001088 .LVL329
     /tmp/ccbSKEpy.s:8836   .debug_str:00000000000001e2 .LASF131
     /tmp/ccbSKEpy.s:9006   .debug_str:0000000000000983 .LASF132
     /tmp/ccbSKEpy.s:8816   .debug_str:0000000000000116 .LASF133
     /tmp/ccbSKEpy.s:11     .text._ZN16KObjectAllocatordlEPv:0000000000000000 .LFB10
     /tmp/ccbSKEpy.s:54     .text._ZN16KObjectAllocatordlEPv:0000000000000054 .LFE10
     /tmp/ccbSKEpy.s:8705   .debug_loc:00000000000016d2 .LLST0
     /tmp/ccbSKEpy.s:30     .text._ZN16KObjectAllocatordlEPv:0000000000000020 .LVL1
     /tmp/ccbSKEpy.s:33     .text._ZN16KObjectAllocatordlEPv:000000000000002c .LVL2
     /tmp/ccbSKEpy.s:37     .text._ZN16KObjectAllocatordlEPv:0000000000000034 .LVL3
     /tmp/ccbSKEpy.s:40     .text._ZN16KObjectAllocatordlEPv:0000000000000040 .LVL4
     /tmp/ccbSKEpy.s:8804   .debug_str:00000000000000a1 .LASF144
     /tmp/ccbSKEpy.s:8852   .debug_str:00000000000002a0 .LASF145
     /tmp/ccbSKEpy.s:9070   .debug_str:0000000000000ca2 .LASF134
     /tmp/ccbSKEpy.s:8802   .debug_str:0000000000000095 .LASF136
     /tmp/ccbSKEpy.s:8942   .debug_str:0000000000000637 .LASF135
     /tmp/ccbSKEpy.s:8884   .debug_str:0000000000000386 .LASF137
     /tmp/ccbSKEpy.s:2237   .text:0000000000000ec0 .LVL288
     /tmp/ccbSKEpy.s:2247   .text:0000000000000ed0 .LVL289
     /tmp/ccbSKEpy.s:2210   .text:0000000000000ea4 .LVL286
     /tmp/ccbSKEpy.s:2220   .text:0000000000000eb4 .LVL287
     /tmp/ccbSKEpy.s:2183   .text:0000000000000e88 .LVL284
     /tmp/ccbSKEpy.s:2193   .text:0000000000000e98 .LVL285
     /tmp/ccbSKEpy.s:2156   .text:0000000000000e6c .LVL282
     /tmp/ccbSKEpy.s:2166   .text:0000000000000e7c .LVL283
     /tmp/ccbSKEpy.s:2129   .text:0000000000000e50 .LVL280
     /tmp/ccbSKEpy.s:2139   .text:0000000000000e60 .LVL281
     /tmp/ccbSKEpy.s:2102   .text:0000000000000e34 .LVL278
     /tmp/ccbSKEpy.s:2112   .text:0000000000000e44 .LVL279
     /tmp/ccbSKEpy.s:2075   .text:0000000000000e18 .LVL276
     /tmp/ccbSKEpy.s:2085   .text:0000000000000e28 .LVL277
     /tmp/ccbSKEpy.s:2048   .text:0000000000000dfc .LVL274
     /tmp/ccbSKEpy.s:2058   .text:0000000000000e0c .LVL275
     /tmp/ccbSKEpy.s:1054   .text:000000000000064c .LVL156
     /tmp/ccbSKEpy.s:1221   .text:0000000000000750 .LVL176
     /tmp/ccbSKEpy.s:1229   .text:0000000000000760 .LVL177
     /tmp/ccbSKEpy.s:1204   .text:0000000000000738 .LVL174
     /tmp/ccbSKEpy.s:1315   .text:00000000000007e0 .LVL191
     /tmp/ccbSKEpy.s:2002   .text:0000000000000de0 .LVL270
     /tmp/ccbSKEpy.s:2005   .text:0000000000000de4 .LVL271
     /tmp/ccbSKEpy.s:1159   .text:00000000000006fc .LVL167
     /tmp/ccbSKEpy.s:1216   .text:0000000000000748 .LVL175
     /tmp/ccbSKEpy.s:1323   .text:00000000000007ec .LVL192
     /tmp/ccbSKEpy.s:1339   .text:0000000000000818 .LVL194
     /tmp/ccbSKEpy.s:1348   .text:0000000000000828 .LVL195
     /tmp/ccbSKEpy.s:1375   .text:000000000000086c .LVL198
     /tmp/ccbSKEpy.s:1382   .text:0000000000000878 .LVL199
     /tmp/ccbSKEpy.s:1398   .text:00000000000008a4 .LVL201
     /tmp/ccbSKEpy.s:1456   .text:000000000000090c .LVL212
     /tmp/ccbSKEpy.s:1507   .text:0000000000000978 .LVL220
GAS LISTING /tmp/ccbSKEpy.s 			page 92


     /tmp/ccbSKEpy.s:1798   .text:0000000000000c28 .LVL250
     /tmp/ccbSKEpy.s:1882   .text:0000000000000d04 .LVL259
     /tmp/ccbSKEpy.s:1911   .text:0000000000000d38 .LVL262
     /tmp/ccbSKEpy.s:1077   .text:000000000000067c .LVL157
     /tmp/ccbSKEpy.s:1090   .text:0000000000000694 .LVL160
     /tmp/ccbSKEpy.s:1134   .text:00000000000006dc .LVL163
     /tmp/ccbSKEpy.s:1138   .text:00000000000006e0 .LVL164
     /tmp/ccbSKEpy.s:1148   .text:00000000000006ec .LVL165
     /tmp/ccbSKEpy.s:1155   .text:00000000000006f8 .LVL166
     /tmp/ccbSKEpy.s:1171   .text:0000000000000700 .LVL168
     /tmp/ccbSKEpy.s:1180   .text:000000000000070c .LVL169
     /tmp/ccbSKEpy.s:1238   .text:0000000000000764 .LVL178
     /tmp/ccbSKEpy.s:1247   .text:0000000000000770 .LVL179
     /tmp/ccbSKEpy.s:1273   .text:00000000000007a0 .LVL184
     /tmp/ccbSKEpy.s:1279   .text:00000000000007a4 .LVL185
     /tmp/ccbSKEpy.s:1287   .text:00000000000007ac .LVL186
     /tmp/ccbSKEpy.s:1404   .text:00000000000008a8 .LVL202
     /tmp/ccbSKEpy.s:1432   .text:00000000000008dc .LVL207
     /tmp/ccbSKEpy.s:1467   .text:000000000000091c .LVL213
     /tmp/ccbSKEpy.s:1548   .text:00000000000009d4 .LVL224
     /tmp/ccbSKEpy.s:227    .text:00000000000000c0 .LVL23
     /tmp/ccbSKEpy.s:395    .text:00000000000001c8 .LVL43
     /tmp/ccbSKEpy.s:407    .text:00000000000001e0 .LVL44
     /tmp/ccbSKEpy.s:378    .text:00000000000001b0 .LVL41
     /tmp/ccbSKEpy.s:493    .text:0000000000000260 .LVL58
     /tmp/ccbSKEpy.s:1005   .text:0000000000000630 .LVL152
     /tmp/ccbSKEpy.s:1008   .text:0000000000000634 .LVL153
     /tmp/ccbSKEpy.s:334    .text:0000000000000174 .LVL34
     /tmp/ccbSKEpy.s:390    .text:00000000000001c0 .LVL42
     /tmp/ccbSKEpy.s:528    .text:00000000000002a0 .LVL63
     /tmp/ccbSKEpy.s:832    .text:00000000000004f8 .LVL119
     /tmp/ccbSKEpy.s:838    .text:0000000000000504 .LVL120
     /tmp/ccbSKEpy.s:876    .text:0000000000000550 .LVL128
     /tmp/ccbSKEpy.s:878    .text:0000000000000554 .LVL129
     /tmp/ccbSKEpy.s:888    .text:000000000000056c .LVL130
     /tmp/ccbSKEpy.s:898    .text:0000000000000578 .LVL131
     /tmp/ccbSKEpy.s:617    .text:000000000000033c .LVL80
     /tmp/ccbSKEpy.s:621    .text:0000000000000340 .LVL81
     /tmp/ccbSKEpy.s:728    .text:0000000000000418 .LVL100
     /tmp/ccbSKEpy.s:732    .text:000000000000041c .LVL101
     /tmp/ccbSKEpy.s:783    .text:0000000000000490 .LVL109
     /tmp/ccbSKEpy.s:842    .text:0000000000000510 .LVL122
     /tmp/ccbSKEpy.s:959    .text:00000000000005ec .LVL142
     /tmp/ccbSKEpy.s:964    .text:00000000000005f4 .LVL143
     /tmp/ccbSKEpy.s:501    .text:000000000000026c .LVL59
     /tmp/ccbSKEpy.s:515    .text:0000000000000290 .LVL61
     /tmp/ccbSKEpy.s:524    .text:0000000000000298 .LVL62
     /tmp/ccbSKEpy.s:559    .text:00000000000002d4 .LVL69
     /tmp/ccbSKEpy.s:629    .text:0000000000000348 .LVL83
     /tmp/ccbSKEpy.s:658    .text:0000000000000394 .LVL86
     /tmp/ccbSKEpy.s:664    .text:00000000000003a0 .LVL87
     /tmp/ccbSKEpy.s:686    .text:00000000000003d8 .LVL91
     /tmp/ccbSKEpy.s:677    .text:00000000000003c0 .LVL89
     /tmp/ccbSKEpy.s:535    .text:00000000000002a4 .LVL64
     /tmp/ccbSKEpy.s:564    .text:00000000000002d8 .LVL70
     /tmp/ccbSKEpy.s:592    .text:000000000000030c .LVL75
     /tmp/ccbSKEpy.s:694    .text:00000000000003e0 .LVL92
GAS LISTING /tmp/ccbSKEpy.s 			page 93


     /tmp/ccbSKEpy.s:722    .text:0000000000000410 .LVL98
     /tmp/ccbSKEpy.s:724    .text:0000000000000414 .LVL99
     /tmp/ccbSKEpy.s:820    .text:00000000000004dc .LVL116
     /tmp/ccbSKEpy.s:822    .text:00000000000004e0 .LVL117
     /tmp/ccbSKEpy.s:699    .text:00000000000003e4 .LVL93
     /tmp/ccbSKEpy.s:927    .text:00000000000005a8 .LVL137
     /tmp/ccbSKEpy.s:929    .text:00000000000005ac .LVL138
     /tmp/ccbSKEpy.s:992    .text:0000000000000624 .LVL149
     /tmp/ccbSKEpy.s:997    .text:0000000000000628 .LVL150
     /tmp/ccbSKEpy.s:1003   .text:000000000000062c .LVL151
     /tmp/ccbSKEpy.s:904    .text:000000000000057c .LVL132
     /tmp/ccbSKEpy.s:253    .text:00000000000000f4 .LVL24
     /tmp/ccbSKEpy.s:266    .text:000000000000010c .LVL27
     /tmp/ccbSKEpy.s:309    .text:0000000000000154 .LVL30
     /tmp/ccbSKEpy.s:313    .text:0000000000000158 .LVL31
     /tmp/ccbSKEpy.s:323    .text:0000000000000164 .LVL32
     /tmp/ccbSKEpy.s:330    .text:0000000000000170 .LVL33
     /tmp/ccbSKEpy.s:345    .text:0000000000000178 .LVL35
     /tmp/ccbSKEpy.s:354    .text:0000000000000184 .LVL36
     /tmp/ccbSKEpy.s:416    .text:00000000000001e4 .LVL45
     /tmp/ccbSKEpy.s:425    .text:00000000000001f0 .LVL46
     /tmp/ccbSKEpy.s:451    .text:0000000000000220 .LVL51
     /tmp/ccbSKEpy.s:457    .text:0000000000000224 .LVL52
     /tmp/ccbSKEpy.s:465    .text:000000000000022c .LVL53
     /tmp/ccbSKEpy.s:797    .text:00000000000004b0 .LVL111
     /tmp/ccbSKEpy.s:853    .text:0000000000000524 .LVL123
     /tmp/ccbSKEpy.s:970    .text:00000000000005f8 .LVL144
     /tmp/ccbSKEpy.s:185    .text:000000000000008c .LVL19
     /tmp/ccbSKEpy.s:195    .text:000000000000009c .LVL20
     /tmp/ccbSKEpy.s:198    .text:00000000000000a0 .LVL21
     /tmp/ccbSKEpy.s:204    .text:00000000000000ac .LVL22
     /tmp/ccbSKEpy.s:139    .text:0000000000000058 .LVL13
     /tmp/ccbSKEpy.s:149    .text:0000000000000068 .LVL14
     /tmp/ccbSKEpy.s:152    .text:000000000000006c .LVL15
     /tmp/ccbSKEpy.s:162    .text:0000000000000078 .LVL17
     /tmp/ccbSKEpy.s:158    .text:0000000000000074 .LVL16
     /tmp/ccbSKEpy.s:166    .text:000000000000007c .LVL18
     /tmp/ccbSKEpy.s:99     .text:000000000000002c .LVL8
     /tmp/ccbSKEpy.s:109    .text:000000000000003c .LVL9
     /tmp/ccbSKEpy.s:112    .text:0000000000000040 .LVL10
     /tmp/ccbSKEpy.s:118    .text:0000000000000048 .LVL11
     /tmp/ccbSKEpy.s:122    .text:000000000000004c .LVL12
     /tmp/ccbSKEpy.s:65     .text:0000000000000000 .LVL6
     /tmp/ccbSKEpy.s:78     .text:0000000000000018 .LVL7
     /tmp/ccbSKEpy.s:2264   .text:0000000000000edc .LVL290
     /tmp/ccbSKEpy.s:2319   .text:0000000000000f30 .LVL294
     /tmp/ccbSKEpy.s:2330   .text:0000000000000f3c .LVL296
     /tmp/ccbSKEpy.s:2340   .text:0000000000000f48 .LVL298
     /tmp/ccbSKEpy.s:2350   .text:0000000000000f54 .LVL300
     /tmp/ccbSKEpy.s:2360   .text:0000000000000f60 .LVL302
     /tmp/ccbSKEpy.s:2370   .text:0000000000000f6c .LVL304
     /tmp/ccbSKEpy.s:2380   .text:0000000000000f78 .LVL306
     /tmp/ccbSKEpy.s:2390   .text:0000000000000f84 .LVL308
     /tmp/ccbSKEpy.s:2400   .text:0000000000000f90 .LVL310
     /tmp/ccbSKEpy.s:2410   .text:0000000000000f9c .LVL312
     /tmp/ccbSKEpy.s:2417   .text:0000000000000fa0 .LVL313
     /tmp/ccbSKEpy.s:2279   .text:0000000000000efc .LVL291
GAS LISTING /tmp/ccbSKEpy.s 			page 94


     /tmp/ccbSKEpy.s:2281   .text:0000000000000f00 .LVL292
     /tmp/ccbSKEpy.s:2441   .text:0000000000000fa4 .LVL314
     /tmp/ccbSKEpy.s:2469   .text:0000000000000fd8 .LVL316
     /tmp/ccbSKEpy.s:2518   .text:000000000000102c .LVL322
     /tmp/ccbSKEpy.s:2526   .text:0000000000001038 .LVL324
     /tmp/ccbSKEpy.s:2530   .text:0000000000001040 .LVL325
     /tmp/ccbSKEpy.s:2476   .text:0000000000000fe0 .LVL317
     /tmp/ccbSKEpy.s:2583   .text:00000000000010a8 .LVL331
     /tmp/ccbSKEpy.s:2467   .text:0000000000000fd4 .LVL315
     /tmp/ccbSKEpy.s:2523   .text:0000000000001034 .LVL323
     /tmp/ccbSKEpy.s:2482   .text:0000000000000fe8 .LVL318
     /tmp/ccbSKEpy.s:15     .text._ZN16KObjectAllocatordlEPv:0000000000000000 .LVL0
     /tmp/ccbSKEpy.s:49     .text._ZN16KObjectAllocatordlEPv:000000000000004c .LVL5
     /tmp/ccbSKEpy.s:2619   .debug_info:0000000000000000 .Ldebug_info0
     /tmp/ccbSKEpy.s:5      .text:0000000000000000 .Ltext0
     /tmp/ccbSKEpy.s:2613   .text:00000000000010b0 .Letext0
     /tmp/ccbSKEpy.s:518    .text:0000000000000290 .LBB88
     /tmp/ccbSKEpy.s:521    .text:0000000000000294 .LBE88
     /tmp/ccbSKEpy.s:530    .text:00000000000002a0 .LBB97
     /tmp/ccbSKEpy.s:689    .text:00000000000003d8 .LBE97
     /tmp/ccbSKEpy.s:531    .text:00000000000002a0 .LBB89
     /tmp/ccbSKEpy.s:626    .text:0000000000000344 .LBE89
     /tmp/ccbSKEpy.s:634    .text:0000000000000350 .LBB96
     /tmp/ccbSKEpy.s:688    .text:00000000000003d8 .LBE96
     /tmp/ccbSKEpy.s:891    .text:000000000000056c .LBB105
     /tmp/ccbSKEpy.s:894    .text:0000000000000570 .LBE105
     /tmp/ccbSKEpy.s:900    .text:0000000000000578 .LBB108
     /tmp/ccbSKEpy.s:966    .text:00000000000005f4 .LBE108
     /tmp/ccbSKEpy.s:989    .text:0000000000000620 .LBE109
     /tmp/ccbSKEpy.s:993    .text:0000000000000624 .LBB112
     /tmp/ccbSKEpy.s:1000   .text:0000000000000628 .LBE112
     /tmp/ccbSKEpy.s:1794   .text:0000000000000c24 .LBB175
     /tmp/ccbSKEpy.s:1885   .text:0000000000000d08 .LBE175
     /tmp/ccbSKEpy.s:1913   .text:0000000000000d38 .LBB176
     /tmp/ccbSKEpy.s:1966   .text:0000000000000d98 .LBE176
     /tmp/ccbSKEpy.s:2464   .text:0000000000000fd0 .LBB177
     /tmp/ccbSKEpy.s:2503   .text:0000000000001014 .LBE177
     /tmp/ccbSKEpy.s:2533   .text:0000000000001040 .LBB182
     /tmp/ccbSKEpy.s:2585   .text:00000000000010a8 .LBE182
     /tmp/ccbSKEpy.s:2478   .text:0000000000000fe0 .LBB179
     /tmp/ccbSKEpy.s:2501   .text:0000000000001014 .LBE179
     /tmp/ccbSKEpy.s:2535   .text:0000000000001040 .LBB180
     /tmp/ccbSKEpy.s:2577   .text:00000000000010a0 .LBE180
     /tmp/ccbSKEpy.s:1022   .gcc_except_table:0000000000000000 .LLSDA25
     /tmp/ccbSKEpy.s:2018   .gcc_except_table:0000000000000038 .LLSDA26

UNDEFINED SYMBOLS
_ZN15MemoryAllocator8instanceEv
_ZN15MemoryAllocator9kmem_freeEPv
_ZN15MemoryAllocator10kmem_allocEm
_ZN16KObjectAllocator17allocateNewObjectEv
_ZN16KObjectAllocator10freeObjectEPv
_Unwind_Resume
__gxx_personality_v0
_Z11printStringPKc
_Z12printIntegerm
