GAS LISTING /tmp/ccY4Dyrh.s 			page 1


   1              		.file	"kObjectAllocator.cpp"
   2              		.option pic
   3              		.option norelax
   4              		.text
   5              	.Ltext0:
   6              		.section	.rodata.str1.8,"aMS",@progbits,1
   7              		.align	3
   8              	.LC0:
   9 0000 0A626974 		.string	"\nbitVector: "
   9      56656374 
   9      6F723A20 
   9      00
  10 000d 000000   		.align	3
  11              	.LC1:
  12 0010 0A6F626A 		.string	"\nobjectVector: "
  12      65637456 
  12      6563746F 
  12      723A2000 
  13              		.align	3
  14              	.LC2:
  15 0020 0A00     		.string	"\n"
  16              		.text
  17              		.align	2
  18              		.globl	_ZN16KObjectAllocator19printInternalMemoryEv
  20              	_ZN16KObjectAllocator19printInternalMemoryEv:
  21              	.LFB16:
  22              		.file 1 "src/kObjectAllocator.cpp"
   1:src/kObjectAllocator.cpp **** #include "../h/kObjectAllocator.hpp"
   2:src/kObjectAllocator.cpp **** #include "../h/print.hpp"
   3:src/kObjectAllocator.cpp **** 
   4:src/kObjectAllocator.cpp **** void KObjectAllocator::printInternalMemory() {
  23              		.loc 1 4 46
  24              		.cfi_startproc
  25              	.LVL0:
  26 0000 130101FE 		addi	sp,sp,-32
  27              		.cfi_def_cfa_offset 32
  28 0004 233C1100 		sd	ra,24(sp)
  29 0008 23388100 		sd	s0,16(sp)
  30 000c 23349100 		sd	s1,8(sp)
  31              		.cfi_offset 1, -8
  32              		.cfi_offset 8, -16
  33              		.cfi_offset 9, -24
  34 0010 13040102 		addi	s0,sp,32
  35              		.cfi_def_cfa 8, 0
  36 0014 93040500 		mv	s1,a0
   5:src/kObjectAllocator.cpp ****     printString("\nbitVector: "); printInteger((uint64)bitVectors[0]);
  37              		.loc 1 5 5
  38              		.loc 1 5 16 is_stmt 0
  39 0018 17050000 		lla	a0,.LC0
  39      13050500 
  40              	.LVL1:
  41 0020 97000000 		call	_Z11printStringPKc@plt
  41      E7800000 
  42              	.LVL2:
  43              		.loc 1 5 35 is_stmt 1
  44              		.loc 1 5 56 is_stmt 0
  45 0028 83B78402 		ld	a5,40(s1)
GAS LISTING /tmp/ccY4Dyrh.s 			page 2


  46              		.loc 1 5 47
  47 002c 03B50700 		ld	a0,0(a5)
  48 0030 97000000 		call	_Z12printIntegerm@plt
  48      E7800000 
  49              	.LVL3:
   6:src/kObjectAllocator.cpp ****     printString("\nobjectVector: "); printInteger((uint64)objectVectors[0]); printString("\n");
  50              		.loc 1 6 5 is_stmt 1
  51              		.loc 1 6 16 is_stmt 0
  52 0038 17050000 		lla	a0,.LC1
  52      13050500 
  53 0040 97000000 		call	_Z11printStringPKc@plt
  53      E7800000 
  54              	.LVL4:
  55              		.loc 1 6 38 is_stmt 1
  56              		.loc 1 6 59 is_stmt 0
  57 0048 83B70402 		ld	a5,32(s1)
  58              		.loc 1 6 50
  59 004c 03B50700 		ld	a0,0(a5)
  60 0050 97000000 		call	_Z12printIntegerm@plt
  60      E7800000 
  61              	.LVL5:
  62              		.loc 1 6 78 is_stmt 1
  63              		.loc 1 6 89 is_stmt 0
  64 0058 17050000 		lla	a0,.LC2
  64      13050500 
  65 0060 97000000 		call	_Z11printStringPKc@plt
  65      E7800000 
  66              	.LVL6:
   7:src/kObjectAllocator.cpp ****     /*for (size_t i = 0; i < memorySizeForBits + numberOfObjects * objectSize; ++i) {
   8:src/kObjectAllocator.cpp ****         if (bitVector[i] / 100 == 0) printInteger((uint8) 0);
   9:src/kObjectAllocator.cpp ****         if (bitVector[i] / 10 == 0) printInteger((uint8) 0);
  10:src/kObjectAllocator.cpp ****         printInteger((uint64) bitVectors[0][i]);
  11:src/kObjectAllocator.cpp ****         printString(" ");
  12:src/kObjectAllocator.cpp ****         if (memorySizeForBits >= 40 && i + 1 == memorySizeForBits) {
  13:src/kObjectAllocator.cpp ****             printString("\n"); for (size_t j = 0; j < memorySizeForBits * 4 - 1; ++j) printString("
  14:src/kObjectAllocator.cpp ****         else if (memorySizeForBits < 40 && i + 1 == memorySizeForBits) printString("| ");
  15:src/kObjectAllocator.cpp ****         if (memorySizeForBits >= 40 && (i + 1) % memorySizeForBits == 0) printString("\n");
  16:src/kObjectAllocator.cpp ****         else if (memorySizeForBits < 40 && (i + 1) % 20 == 0) printString("\n");
  17:src/kObjectAllocator.cpp ****     }*/
  18:src/kObjectAllocator.cpp **** }
  67              		.loc 1 18 1
  68 0068 83308101 		ld	ra,24(sp)
  69              		.cfi_restore 1
  70 006c 03340101 		ld	s0,16(sp)
  71              		.cfi_restore 8
  72              		.cfi_def_cfa 2, 32
  73 0070 83348100 		ld	s1,8(sp)
  74              		.cfi_restore 9
  75              	.LVL7:
  76 0074 13010102 		addi	sp,sp,32
  77              		.cfi_def_cfa_offset 0
  78 0078 67800000 		jr	ra
  79              		.cfi_endproc
  80              	.LFE16:
  82              		.align	2
  83              		.globl	_ZN16KObjectAllocator18allocateFreeObjectEv
  85              	_ZN16KObjectAllocator18allocateFreeObjectEv:
GAS LISTING /tmp/ccY4Dyrh.s 			page 3


  86              	.LFB18:
  19:src/kObjectAllocator.cpp **** 
  20:src/kObjectAllocator.cpp **** void* KObjectAllocator::allocateNewObject() {
  21:src/kObjectAllocator.cpp ****     void* returnedObject = allocateFreeObject();
  22:src/kObjectAllocator.cpp ****     if (returnedObject) return returnedObject;
  23:src/kObjectAllocator.cpp **** 
  24:src/kObjectAllocator.cpp ****     // optimization - search till the place prev search started from:
  25:src/kObjectAllocator.cpp ****     size_t tmp = memorySizeForBits;
  26:src/kObjectAllocator.cpp ****     memorySizeForBits = nextNonTakenByte;
  27:src/kObjectAllocator.cpp **** 
  28:src/kObjectAllocator.cpp ****     nextNonTakenByte = 0;   // start search from start
  29:src/kObjectAllocator.cpp ****     returnedObject = allocateFreeObject();
  30:src/kObjectAllocator.cpp ****     memorySizeForBits = tmp;    // revert back to original memory size for bits
  31:src/kObjectAllocator.cpp ****     if (returnedObject) return returnedObject;
  32:src/kObjectAllocator.cpp **** 
  33:src/kObjectAllocator.cpp ****     if (handleNotEnoughMemoryProblem()) {
  34:src/kObjectAllocator.cpp ****         returnedObject = allocateFreeObject();
  35:src/kObjectAllocator.cpp ****         if (returnedObject) return returnedObject;
  36:src/kObjectAllocator.cpp ****     }
  37:src/kObjectAllocator.cpp ****     return nullptr;
  38:src/kObjectAllocator.cpp **** }
  39:src/kObjectAllocator.cpp **** 
  40:src/kObjectAllocator.cpp **** void* KObjectAllocator::allocateFreeObject() {
  87              		.loc 1 40 46 is_stmt 1
  88              		.cfi_startproc
  89              	.LVL8:
  90 007c 130101FF 		addi	sp,sp,-16
  91              		.cfi_def_cfa_offset 16
  92 0080 23348100 		sd	s0,8(sp)
  93              		.cfi_offset 8, -8
  94 0084 13040101 		addi	s0,sp,16
  95              		.cfi_def_cfa 8, 0
  41:src/kObjectAllocator.cpp ****     for (size_t i = 0; i < numberOfAllocations; ++i) {
  96              		.loc 1 41 5
  97              	.LVL9:
  98              	.LBB2:
  99              		.loc 1 41 17 is_stmt 0
 100 0088 93080000 		li	a7,0
 101              	.LVL10:
 102              	.L5:
 103              		.loc 1 41 26 is_stmt 1 discriminator 1
 104              		.loc 1 41 28 is_stmt 0 discriminator 1
 105 008c 83370503 		ld	a5,48(a0)
 106              		.loc 1 41 26 discriminator 1
 107 0090 63F2F80C 		bleu	a5,a7,.L10
 108              	.LBE2:
  42:src/kObjectAllocator.cpp ****         for (size_t j = nextNonTakenByte; j < (i + 1) * memorySizeForBits; ++j) {
 109              		.loc 1 42 9 is_stmt 1
 110              	.LBB10:
 111              	.LBB3:
 112              		.loc 1 42 21 is_stmt 0
 113 0094 03338503 		ld	t1,56(a0)
 114              	.LVL11:
 115 0098 6F00C009 		j	.L9
 116              	.L11:
 117              	.LBE3:
  41:src/kObjectAllocator.cpp ****     for (size_t i = 0; i < numberOfAllocations; ++i) {
GAS LISTING /tmp/ccY4Dyrh.s 			page 4


 118              		.loc 1 41 5
 119 009c 93880700 		mv	a7,a5
 120              	.LVL12:
 121 00a0 6FF0DFFE 		j	.L5
 122              	.LVL13:
 123              	.L7:
 124              	.LBB8:
 125              	.LBB4:
 126              	.LBB5:
  43:src/kObjectAllocator.cpp ****             size_t byte = j - i * memorySizeForBits;
  44:src/kObjectAllocator.cpp ****             for (size_t bit = 8; bit != 0; --bit)
 127              		.loc 1 44 13 is_stmt 1 discriminator 2
 128 00a4 1307F7FF 		addi	a4,a4,-1
 129              	.LVL14:
 130              	.L8:
 131              		.loc 1 44 38 discriminator 1
 132 00a8 63040708 		beqz	a4,.L6
  45:src/kObjectAllocator.cpp ****                 if ((bitVectors[i][byte] >> (bit - 1) & (uint8) 1) == 0) {
 133              		.loc 1 45 17
 134              		.loc 1 45 22 is_stmt 0
 135 00ac 83368502 		ld	a3,40(a0)
 136              		.loc 1 45 34
 137 00b0 93953800 		slli	a1,a7,3
 138 00b4 B386B600 		add	a3,a3,a1
 139 00b8 83B70600 		ld	a5,0(a3)
 140              		.loc 1 45 40
 141 00bc B387C700 		add	a5,a5,a2
 142 00c0 83C70700 		lbu	a5,0(a5)
 143              		.loc 1 45 50
 144 00c4 1B08F7FF 		addiw	a6,a4,-1
 145              		.loc 1 45 42
 146 00c8 BBD70741 		sraw	a5,a5,a6
 147              		.loc 1 45 55
 148 00cc 93F71700 		andi	a5,a5,1
 149              		.loc 1 45 17
 150 00d0 E39A07FC 		bnez	a5,.L7
  46:src/kObjectAllocator.cpp ****                     nextNonTakenByte = j + (bit == 1);
 151              		.loc 1 46 21 is_stmt 1
 152              		.loc 1 46 49 is_stmt 0
 153 00d4 9307F7FF 		addi	a5,a4,-1
 154 00d8 93B71700 		seqz	a5,a5
 155              		.loc 1 46 42
 156 00dc 33836700 		add	t1,a5,t1
 157              	.LVL15:
 158              		.loc 1 46 38
 159 00e0 233C6502 		sd	t1,56(a0)
  47:src/kObjectAllocator.cpp ****                     bitVectors[i][byte] |= (uint8) 1 << (bit - 1);
 160              		.loc 1 47 21 is_stmt 1
 161              		.loc 1 47 33 is_stmt 0
 162 00e4 83B60600 		ld	a3,0(a3)
 163              		.loc 1 47 41
 164 00e8 B386C600 		add	a3,a3,a2
 165              		.loc 1 47 54
 166 00ec 93071000 		li	a5,1
 167 00f0 3B980701 		sllw	a6,a5,a6
 168              		.loc 1 47 41
 169 00f4 83C70600 		lbu	a5,0(a3)
GAS LISTING /tmp/ccY4Dyrh.s 			page 5


 170 00f8 3368F800 		or	a6,a6,a5
 171 00fc 23800601 		sb	a6,0(a3)
  48:src/kObjectAllocator.cpp ****                     return &objectVectors[i][(byte * 8 + 8 - bit) * objectSize];
 172              		.loc 1 48 21 is_stmt 1
 173              		.loc 1 48 29 is_stmt 0
 174 0100 83370502 		ld	a5,32(a0)
 175              		.loc 1 48 44
 176 0104 B385B700 		add	a1,a5,a1
 177 0108 83B70500 		ld	a5,0(a1)
 178              		.loc 1 48 56
 179 010c 13061600 		addi	a2,a2,1
 180              	.LVL16:
 181 0110 13163600 		slli	a2,a2,3
 182              	.LVL17:
 183              		.loc 1 48 60
 184 0114 3307E640 		sub	a4,a2,a4
 185              	.LVL18:
 186              		.loc 1 48 69
 187 0118 03358501 		ld	a0,24(a0)
 188              	.LVL19:
 189              		.loc 1 48 67
 190 011c 3307A702 		mul	a4,a4,a0
 191              		.loc 1 48 79
 192 0120 3385E700 		add	a0,a5,a4
 193              	.L3:
 194              	.LBE5:
 195              	.LBE4:
 196              	.LBE8:
 197              	.LBE10:
  49:src/kObjectAllocator.cpp ****                 }
  50:src/kObjectAllocator.cpp ****         }
  51:src/kObjectAllocator.cpp ****     }
  52:src/kObjectAllocator.cpp ****     return nullptr;
  53:src/kObjectAllocator.cpp **** }
 198              		.loc 1 53 1
 199 0124 03348100 		ld	s0,8(sp)
 200              		.cfi_remember_state
 201              		.cfi_restore 8
 202              		.cfi_def_cfa 2, 16
 203 0128 13010101 		addi	sp,sp,16
 204              		.cfi_def_cfa_offset 0
 205 012c 67800000 		jr	ra
 206              	.LVL20:
 207              	.L6:
 208              		.cfi_restore_state
 209              	.LBB11:
 210              	.LBB9:
  42:src/kObjectAllocator.cpp ****             size_t byte = j - i * memorySizeForBits;
 211              		.loc 1 42 9 is_stmt 1 discriminator 2
 212 0130 13031300 		addi	t1,t1,1
 213              	.LVL21:
 214              	.L9:
  42:src/kObjectAllocator.cpp ****             size_t byte = j - i * memorySizeForBits;
 215              		.loc 1 42 45 discriminator 1
  42:src/kObjectAllocator.cpp ****             size_t byte = j - i * memorySizeForBits;
 216              		.loc 1 42 50 is_stmt 0 discriminator 1
 217 0134 93871800 		addi	a5,a7,1
GAS LISTING /tmp/ccY4Dyrh.s 			page 6


  42:src/kObjectAllocator.cpp ****             size_t byte = j - i * memorySizeForBits;
 218              		.loc 1 42 57 discriminator 1
 219 0138 03360501 		ld	a2,16(a0)
  42:src/kObjectAllocator.cpp ****             size_t byte = j - i * memorySizeForBits;
 220              		.loc 1 42 55 discriminator 1
 221 013c 3387C702 		mul	a4,a5,a2
  42:src/kObjectAllocator.cpp ****             size_t byte = j - i * memorySizeForBits;
 222              		.loc 1 42 45 discriminator 1
 223 0140 E37EE3F4 		bleu	a4,t1,.L11
 224              	.LBB7:
  43:src/kObjectAllocator.cpp ****             for (size_t bit = 8; bit != 0; --bit)
 225              		.loc 1 43 13 is_stmt 1
  43:src/kObjectAllocator.cpp ****             for (size_t bit = 8; bit != 0; --bit)
 226              		.loc 1 43 33 is_stmt 0
 227 0144 33061603 		mul	a2,a2,a7
  43:src/kObjectAllocator.cpp ****             for (size_t bit = 8; bit != 0; --bit)
 228              		.loc 1 43 20
 229 0148 3306C340 		sub	a2,t1,a2
 230              	.LVL22:
  44:src/kObjectAllocator.cpp ****                 if ((bitVectors[i][byte] >> (bit - 1) & (uint8) 1) == 0) {
 231              		.loc 1 44 13 is_stmt 1
 232              	.LBB6:
  44:src/kObjectAllocator.cpp ****                 if ((bitVectors[i][byte] >> (bit - 1) & (uint8) 1) == 0) {
 233              		.loc 1 44 25 is_stmt 0
 234 014c 13078000 		li	a4,8
 235 0150 6FF09FF5 		j	.L8
 236              	.LVL23:
 237              	.L10:
 238              	.LBE6:
 239              	.LBE7:
 240              	.LBE9:
 241              	.LBE11:
  52:src/kObjectAllocator.cpp **** }
 242              		.loc 1 52 12
 243 0154 13050000 		li	a0,0
 244              	.LVL24:
 245 0158 6FF0DFFC 		j	.L3
 246              		.cfi_endproc
 247              	.LFE18:
 249              		.section	.rodata.str1.8
 250 0022 00000000 		.align	3
 250      0000
 251              	.LC3:
 252 0028 4552524F 		.string	"ERROR: Object not allocated in this KObjectAllocator\n"
 252      523A204F 
 252      626A6563 
 252      74206E6F 
 252      7420616C 
 253              		.text
 254              		.align	2
 255              		.globl	_ZN16KObjectAllocator10freeObjectEPv
 257              	_ZN16KObjectAllocator10freeObjectEPv:
 258              	.LFB19:
  54:src/kObjectAllocator.cpp **** 
  55:src/kObjectAllocator.cpp **** void KObjectAllocator::freeObject(void* objectPointer) {
 259              		.loc 1 55 56 is_stmt 1
 260              		.cfi_startproc
GAS LISTING /tmp/ccY4Dyrh.s 			page 7


 261              	.LVL25:
  56:src/kObjectAllocator.cpp ****     for (size_t i = 0; i < numberOfAllocations; ++i) {
 262              		.loc 1 56 5
 263              	.LBB12:
 264              		.loc 1 56 17 is_stmt 0
 265 015c 13070000 		li	a4,0
 266 0160 6F008000 		j	.L17
 267              	.LVL26:
 268              	.L15:
 269              		.loc 1 56 5 is_stmt 1 discriminator 2
 270 0164 13071700 		addi	a4,a4,1
 271              	.LVL27:
 272              	.L17:
 273              		.loc 1 56 26 discriminator 1
 274              		.loc 1 56 28 is_stmt 0 discriminator 1
 275 0168 83370503 		ld	a5,48(a0)
 276              		.loc 1 56 26 discriminator 1
 277 016c 6374F706 		bleu	a5,a4,.L14
 278              	.LBB13:
  57:src/kObjectAllocator.cpp ****         if ((uint8*) objectPointer < objectVectors[i]) continue;
 279              		.loc 1 57 9 is_stmt 1
 280              		.loc 1 57 38 is_stmt 0
 281 0170 83370502 		ld	a5,32(a0)
 282              		.loc 1 57 53
 283 0174 93163700 		slli	a3,a4,3
 284 0178 B387D700 		add	a5,a5,a3
 285 017c 83B70700 		ld	a5,0(a5)
 286              		.loc 1 57 9
 287 0180 E3E2F5FE 		bgtu	a5,a1,.L15
  58:src/kObjectAllocator.cpp ****         size_t idiff = (size_t) ((uint8*) objectPointer - objectVectors[i]);
 288              		.loc 1 58 9 is_stmt 1
 289              		.loc 1 58 57 is_stmt 0
 290 0184 B387F540 		sub	a5,a1,a5
 291              	.LVL28:
  59:src/kObjectAllocator.cpp ****         size_t byte = idiff / objectSize / 8;
 292              		.loc 1 59 9 is_stmt 1
 293              		.loc 1 59 31 is_stmt 0
 294 0188 03368501 		ld	a2,24(a0)
 295              		.loc 1 59 29
 296 018c B3D7C702 		divu	a5,a5,a2
 297              	.LVL29:
 298              		.loc 1 59 16
 299 0190 13D83700 		srli	a6,a5,3
 300              	.LVL30:
  60:src/kObjectAllocator.cpp ****         if (byte >= memorySizeForBits) continue;
 301              		.loc 1 60 9 is_stmt 1
 302              		.loc 1 60 21 is_stmt 0
 303 0194 03360501 		ld	a2,16(a0)
 304              		.loc 1 60 9
 305 0198 E376C8FC 		bleu	a2,a6,.L15
  61:src/kObjectAllocator.cpp ****         size_t bit = idiff / objectSize - byte * 8;
 306              		.loc 1 61 9 is_stmt 1
 307              		.loc 1 61 16 is_stmt 0
 308 019c 93F77700 		andi	a5,a5,7
 309              	.LVL31:
  62:src/kObjectAllocator.cpp ****         bitVectors[i][byte] &= ~((uint8) 1 << (7 - bit));
 310              		.loc 1 62 9 is_stmt 1
GAS LISTING /tmp/ccY4Dyrh.s 			page 8


 311 01a0 03368502 		ld	a2,40(a0)
 312              		.loc 1 62 21 is_stmt 0
 313 01a4 B306D600 		add	a3,a2,a3
 314              	.LVL32:
 315 01a8 03B70600 		ld	a4,0(a3)
 316              	.LVL33:
 317              		.loc 1 62 29
 318 01ac 33070701 		add	a4,a4,a6
 319              		.loc 1 62 50
 320 01b0 93067000 		li	a3,7
 321 01b4 BB86F640 		subw	a3,a3,a5
 322              		.loc 1 62 44
 323 01b8 93071000 		li	a5,1
 324              	.LVL34:
 325 01bc BB97D700 		sllw	a5,a5,a3
 326              		.loc 1 62 29
 327 01c0 93C7F7FF 		not	a5,a5
 328 01c4 83460700 		lbu	a3,0(a4)
 329 01c8 B3F7D700 		and	a5,a5,a3
 330 01cc 2300F700 		sb	a5,0(a4)
  63:src/kObjectAllocator.cpp ****         return;
 331              		.loc 1 63 9 is_stmt 1
 332 01d0 67800000 		ret
 333              	.LVL35:
 334              	.L14:
 335              	.LBE13:
 336              	.LBE12:
  55:src/kObjectAllocator.cpp ****     for (size_t i = 0; i < numberOfAllocations; ++i) {
 337              		.loc 1 55 56 is_stmt 0
 338 01d4 130101FF 		addi	sp,sp,-16
 339              		.cfi_def_cfa_offset 16
 340 01d8 23341100 		sd	ra,8(sp)
 341 01dc 23308100 		sd	s0,0(sp)
 342              		.cfi_offset 1, -8
 343              		.cfi_offset 8, -16
 344 01e0 13040101 		addi	s0,sp,16
 345              		.cfi_def_cfa 8, 0
  64:src/kObjectAllocator.cpp ****     }
  65:src/kObjectAllocator.cpp ****     printString("ERROR: Object not allocated in this KObjectAllocator\n");
 346              		.loc 1 65 5 is_stmt 1
 347              		.loc 1 65 16 is_stmt 0
 348 01e4 17050000 		lla	a0,.LC3
 348      13050500 
 349              	.LVL36:
 350 01ec 97000000 		call	_Z11printStringPKc@plt
 350      E7800000 
 351              	.LVL37:
  66:src/kObjectAllocator.cpp **** }
 352              		.loc 1 66 1
 353 01f4 83308100 		ld	ra,8(sp)
 354              		.cfi_restore 1
 355 01f8 03340100 		ld	s0,0(sp)
 356              		.cfi_restore 8
 357              		.cfi_def_cfa 2, 16
 358 01fc 13010101 		addi	sp,sp,16
 359              		.cfi_def_cfa_offset 0
 360 0200 67800000 		jr	ra
GAS LISTING /tmp/ccY4Dyrh.s 			page 9


 361              		.cfi_endproc
 362              	.LFE19:
 364              		.align	2
 365              		.globl	_ZN16KObjectAllocator28handleNotEnoughMemoryProblemEv
 367              	_ZN16KObjectAllocator28handleNotEnoughMemoryProblemEv:
 368              	.LFB20:
  67:src/kObjectAllocator.cpp **** 
  68:src/kObjectAllocator.cpp **** bool KObjectAllocator::handleNotEnoughMemoryProblem() {
 369              		.loc 1 68 55 is_stmt 1
 370              		.cfi_startproc
 371              	.LVL38:
 372 0204 130101FF 		addi	sp,sp,-16
 373              		.cfi_def_cfa_offset 16
 374 0208 23348100 		sd	s0,8(sp)
 375              		.cfi_offset 8, -8
 376 020c 13040101 		addi	s0,sp,16
 377              		.cfi_def_cfa 8, 0
  69:src/kObjectAllocator.cpp ****     return true;
 378              		.loc 1 69 5
  70:src/kObjectAllocator.cpp **** }
 379              		.loc 1 70 1 is_stmt 0
 380 0210 13051000 		li	a0,1
 381              	.LVL39:
 382 0214 03348100 		ld	s0,8(sp)
 383              		.cfi_restore 8
 384              		.cfi_def_cfa 2, 16
 385 0218 13010101 		addi	sp,sp,16
 386              		.cfi_def_cfa_offset 0
 387 021c 67800000 		jr	ra
 388              		.cfi_endproc
 389              	.LFE20:
 391              		.align	2
 392              		.globl	_ZN16KObjectAllocator17allocateNewObjectEv
 394              	_ZN16KObjectAllocator17allocateNewObjectEv:
 395              	.LFB17:
  20:src/kObjectAllocator.cpp ****     void* returnedObject = allocateFreeObject();
 396              		.loc 1 20 45 is_stmt 1
 397              		.cfi_startproc
 398              	.LVL40:
 399 0220 130101FD 		addi	sp,sp,-48
 400              		.cfi_def_cfa_offset 48
 401 0224 23341102 		sd	ra,40(sp)
 402 0228 23308102 		sd	s0,32(sp)
 403 022c 233C9100 		sd	s1,24(sp)
 404 0230 23382101 		sd	s2,16(sp)
 405 0234 23343101 		sd	s3,8(sp)
 406              		.cfi_offset 1, -8
 407              		.cfi_offset 8, -16
 408              		.cfi_offset 9, -24
 409              		.cfi_offset 18, -32
 410              		.cfi_offset 19, -40
 411 0238 13040103 		addi	s0,sp,48
 412              		.cfi_def_cfa 8, 0
 413 023c 13090500 		mv	s2,a0
  21:src/kObjectAllocator.cpp ****     if (returnedObject) return returnedObject;
 414              		.loc 1 21 5
  21:src/kObjectAllocator.cpp ****     if (returnedObject) return returnedObject;
GAS LISTING /tmp/ccY4Dyrh.s 			page 10


 415              		.loc 1 21 46 is_stmt 0
 416 0240 97000000 		call	_ZN16KObjectAllocator18allocateFreeObjectEv
 416      E7800000 
 417              	.LVL41:
 418 0248 93040500 		mv	s1,a0
 419              	.LVL42:
  22:src/kObjectAllocator.cpp **** 
 420              		.loc 1 22 5 is_stmt 1
 421 024c 63020502 		beqz	a0,.L26
 422              	.L23:
  38:src/kObjectAllocator.cpp **** 
 423              		.loc 1 38 1 is_stmt 0
 424 0250 13850400 		mv	a0,s1
 425 0254 83308102 		ld	ra,40(sp)
 426              		.cfi_remember_state
 427              		.cfi_restore 1
 428 0258 03340102 		ld	s0,32(sp)
 429              		.cfi_restore 8
 430              		.cfi_def_cfa 2, 48
 431 025c 83348101 		ld	s1,24(sp)
 432              		.cfi_restore 9
 433              	.LVL43:
 434 0260 03390101 		ld	s2,16(sp)
 435              		.cfi_restore 18
 436              	.LVL44:
 437 0264 83398100 		ld	s3,8(sp)
 438              		.cfi_restore 19
 439 0268 13010103 		addi	sp,sp,48
 440              		.cfi_def_cfa_offset 0
 441 026c 67800000 		jr	ra
 442              	.LVL45:
 443              	.L26:
 444              		.cfi_restore_state
  25:src/kObjectAllocator.cpp ****     memorySizeForBits = nextNonTakenByte;
 445              		.loc 1 25 5 is_stmt 1
  25:src/kObjectAllocator.cpp ****     memorySizeForBits = nextNonTakenByte;
 446              		.loc 1 25 12 is_stmt 0
 447 0270 83390901 		ld	s3,16(s2)
 448              	.LVL46:
  26:src/kObjectAllocator.cpp **** 
 449              		.loc 1 26 5 is_stmt 1
  26:src/kObjectAllocator.cpp **** 
 450              		.loc 1 26 25 is_stmt 0
 451 0274 83378903 		ld	a5,56(s2)
  26:src/kObjectAllocator.cpp **** 
 452              		.loc 1 26 23
 453 0278 2338F900 		sd	a5,16(s2)
  28:src/kObjectAllocator.cpp ****     returnedObject = allocateFreeObject();
 454              		.loc 1 28 5 is_stmt 1
  28:src/kObjectAllocator.cpp ****     returnedObject = allocateFreeObject();
 455              		.loc 1 28 22 is_stmt 0
 456 027c 233C0902 		sd	zero,56(s2)
  29:src/kObjectAllocator.cpp ****     memorySizeForBits = tmp;    // revert back to original memory size for bits
 457              		.loc 1 29 5 is_stmt 1
  29:src/kObjectAllocator.cpp ****     memorySizeForBits = tmp;    // revert back to original memory size for bits
 458              		.loc 1 29 40 is_stmt 0
 459 0280 13050900 		mv	a0,s2
GAS LISTING /tmp/ccY4Dyrh.s 			page 11


 460 0284 97000000 		call	_ZN16KObjectAllocator18allocateFreeObjectEv
 460      E7800000 
 461              	.LVL47:
 462 028c 93040500 		mv	s1,a0
 463              	.LVL48:
  30:src/kObjectAllocator.cpp ****     if (returnedObject) return returnedObject;
 464              		.loc 1 30 5 is_stmt 1
  30:src/kObjectAllocator.cpp ****     if (returnedObject) return returnedObject;
 465              		.loc 1 30 23 is_stmt 0
 466 0290 23383901 		sd	s3,16(s2)
  31:src/kObjectAllocator.cpp **** 
 467              		.loc 1 31 5 is_stmt 1
 468 0294 E31E05FA 		bnez	a0,.L23
  33:src/kObjectAllocator.cpp ****         returnedObject = allocateFreeObject();
 469              		.loc 1 33 5
  33:src/kObjectAllocator.cpp ****         returnedObject = allocateFreeObject();
 470              		.loc 1 33 37 is_stmt 0
 471 0298 13050900 		mv	a0,s2
 472 029c 97000000 		call	_ZN16KObjectAllocator28handleNotEnoughMemoryProblemEv
 472      E7800000 
 473              	.LVL49:
  33:src/kObjectAllocator.cpp ****         returnedObject = allocateFreeObject();
 474              		.loc 1 33 5
 475 02a4 E30605FA 		beqz	a0,.L23
  34:src/kObjectAllocator.cpp ****         if (returnedObject) return returnedObject;
 476              		.loc 1 34 9 is_stmt 1
  34:src/kObjectAllocator.cpp ****         if (returnedObject) return returnedObject;
 477              		.loc 1 34 44 is_stmt 0
 478 02a8 13050900 		mv	a0,s2
 479 02ac 97000000 		call	_ZN16KObjectAllocator18allocateFreeObjectEv
 479      E7800000 
 480              	.LVL50:
 481 02b4 93040500 		mv	s1,a0
 482              	.LVL51:
  35:src/kObjectAllocator.cpp ****     }
 483              		.loc 1 35 9 is_stmt 1
 484 02b8 6FF09FF9 		j	.L23
 485              		.cfi_endproc
 486              	.LFE17:
 488              	.Letext0:
 489              		.file 2 "src/../h/../h/../lib/hw.h"
 490              		.file 3 "src/../h/kObjectAllocator.hpp"
 491              		.file 4 "src/../h/print.hpp"
GAS LISTING /tmp/ccY4Dyrh.s 			page 12


DEFINED SYMBOLS
                            *ABS*:0000000000000000 kObjectAllocator.cpp
     /tmp/ccY4Dyrh.s:20     .text:0000000000000000 _ZN16KObjectAllocator19printInternalMemoryEv
     /tmp/ccY4Dyrh.s:24     .text:0000000000000000 .L0 
     /tmp/ccY4Dyrh.s:26     .text:0000000000000000 .L0 
     /tmp/ccY4Dyrh.s:27     .text:0000000000000004 .L0 
     /tmp/ccY4Dyrh.s:31     .text:0000000000000010 .L0 
     /tmp/ccY4Dyrh.s:32     .text:0000000000000010 .L0 
     /tmp/ccY4Dyrh.s:33     .text:0000000000000010 .L0 
     /tmp/ccY4Dyrh.s:35     .text:0000000000000014 .L0 
     /tmp/ccY4Dyrh.s:38     .text:0000000000000018 .L0 
     /tmp/ccY4Dyrh.s:39     .text:0000000000000018 .L0 
     /tmp/ccY4Dyrh.s:44     .text:0000000000000028 .L0 
     /tmp/ccY4Dyrh.s:45     .text:0000000000000028 .L0 
     /tmp/ccY4Dyrh.s:47     .text:000000000000002c .L0 
     /tmp/ccY4Dyrh.s:51     .text:0000000000000038 .L0 
     /tmp/ccY4Dyrh.s:52     .text:0000000000000038 .L0 
     /tmp/ccY4Dyrh.s:56     .text:0000000000000048 .L0 
     /tmp/ccY4Dyrh.s:57     .text:0000000000000048 .L0 
     /tmp/ccY4Dyrh.s:59     .text:000000000000004c .L0 
     /tmp/ccY4Dyrh.s:63     .text:0000000000000058 .L0 
     /tmp/ccY4Dyrh.s:64     .text:0000000000000058 .L0 
     /tmp/ccY4Dyrh.s:68     .text:0000000000000068 .L0 
     /tmp/ccY4Dyrh.s:69     .text:000000000000006c .L0 
     /tmp/ccY4Dyrh.s:71     .text:0000000000000070 .L0 
     /tmp/ccY4Dyrh.s:72     .text:0000000000000070 .L0 
     /tmp/ccY4Dyrh.s:74     .text:0000000000000074 .L0 
     /tmp/ccY4Dyrh.s:77     .text:0000000000000078 .L0 
     /tmp/ccY4Dyrh.s:79     .text:000000000000007c .L0 
     /tmp/ccY4Dyrh.s:85     .text:000000000000007c _ZN16KObjectAllocator18allocateFreeObjectEv
     /tmp/ccY4Dyrh.s:88     .text:000000000000007c .L0 
     /tmp/ccY4Dyrh.s:90     .text:000000000000007c .L0 
     /tmp/ccY4Dyrh.s:91     .text:0000000000000080 .L0 
     /tmp/ccY4Dyrh.s:93     .text:0000000000000084 .L0 
     /tmp/ccY4Dyrh.s:95     .text:0000000000000088 .L0 
     /tmp/ccY4Dyrh.s:99     .text:0000000000000088 .L0 
     /tmp/ccY4Dyrh.s:100    .text:0000000000000088 .L0 
     /tmp/ccY4Dyrh.s:104    .text:000000000000008c .L0 
     /tmp/ccY4Dyrh.s:105    .text:000000000000008c .L0 
     /tmp/ccY4Dyrh.s:107    .text:0000000000000090 .L0 
     /tmp/ccY4Dyrh.s:112    .text:0000000000000094 .L0 
     /tmp/ccY4Dyrh.s:113    .text:0000000000000094 .L0 
     /tmp/ccY4Dyrh.s:119    .text:000000000000009c .L0 
     /tmp/ccY4Dyrh.s:128    .text:00000000000000a4 .L0 
     /tmp/ccY4Dyrh.s:132    .text:00000000000000a8 .L0 
     /tmp/ccY4Dyrh.s:134    .text:00000000000000ac .L0 
     /tmp/ccY4Dyrh.s:135    .text:00000000000000ac .L0 
     /tmp/ccY4Dyrh.s:137    .text:00000000000000b0 .L0 
     /tmp/ccY4Dyrh.s:141    .text:00000000000000bc .L0 
     /tmp/ccY4Dyrh.s:144    .text:00000000000000c4 .L0 
     /tmp/ccY4Dyrh.s:146    .text:00000000000000c8 .L0 
     /tmp/ccY4Dyrh.s:148    .text:00000000000000cc .L0 
     /tmp/ccY4Dyrh.s:150    .text:00000000000000d0 .L0 
     /tmp/ccY4Dyrh.s:152    .text:00000000000000d4 .L0 
     /tmp/ccY4Dyrh.s:153    .text:00000000000000d4 .L0 
     /tmp/ccY4Dyrh.s:156    .text:00000000000000dc .L0 
     /tmp/ccY4Dyrh.s:159    .text:00000000000000e0 .L0 
GAS LISTING /tmp/ccY4Dyrh.s 			page 13


     /tmp/ccY4Dyrh.s:161    .text:00000000000000e4 .L0 
     /tmp/ccY4Dyrh.s:162    .text:00000000000000e4 .L0 
     /tmp/ccY4Dyrh.s:164    .text:00000000000000e8 .L0 
     /tmp/ccY4Dyrh.s:166    .text:00000000000000ec .L0 
     /tmp/ccY4Dyrh.s:169    .text:00000000000000f4 .L0 
     /tmp/ccY4Dyrh.s:173    .text:0000000000000100 .L0 
     /tmp/ccY4Dyrh.s:174    .text:0000000000000100 .L0 
     /tmp/ccY4Dyrh.s:176    .text:0000000000000104 .L0 
     /tmp/ccY4Dyrh.s:179    .text:000000000000010c .L0 
     /tmp/ccY4Dyrh.s:184    .text:0000000000000114 .L0 
     /tmp/ccY4Dyrh.s:187    .text:0000000000000118 .L0 
     /tmp/ccY4Dyrh.s:190    .text:000000000000011c .L0 
     /tmp/ccY4Dyrh.s:192    .text:0000000000000120 .L0 
     /tmp/ccY4Dyrh.s:199    .text:0000000000000124 .L0 
     /tmp/ccY4Dyrh.s:200    .text:0000000000000128 .L0 
     /tmp/ccY4Dyrh.s:201    .text:0000000000000128 .L0 
     /tmp/ccY4Dyrh.s:202    .text:0000000000000128 .L0 
     /tmp/ccY4Dyrh.s:204    .text:000000000000012c .L0 
     /tmp/ccY4Dyrh.s:208    .text:0000000000000130 .L0 
     /tmp/ccY4Dyrh.s:212    .text:0000000000000130 .L0 
     /tmp/ccY4Dyrh.s:216    .text:0000000000000134 .L0 
     /tmp/ccY4Dyrh.s:217    .text:0000000000000134 .L0 
     /tmp/ccY4Dyrh.s:219    .text:0000000000000138 .L0 
     /tmp/ccY4Dyrh.s:221    .text:000000000000013c .L0 
     /tmp/ccY4Dyrh.s:223    .text:0000000000000140 .L0 
     /tmp/ccY4Dyrh.s:226    .text:0000000000000144 .L0 
     /tmp/ccY4Dyrh.s:227    .text:0000000000000144 .L0 
     /tmp/ccY4Dyrh.s:229    .text:0000000000000148 .L0 
     /tmp/ccY4Dyrh.s:233    .text:000000000000014c .L0 
     /tmp/ccY4Dyrh.s:234    .text:000000000000014c .L0 
     /tmp/ccY4Dyrh.s:243    .text:0000000000000154 .L0 
     /tmp/ccY4Dyrh.s:246    .text:000000000000015c .L0 
     /tmp/ccY4Dyrh.s:257    .text:000000000000015c _ZN16KObjectAllocator10freeObjectEPv
     /tmp/ccY4Dyrh.s:260    .text:000000000000015c .L0 
     /tmp/ccY4Dyrh.s:262    .text:000000000000015c .L0 
     /tmp/ccY4Dyrh.s:264    .text:000000000000015c .L0 
     /tmp/ccY4Dyrh.s:265    .text:000000000000015c .L0 
     /tmp/ccY4Dyrh.s:270    .text:0000000000000164 .L0 
     /tmp/ccY4Dyrh.s:274    .text:0000000000000168 .L0 
     /tmp/ccY4Dyrh.s:275    .text:0000000000000168 .L0 
     /tmp/ccY4Dyrh.s:277    .text:000000000000016c .L0 
     /tmp/ccY4Dyrh.s:280    .text:0000000000000170 .L0 
     /tmp/ccY4Dyrh.s:281    .text:0000000000000170 .L0 
     /tmp/ccY4Dyrh.s:283    .text:0000000000000174 .L0 
     /tmp/ccY4Dyrh.s:287    .text:0000000000000180 .L0 
     /tmp/ccY4Dyrh.s:289    .text:0000000000000184 .L0 
     /tmp/ccY4Dyrh.s:290    .text:0000000000000184 .L0 
     /tmp/ccY4Dyrh.s:293    .text:0000000000000188 .L0 
     /tmp/ccY4Dyrh.s:294    .text:0000000000000188 .L0 
     /tmp/ccY4Dyrh.s:296    .text:000000000000018c .L0 
     /tmp/ccY4Dyrh.s:299    .text:0000000000000190 .L0 
     /tmp/ccY4Dyrh.s:302    .text:0000000000000194 .L0 
     /tmp/ccY4Dyrh.s:303    .text:0000000000000194 .L0 
     /tmp/ccY4Dyrh.s:305    .text:0000000000000198 .L0 
     /tmp/ccY4Dyrh.s:307    .text:000000000000019c .L0 
     /tmp/ccY4Dyrh.s:308    .text:000000000000019c .L0 
     /tmp/ccY4Dyrh.s:311    .text:00000000000001a0 .L0 
GAS LISTING /tmp/ccY4Dyrh.s 			page 14


     /tmp/ccY4Dyrh.s:313    .text:00000000000001a4 .L0 
     /tmp/ccY4Dyrh.s:318    .text:00000000000001ac .L0 
     /tmp/ccY4Dyrh.s:320    .text:00000000000001b0 .L0 
     /tmp/ccY4Dyrh.s:323    .text:00000000000001b8 .L0 
     /tmp/ccY4Dyrh.s:327    .text:00000000000001c0 .L0 
     /tmp/ccY4Dyrh.s:332    .text:00000000000001d0 .L0 
     /tmp/ccY4Dyrh.s:338    .text:00000000000001d4 .L0 
     /tmp/ccY4Dyrh.s:339    .text:00000000000001d8 .L0 
     /tmp/ccY4Dyrh.s:342    .text:00000000000001e0 .L0 
     /tmp/ccY4Dyrh.s:343    .text:00000000000001e0 .L0 
     /tmp/ccY4Dyrh.s:345    .text:00000000000001e4 .L0 
     /tmp/ccY4Dyrh.s:347    .text:00000000000001e4 .L0 
     /tmp/ccY4Dyrh.s:348    .text:00000000000001e4 .L0 
     /tmp/ccY4Dyrh.s:353    .text:00000000000001f4 .L0 
     /tmp/ccY4Dyrh.s:354    .text:00000000000001f8 .L0 
     /tmp/ccY4Dyrh.s:356    .text:00000000000001fc .L0 
     /tmp/ccY4Dyrh.s:357    .text:00000000000001fc .L0 
     /tmp/ccY4Dyrh.s:359    .text:0000000000000200 .L0 
     /tmp/ccY4Dyrh.s:361    .text:0000000000000204 .L0 
     /tmp/ccY4Dyrh.s:367    .text:0000000000000204 _ZN16KObjectAllocator28handleNotEnoughMemoryProblemEv
     /tmp/ccY4Dyrh.s:370    .text:0000000000000204 .L0 
     /tmp/ccY4Dyrh.s:372    .text:0000000000000204 .L0 
     /tmp/ccY4Dyrh.s:373    .text:0000000000000208 .L0 
     /tmp/ccY4Dyrh.s:375    .text:000000000000020c .L0 
     /tmp/ccY4Dyrh.s:377    .text:0000000000000210 .L0 
     /tmp/ccY4Dyrh.s:379    .text:0000000000000210 .L0 
     /tmp/ccY4Dyrh.s:380    .text:0000000000000210 .L0 
     /tmp/ccY4Dyrh.s:383    .text:0000000000000218 .L0 
     /tmp/ccY4Dyrh.s:384    .text:0000000000000218 .L0 
     /tmp/ccY4Dyrh.s:386    .text:000000000000021c .L0 
     /tmp/ccY4Dyrh.s:388    .text:0000000000000220 .L0 
     /tmp/ccY4Dyrh.s:394    .text:0000000000000220 _ZN16KObjectAllocator17allocateNewObjectEv
     /tmp/ccY4Dyrh.s:397    .text:0000000000000220 .L0 
     /tmp/ccY4Dyrh.s:399    .text:0000000000000220 .L0 
     /tmp/ccY4Dyrh.s:400    .text:0000000000000224 .L0 
     /tmp/ccY4Dyrh.s:406    .text:0000000000000238 .L0 
     /tmp/ccY4Dyrh.s:407    .text:0000000000000238 .L0 
     /tmp/ccY4Dyrh.s:408    .text:0000000000000238 .L0 
     /tmp/ccY4Dyrh.s:409    .text:0000000000000238 .L0 
     /tmp/ccY4Dyrh.s:410    .text:0000000000000238 .L0 
     /tmp/ccY4Dyrh.s:412    .text:000000000000023c .L0 
     /tmp/ccY4Dyrh.s:415    .text:0000000000000240 .L0 
     /tmp/ccY4Dyrh.s:416    .text:0000000000000240 .L0 
     /tmp/ccY4Dyrh.s:421    .text:000000000000024c .L0 
     /tmp/ccY4Dyrh.s:424    .text:0000000000000250 .L0 
     /tmp/ccY4Dyrh.s:426    .text:0000000000000258 .L0 
     /tmp/ccY4Dyrh.s:427    .text:0000000000000258 .L0 
     /tmp/ccY4Dyrh.s:429    .text:000000000000025c .L0 
     /tmp/ccY4Dyrh.s:430    .text:000000000000025c .L0 
     /tmp/ccY4Dyrh.s:432    .text:0000000000000260 .L0 
     /tmp/ccY4Dyrh.s:435    .text:0000000000000264 .L0 
     /tmp/ccY4Dyrh.s:438    .text:0000000000000268 .L0 
     /tmp/ccY4Dyrh.s:440    .text:000000000000026c .L0 
     /tmp/ccY4Dyrh.s:444    .text:0000000000000270 .L0 
     /tmp/ccY4Dyrh.s:446    .text:0000000000000270 .L0 
     /tmp/ccY4Dyrh.s:447    .text:0000000000000270 .L0 
     /tmp/ccY4Dyrh.s:450    .text:0000000000000274 .L0 
GAS LISTING /tmp/ccY4Dyrh.s 			page 15


     /tmp/ccY4Dyrh.s:451    .text:0000000000000274 .L0 
     /tmp/ccY4Dyrh.s:453    .text:0000000000000278 .L0 
     /tmp/ccY4Dyrh.s:455    .text:000000000000027c .L0 
     /tmp/ccY4Dyrh.s:456    .text:000000000000027c .L0 
     /tmp/ccY4Dyrh.s:458    .text:0000000000000280 .L0 
     /tmp/ccY4Dyrh.s:459    .text:0000000000000280 .L0 
     /tmp/ccY4Dyrh.s:465    .text:0000000000000290 .L0 
     /tmp/ccY4Dyrh.s:466    .text:0000000000000290 .L0 
     /tmp/ccY4Dyrh.s:468    .text:0000000000000294 .L0 
     /tmp/ccY4Dyrh.s:470    .text:0000000000000298 .L0 
     /tmp/ccY4Dyrh.s:471    .text:0000000000000298 .L0 
     /tmp/ccY4Dyrh.s:475    .text:00000000000002a4 .L0 
     /tmp/ccY4Dyrh.s:477    .text:00000000000002a8 .L0 
     /tmp/ccY4Dyrh.s:478    .text:00000000000002a8 .L0 
     /tmp/ccY4Dyrh.s:484    .text:00000000000002b8 .L0 
     /tmp/ccY4Dyrh.s:485    .text:00000000000002bc .L0 
     /tmp/ccY4Dyrh.s:492    .text:00000000000002bc .L0 
     /tmp/ccY4Dyrh.s:8      .rodata.str1.8:0000000000000000 .LC0
     /tmp/ccY4Dyrh.s:39     .text:0000000000000018 .L0 
     /tmp/ccY4Dyrh.s:11     .rodata.str1.8:0000000000000010 .LC1
     /tmp/ccY4Dyrh.s:52     .text:0000000000000038 .L0 
     /tmp/ccY4Dyrh.s:14     .rodata.str1.8:0000000000000020 .LC2
     /tmp/ccY4Dyrh.s:64     .text:0000000000000058 .L0 
     /tmp/ccY4Dyrh.s:251    .rodata.str1.8:0000000000000028 .LC3
     /tmp/ccY4Dyrh.s:348    .text:00000000000001e4 .L0 
     /tmp/ccY4Dyrh.s:237    .text:0000000000000154 .L10
     /tmp/ccY4Dyrh.s:214    .text:0000000000000134 .L9
     /tmp/ccY4Dyrh.s:102    .text:000000000000008c .L5
     /tmp/ccY4Dyrh.s:207    .text:0000000000000130 .L6
     /tmp/ccY4Dyrh.s:123    .text:00000000000000a4 .L7
     /tmp/ccY4Dyrh.s:116    .text:000000000000009c .L11
     /tmp/ccY4Dyrh.s:130    .text:00000000000000a8 .L8
     /tmp/ccY4Dyrh.s:193    .text:0000000000000124 .L3
     /tmp/ccY4Dyrh.s:272    .text:0000000000000168 .L17
     /tmp/ccY4Dyrh.s:334    .text:00000000000001d4 .L14
     /tmp/ccY4Dyrh.s:268    .text:0000000000000164 .L15
     /tmp/ccY4Dyrh.s:443    .text:0000000000000270 .L26
     /tmp/ccY4Dyrh.s:422    .text:0000000000000250 .L23
     /tmp/ccY4Dyrh.s:1172   .debug_abbrev:0000000000000000 .Ldebug_abbrev0
     /tmp/ccY4Dyrh.s:2119   .debug_str:0000000000000486 .LASF60
     /tmp/ccY4Dyrh.s:2071   .debug_str:0000000000000274 .LASF61
     /tmp/ccY4Dyrh.s:2091   .debug_str:000000000000033f .LASF62
     /tmp/ccY4Dyrh.s:5      .text:0000000000000000 .Ltext0
     /tmp/ccY4Dyrh.s:488    .text:00000000000002bc .Letext0
     /tmp/ccY4Dyrh.s:2007   .debug_line:0000000000000000 .Ldebug_line0
     /tmp/ccY4Dyrh.s:2067   .debug_str:0000000000000255 .LASF0
     /tmp/ccY4Dyrh.s:2075   .debug_str:00000000000002a0 .LASF1
     /tmp/ccY4Dyrh.s:2057   .debug_str:00000000000001e8 .LASF2
     /tmp/ccY4Dyrh.s:2031   .debug_str:0000000000000105 .LASF3
     /tmp/ccY4Dyrh.s:2047   .debug_str:00000000000001a8 .LASF4
     /tmp/ccY4Dyrh.s:2105   .debug_str:00000000000003f8 .LASF5
     /tmp/ccY4Dyrh.s:2015   .debug_str:000000000000005b .LASF6
     /tmp/ccY4Dyrh.s:2079   .debug_str:00000000000002b9 .LASF7
     /tmp/ccY4Dyrh.s:2065   .debug_str:0000000000000242 .LASF8
     /tmp/ccY4Dyrh.s:2129   .debug_str:00000000000005ac .LASF9
     /tmp/ccY4Dyrh.s:2041   .debug_str:0000000000000150 .LASF10
     /tmp/ccY4Dyrh.s:2087   .debug_str:0000000000000319 .LASF11
GAS LISTING /tmp/ccY4Dyrh.s 			page 16


     /tmp/ccY4Dyrh.s:2123   .debug_str:000000000000057d .LASF12
     /tmp/ccY4Dyrh.s:2017   .debug_str:0000000000000062 .LASF13
     /tmp/ccY4Dyrh.s:2013   .debug_str:000000000000004b .LASF14
     /tmp/ccY4Dyrh.s:2025   .debug_str:00000000000000d5 .LASF15
     /tmp/ccY4Dyrh.s:2101   .debug_str:00000000000003cf .LASF16
     /tmp/ccY4Dyrh.s:2029   .debug_str:00000000000000ef .LASF17
     /tmp/ccY4Dyrh.s:2111   .debug_str:0000000000000445 .LASF18
     /tmp/ccY4Dyrh.s:2023   .debug_str:00000000000000bb .LASF19
     /tmp/ccY4Dyrh.s:2021   .debug_str:00000000000000a0 .LASF20
     /tmp/ccY4Dyrh.s:2133   .debug_str:00000000000005d1 .LASF21
     /tmp/ccY4Dyrh.s:2059   .debug_str:00000000000001f6 .LASF22
     /tmp/ccY4Dyrh.s:2109   .debug_str:0000000000000435 .LASF63
     /tmp/ccY4Dyrh.s:2009   .debug_str:0000000000000000 .LASF64
     /tmp/ccY4Dyrh.s:2045   .debug_str:0000000000000194 .LASF23
     /tmp/ccY4Dyrh.s:2135   .debug_str:00000000000005de .LASF24
     /tmp/ccY4Dyrh.s:2027   .debug_str:00000000000000e1 .LASF25
     /tmp/ccY4Dyrh.s:2063   .debug_str:000000000000021b .LASF27
     /tmp/ccY4Dyrh.s:2095   .debug_str:0000000000000377 .LASF26
     /tmp/ccY4Dyrh.s:2121   .debug_str:000000000000054a .LASF28
     /tmp/ccY4Dyrh.s:2103   .debug_str:00000000000003e5 .LASF29
     /tmp/ccY4Dyrh.s:2085   .debug_str:00000000000002ed .LASF30
     /tmp/ccY4Dyrh.s:2131   .debug_str:00000000000005bc .LASF31
     /tmp/ccY4Dyrh.s:2019   .debug_str:0000000000000072 .LASF32
     /tmp/ccY4Dyrh.s:2089   .debug_str:0000000000000328 .LASF33
     /tmp/ccY4Dyrh.s:2011   .debug_str:000000000000001b .LASF34
     /tmp/ccY4Dyrh.s:2097   .debug_str:0000000000000391 .LASF35
     /tmp/ccY4Dyrh.s:2107   .debug_str:000000000000040a .LASF36
     /tmp/ccY4Dyrh.s:2113   .debug_str:0000000000000456 .LASF37
     /tmp/ccY4Dyrh.s:2033   .debug_str:000000000000010b .LASF38
     /tmp/ccY4Dyrh.s:2053   .debug_str:00000000000001c6 .LASF39
     /tmp/ccY4Dyrh.s:2043   .debug_str:000000000000015e .LASF40
     /tmp/ccY4Dyrh.s:2073   .debug_str:000000000000028d .LASF41
     /tmp/ccY4Dyrh.s:2099   .debug_str:00000000000003a3 .LASF42
     /tmp/ccY4Dyrh.s:2117   .debug_str:0000000000000470 .LASF43
     /tmp/ccY4Dyrh.s:2081   .debug_str:00000000000002cc .LASF44
     /tmp/ccY4Dyrh.s:2069   .debug_str:0000000000000262 .LASF45
     /tmp/ccY4Dyrh.s:2049   .debug_str:00000000000001af .LASF46
     /tmp/ccY4Dyrh.s:2127   .debug_str:000000000000059e .LASF47
     /tmp/ccY4Dyrh.s:2061   .debug_str:0000000000000210 .LASF48
     /tmp/ccY4Dyrh.s:2139   .debug_str:000000000000061e .LASF49
     /tmp/ccY4Dyrh.s:2083   .debug_str:00000000000002dc .LASF50
     /tmp/ccY4Dyrh.s:2035   .debug_str:0000000000000130 .LASF51
     /tmp/ccY4Dyrh.s:368    .text:0000000000000204 .LFB20
     /tmp/ccY4Dyrh.s:389    .text:0000000000000220 .LFE20
     /tmp/ccY4Dyrh.s:2093   .debug_str:0000000000000372 .LASF52
     /tmp/ccY4Dyrh.s:1705   .debug_loc:0000000000000000 .LLST12
     /tmp/ccY4Dyrh.s:258    .text:000000000000015c .LFB19
     /tmp/ccY4Dyrh.s:362    .text:0000000000000204 .LFE19
     /tmp/ccY4Dyrh.s:1719   .debug_loc:0000000000000039 .LLST6
     /tmp/ccY4Dyrh.s:2039   .debug_str:0000000000000142 .LASF65
     /tmp/ccY4Dyrh.s:1733   .debug_loc:0000000000000072 .LLST7
     /tmp/ccY4Dyrh.s:263    .text:000000000000015c .LBB12
     /tmp/ccY4Dyrh.s:336    .text:00000000000001d4 .LBE12
     /tmp/ccY4Dyrh.s:1747   .debug_loc:00000000000000ab .LLST8
     /tmp/ccY4Dyrh.s:278    .text:0000000000000170 .LBB13
     /tmp/ccY4Dyrh.s:335    .text:00000000000001d4 .LBE13
     /tmp/ccY4Dyrh.s:2077   .debug_str:00000000000002b3 .LASF53
GAS LISTING /tmp/ccY4Dyrh.s 			page 17


     /tmp/ccY4Dyrh.s:1763   .debug_loc:00000000000000f5 .LLST9
     /tmp/ccY4Dyrh.s:2055   .debug_str:00000000000001e3 .LASF54
     /tmp/ccY4Dyrh.s:1800   .debug_loc:0000000000000154 .LLST10
     /tmp/ccY4Dyrh.s:1807   .debug_loc:0000000000000177 .LLST11
     /tmp/ccY4Dyrh.s:351    .text:00000000000001f4 .LVL37
     /tmp/ccY4Dyrh.s:86     .text:000000000000007c .LFB18
     /tmp/ccY4Dyrh.s:247    .text:000000000000015c .LFE18
     /tmp/ccY4Dyrh.s:1814   .debug_loc:000000000000019a .LLST1
     /tmp/ccY4Dyrh.s:1977   .debug_ranges:0000000000000000 .Ldebug_ranges0
     /tmp/ccY4Dyrh.s:1839   .debug_loc:00000000000001fc .LLST2
     /tmp/ccY4Dyrh.s:1861   .debug_loc:000000000000025b .LLST3
     /tmp/ccY4Dyrh.s:1872   .debug_loc:0000000000000291 .LLST4
     /tmp/ccY4Dyrh.s:1893   .debug_loc:00000000000002ef .LLST5
     /tmp/ccY4Dyrh.s:395    .text:0000000000000220 .LFB17
     /tmp/ccY4Dyrh.s:486    .text:00000000000002bc .LFE17
     /tmp/ccY4Dyrh.s:1909   .debug_loc:0000000000000339 .LLST13
     /tmp/ccY4Dyrh.s:2115   .debug_str:0000000000000461 .LASF55
     /tmp/ccY4Dyrh.s:1931   .debug_loc:0000000000000398 .LLST14
     /tmp/ccY4Dyrh.s:417    .text:0000000000000248 .LVL41
     /tmp/ccY4Dyrh.s:461    .text:000000000000028c .LVL47
     /tmp/ccY4Dyrh.s:473    .text:00000000000002a4 .LVL49
     /tmp/ccY4Dyrh.s:480    .text:00000000000002b4 .LVL50
     /tmp/ccY4Dyrh.s:21     .text:0000000000000000 .LFB16
     /tmp/ccY4Dyrh.s:80     .text:000000000000007c .LFE16
     /tmp/ccY4Dyrh.s:1946   .debug_loc:00000000000003e1 .LLST0
     /tmp/ccY4Dyrh.s:42     .text:0000000000000028 .LVL2
     /tmp/ccY4Dyrh.s:49     .text:0000000000000038 .LVL3
     /tmp/ccY4Dyrh.s:54     .text:0000000000000048 .LVL4
     /tmp/ccY4Dyrh.s:61     .text:0000000000000058 .LVL5
     /tmp/ccY4Dyrh.s:66     .text:0000000000000068 .LVL6
     /tmp/ccY4Dyrh.s:2137   .debug_str:000000000000060b .LASF56
     /tmp/ccY4Dyrh.s:2051   .debug_str:00000000000001ba .LASF58
     /tmp/ccY4Dyrh.s:2125   .debug_str:000000000000058c .LASF57
     /tmp/ccY4Dyrh.s:2037   .debug_str:0000000000000135 .LASF59
     /tmp/ccY4Dyrh.s:371    .text:0000000000000204 .LVL38
     /tmp/ccY4Dyrh.s:381    .text:0000000000000214 .LVL39
     /tmp/ccY4Dyrh.s:261    .text:000000000000015c .LVL25
     /tmp/ccY4Dyrh.s:349    .text:00000000000001ec .LVL36
     /tmp/ccY4Dyrh.s:267    .text:0000000000000164 .LVL26
     /tmp/ccY4Dyrh.s:316    .text:00000000000001ac .LVL33
     /tmp/ccY4Dyrh.s:333    .text:00000000000001d4 .LVL35
     /tmp/ccY4Dyrh.s:291    .text:0000000000000188 .LVL28
     /tmp/ccY4Dyrh.s:297    .text:0000000000000190 .LVL29
     /tmp/ccY4Dyrh.s:314    .text:00000000000001a8 .LVL32
     /tmp/ccY4Dyrh.s:300    .text:0000000000000194 .LVL30
     /tmp/ccY4Dyrh.s:309    .text:00000000000001a0 .LVL31
     /tmp/ccY4Dyrh.s:324    .text:00000000000001bc .LVL34
     /tmp/ccY4Dyrh.s:89     .text:000000000000007c .LVL8
     /tmp/ccY4Dyrh.s:188    .text:000000000000011c .LVL19
     /tmp/ccY4Dyrh.s:206    .text:0000000000000130 .LVL20
     /tmp/ccY4Dyrh.s:244    .text:0000000000000158 .LVL24
     /tmp/ccY4Dyrh.s:97     .text:0000000000000088 .LVL9
     /tmp/ccY4Dyrh.s:101    .text:000000000000008c .LVL10
     /tmp/ccY4Dyrh.s:120    .text:00000000000000a0 .LVL12
     /tmp/ccY4Dyrh.s:122    .text:00000000000000a4 .LVL13
     /tmp/ccY4Dyrh.s:114    .text:0000000000000098 .LVL11
     /tmp/ccY4Dyrh.s:157    .text:00000000000000e0 .LVL15
GAS LISTING /tmp/ccY4Dyrh.s 			page 18


     /tmp/ccY4Dyrh.s:236    .text:0000000000000154 .LVL23
     /tmp/ccY4Dyrh.s:180    .text:0000000000000110 .LVL16
     /tmp/ccY4Dyrh.s:182    .text:0000000000000114 .LVL17
     /tmp/ccY4Dyrh.s:213    .text:0000000000000134 .LVL21
     /tmp/ccY4Dyrh.s:230    .text:000000000000014c .LVL22
     /tmp/ccY4Dyrh.s:185    .text:0000000000000118 .LVL18
     /tmp/ccY4Dyrh.s:398    .text:0000000000000220 .LVL40
     /tmp/ccY4Dyrh.s:436    .text:0000000000000264 .LVL44
     /tmp/ccY4Dyrh.s:442    .text:0000000000000270 .LVL45
     /tmp/ccY4Dyrh.s:419    .text:000000000000024c .LVL42
     /tmp/ccY4Dyrh.s:433    .text:0000000000000260 .LVL43
     /tmp/ccY4Dyrh.s:25     .text:0000000000000000 .LVL0
     /tmp/ccY4Dyrh.s:40     .text:0000000000000020 .LVL1
     /tmp/ccY4Dyrh.s:75     .text:0000000000000074 .LVL7
     /tmp/ccY4Dyrh.s:493    .debug_info:0000000000000000 .Ldebug_info0
     /tmp/ccY4Dyrh.s:98     .text:0000000000000088 .LBB2
     /tmp/ccY4Dyrh.s:108    .text:0000000000000094 .LBE2
     /tmp/ccY4Dyrh.s:110    .text:0000000000000094 .LBB10
     /tmp/ccY4Dyrh.s:197    .text:0000000000000124 .LBE10
     /tmp/ccY4Dyrh.s:209    .text:0000000000000130 .LBB11
     /tmp/ccY4Dyrh.s:241    .text:0000000000000154 .LBE11
     /tmp/ccY4Dyrh.s:111    .text:0000000000000094 .LBB3
     /tmp/ccY4Dyrh.s:117    .text:000000000000009c .LBE3
     /tmp/ccY4Dyrh.s:124    .text:00000000000000a4 .LBB8
     /tmp/ccY4Dyrh.s:196    .text:0000000000000124 .LBE8
     /tmp/ccY4Dyrh.s:210    .text:0000000000000130 .LBB9
     /tmp/ccY4Dyrh.s:240    .text:0000000000000154 .LBE9
     /tmp/ccY4Dyrh.s:125    .text:00000000000000a4 .LBB4
     /tmp/ccY4Dyrh.s:195    .text:0000000000000124 .LBE4
     /tmp/ccY4Dyrh.s:224    .text:0000000000000144 .LBB7
     /tmp/ccY4Dyrh.s:239    .text:0000000000000154 .LBE7
     /tmp/ccY4Dyrh.s:126    .text:00000000000000a4 .LBB5
     /tmp/ccY4Dyrh.s:194    .text:0000000000000124 .LBE5
     /tmp/ccY4Dyrh.s:232    .text:000000000000014c .LBB6
     /tmp/ccY4Dyrh.s:238    .text:0000000000000154 .LBE6

UNDEFINED SYMBOLS
_Z11printStringPKc
_Z12printIntegerm
