GAS LISTING /tmp/ccLI4KsF.s 			page 1


   1              		.file	"kObjectAllocator.cpp"
   2              		.option pic
   3              		.option norelax
   4              		.text
   5              	.Ltext0:
   6              		.section	.rodata.str1.8,"aMS",@progbits,1
   7              		.align	3
   8              	.LC0:
   9 0000 0A626974 		.string	"\nbitVector: "
   9      56656374 
   9      6F723A20 
   9      00
  10 000d 000000   		.align	3
  11              	.LC1:
  12 0010 0A6F626A 		.string	"\nobjectVector: "
  12      65637456 
  12      6563746F 
  12      723A2000 
  13              		.align	3
  14              	.LC2:
  15 0020 0A00     		.string	"\n"
  16              		.text
  17              		.align	2
  18              		.globl	_ZN16KObjectAllocator19printInternalMemoryEv
  20              	_ZN16KObjectAllocator19printInternalMemoryEv:
  21              	.LFB16:
  22              		.file 1 "src/kObjectAllocator.cpp"
   1:src/kObjectAllocator.cpp **** #include "../h/kObjectAllocator.hpp"
   2:src/kObjectAllocator.cpp **** #include "../h/print.hpp"
   3:src/kObjectAllocator.cpp **** 
   4:src/kObjectAllocator.cpp **** void KObjectAllocator::printInternalMemory() {
  23              		.loc 1 4 46
  24              		.cfi_startproc
  25              	.LVL0:
  26 0000 130101FE 		addi	sp,sp,-32
  27              		.cfi_def_cfa_offset 32
  28 0004 233C1100 		sd	ra,24(sp)
  29 0008 23388100 		sd	s0,16(sp)
  30 000c 23349100 		sd	s1,8(sp)
  31              		.cfi_offset 1, -8
  32              		.cfi_offset 8, -16
  33              		.cfi_offset 9, -24
  34 0010 13040102 		addi	s0,sp,32
  35              		.cfi_def_cfa 8, 0
  36 0014 93040500 		mv	s1,a0
   5:src/kObjectAllocator.cpp ****     printString("\nbitVector: "); printInteger((uint64)bitVectors[0]);
  37              		.loc 1 5 5
  38              		.loc 1 5 16 is_stmt 0
  39 0018 17050000 		lla	a0,.LC0
  39      13050500 
  40              	.LVL1:
  41 0020 97000000 		call	_Z11printStringPKc@plt
  41      E7800000 
  42              	.LVL2:
  43              		.loc 1 5 35 is_stmt 1
  44              		.loc 1 5 56 is_stmt 0
  45 0028 83B78402 		ld	a5,40(s1)
GAS LISTING /tmp/ccLI4KsF.s 			page 2


  46              		.loc 1 5 47
  47 002c 03B50700 		ld	a0,0(a5)
  48 0030 97000000 		call	_Z12printIntegerm@plt
  48      E7800000 
  49              	.LVL3:
   6:src/kObjectAllocator.cpp ****     printString("\nobjectVector: "); printInteger((uint64)objectVectors[0]); printString("\n");
  50              		.loc 1 6 5 is_stmt 1
  51              		.loc 1 6 16 is_stmt 0
  52 0038 17050000 		lla	a0,.LC1
  52      13050500 
  53 0040 97000000 		call	_Z11printStringPKc@plt
  53      E7800000 
  54              	.LVL4:
  55              		.loc 1 6 38 is_stmt 1
  56              		.loc 1 6 59 is_stmt 0
  57 0048 83B70402 		ld	a5,32(s1)
  58              		.loc 1 6 50
  59 004c 03B50700 		ld	a0,0(a5)
  60 0050 97000000 		call	_Z12printIntegerm@plt
  60      E7800000 
  61              	.LVL5:
  62              		.loc 1 6 78 is_stmt 1
  63              		.loc 1 6 89 is_stmt 0
  64 0058 17050000 		lla	a0,.LC2
  64      13050500 
  65 0060 97000000 		call	_Z11printStringPKc@plt
  65      E7800000 
  66              	.LVL6:
   7:src/kObjectAllocator.cpp ****     /*for (size_t i = 0; i < memorySizeForBits + numberOfObjects * objectSize; ++i) {
   8:src/kObjectAllocator.cpp ****         if (bitVector[i] / 100 == 0) printInteger((uint8) 0);
   9:src/kObjectAllocator.cpp ****         if (bitVector[i] / 10 == 0) printInteger((uint8) 0);
  10:src/kObjectAllocator.cpp ****         printInteger((uint64) bitVectors[0][i]);
  11:src/kObjectAllocator.cpp ****         printString(" ");
  12:src/kObjectAllocator.cpp ****         if (memorySizeForBits >= 40 && i + 1 == memorySizeForBits) {
  13:src/kObjectAllocator.cpp ****             printString("\n"); for (size_t j = 0; j < memorySizeForBits * 4 - 1; ++j) printString("
  14:src/kObjectAllocator.cpp ****         else if (memorySizeForBits < 40 && i + 1 == memorySizeForBits) printString("| ");
  15:src/kObjectAllocator.cpp ****         if (memorySizeForBits >= 40 && (i + 1) % memorySizeForBits == 0) printString("\n");
  16:src/kObjectAllocator.cpp ****         else if (memorySizeForBits < 40 && (i + 1) % 20 == 0) printString("\n");
  17:src/kObjectAllocator.cpp ****     }*/
  18:src/kObjectAllocator.cpp **** }
  67              		.loc 1 18 1
  68 0068 83308101 		ld	ra,24(sp)
  69              		.cfi_restore 1
  70 006c 03340101 		ld	s0,16(sp)
  71              		.cfi_restore 8
  72              		.cfi_def_cfa 2, 32
  73 0070 83348100 		ld	s1,8(sp)
  74              		.cfi_restore 9
  75              	.LVL7:
  76 0074 13010102 		addi	sp,sp,32
  77              		.cfi_def_cfa_offset 0
  78 0078 67800000 		jr	ra
  79              		.cfi_endproc
  80              	.LFE16:
  82              		.align	2
  83              		.globl	_ZN16KObjectAllocator18allocateFreeObjectEv
  85              	_ZN16KObjectAllocator18allocateFreeObjectEv:
GAS LISTING /tmp/ccLI4KsF.s 			page 3


  86              	.LFB18:
  19:src/kObjectAllocator.cpp **** 
  20:src/kObjectAllocator.cpp **** void* KObjectAllocator::allocateNewObject() {
  21:src/kObjectAllocator.cpp ****     void* returnedObject = allocateFreeObject();
  22:src/kObjectAllocator.cpp ****     printString("\nreturnedObject before: ");
  23:src/kObjectAllocator.cpp ****     printInteger((uint64)returnedObject);
  24:src/kObjectAllocator.cpp ****     printString("\n");
  25:src/kObjectAllocator.cpp ****     if (returnedObject) return returnedObject;
  26:src/kObjectAllocator.cpp **** 
  27:src/kObjectAllocator.cpp ****     nextNonTakenByte = 0;   // start search from start
  28:src/kObjectAllocator.cpp ****     returnedObject = allocateFreeObject();
  29:src/kObjectAllocator.cpp ****     printString("\nreturnedObject: ");
  30:src/kObjectAllocator.cpp ****     printInteger((uint64)returnedObject);
  31:src/kObjectAllocator.cpp ****     printString("\n");
  32:src/kObjectAllocator.cpp ****     if (returnedObject) return returnedObject;
  33:src/kObjectAllocator.cpp ****     printString("\nHere\n");
  34:src/kObjectAllocator.cpp **** 
  35:src/kObjectAllocator.cpp ****     if (handleNotEnoughMemoryProblem()) {
  36:src/kObjectAllocator.cpp ****         returnedObject = allocateFreeObject();
  37:src/kObjectAllocator.cpp ****         if (returnedObject) return returnedObject;
  38:src/kObjectAllocator.cpp ****     }
  39:src/kObjectAllocator.cpp ****     return nullptr;
  40:src/kObjectAllocator.cpp **** }
  41:src/kObjectAllocator.cpp **** 
  42:src/kObjectAllocator.cpp **** void* KObjectAllocator::allocateFreeObject() {
  87              		.loc 1 42 46 is_stmt 1
  88              		.cfi_startproc
  89              	.LVL8:
  90 007c 130101FF 		addi	sp,sp,-16
  91              		.cfi_def_cfa_offset 16
  92 0080 23348100 		sd	s0,8(sp)
  93              		.cfi_offset 8, -8
  94 0084 13040101 		addi	s0,sp,16
  95              		.cfi_def_cfa 8, 0
  43:src/kObjectAllocator.cpp ****     for (size_t i = 0; i < numberOfAllocations; ++i) {
  96              		.loc 1 43 5
  97              	.LVL9:
  98              	.LBB2:
  99              		.loc 1 43 17 is_stmt 0
 100 0088 93080000 		li	a7,0
 101              	.LVL10:
 102              	.L5:
 103              		.loc 1 43 26 is_stmt 1 discriminator 1
 104              		.loc 1 43 28 is_stmt 0 discriminator 1
 105 008c 83370503 		ld	a5,48(a0)
 106              		.loc 1 43 26 discriminator 1
 107 0090 63F2F80C 		bleu	a5,a7,.L10
 108              	.LBE2:
  44:src/kObjectAllocator.cpp ****         for (size_t j = nextNonTakenByte; j < (i + 1) * memorySizeForBits; ++j) {
 109              		.loc 1 44 9 is_stmt 1
 110              	.LBB10:
 111              	.LBB3:
 112              		.loc 1 44 21 is_stmt 0
 113 0094 03338503 		ld	t1,56(a0)
 114              	.LVL11:
 115 0098 6F00C009 		j	.L9
 116              	.L11:
GAS LISTING /tmp/ccLI4KsF.s 			page 4


 117              	.LBE3:
  43:src/kObjectAllocator.cpp ****     for (size_t i = 0; i < numberOfAllocations; ++i) {
 118              		.loc 1 43 5
 119 009c 93880700 		mv	a7,a5
 120              	.LVL12:
 121 00a0 6FF0DFFE 		j	.L5
 122              	.LVL13:
 123              	.L7:
 124              	.LBB8:
 125              	.LBB4:
 126              	.LBB5:
  45:src/kObjectAllocator.cpp ****             size_t byte = j - i * memorySizeForBits;
  46:src/kObjectAllocator.cpp ****             for (size_t bit = 8; bit != 0; --bit)
 127              		.loc 1 46 13 is_stmt 1 discriminator 2
 128 00a4 1307F7FF 		addi	a4,a4,-1
 129              	.LVL14:
 130              	.L8:
 131              		.loc 1 46 38 discriminator 1
 132 00a8 63040708 		beqz	a4,.L6
  47:src/kObjectAllocator.cpp ****                 if ((bitVectors[i][byte] >> (bit - 1) & (uint8) 1) == 0) {
 133              		.loc 1 47 17
 134              		.loc 1 47 22 is_stmt 0
 135 00ac 83368502 		ld	a3,40(a0)
 136              		.loc 1 47 34
 137 00b0 93953800 		slli	a1,a7,3
 138 00b4 B386B600 		add	a3,a3,a1
 139 00b8 83B70600 		ld	a5,0(a3)
 140              		.loc 1 47 40
 141 00bc B387C700 		add	a5,a5,a2
 142 00c0 83C70700 		lbu	a5,0(a5)
 143              		.loc 1 47 50
 144 00c4 1B08F7FF 		addiw	a6,a4,-1
 145              		.loc 1 47 42
 146 00c8 BBD70741 		sraw	a5,a5,a6
 147              		.loc 1 47 55
 148 00cc 93F71700 		andi	a5,a5,1
 149              		.loc 1 47 17
 150 00d0 E39A07FC 		bnez	a5,.L7
  48:src/kObjectAllocator.cpp ****                     nextNonTakenByte = j + (bit == 1);
 151              		.loc 1 48 21 is_stmt 1
 152              		.loc 1 48 49 is_stmt 0
 153 00d4 9307F7FF 		addi	a5,a4,-1
 154 00d8 93B71700 		seqz	a5,a5
 155              		.loc 1 48 42
 156 00dc 33836700 		add	t1,a5,t1
 157              	.LVL15:
 158              		.loc 1 48 38
 159 00e0 233C6502 		sd	t1,56(a0)
  49:src/kObjectAllocator.cpp ****                     bitVectors[i][byte] |= (uint8) 1 << (bit - 1);
 160              		.loc 1 49 21 is_stmt 1
 161              		.loc 1 49 33 is_stmt 0
 162 00e4 83B60600 		ld	a3,0(a3)
 163              		.loc 1 49 41
 164 00e8 B386C600 		add	a3,a3,a2
 165              		.loc 1 49 54
 166 00ec 93071000 		li	a5,1
 167 00f0 3B980701 		sllw	a6,a5,a6
GAS LISTING /tmp/ccLI4KsF.s 			page 5


 168              		.loc 1 49 41
 169 00f4 83C70600 		lbu	a5,0(a3)
 170 00f8 3368F800 		or	a6,a6,a5
 171 00fc 23800601 		sb	a6,0(a3)
  50:src/kObjectAllocator.cpp ****                     return &objectVectors[i][(byte * 8 + 8 - bit) * objectSize];
 172              		.loc 1 50 21 is_stmt 1
 173              		.loc 1 50 29 is_stmt 0
 174 0100 83370502 		ld	a5,32(a0)
 175              		.loc 1 50 44
 176 0104 B385B700 		add	a1,a5,a1
 177 0108 83B70500 		ld	a5,0(a1)
 178              		.loc 1 50 56
 179 010c 13061600 		addi	a2,a2,1
 180              	.LVL16:
 181 0110 13163600 		slli	a2,a2,3
 182              	.LVL17:
 183              		.loc 1 50 60
 184 0114 3307E640 		sub	a4,a2,a4
 185              	.LVL18:
 186              		.loc 1 50 69
 187 0118 03358501 		ld	a0,24(a0)
 188              	.LVL19:
 189              		.loc 1 50 67
 190 011c 3307A702 		mul	a4,a4,a0
 191              		.loc 1 50 79
 192 0120 3385E700 		add	a0,a5,a4
 193              	.L3:
 194              	.LBE5:
 195              	.LBE4:
 196              	.LBE8:
 197              	.LBE10:
  51:src/kObjectAllocator.cpp ****                 }
  52:src/kObjectAllocator.cpp ****         }
  53:src/kObjectAllocator.cpp ****     }
  54:src/kObjectAllocator.cpp ****     return nullptr;
  55:src/kObjectAllocator.cpp **** }
 198              		.loc 1 55 1
 199 0124 03348100 		ld	s0,8(sp)
 200              		.cfi_remember_state
 201              		.cfi_restore 8
 202              		.cfi_def_cfa 2, 16
 203 0128 13010101 		addi	sp,sp,16
 204              		.cfi_def_cfa_offset 0
 205 012c 67800000 		jr	ra
 206              	.LVL20:
 207              	.L6:
 208              		.cfi_restore_state
 209              	.LBB11:
 210              	.LBB9:
  44:src/kObjectAllocator.cpp ****             size_t byte = j - i * memorySizeForBits;
 211              		.loc 1 44 9 is_stmt 1 discriminator 2
 212 0130 13031300 		addi	t1,t1,1
 213              	.LVL21:
 214              	.L9:
  44:src/kObjectAllocator.cpp ****             size_t byte = j - i * memorySizeForBits;
 215              		.loc 1 44 45 discriminator 1
  44:src/kObjectAllocator.cpp ****             size_t byte = j - i * memorySizeForBits;
GAS LISTING /tmp/ccLI4KsF.s 			page 6


 216              		.loc 1 44 50 is_stmt 0 discriminator 1
 217 0134 93871800 		addi	a5,a7,1
  44:src/kObjectAllocator.cpp ****             size_t byte = j - i * memorySizeForBits;
 218              		.loc 1 44 57 discriminator 1
 219 0138 03360501 		ld	a2,16(a0)
  44:src/kObjectAllocator.cpp ****             size_t byte = j - i * memorySizeForBits;
 220              		.loc 1 44 55 discriminator 1
 221 013c 3387C702 		mul	a4,a5,a2
  44:src/kObjectAllocator.cpp ****             size_t byte = j - i * memorySizeForBits;
 222              		.loc 1 44 45 discriminator 1
 223 0140 E37EE3F4 		bleu	a4,t1,.L11
 224              	.LBB7:
  45:src/kObjectAllocator.cpp ****             for (size_t bit = 8; bit != 0; --bit)
 225              		.loc 1 45 13 is_stmt 1
  45:src/kObjectAllocator.cpp ****             for (size_t bit = 8; bit != 0; --bit)
 226              		.loc 1 45 33 is_stmt 0
 227 0144 33061603 		mul	a2,a2,a7
  45:src/kObjectAllocator.cpp ****             for (size_t bit = 8; bit != 0; --bit)
 228              		.loc 1 45 20
 229 0148 3306C340 		sub	a2,t1,a2
 230              	.LVL22:
  46:src/kObjectAllocator.cpp ****                 if ((bitVectors[i][byte] >> (bit - 1) & (uint8) 1) == 0) {
 231              		.loc 1 46 13 is_stmt 1
 232              	.LBB6:
  46:src/kObjectAllocator.cpp ****                 if ((bitVectors[i][byte] >> (bit - 1) & (uint8) 1) == 0) {
 233              		.loc 1 46 25 is_stmt 0
 234 014c 13078000 		li	a4,8
 235 0150 6FF09FF5 		j	.L8
 236              	.LVL23:
 237              	.L10:
 238              	.LBE6:
 239              	.LBE7:
 240              	.LBE9:
 241              	.LBE11:
  54:src/kObjectAllocator.cpp **** }
 242              		.loc 1 54 12
 243 0154 13050000 		li	a0,0
 244              	.LVL24:
 245 0158 6FF0DFFC 		j	.L3
 246              		.cfi_endproc
 247              	.LFE18:
 249              		.section	.rodata.str1.8
 250 0022 00000000 		.align	3
 250      0000
 251              	.LC3:
 252 0028 4552524F 		.string	"ERROR: Object not allocated in this KObjectAllocator\n"
 252      523A204F 
 252      626A6563 
 252      74206E6F 
 252      7420616C 
 253              		.text
 254              		.align	2
 255              		.globl	_ZN16KObjectAllocator10freeObjectEPv
 257              	_ZN16KObjectAllocator10freeObjectEPv:
 258              	.LFB19:
  56:src/kObjectAllocator.cpp **** 
  57:src/kObjectAllocator.cpp **** void KObjectAllocator::freeObject(void* objectPointer) {
GAS LISTING /tmp/ccLI4KsF.s 			page 7


 259              		.loc 1 57 56 is_stmt 1
 260              		.cfi_startproc
 261              	.LVL25:
  58:src/kObjectAllocator.cpp ****     for (size_t i = 0; i < numberOfAllocations; ++i) {
 262              		.loc 1 58 5
 263              	.LBB12:
 264              		.loc 1 58 17 is_stmt 0
 265 015c 13070000 		li	a4,0
 266 0160 6F008000 		j	.L17
 267              	.LVL26:
 268              	.L15:
 269              		.loc 1 58 5 is_stmt 1 discriminator 2
 270 0164 13071700 		addi	a4,a4,1
 271              	.LVL27:
 272              	.L17:
 273              		.loc 1 58 26 discriminator 1
 274              		.loc 1 58 28 is_stmt 0 discriminator 1
 275 0168 83370503 		ld	a5,48(a0)
 276              		.loc 1 58 26 discriminator 1
 277 016c 6374F706 		bleu	a5,a4,.L14
 278              	.LBB13:
  59:src/kObjectAllocator.cpp ****         if ((uint8*) objectPointer < objectVectors[i]) continue;
 279              		.loc 1 59 9 is_stmt 1
 280              		.loc 1 59 38 is_stmt 0
 281 0170 83370502 		ld	a5,32(a0)
 282              		.loc 1 59 53
 283 0174 93163700 		slli	a3,a4,3
 284 0178 B387D700 		add	a5,a5,a3
 285 017c 83B70700 		ld	a5,0(a5)
 286              		.loc 1 59 9
 287 0180 E3E2F5FE 		bgtu	a5,a1,.L15
  60:src/kObjectAllocator.cpp ****         size_t idiff = (size_t) ((uint8*) objectPointer - objectVectors[i]);
 288              		.loc 1 60 9 is_stmt 1
 289              		.loc 1 60 57 is_stmt 0
 290 0184 B387F540 		sub	a5,a1,a5
 291              	.LVL28:
  61:src/kObjectAllocator.cpp ****         size_t byte = idiff / objectSize / 8;
 292              		.loc 1 61 9 is_stmt 1
 293              		.loc 1 61 31 is_stmt 0
 294 0188 03368501 		ld	a2,24(a0)
 295              		.loc 1 61 29
 296 018c B3D7C702 		divu	a5,a5,a2
 297              	.LVL29:
 298              		.loc 1 61 16
 299 0190 13D83700 		srli	a6,a5,3
 300              	.LVL30:
  62:src/kObjectAllocator.cpp ****         if (byte >= memorySizeForBits) continue;
 301              		.loc 1 62 9 is_stmt 1
 302              		.loc 1 62 21 is_stmt 0
 303 0194 03360501 		ld	a2,16(a0)
 304              		.loc 1 62 9
 305 0198 E376C8FC 		bleu	a2,a6,.L15
  63:src/kObjectAllocator.cpp ****         size_t bit = idiff / objectSize - byte * 8;
 306              		.loc 1 63 9 is_stmt 1
 307              		.loc 1 63 16 is_stmt 0
 308 019c 93F77700 		andi	a5,a5,7
 309              	.LVL31:
GAS LISTING /tmp/ccLI4KsF.s 			page 8


  64:src/kObjectAllocator.cpp ****         bitVectors[i][byte] &= ~((uint8) 1 << (7 - bit));
 310              		.loc 1 64 9 is_stmt 1
 311 01a0 03368502 		ld	a2,40(a0)
 312              		.loc 1 64 21 is_stmt 0
 313 01a4 B306D600 		add	a3,a2,a3
 314              	.LVL32:
 315 01a8 03B70600 		ld	a4,0(a3)
 316              	.LVL33:
 317              		.loc 1 64 29
 318 01ac 33070701 		add	a4,a4,a6
 319              		.loc 1 64 50
 320 01b0 93067000 		li	a3,7
 321 01b4 BB86F640 		subw	a3,a3,a5
 322              		.loc 1 64 44
 323 01b8 93071000 		li	a5,1
 324              	.LVL34:
 325 01bc BB97D700 		sllw	a5,a5,a3
 326              		.loc 1 64 29
 327 01c0 93C7F7FF 		not	a5,a5
 328 01c4 83460700 		lbu	a3,0(a4)
 329 01c8 B3F7D700 		and	a5,a5,a3
 330 01cc 2300F700 		sb	a5,0(a4)
  65:src/kObjectAllocator.cpp ****         return;
 331              		.loc 1 65 9 is_stmt 1
 332 01d0 67800000 		ret
 333              	.LVL35:
 334              	.L14:
 335              	.LBE13:
 336              	.LBE12:
  57:src/kObjectAllocator.cpp ****     for (size_t i = 0; i < numberOfAllocations; ++i) {
 337              		.loc 1 57 56 is_stmt 0
 338 01d4 130101FF 		addi	sp,sp,-16
 339              		.cfi_def_cfa_offset 16
 340 01d8 23341100 		sd	ra,8(sp)
 341 01dc 23308100 		sd	s0,0(sp)
 342              		.cfi_offset 1, -8
 343              		.cfi_offset 8, -16
 344 01e0 13040101 		addi	s0,sp,16
 345              		.cfi_def_cfa 8, 0
  66:src/kObjectAllocator.cpp ****     }
  67:src/kObjectAllocator.cpp ****     printString("ERROR: Object not allocated in this KObjectAllocator\n");
 346              		.loc 1 67 5 is_stmt 1
 347              		.loc 1 67 16 is_stmt 0
 348 01e4 17050000 		lla	a0,.LC3
 348      13050500 
 349              	.LVL36:
 350 01ec 97000000 		call	_Z11printStringPKc@plt
 350      E7800000 
 351              	.LVL37:
  68:src/kObjectAllocator.cpp **** }
 352              		.loc 1 68 1
 353 01f4 83308100 		ld	ra,8(sp)
 354              		.cfi_restore 1
 355 01f8 03340100 		ld	s0,0(sp)
 356              		.cfi_restore 8
 357              		.cfi_def_cfa 2, 16
 358 01fc 13010101 		addi	sp,sp,16
GAS LISTING /tmp/ccLI4KsF.s 			page 9


 359              		.cfi_def_cfa_offset 0
 360 0200 67800000 		jr	ra
 361              		.cfi_endproc
 362              	.LFE19:
 364              		.align	2
 365              		.globl	_ZN16KObjectAllocator28handleNotEnoughMemoryProblemEv
 367              	_ZN16KObjectAllocator28handleNotEnoughMemoryProblemEv:
 368              	.LFB20:
  69:src/kObjectAllocator.cpp **** 
  70:src/kObjectAllocator.cpp **** bool KObjectAllocator::handleNotEnoughMemoryProblem() {
 369              		.loc 1 70 55 is_stmt 1
 370              		.cfi_startproc
 371              	.LVL38:
 372 0204 130101FB 		addi	sp,sp,-80
 373              		.cfi_def_cfa_offset 80
 374 0208 23341104 		sd	ra,72(sp)
 375 020c 23308104 		sd	s0,64(sp)
 376 0210 233C9102 		sd	s1,56(sp)
 377 0214 23382103 		sd	s2,48(sp)
 378 0218 23343103 		sd	s3,40(sp)
 379 021c 23304103 		sd	s4,32(sp)
 380 0220 233C5101 		sd	s5,24(sp)
 381 0224 23386101 		sd	s6,16(sp)
 382 0228 23347101 		sd	s7,8(sp)
 383              		.cfi_offset 1, -8
 384              		.cfi_offset 8, -16
 385              		.cfi_offset 9, -24
 386              		.cfi_offset 18, -32
 387              		.cfi_offset 19, -40
 388              		.cfi_offset 20, -48
 389              		.cfi_offset 21, -56
 390              		.cfi_offset 22, -64
 391              		.cfi_offset 23, -72
 392 022c 13040105 		addi	s0,sp,80
 393              		.cfi_def_cfa 8, 0
 394 0230 93040500 		mv	s1,a0
  71:src/kObjectAllocator.cpp ****     size_t newNumberOfAllocations = 2 * numberOfAllocations;
 395              		.loc 1 71 5
 396              		.loc 1 71 41 is_stmt 0
 397 0234 033A0503 		ld	s4,48(a0)
 398              		.loc 1 71 12
 399 0238 93191A00 		slli	s3,s4,1
 400              	.LVL39:
  72:src/kObjectAllocator.cpp ****     size_t newNumberOfObjects = 2 * numberOfObjects;
 401              		.loc 1 72 5 is_stmt 1
 402              		.loc 1 72 37 is_stmt 0
 403 023c 833A8500 		ld	s5,8(a0)
 404              		.loc 1 72 12
 405 0240 939A1A00 		slli	s5,s5,1
 406              	.LVL40:
  73:src/kObjectAllocator.cpp ****     uint8** newBitVectors = (uint8**) MemoryAllocator::instance()->kmem_alloc(
 407              		.loc 1 73 5 is_stmt 1
 408              		.loc 1 73 78 is_stmt 0
 409 0244 97000000 		call	_ZN15MemoryAllocator8instanceEv@plt
 409      E7800000 
 410              	.LVL41:
 411 024c 131A4A00 		slli	s4,s4,4
GAS LISTING /tmp/ccLI4KsF.s 			page 10


 412 0250 93050A00 		mv	a1,s4
 413 0254 97000000 		call	_ZN15MemoryAllocator10kmem_allocEm@plt
 413      E7800000 
 414              	.LVL42:
 415 025c 13090500 		mv	s2,a0
 416              	.LVL43:
  74:src/kObjectAllocator.cpp ****             newNumberOfAllocations * sizeof(uint8*)
  75:src/kObjectAllocator.cpp ****     );
  76:src/kObjectAllocator.cpp ****     uint8** newObjectVectors = (uint8**) MemoryAllocator::instance()->kmem_alloc(
 417              		.loc 1 76 5 is_stmt 1
 418              		.loc 1 76 81 is_stmt 0
 419 0260 97000000 		call	_ZN15MemoryAllocator8instanceEv@plt
 419      E7800000 
 420              	.LVL44:
 421 0268 93050A00 		mv	a1,s4
 422 026c 97000000 		call	_ZN15MemoryAllocator10kmem_allocEm@plt
 422      E7800000 
 423              	.LVL45:
 424 0274 130A0500 		mv	s4,a0
 425              	.LVL46:
  77:src/kObjectAllocator.cpp ****             newNumberOfAllocations * sizeof(uint8*)
  78:src/kObjectAllocator.cpp ****     );
  79:src/kObjectAllocator.cpp **** 
  80:src/kObjectAllocator.cpp ****     for (size_t i = 0; i < numberOfAllocations; ++i) newBitVectors[i] = bitVectors[i];
 426              		.loc 1 80 5 is_stmt 1
 427              	.LBB14:
 428              		.loc 1 80 17 is_stmt 0
 429 0278 93070000 		li	a5,0
 430              	.LVL47:
 431              	.L23:
 432              		.loc 1 80 26 is_stmt 1 discriminator 3
 433              		.loc 1 80 28 is_stmt 0 discriminator 3
 434 027c 03BB0403 		ld	s6,48(s1)
 435              		.loc 1 80 26 discriminator 3
 436 0280 63F26703 		bleu	s6,a5,.L22
 437              		.loc 1 80 54 is_stmt 1 discriminator 2
 438              		.loc 1 80 73 is_stmt 0 discriminator 2
 439 0284 03B78402 		ld	a4,40(s1)
 440              		.loc 1 80 85 discriminator 2
 441 0288 93963700 		slli	a3,a5,3
 442              		.loc 1 80 69 discriminator 2
 443 028c 3306D900 		add	a2,s2,a3
 444              		.loc 1 80 85 discriminator 2
 445 0290 3307D700 		add	a4,a4,a3
 446 0294 03370700 		ld	a4,0(a4)
 447              		.loc 1 80 71 discriminator 2
 448 0298 2330E600 		sd	a4,0(a2)
 449              		.loc 1 80 5 is_stmt 1 discriminator 2
 450 029c 93871700 		addi	a5,a5,1
 451              	.LVL48:
 452 02a0 6FF0DFFD 		j	.L23
 453              	.LVL49:
 454              	.L22:
 455              	.LBE14:
 456              	.LBB15:
  81:src/kObjectAllocator.cpp ****     for (size_t i = numberOfAllocations; i < newNumberOfAllocations; ++i) {
 457              		.loc 1 81 44 discriminator 3
GAS LISTING /tmp/ccLI4KsF.s 			page 11


 458 02a4 637E3B03 		bgeu	s6,s3,.L30
  82:src/kObjectAllocator.cpp ****         newBitVectors[i] = (uint8*) MemoryAllocator::instance()->kmem_alloc(
 459              		.loc 1 82 9 discriminator 2
 460              		.loc 1 82 76 is_stmt 0 discriminator 2
 461 02a8 97000000 		call	_ZN15MemoryAllocator8instanceEv@plt
 461      E7800000 
 462              	.LVL50:
  83:src/kObjectAllocator.cpp ****         memorySizeForBits + initialNumberOfObjects * objectSize );
 463              		.loc 1 83 9 discriminator 2
 464 02b0 83B50401 		ld	a1,16(s1)
 465              		.loc 1 83 29 discriminator 2
 466 02b4 83B70400 		ld	a5,0(s1)
 467              		.loc 1 83 54 discriminator 2
 468 02b8 03B78401 		ld	a4,24(s1)
 469              		.loc 1 83 52 discriminator 2
 470 02bc B387E702 		mul	a5,a5,a4
  82:src/kObjectAllocator.cpp ****         newBitVectors[i] = (uint8*) MemoryAllocator::instance()->kmem_alloc(
 471              		.loc 1 82 24 discriminator 2
 472 02c0 931B3B00 		slli	s7,s6,3
 473 02c4 B30B7901 		add	s7,s2,s7
  82:src/kObjectAllocator.cpp ****         newBitVectors[i] = (uint8*) MemoryAllocator::instance()->kmem_alloc(
 474              		.loc 1 82 76 discriminator 2
 475 02c8 B385F500 		add	a1,a1,a5
 476 02cc 97000000 		call	_ZN15MemoryAllocator10kmem_allocEm@plt
 476      E7800000 
 477              	.LVL51:
  82:src/kObjectAllocator.cpp ****         newBitVectors[i] = (uint8*) MemoryAllocator::instance()->kmem_alloc(
 478              		.loc 1 82 26 discriminator 2
 479 02d4 23B0AB00 		sd	a0,0(s7)
  81:src/kObjectAllocator.cpp ****     for (size_t i = numberOfAllocations; i < newNumberOfAllocations; ++i) {
 480              		.loc 1 81 5 is_stmt 1 discriminator 2
 481 02d8 130B1B00 		addi	s6,s6,1
 482              	.LVL52:
 483 02dc 6FF09FFC 		j	.L22
 484              	.L30:
 485              	.LBE15:
 486              	.LBB16:
  84:src/kObjectAllocator.cpp ****     }
  85:src/kObjectAllocator.cpp ****     for (size_t i = 0; i < newNumberOfAllocations; ++i) newObjectVectors[i] = newBitVectors[i] + me
 487              		.loc 1 85 17 is_stmt 0
 488 02e0 13070000 		li	a4,0
 489              	.L24:
 490              	.LVL53:
 491              		.loc 1 85 26 is_stmt 1 discriminator 3
 492 02e4 63743703 		bgeu	a4,s3,.L25
 493              		.loc 1 85 57 discriminator 2
 494              		.loc 1 85 94 is_stmt 0 discriminator 2
 495 02e8 93173700 		slli	a5,a4,3
 496 02ec B306F900 		add	a3,s2,a5
 497 02f0 83B60600 		ld	a3,0(a3)
 498              		.loc 1 85 98 discriminator 2
 499 02f4 03B60401 		ld	a2,16(s1)
 500              		.loc 1 85 75 discriminator 2
 501 02f8 B307FA00 		add	a5,s4,a5
 502              		.loc 1 85 96 discriminator 2
 503 02fc B386C600 		add	a3,a3,a2
 504              		.loc 1 85 77 discriminator 2
GAS LISTING /tmp/ccLI4KsF.s 			page 12


 505 0300 23B0D700 		sd	a3,0(a5)
 506              		.loc 1 85 5 is_stmt 1 discriminator 2
 507 0304 13071700 		addi	a4,a4,1
 508              	.LVL54:
 509 0308 6FF0DFFD 		j	.L24
 510              	.L25:
 511              	.LBE16:
  86:src/kObjectAllocator.cpp ****     for (size_t i = numberOfAllocations; i < newNumberOfAllocations; ++i)
 512              		.loc 1 86 5
 513              	.LBB17:
 514              		.loc 1 86 17 is_stmt 0
 515 030c 83B60403 		ld	a3,48(s1)
 516              	.LVL55:
 517 0310 6F008000 		j	.L29
 518              	.LVL56:
 519              	.L27:
 520              		.loc 1 86 5 is_stmt 1 discriminator 2
 521 0314 93861600 		addi	a3,a3,1
 522              	.LVL57:
 523              	.L29:
 524              		.loc 1 86 44 discriminator 1
 525 0318 63F63603 		bgeu	a3,s3,.L26
 526              	.LBB18:
  87:src/kObjectAllocator.cpp ****         for (size_t j = 0; j < memorySizeForBits; newBitVectors[i][j++] = 0);
 527              		.loc 1 87 21 is_stmt 0
 528 031c 93070000 		li	a5,0
 529              	.L28:
 530              	.LVL58:
 531              		.loc 1 87 30 is_stmt 1 discriminator 3
 532              		.loc 1 87 32 is_stmt 0 discriminator 3
 533 0320 03B70401 		ld	a4,16(s1)
 534              		.loc 1 87 30 discriminator 3
 535 0324 E3F8E7FE 		bleu	a4,a5,.L27
 536              		.loc 1 87 9 is_stmt 1 discriminator 2
 537              		.loc 1 87 66 is_stmt 0 discriminator 2
 538 0328 13973600 		slli	a4,a3,3
 539 032c 3307E900 		add	a4,s2,a4
 540 0330 03370700 		ld	a4,0(a4)
 541              	.LVL59:
 542              		.loc 1 87 71 discriminator 2
 543 0334 3307F700 		add	a4,a4,a5
 544              		.loc 1 87 73 discriminator 2
 545 0338 23000700 		sb	zero,0(a4)
 546              		.loc 1 87 69 discriminator 2
 547 033c 93871700 		addi	a5,a5,1
 548              	.LVL60:
 549              		.loc 1 87 9 discriminator 2
 550 0340 6FF01FFE 		j	.L28
 551              	.LVL61:
 552              	.L26:
 553              	.LBE18:
 554              	.LBE17:
  88:src/kObjectAllocator.cpp ****     MemoryAllocator::instance()->kmem_free(bitVectors);
 555              		.loc 1 88 5 is_stmt 1
 556              		.loc 1 88 43 is_stmt 0
 557 0344 97000000 		call	_ZN15MemoryAllocator8instanceEv@plt
 557      E7800000 
GAS LISTING /tmp/ccLI4KsF.s 			page 13


 558              	.LVL62:
 559 034c 83B58402 		ld	a1,40(s1)
 560 0350 97000000 		call	_ZN15MemoryAllocator9kmem_freeEPv@plt
 560      E7800000 
 561              	.LVL63:
  89:src/kObjectAllocator.cpp ****     MemoryAllocator::instance()->kmem_free(objectVectors);
 562              		.loc 1 89 5 is_stmt 1
 563              		.loc 1 89 43 is_stmt 0
 564 0358 97000000 		call	_ZN15MemoryAllocator8instanceEv@plt
 564      E7800000 
 565              	.LVL64:
 566 0360 83B50402 		ld	a1,32(s1)
 567 0364 97000000 		call	_ZN15MemoryAllocator9kmem_freeEPv@plt
 567      E7800000 
 568              	.LVL65:
  90:src/kObjectAllocator.cpp **** 
  91:src/kObjectAllocator.cpp ****     numberOfObjects = newNumberOfObjects;
 569              		.loc 1 91 5 is_stmt 1
 570              		.loc 1 91 21 is_stmt 0
 571 036c 23B45401 		sd	s5,8(s1)
  92:src/kObjectAllocator.cpp ****     nextNonTakenByte = numberOfAllocations * memorySizeForBits;
 572              		.loc 1 92 5 is_stmt 1
 573              		.loc 1 92 24 is_stmt 0
 574 0370 83B70403 		ld	a5,48(s1)
 575              		.loc 1 92 46
 576 0374 03B70401 		ld	a4,16(s1)
 577              		.loc 1 92 44
 578 0378 B387E702 		mul	a5,a5,a4
 579              		.loc 1 92 22
 580 037c 23BCF402 		sd	a5,56(s1)
  93:src/kObjectAllocator.cpp ****     numberOfAllocations = newNumberOfAllocations;
 581              		.loc 1 93 5 is_stmt 1
 582              		.loc 1 93 25 is_stmt 0
 583 0380 23B83403 		sd	s3,48(s1)
  94:src/kObjectAllocator.cpp ****     bitVectors = newBitVectors;
 584              		.loc 1 94 5 is_stmt 1
 585              		.loc 1 94 16 is_stmt 0
 586 0384 23B42403 		sd	s2,40(s1)
  95:src/kObjectAllocator.cpp ****     objectVectors = newObjectVectors;
 587              		.loc 1 95 5 is_stmt 1
 588              		.loc 1 95 19 is_stmt 0
 589 0388 23B04403 		sd	s4,32(s1)
  96:src/kObjectAllocator.cpp **** 
  97:src/kObjectAllocator.cpp ****     return true;
 590              		.loc 1 97 5 is_stmt 1
  98:src/kObjectAllocator.cpp **** }
 591              		.loc 1 98 1 is_stmt 0
 592 038c 13051000 		li	a0,1
 593 0390 83308104 		ld	ra,72(sp)
 594              		.cfi_restore 1
 595 0394 03340104 		ld	s0,64(sp)
 596              		.cfi_restore 8
 597              		.cfi_def_cfa 2, 80
 598 0398 83348103 		ld	s1,56(sp)
 599              		.cfi_restore 9
 600              	.LVL66:
 601 039c 03390103 		ld	s2,48(sp)
GAS LISTING /tmp/ccLI4KsF.s 			page 14


 602              		.cfi_restore 18
 603              	.LVL67:
 604 03a0 83398102 		ld	s3,40(sp)
 605              		.cfi_restore 19
 606              	.LVL68:
 607 03a4 033A0102 		ld	s4,32(sp)
 608              		.cfi_restore 20
 609              	.LVL69:
 610 03a8 833A8101 		ld	s5,24(sp)
 611              		.cfi_restore 21
 612              	.LVL70:
 613 03ac 033B0101 		ld	s6,16(sp)
 614              		.cfi_restore 22
 615              	.LVL71:
 616 03b0 833B8100 		ld	s7,8(sp)
 617              		.cfi_restore 23
 618 03b4 13010105 		addi	sp,sp,80
 619              		.cfi_def_cfa_offset 0
 620 03b8 67800000 		jr	ra
 621              		.cfi_endproc
 622              	.LFE20:
 624              		.section	.rodata.str1.8
 625 005e 0000     		.align	3
 626              	.LC4:
 627 0060 0A726574 		.string	"\nreturnedObject before: "
 627      75726E65 
 627      644F626A 
 627      65637420 
 627      6265666F 
 628 0079 00000000 		.align	3
 628      000000
 629              	.LC5:
 630 0080 0A726574 		.string	"\nreturnedObject: "
 630      75726E65 
 630      644F626A 
 630      6563743A 
 630      2000
 631 0092 00000000 		.align	3
 631      0000
 632              	.LC6:
 633 0098 0A486572 		.string	"\nHere\n"
 633      650A00
 634              		.text
 635              		.align	2
 636              		.globl	_ZN16KObjectAllocator17allocateNewObjectEv
 638              	_ZN16KObjectAllocator17allocateNewObjectEv:
 639              	.LFB17:
  20:src/kObjectAllocator.cpp ****     void* returnedObject = allocateFreeObject();
 640              		.loc 1 20 45 is_stmt 1
 641              		.cfi_startproc
 642              	.LVL72:
 643 03bc 130101FE 		addi	sp,sp,-32
 644              		.cfi_def_cfa_offset 32
 645 03c0 233C1100 		sd	ra,24(sp)
 646 03c4 23388100 		sd	s0,16(sp)
 647 03c8 23349100 		sd	s1,8(sp)
 648 03cc 23302101 		sd	s2,0(sp)
GAS LISTING /tmp/ccLI4KsF.s 			page 15


 649              		.cfi_offset 1, -8
 650              		.cfi_offset 8, -16
 651              		.cfi_offset 9, -24
 652              		.cfi_offset 18, -32
 653 03d0 13040102 		addi	s0,sp,32
 654              		.cfi_def_cfa 8, 0
 655 03d4 13090500 		mv	s2,a0
  21:src/kObjectAllocator.cpp ****     printString("\nreturnedObject before: ");
 656              		.loc 1 21 5
  21:src/kObjectAllocator.cpp ****     printString("\nreturnedObject before: ");
 657              		.loc 1 21 46 is_stmt 0
 658 03d8 97000000 		call	_ZN16KObjectAllocator18allocateFreeObjectEv
 658      E7800000 
 659              	.LVL73:
 660 03e0 93040500 		mv	s1,a0
 661              	.LVL74:
  22:src/kObjectAllocator.cpp ****     printInteger((uint64)returnedObject);
 662              		.loc 1 22 5 is_stmt 1
  22:src/kObjectAllocator.cpp ****     printInteger((uint64)returnedObject);
 663              		.loc 1 22 16 is_stmt 0
 664 03e4 17050000 		lla	a0,.LC4
 664      13050500 
 665 03ec 97000000 		call	_Z11printStringPKc@plt
 665      E7800000 
 666              	.LVL75:
  23:src/kObjectAllocator.cpp ****     printString("\n");
 667              		.loc 1 23 5 is_stmt 1
  23:src/kObjectAllocator.cpp ****     printString("\n");
 668              		.loc 1 23 17 is_stmt 0
 669 03f4 13850400 		mv	a0,s1
 670 03f8 97000000 		call	_Z12printIntegerm@plt
 670      E7800000 
 671              	.LVL76:
  24:src/kObjectAllocator.cpp ****     if (returnedObject) return returnedObject;
 672              		.loc 1 24 5 is_stmt 1
  24:src/kObjectAllocator.cpp ****     if (returnedObject) return returnedObject;
 673              		.loc 1 24 16 is_stmt 0
 674 0400 17050000 		lla	a0,.LC2
 674      13050500 
 675 0408 97000000 		call	_Z11printStringPKc@plt
 675      E7800000 
 676              	.LVL77:
  25:src/kObjectAllocator.cpp **** 
 677              		.loc 1 25 5 is_stmt 1
 678 0410 63800402 		beqz	s1,.L35
 679              	.L32:
  40:src/kObjectAllocator.cpp **** 
 680              		.loc 1 40 1 is_stmt 0
 681 0414 13850400 		mv	a0,s1
 682 0418 83308101 		ld	ra,24(sp)
 683              		.cfi_remember_state
 684              		.cfi_restore 1
 685 041c 03340101 		ld	s0,16(sp)
 686              		.cfi_restore 8
 687              		.cfi_def_cfa 2, 32
 688 0420 83348100 		ld	s1,8(sp)
 689              		.cfi_restore 9
GAS LISTING /tmp/ccLI4KsF.s 			page 16


 690              	.LVL78:
 691 0424 03390100 		ld	s2,0(sp)
 692              		.cfi_restore 18
 693              	.LVL79:
 694 0428 13010102 		addi	sp,sp,32
 695              		.cfi_def_cfa_offset 0
 696 042c 67800000 		jr	ra
 697              	.LVL80:
 698              	.L35:
 699              		.cfi_restore_state
  27:src/kObjectAllocator.cpp ****     returnedObject = allocateFreeObject();
 700              		.loc 1 27 5 is_stmt 1
  27:src/kObjectAllocator.cpp ****     returnedObject = allocateFreeObject();
 701              		.loc 1 27 22 is_stmt 0
 702 0430 233C0902 		sd	zero,56(s2)
  28:src/kObjectAllocator.cpp ****     printString("\nreturnedObject: ");
 703              		.loc 1 28 5 is_stmt 1
  28:src/kObjectAllocator.cpp ****     printString("\nreturnedObject: ");
 704              		.loc 1 28 40 is_stmt 0
 705 0434 13050900 		mv	a0,s2
 706 0438 97000000 		call	_ZN16KObjectAllocator18allocateFreeObjectEv
 706      E7800000 
 707              	.LVL81:
 708 0440 93040500 		mv	s1,a0
 709              	.LVL82:
  29:src/kObjectAllocator.cpp ****     printInteger((uint64)returnedObject);
 710              		.loc 1 29 5 is_stmt 1
  29:src/kObjectAllocator.cpp ****     printInteger((uint64)returnedObject);
 711              		.loc 1 29 16 is_stmt 0
 712 0444 17050000 		lla	a0,.LC5
 712      13050500 
 713 044c 97000000 		call	_Z11printStringPKc@plt
 713      E7800000 
 714              	.LVL83:
  30:src/kObjectAllocator.cpp ****     printString("\n");
 715              		.loc 1 30 5 is_stmt 1
  30:src/kObjectAllocator.cpp ****     printString("\n");
 716              		.loc 1 30 17 is_stmt 0
 717 0454 13850400 		mv	a0,s1
 718 0458 97000000 		call	_Z12printIntegerm@plt
 718      E7800000 
 719              	.LVL84:
  31:src/kObjectAllocator.cpp ****     if (returnedObject) return returnedObject;
 720              		.loc 1 31 5 is_stmt 1
  31:src/kObjectAllocator.cpp ****     if (returnedObject) return returnedObject;
 721              		.loc 1 31 16 is_stmt 0
 722 0460 17050000 		lla	a0,.LC2
 722      13050500 
 723 0468 97000000 		call	_Z11printStringPKc@plt
 723      E7800000 
 724              	.LVL85:
  32:src/kObjectAllocator.cpp ****     printString("\nHere\n");
 725              		.loc 1 32 5 is_stmt 1
 726 0470 E39204FA 		bnez	s1,.L32
  33:src/kObjectAllocator.cpp **** 
 727              		.loc 1 33 5
  33:src/kObjectAllocator.cpp **** 
GAS LISTING /tmp/ccLI4KsF.s 			page 17


 728              		.loc 1 33 16 is_stmt 0
 729 0474 17050000 		lla	a0,.LC6
 729      13050500 
 730 047c 97000000 		call	_Z11printStringPKc@plt
 730      E7800000 
 731              	.LVL86:
  35:src/kObjectAllocator.cpp ****         returnedObject = allocateFreeObject();
 732              		.loc 1 35 5 is_stmt 1
  35:src/kObjectAllocator.cpp ****         returnedObject = allocateFreeObject();
 733              		.loc 1 35 37 is_stmt 0
 734 0484 13050900 		mv	a0,s2
 735 0488 97000000 		call	_ZN16KObjectAllocator28handleNotEnoughMemoryProblemEv
 735      E7800000 
 736              	.LVL87:
  35:src/kObjectAllocator.cpp ****         returnedObject = allocateFreeObject();
 737              		.loc 1 35 5
 738 0490 E30205F8 		beqz	a0,.L32
  36:src/kObjectAllocator.cpp ****         if (returnedObject) return returnedObject;
 739              		.loc 1 36 9 is_stmt 1
  36:src/kObjectAllocator.cpp ****         if (returnedObject) return returnedObject;
 740              		.loc 1 36 44 is_stmt 0
 741 0494 13050900 		mv	a0,s2
 742 0498 97000000 		call	_ZN16KObjectAllocator18allocateFreeObjectEv
 742      E7800000 
 743              	.LVL88:
 744 04a0 93040500 		mv	s1,a0
 745              	.LVL89:
  37:src/kObjectAllocator.cpp ****     }
 746              		.loc 1 37 9 is_stmt 1
 747 04a4 6FF01FF7 		j	.L32
 748              		.cfi_endproc
 749              	.LFE17:
 751              	.Letext0:
 752              		.file 2 "src/../h/../h/../lib/hw.h"
 753              		.file 3 "src/../h/../h/memoryAllocator.hpp"
 754              		.file 4 "src/../h/kObjectAllocator.hpp"
 755              		.file 5 "src/../h/print.hpp"
GAS LISTING /tmp/ccLI4KsF.s 			page 18

