GAS LISTING /tmp/cc9vngzJ.s 			page 1


   1              		.file	"kObjectAllocator.cpp"
   2              		.option pic
   3              		.option norelax
   4              		.text
   5              	.Ltext0:
   6              		.section	.rodata.str1.8,"aMS",@progbits,1
   7              		.align	3
   8              	.LC0:
   9 0000 20202020 		.string	"    "
   9      00
  10 0005 000000   		.align	3
  11              	.LC1:
  12 0008 2000     		.string	" "
  13 000a 00000000 		.align	3
  13      0000
  14              	.LC2:
  15 0010 202000   		.string	"  "
  16 0013 00000000 		.align	3
  16      00
  17              	.LC3:
  18 0018 0A00     		.string	"\n"
  19 001a 00000000 		.align	3
  19      0000
  20              	.LC4:
  21 0020 2D2D2D2D 		.string	"----"
  21      00
  22 0025 000000   		.align	3
  23              	.LC5:
  24 0028 2D2D2D2D 		.string	"----  "
  24      202000
  25              		.text
  26              		.align	2
  27              		.globl	_ZN16KObjectAllocator19printInternalMemoryEv
  29              	_ZN16KObjectAllocator19printInternalMemoryEv:
  30              	.LFB16:
  31              		.file 1 "src/kObjectAllocator.cpp"
   1:src/kObjectAllocator.cpp **** #include "../h/kObjectAllocator.hpp"
   2:src/kObjectAllocator.cpp **** #include "../h/print.hpp"
   3:src/kObjectAllocator.cpp **** 
   4:src/kObjectAllocator.cpp **** void KObjectAllocator::printInternalMemory() {
  32              		.loc 1 4 46
  33              		.cfi_startproc
  34              	.LVL0:
  35 0000 130101FC 		addi	sp,sp,-64
  36              		.cfi_def_cfa_offset 64
  37 0004 233C1102 		sd	ra,56(sp)
  38 0008 23388102 		sd	s0,48(sp)
  39 000c 23349102 		sd	s1,40(sp)
  40 0010 23302103 		sd	s2,32(sp)
  41 0014 233C3101 		sd	s3,24(sp)
  42 0018 23384101 		sd	s4,16(sp)
  43 001c 23345101 		sd	s5,8(sp)
  44 0020 23306101 		sd	s6,0(sp)
  45              		.cfi_offset 1, -8
  46              		.cfi_offset 8, -16
  47              		.cfi_offset 9, -24
  48              		.cfi_offset 18, -32
GAS LISTING /tmp/cc9vngzJ.s 			page 2


  49              		.cfi_offset 19, -40
  50              		.cfi_offset 20, -48
  51              		.cfi_offset 21, -56
  52              		.cfi_offset 22, -64
  53 0024 13040104 		addi	s0,sp,64
  54              		.cfi_def_cfa 8, 0
  55 0028 93040500 		mv	s1,a0
   5:src/kObjectAllocator.cpp ****     size_t segmentSize = 16, printedBytes = 0;
  56              		.loc 1 5 5
  57              	.LVL1:
  58              		.loc 1 5 30 is_stmt 0
  59 002c 930A0000 		li	s5,0
  60 0030 6F00000F 		j	.L11
  61              	.LVL2:
  62              	.L27:
  63              	.LBB2:
  64              	.LBB3:
  65              	.LBB4:
  66              	.LBB5:
   6:src/kObjectAllocator.cpp ****     while (printedBytes < memorySizeForBits) {
   7:src/kObjectAllocator.cpp ****         for (size_t i = 0; i < numberOfAllocations; ++i) {
   8:src/kObjectAllocator.cpp ****             for (size_t j = 0; j < segmentSize; ++j) {
   9:src/kObjectAllocator.cpp ****                 if (j + printedBytes >= memorySizeForBits) printString("    ");
  67              		.loc 1 9 60 is_stmt 1 discriminator 1
  68              		.loc 1 9 71 is_stmt 0 discriminator 1
  69 0034 17050000 		lla	a0,.LC0
  69      13050500 
  70 003c 97000000 		call	_Z11printStringPKc@plt
  70      E7800000 
  71              	.LVL3:
  72 0044 6F00C004 		j	.L6
  73              	.L28:
  10:src/kObjectAllocator.cpp ****                 else {
  11:src/kObjectAllocator.cpp ****                     if (bitVectors[i][j + printedBytes] / 100 == 0) printInteger((uint8) 0);
  74              		.loc 1 11 69 is_stmt 1 discriminator 1
  75              		.loc 1 11 81 is_stmt 0 discriminator 1
  76 0048 13050000 		li	a0,0
  77 004c 97000000 		call	_Z12printIntegerm@plt
  77      E7800000 
  78              	.LVL4:
  79 0054 6F004007 		j	.L7
  80              	.L29:
  12:src/kObjectAllocator.cpp ****                     if (bitVectors[i][j + printedBytes] / 10 == 0) printInteger((uint8) 0);
  81              		.loc 1 12 68 is_stmt 1 discriminator 1
  82              		.loc 1 12 80 is_stmt 0 discriminator 1
  83 0058 13050000 		li	a0,0
  84 005c 97000000 		call	_Z12printIntegerm@plt
  84      E7800000 
  85              	.LVL5:
  86              	.L8:
  13:src/kObjectAllocator.cpp ****                     printInteger((uint64) bitVectors[i][j + printedBytes]);
  87              		.loc 1 13 21 is_stmt 1
  88              		.loc 1 13 43 is_stmt 0
  89 0064 83B78402 		ld	a5,40(s1)
  90              		.loc 1 13 55
  91 0068 B3874701 		add	a5,a5,s4
  92 006c 83B70700 		ld	a5,0(a5)
GAS LISTING /tmp/cc9vngzJ.s 			page 3


  93              		.loc 1 13 73
  94 0070 B3893701 		add	s3,a5,s3
  95              		.loc 1 13 33
  96 0074 03C50900 		lbu	a0,0(s3)
  97 0078 97000000 		call	_Z12printIntegerm@plt
  97      E7800000 
  98              	.LVL6:
  14:src/kObjectAllocator.cpp ****                     printString(" ");
  99              		.loc 1 14 21 is_stmt 1
 100              		.loc 1 14 32 is_stmt 0
 101 0080 17050000 		lla	a0,.LC1
 101      13050500 
 102 0088 97000000 		call	_Z11printStringPKc@plt
 102      E7800000 
 103              	.LVL7:
 104              	.L6:
   8:src/kObjectAllocator.cpp ****                 if (j + printedBytes >= memorySizeForBits) printString("    ");
 105              		.loc 1 8 13 is_stmt 1 discriminator 2
 106 0090 13091900 		addi	s2,s2,1
 107              	.LVL8:
 108              	.L9:
   8:src/kObjectAllocator.cpp ****                 if (j + printedBytes >= memorySizeForBits) printString("    ");
 109              		.loc 1 8 34 discriminator 1
 110 0094 9307F000 		li	a5,15
 111 0098 63E82705 		bgtu	s2,a5,.L4
   9:src/kObjectAllocator.cpp ****                 else {
 112              		.loc 1 9 17
   9:src/kObjectAllocator.cpp ****                 else {
 113              		.loc 1 9 23 is_stmt 0
 114 009c B3892A01 		add	s3,s5,s2
   9:src/kObjectAllocator.cpp ****                 else {
 115              		.loc 1 9 41
 116 00a0 83B70401 		ld	a5,16(s1)
   9:src/kObjectAllocator.cpp ****                 else {
 117              		.loc 1 9 17
 118 00a4 E3F8F9F8 		bgeu	s3,a5,.L27
  11:src/kObjectAllocator.cpp ****                     if (bitVectors[i][j + printedBytes] / 10 == 0) printInteger((uint8) 0);
 119              		.loc 1 11 21 is_stmt 1
  11:src/kObjectAllocator.cpp ****                     if (bitVectors[i][j + printedBytes] / 10 == 0) printInteger((uint8) 0);
 120              		.loc 1 11 25 is_stmt 0
 121 00a8 83B78402 		ld	a5,40(s1)
  11:src/kObjectAllocator.cpp ****                     if (bitVectors[i][j + printedBytes] / 10 == 0) printInteger((uint8) 0);
 122              		.loc 1 11 37
 123 00ac 131A3B00 		slli	s4,s6,3
 124 00b0 B3874701 		add	a5,a5,s4
 125 00b4 83B70700 		ld	a5,0(a5)
  11:src/kObjectAllocator.cpp ****                     if (bitVectors[i][j + printedBytes] / 10 == 0) printInteger((uint8) 0);
 126              		.loc 1 11 55
 127 00b8 B3873701 		add	a5,a5,s3
 128 00bc 03C70700 		lbu	a4,0(a5)
  11:src/kObjectAllocator.cpp ****                     if (bitVectors[i][j + printedBytes] / 10 == 0) printInteger((uint8) 0);
 129              		.loc 1 11 21
 130 00c0 93073006 		li	a5,99
 131 00c4 E3F2E7F8 		bleu	a4,a5,.L28
 132              	.L7:
  12:src/kObjectAllocator.cpp ****                     printInteger((uint64) bitVectors[i][j + printedBytes]);
 133              		.loc 1 12 21 is_stmt 1
GAS LISTING /tmp/cc9vngzJ.s 			page 4


  12:src/kObjectAllocator.cpp ****                     printInteger((uint64) bitVectors[i][j + printedBytes]);
 134              		.loc 1 12 25 is_stmt 0
 135 00c8 83B78402 		ld	a5,40(s1)
  12:src/kObjectAllocator.cpp ****                     printInteger((uint64) bitVectors[i][j + printedBytes]);
 136              		.loc 1 12 37
 137 00cc B3874701 		add	a5,a5,s4
 138 00d0 83B70700 		ld	a5,0(a5)
  12:src/kObjectAllocator.cpp ****                     printInteger((uint64) bitVectors[i][j + printedBytes]);
 139              		.loc 1 12 55
 140 00d4 B3873701 		add	a5,a5,s3
 141 00d8 03C70700 		lbu	a4,0(a5)
  12:src/kObjectAllocator.cpp ****                     printInteger((uint64) bitVectors[i][j + printedBytes]);
 142              		.loc 1 12 21
 143 00dc 93079000 		li	a5,9
 144 00e0 E3E2E7F8 		bgtu	a4,a5,.L8
 145 00e4 6FF05FF7 		j	.L29
 146              	.L4:
 147              	.LBE5:
  15:src/kObjectAllocator.cpp ****                 }
  16:src/kObjectAllocator.cpp ****             }
  17:src/kObjectAllocator.cpp ****             printString("  ");
 148              		.loc 1 17 13 is_stmt 1 discriminator 2
 149              		.loc 1 17 24 is_stmt 0 discriminator 2
 150 00e8 17050000 		lla	a0,.LC2
 150      13050500 
 151 00f0 97000000 		call	_Z11printStringPKc@plt
 151      E7800000 
 152              	.LVL9:
 153              	.LBE4:
   7:src/kObjectAllocator.cpp ****             for (size_t j = 0; j < segmentSize; ++j) {
 154              		.loc 1 7 9 is_stmt 1 discriminator 2
 155 00f8 130B1B00 		addi	s6,s6,1
 156              	.LVL10:
 157              	.L10:
   7:src/kObjectAllocator.cpp ****             for (size_t j = 0; j < segmentSize; ++j) {
 158              		.loc 1 7 30 discriminator 1
   7:src/kObjectAllocator.cpp ****             for (size_t j = 0; j < segmentSize; ++j) {
 159              		.loc 1 7 32 is_stmt 0 discriminator 1
 160 00fc 83B70403 		ld	a5,48(s1)
   7:src/kObjectAllocator.cpp ****             for (size_t j = 0; j < segmentSize; ++j) {
 161              		.loc 1 7 30 discriminator 1
 162 0100 6376FB00 		bleu	a5,s6,.L3
 163              	.LBB7:
 164              	.LBB6:
   8:src/kObjectAllocator.cpp ****                 if (j + printedBytes >= memorySizeForBits) printString("    ");
 165              		.loc 1 8 25
 166 0104 13090000 		li	s2,0
 167 0108 6FF0DFF8 		j	.L9
 168              	.L3:
 169              	.LBE6:
 170              	.LBE7:
 171              	.LBE3:
  18:src/kObjectAllocator.cpp ****         }
  19:src/kObjectAllocator.cpp ****         printString("\n");
 172              		.loc 1 19 9 is_stmt 1
 173              		.loc 1 19 20 is_stmt 0
 174 010c 17050000 		lla	a0,.LC3
GAS LISTING /tmp/cc9vngzJ.s 			page 5


 174      13050500 
 175 0114 97000000 		call	_Z11printStringPKc@plt
 175      E7800000 
 176              	.LVL11:
  20:src/kObjectAllocator.cpp ****         printedBytes += segmentSize;
 177              		.loc 1 20 9 is_stmt 1
 178              		.loc 1 20 22 is_stmt 0
 179 011c 938A0A01 		addi	s5,s5,16
 180              	.LVL12:
 181              	.L11:
 182              	.LBE2:
   6:src/kObjectAllocator.cpp ****         for (size_t i = 0; i < numberOfAllocations; ++i) {
 183              		.loc 1 6 5 is_stmt 1
   6:src/kObjectAllocator.cpp ****         for (size_t i = 0; i < numberOfAllocations; ++i) {
 184              		.loc 1 6 25
   6:src/kObjectAllocator.cpp ****         for (size_t i = 0; i < numberOfAllocations; ++i) {
 185              		.loc 1 6 27 is_stmt 0
 186 0120 83B70401 		ld	a5,16(s1)
   6:src/kObjectAllocator.cpp ****         for (size_t i = 0; i < numberOfAllocations; ++i) {
 187              		.loc 1 6 25
 188 0124 63F6FA00 		bleu	a5,s5,.L25
 189              	.LBB9:
 190              	.LBB8:
   7:src/kObjectAllocator.cpp ****             for (size_t j = 0; j < segmentSize; ++j) {
 191              		.loc 1 7 21
 192 0128 130B0000 		li	s6,0
 193 012c 6FF01FFD 		j	.L10
 194              	.L25:
 195              	.LBE8:
 196              	.LBE9:
 197              	.LBB10:
  21:src/kObjectAllocator.cpp ****     }
  22:src/kObjectAllocator.cpp **** 
  23:src/kObjectAllocator.cpp ****     for (size_t i = 0; i < numberOfAllocations; ++i) {
 198              		.loc 1 23 17
 199 0130 93090000 		li	s3,0
 200 0134 6F008001 		j	.L2
 201              	.LVL13:
 202              	.L13:
 203              	.LBB11:
  24:src/kObjectAllocator.cpp ****         for (size_t j = 0; j < segmentSize - 1; ++j)
  25:src/kObjectAllocator.cpp ****             printString("----");
  26:src/kObjectAllocator.cpp ****         printString("----  ");
 204              		.loc 1 26 9 is_stmt 1 discriminator 2
 205              		.loc 1 26 20 is_stmt 0 discriminator 2
 206 0138 17050000 		lla	a0,.LC5
 206      13050500 
 207 0140 97000000 		call	_Z11printStringPKc@plt
 207      E7800000 
 208              	.LVL14:
 209              	.LBE11:
  23:src/kObjectAllocator.cpp ****         for (size_t j = 0; j < segmentSize - 1; ++j)
 210              		.loc 1 23 5 is_stmt 1 discriminator 2
 211 0148 93891900 		addi	s3,s3,1
 212              	.LVL15:
 213              	.L2:
  23:src/kObjectAllocator.cpp ****         for (size_t j = 0; j < segmentSize - 1; ++j)
GAS LISTING /tmp/cc9vngzJ.s 			page 6


 214              		.loc 1 23 26 discriminator 1
  23:src/kObjectAllocator.cpp ****         for (size_t j = 0; j < segmentSize - 1; ++j)
 215              		.loc 1 23 28 is_stmt 0 discriminator 1
 216 014c 83B70403 		ld	a5,48(s1)
  23:src/kObjectAllocator.cpp ****         for (size_t j = 0; j < segmentSize - 1; ++j)
 217              		.loc 1 23 26 discriminator 1
 218 0150 63F4F902 		bleu	a5,s3,.L12
 219              	.LBB13:
 220              	.LBB12:
  24:src/kObjectAllocator.cpp ****         for (size_t j = 0; j < segmentSize - 1; ++j)
 221              		.loc 1 24 21
 222 0154 13090000 		li	s2,0
 223              	.L14:
 224              	.LVL16:
  24:src/kObjectAllocator.cpp ****         for (size_t j = 0; j < segmentSize - 1; ++j)
 225              		.loc 1 24 30 is_stmt 1 discriminator 3
 226 0158 9307E000 		li	a5,14
 227 015c E3EE27FD 		bgtu	s2,a5,.L13
  25:src/kObjectAllocator.cpp ****         printString("----  ");
 228              		.loc 1 25 13 discriminator 2
  25:src/kObjectAllocator.cpp ****         printString("----  ");
 229              		.loc 1 25 24 is_stmt 0 discriminator 2
 230 0160 17050000 		lla	a0,.LC4
 230      13050500 
 231 0168 97000000 		call	_Z11printStringPKc@plt
 231      E7800000 
 232              	.LVL17:
  24:src/kObjectAllocator.cpp ****         for (size_t j = 0; j < segmentSize - 1; ++j)
 233              		.loc 1 24 9 is_stmt 1 discriminator 2
 234 0170 13091900 		addi	s2,s2,1
 235              	.LVL18:
 236 0174 6FF05FFE 		j	.L14
 237              	.LVL19:
 238              	.L12:
 239              	.LBE12:
 240              	.LBE13:
 241              	.LBE10:
  27:src/kObjectAllocator.cpp ****     }
  28:src/kObjectAllocator.cpp ****     printString("\n");
 242              		.loc 1 28 5
 243              		.loc 1 28 16 is_stmt 0
 244 0178 17050000 		lla	a0,.LC3
 244      13050500 
 245 0180 97000000 		call	_Z11printStringPKc@plt
 245      E7800000 
 246              	.LVL20:
  29:src/kObjectAllocator.cpp **** 
  30:src/kObjectAllocator.cpp ****     printedBytes = memorySizeForBits;
 247              		.loc 1 30 5 is_stmt 1
 248              		.loc 1 30 18 is_stmt 0
 249 0188 03BA0401 		ld	s4,16(s1)
 250              	.LVL21:
 251 018c 6F000010 		j	.L24
 252              	.LVL22:
 253              	.L30:
 254              	.LBB14:
 255              	.LBB15:
GAS LISTING /tmp/cc9vngzJ.s 			page 7


 256              	.LBB16:
 257              	.LBB17:
  31:src/kObjectAllocator.cpp ****     while(printedBytes < initialNumberOfObjects * objectSize) {
  32:src/kObjectAllocator.cpp ****         for (size_t i = 0; i < numberOfAllocations; ++i) {
  33:src/kObjectAllocator.cpp ****             for (size_t j = 0; j < segmentSize; ++j) {
  34:src/kObjectAllocator.cpp ****                 if (j + printedBytes - memorySizeForBits >= initialNumberOfObjects * objectSize) pr
 258              		.loc 1 34 98 is_stmt 1 discriminator 1
 259              		.loc 1 34 109 is_stmt 0 discriminator 1
 260 0190 17050000 		lla	a0,.LC0
 260      13050500 
 261 0198 97000000 		call	_Z11printStringPKc@plt
 261      E7800000 
 262              	.LVL23:
 263 01a0 6F00C004 		j	.L19
 264              	.L31:
  35:src/kObjectAllocator.cpp ****                 else {
  36:src/kObjectAllocator.cpp ****                     if (bitVectors[i][j + printedBytes] / 100 == 0) printInteger((uint8) 0);
 265              		.loc 1 36 69 is_stmt 1 discriminator 1
 266              		.loc 1 36 81 is_stmt 0 discriminator 1
 267 01a4 13050000 		li	a0,0
 268 01a8 97000000 		call	_Z12printIntegerm@plt
 268      E7800000 
 269              	.LVL24:
 270 01b0 6F004008 		j	.L20
 271              	.L32:
  37:src/kObjectAllocator.cpp ****                     if (bitVectors[i][j + printedBytes] / 10 == 0) printInteger((uint8) 0);
 272              		.loc 1 37 68 is_stmt 1 discriminator 1
 273              		.loc 1 37 80 is_stmt 0 discriminator 1
 274 01b4 13050000 		li	a0,0
 275 01b8 97000000 		call	_Z12printIntegerm@plt
 275      E7800000 
 276              	.LVL25:
 277              	.L21:
  38:src/kObjectAllocator.cpp ****                     printInteger((uint64) bitVectors[i][j + printedBytes]);
 278              		.loc 1 38 21 is_stmt 1
 279              		.loc 1 38 43 is_stmt 0
 280 01c0 83B78402 		ld	a5,40(s1)
 281              		.loc 1 38 55
 282 01c4 B3876701 		add	a5,a5,s6
 283 01c8 83B70700 		ld	a5,0(a5)
 284              		.loc 1 38 73
 285 01cc B3893701 		add	s3,a5,s3
 286              		.loc 1 38 33
 287 01d0 03C50900 		lbu	a0,0(s3)
 288 01d4 97000000 		call	_Z12printIntegerm@plt
 288      E7800000 
 289              	.LVL26:
  39:src/kObjectAllocator.cpp ****                     printString(" ");
 290              		.loc 1 39 21 is_stmt 1
 291              		.loc 1 39 32 is_stmt 0
 292 01dc 17050000 		lla	a0,.LC1
 292      13050500 
 293 01e4 97000000 		call	_Z11printStringPKc@plt
 293      E7800000 
 294              	.LVL27:
 295              	.L19:
  33:src/kObjectAllocator.cpp ****                 if (j + printedBytes - memorySizeForBits >= initialNumberOfObjects * objectSize) pr
GAS LISTING /tmp/cc9vngzJ.s 			page 8


 296              		.loc 1 33 13 is_stmt 1 discriminator 2
 297 01ec 13091900 		addi	s2,s2,1
 298              	.LVL28:
 299              	.L22:
  33:src/kObjectAllocator.cpp ****                 if (j + printedBytes - memorySizeForBits >= initialNumberOfObjects * objectSize) pr
 300              		.loc 1 33 34 discriminator 1
 301 01f0 9307F000 		li	a5,15
 302 01f4 63E02707 		bgtu	s2,a5,.L17
  34:src/kObjectAllocator.cpp ****                 else {
 303              		.loc 1 34 17
  34:src/kObjectAllocator.cpp ****                 else {
 304              		.loc 1 34 23 is_stmt 0
 305 01f8 B3092A01 		add	s3,s4,s2
  34:src/kObjectAllocator.cpp ****                 else {
 306              		.loc 1 34 40
 307 01fc 03B70401 		ld	a4,16(s1)
  34:src/kObjectAllocator.cpp ****                 else {
 308              		.loc 1 34 38
 309 0200 3387E940 		sub	a4,s3,a4
  34:src/kObjectAllocator.cpp ****                 else {
 310              		.loc 1 34 61
 311 0204 83B70400 		ld	a5,0(s1)
  34:src/kObjectAllocator.cpp ****                 else {
 312              		.loc 1 34 86
 313 0208 83B68401 		ld	a3,24(s1)
  34:src/kObjectAllocator.cpp ****                 else {
 314              		.loc 1 34 84
 315 020c B387D702 		mul	a5,a5,a3
  34:src/kObjectAllocator.cpp ****                 else {
 316              		.loc 1 34 17
 317 0210 E370F7F8 		bgeu	a4,a5,.L30
  36:src/kObjectAllocator.cpp ****                     if (bitVectors[i][j + printedBytes] / 10 == 0) printInteger((uint8) 0);
 318              		.loc 1 36 21 is_stmt 1
  36:src/kObjectAllocator.cpp ****                     if (bitVectors[i][j + printedBytes] / 10 == 0) printInteger((uint8) 0);
 319              		.loc 1 36 25 is_stmt 0
 320 0214 83B78402 		ld	a5,40(s1)
  36:src/kObjectAllocator.cpp ****                     if (bitVectors[i][j + printedBytes] / 10 == 0) printInteger((uint8) 0);
 321              		.loc 1 36 37
 322 0218 139B3A00 		slli	s6,s5,3
 323 021c B3876701 		add	a5,a5,s6
 324 0220 83B70700 		ld	a5,0(a5)
  36:src/kObjectAllocator.cpp ****                     if (bitVectors[i][j + printedBytes] / 10 == 0) printInteger((uint8) 0);
 325              		.loc 1 36 55
 326 0224 B3873701 		add	a5,a5,s3
 327 0228 03C70700 		lbu	a4,0(a5)
  36:src/kObjectAllocator.cpp ****                     if (bitVectors[i][j + printedBytes] / 10 == 0) printInteger((uint8) 0);
 328              		.loc 1 36 21
 329 022c 93073006 		li	a5,99
 330 0230 E3FAE7F6 		bleu	a4,a5,.L31
 331              	.L20:
  37:src/kObjectAllocator.cpp ****                     printInteger((uint64) bitVectors[i][j + printedBytes]);
 332              		.loc 1 37 21 is_stmt 1
  37:src/kObjectAllocator.cpp ****                     printInteger((uint64) bitVectors[i][j + printedBytes]);
 333              		.loc 1 37 25 is_stmt 0
 334 0234 83B78402 		ld	a5,40(s1)
  37:src/kObjectAllocator.cpp ****                     printInteger((uint64) bitVectors[i][j + printedBytes]);
 335              		.loc 1 37 37
GAS LISTING /tmp/cc9vngzJ.s 			page 9


 336 0238 B3876701 		add	a5,a5,s6
 337 023c 83B70700 		ld	a5,0(a5)
  37:src/kObjectAllocator.cpp ****                     printInteger((uint64) bitVectors[i][j + printedBytes]);
 338              		.loc 1 37 55
 339 0240 B3873701 		add	a5,a5,s3
 340 0244 03C70700 		lbu	a4,0(a5)
  37:src/kObjectAllocator.cpp ****                     printInteger((uint64) bitVectors[i][j + printedBytes]);
 341              		.loc 1 37 21
 342 0248 93079000 		li	a5,9
 343 024c E3EAE7F6 		bgtu	a4,a5,.L21
 344 0250 6FF05FF6 		j	.L32
 345              	.L17:
 346              	.LBE17:
  40:src/kObjectAllocator.cpp ****                 }
  41:src/kObjectAllocator.cpp ****             }
  42:src/kObjectAllocator.cpp ****             printString("  ");
 347              		.loc 1 42 13 is_stmt 1 discriminator 2
 348              		.loc 1 42 24 is_stmt 0 discriminator 2
 349 0254 17050000 		lla	a0,.LC2
 349      13050500 
 350 025c 97000000 		call	_Z11printStringPKc@plt
 350      E7800000 
 351              	.LVL29:
 352              	.LBE16:
  32:src/kObjectAllocator.cpp ****             for (size_t j = 0; j < segmentSize; ++j) {
 353              		.loc 1 32 9 is_stmt 1 discriminator 2
 354 0264 938A1A00 		addi	s5,s5,1
 355              	.LVL30:
 356              	.L23:
  32:src/kObjectAllocator.cpp ****             for (size_t j = 0; j < segmentSize; ++j) {
 357              		.loc 1 32 30 discriminator 1
  32:src/kObjectAllocator.cpp ****             for (size_t j = 0; j < segmentSize; ++j) {
 358              		.loc 1 32 32 is_stmt 0 discriminator 1
 359 0268 83B70403 		ld	a5,48(s1)
  32:src/kObjectAllocator.cpp ****             for (size_t j = 0; j < segmentSize; ++j) {
 360              		.loc 1 32 30 discriminator 1
 361 026c 63F6FA00 		bleu	a5,s5,.L16
 362              	.LBB19:
 363              	.LBB18:
  33:src/kObjectAllocator.cpp ****                 if (j + printedBytes - memorySizeForBits >= initialNumberOfObjects * objectSize) pr
 364              		.loc 1 33 25
 365 0270 13090000 		li	s2,0
 366 0274 6FF0DFF7 		j	.L22
 367              	.L16:
 368              	.LBE18:
 369              	.LBE19:
 370              	.LBE15:
  43:src/kObjectAllocator.cpp ****         }
  44:src/kObjectAllocator.cpp ****         printString("\n");
 371              		.loc 1 44 9 is_stmt 1
 372              		.loc 1 44 20 is_stmt 0
 373 0278 17050000 		lla	a0,.LC3
 373      13050500 
 374 0280 97000000 		call	_Z11printStringPKc@plt
 374      E7800000 
 375              	.LVL31:
  45:src/kObjectAllocator.cpp ****         printedBytes += segmentSize;
GAS LISTING /tmp/cc9vngzJ.s 			page 10


 376              		.loc 1 45 9 is_stmt 1
 377              		.loc 1 45 22 is_stmt 0
 378 0288 130A0A01 		addi	s4,s4,16
 379              	.LVL32:
 380              	.L24:
 381              	.LBE14:
  31:src/kObjectAllocator.cpp ****         for (size_t i = 0; i < numberOfAllocations; ++i) {
 382              		.loc 1 31 5 is_stmt 1
  31:src/kObjectAllocator.cpp ****         for (size_t i = 0; i < numberOfAllocations; ++i) {
 383              		.loc 1 31 24
  31:src/kObjectAllocator.cpp ****         for (size_t i = 0; i < numberOfAllocations; ++i) {
 384              		.loc 1 31 26 is_stmt 0
 385 028c 83B70400 		ld	a5,0(s1)
  31:src/kObjectAllocator.cpp ****         for (size_t i = 0; i < numberOfAllocations; ++i) {
 386              		.loc 1 31 51
 387 0290 03B78401 		ld	a4,24(s1)
  31:src/kObjectAllocator.cpp ****         for (size_t i = 0; i < numberOfAllocations; ++i) {
 388              		.loc 1 31 49
 389 0294 B387E702 		mul	a5,a5,a4
  31:src/kObjectAllocator.cpp ****         for (size_t i = 0; i < numberOfAllocations; ++i) {
 390              		.loc 1 31 24
 391 0298 6376FA00 		bleu	a5,s4,.L1
 392              	.LBB21:
 393              	.LBB20:
  32:src/kObjectAllocator.cpp ****             for (size_t j = 0; j < segmentSize; ++j) {
 394              		.loc 1 32 21
 395 029c 930A0000 		li	s5,0
 396 02a0 6FF09FFC 		j	.L23
 397              	.L1:
 398              	.LBE20:
 399              	.LBE21:
  46:src/kObjectAllocator.cpp ****     }
  47:src/kObjectAllocator.cpp **** }
 400              		.loc 1 47 1
 401 02a4 83308103 		ld	ra,56(sp)
 402              		.cfi_restore 1
 403 02a8 03340103 		ld	s0,48(sp)
 404              		.cfi_restore 8
 405              		.cfi_def_cfa 2, 64
 406 02ac 83348102 		ld	s1,40(sp)
 407              		.cfi_restore 9
 408              	.LVL33:
 409 02b0 03390102 		ld	s2,32(sp)
 410              		.cfi_restore 18
 411 02b4 83398101 		ld	s3,24(sp)
 412              		.cfi_restore 19
 413 02b8 033A0101 		ld	s4,16(sp)
 414              		.cfi_restore 20
 415              	.LVL34:
 416 02bc 833A8100 		ld	s5,8(sp)
 417              		.cfi_restore 21
 418 02c0 033B0100 		ld	s6,0(sp)
 419              		.cfi_restore 22
 420 02c4 13010104 		addi	sp,sp,64
 421              		.cfi_def_cfa_offset 0
 422 02c8 67800000 		jr	ra
 423              		.cfi_endproc
GAS LISTING /tmp/cc9vngzJ.s 			page 11


 424              	.LFE16:
 426              		.align	2
 427              		.globl	_ZN16KObjectAllocator18allocateFreeObjectEv
 429              	_ZN16KObjectAllocator18allocateFreeObjectEv:
 430              	.LFB18:
  48:src/kObjectAllocator.cpp **** 
  49:src/kObjectAllocator.cpp **** void* KObjectAllocator::allocateNewObject() {
  50:src/kObjectAllocator.cpp ****     void* returnedObject = allocateFreeObject();
  51:src/kObjectAllocator.cpp ****     if (returnedObject) {
  52:src/kObjectAllocator.cpp ****         //printString("\nreturn1: ");
  53:src/kObjectAllocator.cpp ****         //printInteger((uint64) returnedObject);
  54:src/kObjectAllocator.cpp ****         return returnedObject;
  55:src/kObjectAllocator.cpp ****     }
  56:src/kObjectAllocator.cpp **** 
  57:src/kObjectAllocator.cpp ****     nextNonTakenByte = 0;   // start search from start
  58:src/kObjectAllocator.cpp ****     returnedObject = allocateFreeObject();
  59:src/kObjectAllocator.cpp ****     if (returnedObject) {
  60:src/kObjectAllocator.cpp ****         //printString("\nreturn2: ");
  61:src/kObjectAllocator.cpp ****         //printInteger((uint64) returnedObject);
  62:src/kObjectAllocator.cpp ****         return returnedObject;
  63:src/kObjectAllocator.cpp ****     }
  64:src/kObjectAllocator.cpp **** 
  65:src/kObjectAllocator.cpp **** 
  66:src/kObjectAllocator.cpp ****     if (handleNotEnoughMemoryProblem()) {
  67:src/kObjectAllocator.cpp ****         returnedObject = allocateFreeObject();
  68:src/kObjectAllocator.cpp ****         if (returnedObject) {
  69:src/kObjectAllocator.cpp ****             //printString("\nreturn3: ");
  70:src/kObjectAllocator.cpp ****             //printInteger((uint64) returnedObject);
  71:src/kObjectAllocator.cpp ****             return returnedObject;
  72:src/kObjectAllocator.cpp ****         }
  73:src/kObjectAllocator.cpp ****     }
  74:src/kObjectAllocator.cpp ****     return nullptr;
  75:src/kObjectAllocator.cpp **** }
  76:src/kObjectAllocator.cpp **** 
  77:src/kObjectAllocator.cpp **** void* KObjectAllocator::allocateFreeObject() {
 431              		.loc 1 77 46 is_stmt 1
 432              		.cfi_startproc
 433              	.LVL35:
 434 02cc 130101FF 		addi	sp,sp,-16
 435              		.cfi_def_cfa_offset 16
 436 02d0 23348100 		sd	s0,8(sp)
 437              		.cfi_offset 8, -8
 438 02d4 13040101 		addi	s0,sp,16
 439              		.cfi_def_cfa 8, 0
  78:src/kObjectAllocator.cpp ****     for (size_t i = 0; i < numberOfAllocations; ++i) {
 440              		.loc 1 78 5
 441              	.LVL36:
 442              	.LBB22:
 443              		.loc 1 78 17 is_stmt 0
 444 02d8 93080000 		li	a7,0
 445              	.LVL37:
 446              	.L40:
 447              		.loc 1 78 26 is_stmt 1 discriminator 1
 448              		.loc 1 78 28 is_stmt 0 discriminator 1
 449 02dc 83370503 		ld	a5,48(a0)
 450              		.loc 1 78 26 discriminator 1
 451 02e0 63F4F80C 		bleu	a5,a7,.L41
GAS LISTING /tmp/cc9vngzJ.s 			page 12


 452              	.LBE22:
  79:src/kObjectAllocator.cpp ****         for (size_t j = nextNonTakenByte; j >= i * memorySizeForBits && j < (i + 1) * memorySizeFor
 453              		.loc 1 79 9 is_stmt 1
 454              	.LBB29:
 455              	.LBB23:
 456              		.loc 1 79 21 is_stmt 0
 457 02e4 03338503 		ld	t1,56(a0)
 458              	.LVL38:
 459 02e8 6F004006 		j	.L39
 460              	.LVL39:
 461              	.L43:
 462              	.LBB24:
 463              	.LBB25:
  80:src/kObjectAllocator.cpp ****             size_t byte = j - i * memorySizeForBits;
  81:src/kObjectAllocator.cpp ****             for (size_t bit = 8; bit != 0; --bit) {
  82:src/kObjectAllocator.cpp **** 
  83:src/kObjectAllocator.cpp ****                 /*printString("\ntest:\n");
  84:src/kObjectAllocator.cpp ****                 printString("i: "); printInteger(i); printString("\n");
  85:src/kObjectAllocator.cpp ****                 printString("j: "); printInteger(j); printString("\n");
  86:src/kObjectAllocator.cpp ****                 printString("nextNonTakenByte: "); printInteger(nextNonTakenByte); printString("\n"
  87:src/kObjectAllocator.cpp ****                 printString("Byte: "); printInteger(byte); printString("\n");
  88:src/kObjectAllocator.cpp ****                 printString("Bit: "); printInteger(bit); printString("\n");
  89:src/kObjectAllocator.cpp ****                 printString("ifCondition: ");
  90:src/kObjectAllocator.cpp ****                 printInteger((bitVectors[i][byte] >> (bit - 1) & (uint8) 1) == 0); printString("\n"
  91:src/kObjectAllocator.cpp ****                 if ((bitVectors[i][byte] >> (bit - 1) & (uint8) 1) == 0) {
  92:src/kObjectAllocator.cpp ****                     /*printString("========================");
  93:src/kObjectAllocator.cpp ****                     printString("\nSUCCESS:\n");
  94:src/kObjectAllocator.cpp ****                     printString("i: "); printInteger(i); printString("\n");
  95:src/kObjectAllocator.cpp ****                     printString("j: "); printInteger(j); printString("\n");
  96:src/kObjectAllocator.cpp ****                     printString("nextNonTakenByte: "); printInteger(nextNonTakenByte); printString(
  97:src/kObjectAllocator.cpp ****                     printString("Byte: "); printInteger(byte); printString("\n");
  98:src/kObjectAllocator.cpp ****                     printString("Bit: "); printInteger(bit); printString("\n");
  99:src/kObjectAllocator.cpp ****                     printString("========================");*/
 100:src/kObjectAllocator.cpp ****                     nextNonTakenByte = j + (bit == 1);
 464              		.loc 1 100 21 is_stmt 1
 465              		.loc 1 100 49 is_stmt 0
 466 02ec 9307F7FF 		addi	a5,a4,-1
 467 02f0 93B71700 		seqz	a5,a5
 468              		.loc 1 100 42
 469 02f4 33836700 		add	t1,a5,t1
 470              	.LVL40:
 471              		.loc 1 100 38
 472 02f8 233C6502 		sd	t1,56(a0)
 101:src/kObjectAllocator.cpp ****                     bitVectors[i][byte] |= (uint8) 1 << (bit - 1);
 473              		.loc 1 101 21 is_stmt 1
 474              		.loc 1 101 33 is_stmt 0
 475 02fc 83B60600 		ld	a3,0(a3)
 476              		.loc 1 101 41
 477 0300 B386C600 		add	a3,a3,a2
 478              		.loc 1 101 54
 479 0304 93071000 		li	a5,1
 480 0308 3B980701 		sllw	a6,a5,a6
 481              		.loc 1 101 41
 482 030c 83C70600 		lbu	a5,0(a3)
 483 0310 3368F800 		or	a6,a6,a5
 484 0314 23800601 		sb	a6,0(a3)
 102:src/kObjectAllocator.cpp ****                     return &objectVectors[i][(byte * 8 + 8 - bit) * objectSize];
GAS LISTING /tmp/cc9vngzJ.s 			page 13


 485              		.loc 1 102 21 is_stmt 1
 486              		.loc 1 102 29 is_stmt 0
 487 0318 83370502 		ld	a5,32(a0)
 488              		.loc 1 102 44
 489 031c B385B700 		add	a1,a5,a1
 490 0320 83B70500 		ld	a5,0(a1)
 491              		.loc 1 102 56
 492 0324 13061600 		addi	a2,a2,1
 493              	.LVL41:
 494 0328 13163600 		slli	a2,a2,3
 495              	.LVL42:
 496              		.loc 1 102 60
 497 032c 3307E640 		sub	a4,a2,a4
 498              	.LVL43:
 499              		.loc 1 102 69
 500 0330 03358501 		ld	a0,24(a0)
 501              	.LVL44:
 502              		.loc 1 102 67
 503 0334 3307A702 		mul	a4,a4,a0
 504              		.loc 1 102 79
 505 0338 3385E700 		add	a0,a5,a4
 506              	.L33:
 507              	.LBE25:
 508              	.LBE24:
 509              	.LBE23:
 510              	.LBE29:
 103:src/kObjectAllocator.cpp ****                 }
 104:src/kObjectAllocator.cpp ****             }
 105:src/kObjectAllocator.cpp ****         }
 106:src/kObjectAllocator.cpp ****     }
 107:src/kObjectAllocator.cpp ****     return nullptr;
 108:src/kObjectAllocator.cpp **** }
 511              		.loc 1 108 1
 512 033c 03348100 		ld	s0,8(sp)
 513              		.cfi_remember_state
 514              		.cfi_restore 8
 515              		.cfi_def_cfa 2, 16
 516 0340 13010101 		addi	sp,sp,16
 517              		.cfi_def_cfa_offset 0
 518 0344 67800000 		jr	ra
 519              	.LVL45:
 520              	.L36:
 521              		.cfi_restore_state
 522              	.LBB30:
 523              	.LBB28:
  79:src/kObjectAllocator.cpp ****             size_t byte = j - i * memorySizeForBits;
 524              		.loc 1 79 9 is_stmt 1 discriminator 3
 525 0348 13031300 		addi	t1,t1,1
 526              	.LVL46:
 527              	.L39:
  79:src/kObjectAllocator.cpp ****             size_t byte = j - i * memorySizeForBits;
 528              		.loc 1 79 70 discriminator 1
  79:src/kObjectAllocator.cpp ****             size_t byte = j - i * memorySizeForBits;
 529              		.loc 1 79 52 is_stmt 0 discriminator 1
 530 034c 83370501 		ld	a5,16(a0)
  79:src/kObjectAllocator.cpp ****             size_t byte = j - i * memorySizeForBits;
 531              		.loc 1 79 50 discriminator 1
GAS LISTING /tmp/cc9vngzJ.s 			page 14


 532 0350 33861703 		mul	a2,a5,a7
  79:src/kObjectAllocator.cpp ****             size_t byte = j - i * memorySizeForBits;
 533              		.loc 1 79 70 discriminator 1
 534 0354 6366C304 		bgtu	a2,t1,.L35
  79:src/kObjectAllocator.cpp ****             size_t byte = j - i * memorySizeForBits;
 535              		.loc 1 79 80 discriminator 2
 536 0358 13871800 		addi	a4,a7,1
  79:src/kObjectAllocator.cpp ****             size_t byte = j - i * memorySizeForBits;
 537              		.loc 1 79 85 discriminator 2
 538 035c B387E702 		mul	a5,a5,a4
  79:src/kObjectAllocator.cpp ****             size_t byte = j - i * memorySizeForBits;
 539              		.loc 1 79 70 discriminator 2
 540 0360 6370F304 		bleu	a5,t1,.L35
 541              	.LBB27:
  80:src/kObjectAllocator.cpp ****             for (size_t bit = 8; bit != 0; --bit) {
 542              		.loc 1 80 13 is_stmt 1
  80:src/kObjectAllocator.cpp ****             for (size_t bit = 8; bit != 0; --bit) {
 543              		.loc 1 80 20 is_stmt 0
 544 0364 3306C340 		sub	a2,t1,a2
 545              	.LVL47:
  81:src/kObjectAllocator.cpp **** 
 546              		.loc 1 81 13 is_stmt 1
 547              	.LBB26:
  81:src/kObjectAllocator.cpp **** 
 548              		.loc 1 81 25 is_stmt 0
 549 0368 13078000 		li	a4,8
 550              	.LVL48:
 551              	.L38:
  81:src/kObjectAllocator.cpp **** 
 552              		.loc 1 81 38 is_stmt 1 discriminator 1
 553 036c E30E07FC 		beqz	a4,.L36
  91:src/kObjectAllocator.cpp ****                     /*printString("========================");
 554              		.loc 1 91 17
  91:src/kObjectAllocator.cpp ****                     /*printString("========================");
 555              		.loc 1 91 22 is_stmt 0
 556 0370 83368502 		ld	a3,40(a0)
  91:src/kObjectAllocator.cpp ****                     /*printString("========================");
 557              		.loc 1 91 34
 558 0374 93953800 		slli	a1,a7,3
 559 0378 B386B600 		add	a3,a3,a1
 560 037c 83B70600 		ld	a5,0(a3)
  91:src/kObjectAllocator.cpp ****                     /*printString("========================");
 561              		.loc 1 91 40
 562 0380 B387C700 		add	a5,a5,a2
 563 0384 83C70700 		lbu	a5,0(a5)
  91:src/kObjectAllocator.cpp ****                     /*printString("========================");
 564              		.loc 1 91 50
 565 0388 1B08F7FF 		addiw	a6,a4,-1
  91:src/kObjectAllocator.cpp ****                     /*printString("========================");
 566              		.loc 1 91 42
 567 038c BBD70741 		sraw	a5,a5,a6
  91:src/kObjectAllocator.cpp ****                     /*printString("========================");
 568              		.loc 1 91 55
 569 0390 93F71700 		andi	a5,a5,1
  91:src/kObjectAllocator.cpp ****                     /*printString("========================");
 570              		.loc 1 91 17
 571 0394 E38C07F4 		beqz	a5,.L43
GAS LISTING /tmp/cc9vngzJ.s 			page 15


  81:src/kObjectAllocator.cpp **** 
 572              		.loc 1 81 13 is_stmt 1 discriminator 2
 573 0398 1307F7FF 		addi	a4,a4,-1
 574              	.LVL49:
 575 039c 6FF01FFD 		j	.L38
 576              	.LVL50:
 577              	.L35:
 578              	.LBE26:
 579              	.LBE27:
 580              	.LBE28:
  78:src/kObjectAllocator.cpp ****         for (size_t j = nextNonTakenByte; j >= i * memorySizeForBits && j < (i + 1) * memorySizeFor
 581              		.loc 1 78 5 discriminator 2
 582 03a0 93881800 		addi	a7,a7,1
 583              	.LVL51:
 584 03a4 6FF09FF3 		j	.L40
 585              	.LVL52:
 586              	.L41:
 587              	.LBE30:
 107:src/kObjectAllocator.cpp **** }
 588              		.loc 1 107 12 is_stmt 0
 589 03a8 13050000 		li	a0,0
 590              	.LVL53:
 591 03ac 6FF01FF9 		j	.L33
 592              		.cfi_endproc
 593              	.LFE18:
 595              		.section	.rodata.str1.8
 596 002f 00       		.align	3
 597              	.LC6:
 598 0030 4552524F 		.string	"ERROR: Object not allocated in this KObjectAllocator\n"
 598      523A204F 
 598      626A6563 
 598      74206E6F 
 598      7420616C 
 599              		.text
 600              		.align	2
 601              		.globl	_ZN16KObjectAllocator10freeObjectEPv
 603              	_ZN16KObjectAllocator10freeObjectEPv:
 604              	.LFB19:
 109:src/kObjectAllocator.cpp **** 
 110:src/kObjectAllocator.cpp **** void KObjectAllocator::freeObject(void* objectPointer) {
 605              		.loc 1 110 56 is_stmt 1
 606              		.cfi_startproc
 607              	.LVL54:
 111:src/kObjectAllocator.cpp ****     for (size_t i = 0; i < numberOfAllocations; ++i) {
 608              		.loc 1 111 5
 609              	.LBB31:
 610              		.loc 1 111 17 is_stmt 0
 611 03b0 13070000 		li	a4,0
 612 03b4 6F008000 		j	.L48
 613              	.LVL55:
 614              	.L46:
 615              		.loc 1 111 5 is_stmt 1 discriminator 2
 616 03b8 13071700 		addi	a4,a4,1
 617              	.LVL56:
 618              	.L48:
 619              		.loc 1 111 26 discriminator 1
 620              		.loc 1 111 28 is_stmt 0 discriminator 1
GAS LISTING /tmp/cc9vngzJ.s 			page 16


 621 03bc 83370503 		ld	a5,48(a0)
 622              		.loc 1 111 26 discriminator 1
 623 03c0 6374F706 		bleu	a5,a4,.L45
 624              	.LBB32:
 112:src/kObjectAllocator.cpp ****         if ((uint8*) objectPointer < objectVectors[i]) continue;
 625              		.loc 1 112 9 is_stmt 1
 626              		.loc 1 112 38 is_stmt 0
 627 03c4 83370502 		ld	a5,32(a0)
 628              		.loc 1 112 53
 629 03c8 93163700 		slli	a3,a4,3
 630 03cc B387D700 		add	a5,a5,a3
 631 03d0 83B70700 		ld	a5,0(a5)
 632              		.loc 1 112 9
 633 03d4 E3E2F5FE 		bgtu	a5,a1,.L46
 113:src/kObjectAllocator.cpp ****         size_t idiff = (size_t) ((uint8*) objectPointer - objectVectors[i]);
 634              		.loc 1 113 9 is_stmt 1
 635              		.loc 1 113 57 is_stmt 0
 636 03d8 B387F540 		sub	a5,a1,a5
 637              	.LVL57:
 114:src/kObjectAllocator.cpp ****         size_t byte = idiff / objectSize / 8;
 638              		.loc 1 114 9 is_stmt 1
 639              		.loc 1 114 31 is_stmt 0
 640 03dc 03368501 		ld	a2,24(a0)
 641              		.loc 1 114 29
 642 03e0 B3D7C702 		divu	a5,a5,a2
 643              	.LVL58:
 644              		.loc 1 114 16
 645 03e4 13D83700 		srli	a6,a5,3
 646              	.LVL59:
 115:src/kObjectAllocator.cpp ****         if (byte >= memorySizeForBits) continue;
 647              		.loc 1 115 9 is_stmt 1
 648              		.loc 1 115 21 is_stmt 0
 649 03e8 03360501 		ld	a2,16(a0)
 650              		.loc 1 115 9
 651 03ec E376C8FC 		bleu	a2,a6,.L46
 116:src/kObjectAllocator.cpp ****         size_t bit = idiff / objectSize - byte * 8;
 652              		.loc 1 116 9 is_stmt 1
 653              		.loc 1 116 16 is_stmt 0
 654 03f0 93F77700 		andi	a5,a5,7
 655              	.LVL60:
 117:src/kObjectAllocator.cpp ****         bitVectors[i][byte] &= ~((uint8) 1 << (7 - bit));
 656              		.loc 1 117 9 is_stmt 1
 657 03f4 03368502 		ld	a2,40(a0)
 658              		.loc 1 117 21 is_stmt 0
 659 03f8 B306D600 		add	a3,a2,a3
 660              	.LVL61:
 661 03fc 03B70600 		ld	a4,0(a3)
 662              	.LVL62:
 663              		.loc 1 117 29
 664 0400 33070701 		add	a4,a4,a6
 665              		.loc 1 117 50
 666 0404 93067000 		li	a3,7
 667 0408 BB86F640 		subw	a3,a3,a5
 668              		.loc 1 117 44
 669 040c 93071000 		li	a5,1
 670              	.LVL63:
 671 0410 BB97D700 		sllw	a5,a5,a3
GAS LISTING /tmp/cc9vngzJ.s 			page 17


 672              		.loc 1 117 29
 673 0414 93C7F7FF 		not	a5,a5
 674 0418 83460700 		lbu	a3,0(a4)
 675 041c B3F7D700 		and	a5,a5,a3
 676 0420 2300F700 		sb	a5,0(a4)
 118:src/kObjectAllocator.cpp ****         return;
 677              		.loc 1 118 9 is_stmt 1
 678 0424 67800000 		ret
 679              	.LVL64:
 680              	.L45:
 681              	.LBE32:
 682              	.LBE31:
 110:src/kObjectAllocator.cpp ****     for (size_t i = 0; i < numberOfAllocations; ++i) {
 683              		.loc 1 110 56 is_stmt 0
 684 0428 130101FF 		addi	sp,sp,-16
 685              		.cfi_def_cfa_offset 16
 686 042c 23341100 		sd	ra,8(sp)
 687 0430 23308100 		sd	s0,0(sp)
 688              		.cfi_offset 1, -8
 689              		.cfi_offset 8, -16
 690 0434 13040101 		addi	s0,sp,16
 691              		.cfi_def_cfa 8, 0
 119:src/kObjectAllocator.cpp ****     }
 120:src/kObjectAllocator.cpp ****     printString("ERROR: Object not allocated in this KObjectAllocator\n");
 692              		.loc 1 120 5 is_stmt 1
 693              		.loc 1 120 16 is_stmt 0
 694 0438 17050000 		lla	a0,.LC6
 694      13050500 
 695              	.LVL65:
 696 0440 97000000 		call	_Z11printStringPKc@plt
 696      E7800000 
 697              	.LVL66:
 121:src/kObjectAllocator.cpp **** }
 698              		.loc 1 121 1
 699 0448 83308100 		ld	ra,8(sp)
 700              		.cfi_restore 1
 701 044c 03340100 		ld	s0,0(sp)
 702              		.cfi_restore 8
 703              		.cfi_def_cfa 2, 16
 704 0450 13010101 		addi	sp,sp,16
 705              		.cfi_def_cfa_offset 0
 706 0454 67800000 		jr	ra
 707              		.cfi_endproc
 708              	.LFE19:
 710              		.align	2
 711              		.globl	_ZN16KObjectAllocator28handleNotEnoughMemoryProblemEv
 713              	_ZN16KObjectAllocator28handleNotEnoughMemoryProblemEv:
 714              	.LFB20:
 122:src/kObjectAllocator.cpp **** 
 123:src/kObjectAllocator.cpp **** bool KObjectAllocator::handleNotEnoughMemoryProblem() {
 715              		.loc 1 123 55 is_stmt 1
 716              		.cfi_startproc
 717              	.LVL67:
 718 0458 130101FB 		addi	sp,sp,-80
 719              		.cfi_def_cfa_offset 80
 720 045c 23341104 		sd	ra,72(sp)
 721 0460 23308104 		sd	s0,64(sp)
GAS LISTING /tmp/cc9vngzJ.s 			page 18


 722 0464 233C9102 		sd	s1,56(sp)
 723 0468 23382103 		sd	s2,48(sp)
 724 046c 23343103 		sd	s3,40(sp)
 725 0470 23304103 		sd	s4,32(sp)
 726 0474 233C5101 		sd	s5,24(sp)
 727 0478 23386101 		sd	s6,16(sp)
 728 047c 23347101 		sd	s7,8(sp)
 729              		.cfi_offset 1, -8
 730              		.cfi_offset 8, -16
 731              		.cfi_offset 9, -24
 732              		.cfi_offset 18, -32
 733              		.cfi_offset 19, -40
 734              		.cfi_offset 20, -48
 735              		.cfi_offset 21, -56
 736              		.cfi_offset 22, -64
 737              		.cfi_offset 23, -72
 738 0480 13040105 		addi	s0,sp,80
 739              		.cfi_def_cfa 8, 0
 740 0484 93040500 		mv	s1,a0
 124:src/kObjectAllocator.cpp ****     size_t newNumberOfAllocations = 2 * numberOfAllocations;
 741              		.loc 1 124 5
 742              		.loc 1 124 41 is_stmt 0
 743 0488 033A0503 		ld	s4,48(a0)
 744              		.loc 1 124 12
 745 048c 93191A00 		slli	s3,s4,1
 746              	.LVL68:
 125:src/kObjectAllocator.cpp ****     size_t newNumberOfObjects = 2 * numberOfObjects;
 747              		.loc 1 125 5 is_stmt 1
 748              		.loc 1 125 37 is_stmt 0
 749 0490 833A8500 		ld	s5,8(a0)
 750              	.LVL69:
 126:src/kObjectAllocator.cpp ****     uint8** newBitVectors = (uint8**) MemoryAllocator::instance()->kmem_alloc(
 751              		.loc 1 126 5 is_stmt 1
 752              		.loc 1 126 78 is_stmt 0
 753 0494 97000000 		call	_ZN15MemoryAllocator8instanceEv@plt
 753      E7800000 
 754              	.LVL70:
 755 049c 131A4A00 		slli	s4,s4,4
 756 04a0 93050A00 		mv	a1,s4
 757 04a4 97000000 		call	_ZN15MemoryAllocator10kmem_allocEm@plt
 757      E7800000 
 758              	.LVL71:
 127:src/kObjectAllocator.cpp ****             newNumberOfAllocations * sizeof(uint8*)
 128:src/kObjectAllocator.cpp ****     );
 129:src/kObjectAllocator.cpp ****     if (!newBitVectors) return false;
 759              		.loc 1 129 5 is_stmt 1
 760 04ac 63060514 		beqz	a0,.L62
 761 04b0 939A1A00 		slli	s5,s5,1
 762              	.LVL72:
 763 04b4 13090500 		mv	s2,a0
 130:src/kObjectAllocator.cpp ****     uint8** newObjectVectors = (uint8**) MemoryAllocator::instance()->kmem_alloc(
 764              		.loc 1 130 5
 765              		.loc 1 130 81 is_stmt 0
 766 04b8 97000000 		call	_ZN15MemoryAllocator8instanceEv@plt
 766      E7800000 
 767              	.LVL73:
 768 04c0 93050A00 		mv	a1,s4
GAS LISTING /tmp/cc9vngzJ.s 			page 19


 769 04c4 97000000 		call	_ZN15MemoryAllocator10kmem_allocEm@plt
 769      E7800000 
 770              	.LVL74:
 771 04cc 130A0500 		mv	s4,a0
 772              	.LVL75:
 131:src/kObjectAllocator.cpp ****             newNumberOfAllocations * sizeof(uint8*)
 132:src/kObjectAllocator.cpp ****     );
 133:src/kObjectAllocator.cpp ****     if (!newObjectVectors) return false;
 773              		.loc 1 133 5 is_stmt 1
 774 04d0 630C0514 		beqz	a0,.L63
 775              	.LBB33:
 134:src/kObjectAllocator.cpp **** 
 135:src/kObjectAllocator.cpp ****     for (size_t i = 0; i < numberOfAllocations; ++i) newBitVectors[i] = bitVectors[i];
 776              		.loc 1 135 17 is_stmt 0
 777 04d4 93070000 		li	a5,0
 778              	.L55:
 779              	.LVL76:
 780              		.loc 1 135 26 is_stmt 1 discriminator 3
 781              		.loc 1 135 28 is_stmt 0 discriminator 3
 782 04d8 03BB0403 		ld	s6,48(s1)
 783              		.loc 1 135 26 discriminator 3
 784 04dc 63F46703 		bleu	s6,a5,.L54
 785              		.loc 1 135 54 is_stmt 1 discriminator 2
 786              		.loc 1 135 73 is_stmt 0 discriminator 2
 787 04e0 03B78402 		ld	a4,40(s1)
 788              		.loc 1 135 85 discriminator 2
 789 04e4 93963700 		slli	a3,a5,3
 790              		.loc 1 135 69 discriminator 2
 791 04e8 3306D900 		add	a2,s2,a3
 792              		.loc 1 135 85 discriminator 2
 793 04ec 3307D700 		add	a4,a4,a3
 794 04f0 03370700 		ld	a4,0(a4)
 795              		.loc 1 135 71 discriminator 2
 796 04f4 2330E600 		sd	a4,0(a2)
 797              		.loc 1 135 5 is_stmt 1 discriminator 2
 798 04f8 93871700 		addi	a5,a5,1
 799              	.LVL77:
 800 04fc 6FF0DFFD 		j	.L55
 801              	.LVL78:
 802              	.L67:
 803              	.LBE33:
 804              	.LBB34:
 136:src/kObjectAllocator.cpp ****     for (size_t i = numberOfAllocations; i < newNumberOfAllocations; ++i) {
 805              		.loc 1 136 5 discriminator 2
 806 0500 130B1B00 		addi	s6,s6,1
 807              	.LVL79:
 808              	.L54:
 809              		.loc 1 136 44 discriminator 1
 810 0504 63703B05 		bgeu	s6,s3,.L64
 137:src/kObjectAllocator.cpp ****         newBitVectors[i] = (uint8*) MemoryAllocator::instance()->kmem_alloc(
 811              		.loc 1 137 9
 812              		.loc 1 137 76 is_stmt 0
 813 0508 97000000 		call	_ZN15MemoryAllocator8instanceEv@plt
 813      E7800000 
 814              	.LVL80:
 138:src/kObjectAllocator.cpp ****         memorySizeForBits + initialNumberOfObjects * objectSize );
 815              		.loc 1 138 9
GAS LISTING /tmp/cc9vngzJ.s 			page 20


 816 0510 83B50401 		ld	a1,16(s1)
 817              		.loc 1 138 29
 818 0514 83B70400 		ld	a5,0(s1)
 819              		.loc 1 138 54
 820 0518 03B78401 		ld	a4,24(s1)
 821              		.loc 1 138 52
 822 051c B387E702 		mul	a5,a5,a4
 137:src/kObjectAllocator.cpp ****         newBitVectors[i] = (uint8*) MemoryAllocator::instance()->kmem_alloc(
 823              		.loc 1 137 24
 824 0520 931B3B00 		slli	s7,s6,3
 825 0524 B30B7901 		add	s7,s2,s7
 137:src/kObjectAllocator.cpp ****         newBitVectors[i] = (uint8*) MemoryAllocator::instance()->kmem_alloc(
 826              		.loc 1 137 76
 827 0528 B385F500 		add	a1,a1,a5
 828 052c 97000000 		call	_ZN15MemoryAllocator10kmem_allocEm@plt
 828      E7800000 
 829              	.LVL81:
 137:src/kObjectAllocator.cpp ****         newBitVectors[i] = (uint8*) MemoryAllocator::instance()->kmem_alloc(
 830              		.loc 1 137 26
 831 0534 23B0AB00 		sd	a0,0(s7)
 139:src/kObjectAllocator.cpp ****         if (!newBitVectors[i]) return false;
 832              		.loc 1 139 9 is_stmt 1
 833 0538 E31405FC 		bnez	a0,.L67
 834              		.loc 1 139 39 is_stmt 0
 835 053c 13050000 		li	a0,0
 836 0540 6F00C00B 		j	.L53
 837              	.L64:
 838              	.LBE34:
 839              	.LBB35:
 140:src/kObjectAllocator.cpp ****     }
 141:src/kObjectAllocator.cpp ****     for (size_t i = 0; i < newNumberOfAllocations; ++i) newObjectVectors[i] = newBitVectors[i] + me
 840              		.loc 1 141 17
 841 0544 13070000 		li	a4,0
 842              	.L56:
 843              	.LVL82:
 844              		.loc 1 141 26 is_stmt 1 discriminator 3
 845 0548 63743703 		bgeu	a4,s3,.L57
 846              		.loc 1 141 57 discriminator 2
 847              		.loc 1 141 94 is_stmt 0 discriminator 2
 848 054c 93173700 		slli	a5,a4,3
 849 0550 B306F900 		add	a3,s2,a5
 850 0554 83B60600 		ld	a3,0(a3)
 851              		.loc 1 141 98 discriminator 2
 852 0558 03B60401 		ld	a2,16(s1)
 853              		.loc 1 141 75 discriminator 2
 854 055c B307FA00 		add	a5,s4,a5
 855              		.loc 1 141 96 discriminator 2
 856 0560 B386C600 		add	a3,a3,a2
 857              		.loc 1 141 77 discriminator 2
 858 0564 23B0D700 		sd	a3,0(a5)
 859              		.loc 1 141 5 is_stmt 1 discriminator 2
 860 0568 13071700 		addi	a4,a4,1
 861              	.LVL83:
 862 056c 6FF0DFFD 		j	.L56
 863              	.L57:
 864              	.LBE35:
 142:src/kObjectAllocator.cpp ****     for (size_t i = numberOfAllocations; i < newNumberOfAllocations; ++i)
GAS LISTING /tmp/cc9vngzJ.s 			page 21


 865              		.loc 1 142 5
 866              	.LBB36:
 867              		.loc 1 142 17 is_stmt 0
 868 0570 83B60403 		ld	a3,48(s1)
 869              	.LVL84:
 870 0574 6F008002 		j	.L61
 871              	.LVL85:
 872              	.L68:
 873              	.LBB37:
 143:src/kObjectAllocator.cpp ****         for (size_t j = 0; j < memorySizeForBits; newBitVectors[i][j++] = 0);
 874              		.loc 1 143 9 is_stmt 1 discriminator 2
 875              		.loc 1 143 66 is_stmt 0 discriminator 2
 876 0578 13973600 		slli	a4,a3,3
 877 057c 3307E900 		add	a4,s2,a4
 878 0580 03370700 		ld	a4,0(a4)
 879              	.LVL86:
 880              		.loc 1 143 71 discriminator 2
 881 0584 3307F700 		add	a4,a4,a5
 882              		.loc 1 143 73 discriminator 2
 883 0588 23000700 		sb	zero,0(a4)
 884              		.loc 1 143 69 discriminator 2
 885 058c 93871700 		addi	a5,a5,1
 886              	.LVL87:
 887              	.L60:
 888              		.loc 1 143 30 is_stmt 1 discriminator 3
 889              		.loc 1 143 32 is_stmt 0 discriminator 3
 890 0590 03B70401 		ld	a4,16(s1)
 891              		.loc 1 143 30 discriminator 3
 892 0594 E3E2E7FE 		bgtu	a4,a5,.L68
 893              	.LBE37:
 142:src/kObjectAllocator.cpp ****     for (size_t i = numberOfAllocations; i < newNumberOfAllocations; ++i)
 894              		.loc 1 142 5 is_stmt 1 discriminator 2
 895 0598 93861600 		addi	a3,a3,1
 896              	.LVL88:
 897              	.L61:
 142:src/kObjectAllocator.cpp ****     for (size_t i = numberOfAllocations; i < newNumberOfAllocations; ++i)
 898              		.loc 1 142 44 discriminator 1
 899 059c 63F63601 		bgeu	a3,s3,.L58
 900              	.LBB38:
 901              		.loc 1 143 21 is_stmt 0
 902 05a0 93070000 		li	a5,0
 903 05a4 6FF0DFFE 		j	.L60
 904              	.L58:
 905              	.LBE38:
 906              	.LBE36:
 144:src/kObjectAllocator.cpp ****     MemoryAllocator::instance()->kmem_free(bitVectors);
 907              		.loc 1 144 5 is_stmt 1
 908              		.loc 1 144 43 is_stmt 0
 909 05a8 97000000 		call	_ZN15MemoryAllocator8instanceEv@plt
 909      E7800000 
 910              	.LVL89:
 911 05b0 83B58402 		ld	a1,40(s1)
 912 05b4 97000000 		call	_ZN15MemoryAllocator9kmem_freeEPv@plt
 912      E7800000 
 913              	.LVL90:
 145:src/kObjectAllocator.cpp ****     MemoryAllocator::instance()->kmem_free(objectVectors);
 914              		.loc 1 145 5 is_stmt 1
GAS LISTING /tmp/cc9vngzJ.s 			page 22


 915              		.loc 1 145 43 is_stmt 0
 916 05bc 97000000 		call	_ZN15MemoryAllocator8instanceEv@plt
 916      E7800000 
 917              	.LVL91:
 918 05c4 83B50402 		ld	a1,32(s1)
 919 05c8 97000000 		call	_ZN15MemoryAllocator9kmem_freeEPv@plt
 919      E7800000 
 920              	.LVL92:
 146:src/kObjectAllocator.cpp **** 
 147:src/kObjectAllocator.cpp ****     numberOfObjects = newNumberOfObjects;
 921              		.loc 1 147 5 is_stmt 1
 922              		.loc 1 147 21 is_stmt 0
 923 05d0 23B45401 		sd	s5,8(s1)
 148:src/kObjectAllocator.cpp ****     nextNonTakenByte = numberOfAllocations * memorySizeForBits;
 924              		.loc 1 148 5 is_stmt 1
 925              		.loc 1 148 24 is_stmt 0
 926 05d4 83B70403 		ld	a5,48(s1)
 927              		.loc 1 148 46
 928 05d8 03B70401 		ld	a4,16(s1)
 929              		.loc 1 148 44
 930 05dc B387E702 		mul	a5,a5,a4
 931              		.loc 1 148 22
 932 05e0 23BCF402 		sd	a5,56(s1)
 149:src/kObjectAllocator.cpp ****     numberOfAllocations = newNumberOfAllocations;
 933              		.loc 1 149 5 is_stmt 1
 934              		.loc 1 149 25 is_stmt 0
 935 05e4 23B83403 		sd	s3,48(s1)
 150:src/kObjectAllocator.cpp ****     bitVectors = newBitVectors;
 936              		.loc 1 150 5 is_stmt 1
 937              		.loc 1 150 16 is_stmt 0
 938 05e8 23B42403 		sd	s2,40(s1)
 151:src/kObjectAllocator.cpp ****     objectVectors = newObjectVectors;
 939              		.loc 1 151 5 is_stmt 1
 940              		.loc 1 151 19 is_stmt 0
 941 05ec 23B04403 		sd	s4,32(s1)
 152:src/kObjectAllocator.cpp **** 
 153:src/kObjectAllocator.cpp ****     return true;
 942              		.loc 1 153 5 is_stmt 1
 943              		.loc 1 153 12 is_stmt 0
 944 05f0 13051000 		li	a0,1
 945 05f4 6F008000 		j	.L53
 946              	.LVL93:
 947              	.L62:
 129:src/kObjectAllocator.cpp ****     uint8** newObjectVectors = (uint8**) MemoryAllocator::instance()->kmem_alloc(
 948              		.loc 1 129 32
 949 05f8 13050000 		li	a0,0
 950              	.LVL94:
 951              	.L53:
 154:src/kObjectAllocator.cpp **** }
 952              		.loc 1 154 1
 953 05fc 83308104 		ld	ra,72(sp)
 954              		.cfi_remember_state
 955              		.cfi_restore 1
 956 0600 03340104 		ld	s0,64(sp)
 957              		.cfi_restore 8
 958              		.cfi_def_cfa 2, 80
 959 0604 83348103 		ld	s1,56(sp)
GAS LISTING /tmp/cc9vngzJ.s 			page 23


 960              		.cfi_restore 9
 961              	.LVL95:
 962 0608 03390103 		ld	s2,48(sp)
 963              		.cfi_restore 18
 964 060c 83398102 		ld	s3,40(sp)
 965              		.cfi_restore 19
 966              	.LVL96:
 967 0610 033A0102 		ld	s4,32(sp)
 968              		.cfi_restore 20
 969 0614 833A8101 		ld	s5,24(sp)
 970              		.cfi_restore 21
 971 0618 033B0101 		ld	s6,16(sp)
 972              		.cfi_restore 22
 973 061c 833B8100 		ld	s7,8(sp)
 974              		.cfi_restore 23
 975 0620 13010105 		addi	sp,sp,80
 976              		.cfi_def_cfa_offset 0
 977 0624 67800000 		jr	ra
 978              	.LVL97:
 979              	.L63:
 980              		.cfi_restore_state
 133:src/kObjectAllocator.cpp **** 
 981              		.loc 1 133 35
 982 0628 13050000 		li	a0,0
 983              	.LVL98:
 984 062c 6FF01FFD 		j	.L53
 985              		.cfi_endproc
 986              	.LFE20:
 988              		.align	2
 989              		.globl	_ZN16KObjectAllocator17allocateNewObjectEv
 991              	_ZN16KObjectAllocator17allocateNewObjectEv:
 992              	.LFB17:
  49:src/kObjectAllocator.cpp ****     void* returnedObject = allocateFreeObject();
 993              		.loc 1 49 45 is_stmt 1
 994              		.cfi_startproc
 995              	.LVL99:
 996 0630 130101FE 		addi	sp,sp,-32
 997              		.cfi_def_cfa_offset 32
 998 0634 233C1100 		sd	ra,24(sp)
 999 0638 23388100 		sd	s0,16(sp)
 1000 063c 23349100 		sd	s1,8(sp)
 1001 0640 23302101 		sd	s2,0(sp)
 1002              		.cfi_offset 1, -8
 1003              		.cfi_offset 8, -16
 1004              		.cfi_offset 9, -24
 1005              		.cfi_offset 18, -32
 1006 0644 13040102 		addi	s0,sp,32
 1007              		.cfi_def_cfa 8, 0
 1008 0648 13090500 		mv	s2,a0
  50:src/kObjectAllocator.cpp ****     if (returnedObject) {
 1009              		.loc 1 50 5
  50:src/kObjectAllocator.cpp ****     if (returnedObject) {
 1010              		.loc 1 50 46 is_stmt 0
 1011 064c 97000000 		call	_ZN16KObjectAllocator18allocateFreeObjectEv
 1011      E7800000 
 1012              	.LVL100:
 1013 0654 93040500 		mv	s1,a0
GAS LISTING /tmp/cc9vngzJ.s 			page 24


 1014              	.LVL101:
  51:src/kObjectAllocator.cpp ****         //printString("\nreturn1: ");
 1015              		.loc 1 51 5 is_stmt 1
 1016 0658 63000502 		beqz	a0,.L72
 1017              	.L69:
  75:src/kObjectAllocator.cpp **** 
 1018              		.loc 1 75 1 is_stmt 0
 1019 065c 13850400 		mv	a0,s1
 1020 0660 83308101 		ld	ra,24(sp)
 1021              		.cfi_remember_state
 1022              		.cfi_restore 1
 1023 0664 03340101 		ld	s0,16(sp)
 1024              		.cfi_restore 8
 1025              		.cfi_def_cfa 2, 32
 1026 0668 83348100 		ld	s1,8(sp)
 1027              		.cfi_restore 9
 1028              	.LVL102:
 1029 066c 03390100 		ld	s2,0(sp)
 1030              		.cfi_restore 18
 1031              	.LVL103:
 1032 0670 13010102 		addi	sp,sp,32
 1033              		.cfi_def_cfa_offset 0
 1034 0674 67800000 		jr	ra
 1035              	.LVL104:
 1036              	.L72:
 1037              		.cfi_restore_state
  57:src/kObjectAllocator.cpp ****     returnedObject = allocateFreeObject();
 1038              		.loc 1 57 5 is_stmt 1
  57:src/kObjectAllocator.cpp ****     returnedObject = allocateFreeObject();
 1039              		.loc 1 57 22 is_stmt 0
 1040 0678 233C0902 		sd	zero,56(s2)
  58:src/kObjectAllocator.cpp ****     if (returnedObject) {
 1041              		.loc 1 58 5 is_stmt 1
  58:src/kObjectAllocator.cpp ****     if (returnedObject) {
 1042              		.loc 1 58 40 is_stmt 0
 1043 067c 13050900 		mv	a0,s2
 1044 0680 97000000 		call	_ZN16KObjectAllocator18allocateFreeObjectEv
 1044      E7800000 
 1045              	.LVL105:
 1046 0688 93040500 		mv	s1,a0
 1047              	.LVL106:
  59:src/kObjectAllocator.cpp ****         //printString("\nreturn2: ");
 1048              		.loc 1 59 5 is_stmt 1
 1049 068c E31805FC 		bnez	a0,.L69
  66:src/kObjectAllocator.cpp ****         returnedObject = allocateFreeObject();
 1050              		.loc 1 66 5
  66:src/kObjectAllocator.cpp ****         returnedObject = allocateFreeObject();
 1051              		.loc 1 66 37 is_stmt 0
 1052 0690 13050900 		mv	a0,s2
 1053 0694 97000000 		call	_ZN16KObjectAllocator28handleNotEnoughMemoryProblemEv
 1053      E7800000 
 1054              	.LVL107:
  66:src/kObjectAllocator.cpp ****         returnedObject = allocateFreeObject();
 1055              		.loc 1 66 5
 1056 069c E30005FC 		beqz	a0,.L69
  67:src/kObjectAllocator.cpp ****         if (returnedObject) {
 1057              		.loc 1 67 9 is_stmt 1
GAS LISTING /tmp/cc9vngzJ.s 			page 25


  67:src/kObjectAllocator.cpp ****         if (returnedObject) {
 1058              		.loc 1 67 44 is_stmt 0
 1059 06a0 13050900 		mv	a0,s2
 1060 06a4 97000000 		call	_ZN16KObjectAllocator18allocateFreeObjectEv
 1060      E7800000 
 1061              	.LVL108:
 1062 06ac 93040500 		mv	s1,a0
 1063              	.LVL109:
  68:src/kObjectAllocator.cpp ****             //printString("\nreturn3: ");
 1064              		.loc 1 68 9 is_stmt 1
 1065 06b0 6FF0DFFA 		j	.L69
 1066              		.cfi_endproc
 1067              	.LFE17:
 1069              	.Letext0:
 1070              		.file 2 "src/../h/../h/../lib/hw.h"
 1071              		.file 3 "src/../h/../h/memoryAllocator.hpp"
 1072              		.file 4 "src/../h/kObjectAllocator.hpp"
 1073              		.file 5 "src/../h/print.hpp"
GAS LISTING /tmp/cc9vngzJ.s 			page 26


DEFINED SYMBOLS
                            *ABS*:0000000000000000 kObjectAllocator.cpp
     /tmp/cc9vngzJ.s:29     .text:0000000000000000 _ZN16KObjectAllocator19printInternalMemoryEv
     /tmp/cc9vngzJ.s:33     .text:0000000000000000 .L0 
     /tmp/cc9vngzJ.s:35     .text:0000000000000000 .L0 
     /tmp/cc9vngzJ.s:36     .text:0000000000000004 .L0 
     /tmp/cc9vngzJ.s:45     .text:0000000000000024 .L0 
     /tmp/cc9vngzJ.s:46     .text:0000000000000024 .L0 
     /tmp/cc9vngzJ.s:47     .text:0000000000000024 .L0 
     /tmp/cc9vngzJ.s:48     .text:0000000000000024 .L0 
     /tmp/cc9vngzJ.s:49     .text:0000000000000024 .L0 
     /tmp/cc9vngzJ.s:50     .text:0000000000000024 .L0 
     /tmp/cc9vngzJ.s:51     .text:0000000000000024 .L0 
     /tmp/cc9vngzJ.s:52     .text:0000000000000024 .L0 
     /tmp/cc9vngzJ.s:54     .text:0000000000000028 .L0 
     /tmp/cc9vngzJ.s:58     .text:000000000000002c .L0 
     /tmp/cc9vngzJ.s:59     .text:000000000000002c .L0 
     /tmp/cc9vngzJ.s:68     .text:0000000000000034 .L0 
     /tmp/cc9vngzJ.s:69     .text:0000000000000034 .L0 
     /tmp/cc9vngzJ.s:75     .text:0000000000000048 .L0 
     /tmp/cc9vngzJ.s:76     .text:0000000000000048 .L0 
     /tmp/cc9vngzJ.s:82     .text:0000000000000058 .L0 
     /tmp/cc9vngzJ.s:83     .text:0000000000000058 .L0 
     /tmp/cc9vngzJ.s:88     .text:0000000000000064 .L0 
     /tmp/cc9vngzJ.s:89     .text:0000000000000064 .L0 
     /tmp/cc9vngzJ.s:91     .text:0000000000000068 .L0 
     /tmp/cc9vngzJ.s:94     .text:0000000000000070 .L0 
     /tmp/cc9vngzJ.s:96     .text:0000000000000074 .L0 
     /tmp/cc9vngzJ.s:100    .text:0000000000000080 .L0 
     /tmp/cc9vngzJ.s:101    .text:0000000000000080 .L0 
     /tmp/cc9vngzJ.s:106    .text:0000000000000090 .L0 
     /tmp/cc9vngzJ.s:110    .text:0000000000000094 .L0 
     /tmp/cc9vngzJ.s:113    .text:000000000000009c .L0 
     /tmp/cc9vngzJ.s:114    .text:000000000000009c .L0 
     /tmp/cc9vngzJ.s:116    .text:00000000000000a0 .L0 
     /tmp/cc9vngzJ.s:118    .text:00000000000000a4 .L0 
     /tmp/cc9vngzJ.s:120    .text:00000000000000a8 .L0 
     /tmp/cc9vngzJ.s:121    .text:00000000000000a8 .L0 
     /tmp/cc9vngzJ.s:123    .text:00000000000000ac .L0 
     /tmp/cc9vngzJ.s:127    .text:00000000000000b8 .L0 
     /tmp/cc9vngzJ.s:130    .text:00000000000000c0 .L0 
     /tmp/cc9vngzJ.s:134    .text:00000000000000c8 .L0 
     /tmp/cc9vngzJ.s:135    .text:00000000000000c8 .L0 
     /tmp/cc9vngzJ.s:137    .text:00000000000000cc .L0 
     /tmp/cc9vngzJ.s:140    .text:00000000000000d4 .L0 
     /tmp/cc9vngzJ.s:143    .text:00000000000000dc .L0 
     /tmp/cc9vngzJ.s:149    .text:00000000000000e8 .L0 
     /tmp/cc9vngzJ.s:150    .text:00000000000000e8 .L0 
     /tmp/cc9vngzJ.s:155    .text:00000000000000f8 .L0 
     /tmp/cc9vngzJ.s:159    .text:00000000000000fc .L0 
     /tmp/cc9vngzJ.s:160    .text:00000000000000fc .L0 
     /tmp/cc9vngzJ.s:162    .text:0000000000000100 .L0 
     /tmp/cc9vngzJ.s:166    .text:0000000000000104 .L0 
     /tmp/cc9vngzJ.s:173    .text:000000000000010c .L0 
     /tmp/cc9vngzJ.s:174    .text:000000000000010c .L0 
     /tmp/cc9vngzJ.s:178    .text:000000000000011c .L0 
     /tmp/cc9vngzJ.s:179    .text:000000000000011c .L0 
GAS LISTING /tmp/cc9vngzJ.s 			page 27


     /tmp/cc9vngzJ.s:184    .text:0000000000000120 .L0 
     /tmp/cc9vngzJ.s:185    .text:0000000000000120 .L0 
     /tmp/cc9vngzJ.s:186    .text:0000000000000120 .L0 
     /tmp/cc9vngzJ.s:188    .text:0000000000000124 .L0 
     /tmp/cc9vngzJ.s:192    .text:0000000000000128 .L0 
     /tmp/cc9vngzJ.s:199    .text:0000000000000130 .L0 
     /tmp/cc9vngzJ.s:205    .text:0000000000000138 .L0 
     /tmp/cc9vngzJ.s:206    .text:0000000000000138 .L0 
     /tmp/cc9vngzJ.s:211    .text:0000000000000148 .L0 
     /tmp/cc9vngzJ.s:215    .text:000000000000014c .L0 
     /tmp/cc9vngzJ.s:216    .text:000000000000014c .L0 
     /tmp/cc9vngzJ.s:218    .text:0000000000000150 .L0 
     /tmp/cc9vngzJ.s:222    .text:0000000000000154 .L0 
     /tmp/cc9vngzJ.s:226    .text:0000000000000158 .L0 
     /tmp/cc9vngzJ.s:229    .text:0000000000000160 .L0 
     /tmp/cc9vngzJ.s:230    .text:0000000000000160 .L0 
     /tmp/cc9vngzJ.s:234    .text:0000000000000170 .L0 
     /tmp/cc9vngzJ.s:243    .text:0000000000000178 .L0 
     /tmp/cc9vngzJ.s:244    .text:0000000000000178 .L0 
     /tmp/cc9vngzJ.s:248    .text:0000000000000188 .L0 
     /tmp/cc9vngzJ.s:249    .text:0000000000000188 .L0 
     /tmp/cc9vngzJ.s:259    .text:0000000000000190 .L0 
     /tmp/cc9vngzJ.s:260    .text:0000000000000190 .L0 
     /tmp/cc9vngzJ.s:266    .text:00000000000001a4 .L0 
     /tmp/cc9vngzJ.s:267    .text:00000000000001a4 .L0 
     /tmp/cc9vngzJ.s:273    .text:00000000000001b4 .L0 
     /tmp/cc9vngzJ.s:274    .text:00000000000001b4 .L0 
     /tmp/cc9vngzJ.s:279    .text:00000000000001c0 .L0 
     /tmp/cc9vngzJ.s:280    .text:00000000000001c0 .L0 
     /tmp/cc9vngzJ.s:282    .text:00000000000001c4 .L0 
     /tmp/cc9vngzJ.s:285    .text:00000000000001cc .L0 
     /tmp/cc9vngzJ.s:287    .text:00000000000001d0 .L0 
     /tmp/cc9vngzJ.s:291    .text:00000000000001dc .L0 
     /tmp/cc9vngzJ.s:292    .text:00000000000001dc .L0 
     /tmp/cc9vngzJ.s:297    .text:00000000000001ec .L0 
     /tmp/cc9vngzJ.s:301    .text:00000000000001f0 .L0 
     /tmp/cc9vngzJ.s:304    .text:00000000000001f8 .L0 
     /tmp/cc9vngzJ.s:305    .text:00000000000001f8 .L0 
     /tmp/cc9vngzJ.s:307    .text:00000000000001fc .L0 
     /tmp/cc9vngzJ.s:309    .text:0000000000000200 .L0 
     /tmp/cc9vngzJ.s:311    .text:0000000000000204 .L0 
     /tmp/cc9vngzJ.s:313    .text:0000000000000208 .L0 
     /tmp/cc9vngzJ.s:315    .text:000000000000020c .L0 
     /tmp/cc9vngzJ.s:317    .text:0000000000000210 .L0 
     /tmp/cc9vngzJ.s:319    .text:0000000000000214 .L0 
     /tmp/cc9vngzJ.s:320    .text:0000000000000214 .L0 
     /tmp/cc9vngzJ.s:322    .text:0000000000000218 .L0 
     /tmp/cc9vngzJ.s:326    .text:0000000000000224 .L0 
     /tmp/cc9vngzJ.s:329    .text:000000000000022c .L0 
     /tmp/cc9vngzJ.s:333    .text:0000000000000234 .L0 
     /tmp/cc9vngzJ.s:334    .text:0000000000000234 .L0 
     /tmp/cc9vngzJ.s:336    .text:0000000000000238 .L0 
     /tmp/cc9vngzJ.s:339    .text:0000000000000240 .L0 
     /tmp/cc9vngzJ.s:342    .text:0000000000000248 .L0 
     /tmp/cc9vngzJ.s:348    .text:0000000000000254 .L0 
     /tmp/cc9vngzJ.s:349    .text:0000000000000254 .L0 
     /tmp/cc9vngzJ.s:354    .text:0000000000000264 .L0 
GAS LISTING /tmp/cc9vngzJ.s 			page 28


     /tmp/cc9vngzJ.s:358    .text:0000000000000268 .L0 
     /tmp/cc9vngzJ.s:359    .text:0000000000000268 .L0 
     /tmp/cc9vngzJ.s:361    .text:000000000000026c .L0 
     /tmp/cc9vngzJ.s:365    .text:0000000000000270 .L0 
     /tmp/cc9vngzJ.s:372    .text:0000000000000278 .L0 
     /tmp/cc9vngzJ.s:373    .text:0000000000000278 .L0 
     /tmp/cc9vngzJ.s:377    .text:0000000000000288 .L0 
     /tmp/cc9vngzJ.s:378    .text:0000000000000288 .L0 
     /tmp/cc9vngzJ.s:383    .text:000000000000028c .L0 
     /tmp/cc9vngzJ.s:384    .text:000000000000028c .L0 
     /tmp/cc9vngzJ.s:385    .text:000000000000028c .L0 
     /tmp/cc9vngzJ.s:387    .text:0000000000000290 .L0 
     /tmp/cc9vngzJ.s:389    .text:0000000000000294 .L0 
     /tmp/cc9vngzJ.s:391    .text:0000000000000298 .L0 
     /tmp/cc9vngzJ.s:395    .text:000000000000029c .L0 
     /tmp/cc9vngzJ.s:401    .text:00000000000002a4 .L0 
     /tmp/cc9vngzJ.s:402    .text:00000000000002a8 .L0 
     /tmp/cc9vngzJ.s:404    .text:00000000000002ac .L0 
     /tmp/cc9vngzJ.s:405    .text:00000000000002ac .L0 
     /tmp/cc9vngzJ.s:407    .text:00000000000002b0 .L0 
     /tmp/cc9vngzJ.s:410    .text:00000000000002b4 .L0 
     /tmp/cc9vngzJ.s:412    .text:00000000000002b8 .L0 
     /tmp/cc9vngzJ.s:414    .text:00000000000002bc .L0 
     /tmp/cc9vngzJ.s:417    .text:00000000000002c0 .L0 
     /tmp/cc9vngzJ.s:419    .text:00000000000002c4 .L0 
     /tmp/cc9vngzJ.s:421    .text:00000000000002c8 .L0 
     /tmp/cc9vngzJ.s:423    .text:00000000000002cc .L0 
     /tmp/cc9vngzJ.s:429    .text:00000000000002cc _ZN16KObjectAllocator18allocateFreeObjectEv
     /tmp/cc9vngzJ.s:432    .text:00000000000002cc .L0 
     /tmp/cc9vngzJ.s:434    .text:00000000000002cc .L0 
     /tmp/cc9vngzJ.s:435    .text:00000000000002d0 .L0 
     /tmp/cc9vngzJ.s:437    .text:00000000000002d4 .L0 
     /tmp/cc9vngzJ.s:439    .text:00000000000002d8 .L0 
     /tmp/cc9vngzJ.s:443    .text:00000000000002d8 .L0 
     /tmp/cc9vngzJ.s:444    .text:00000000000002d8 .L0 
     /tmp/cc9vngzJ.s:448    .text:00000000000002dc .L0 
     /tmp/cc9vngzJ.s:449    .text:00000000000002dc .L0 
     /tmp/cc9vngzJ.s:451    .text:00000000000002e0 .L0 
     /tmp/cc9vngzJ.s:456    .text:00000000000002e4 .L0 
     /tmp/cc9vngzJ.s:457    .text:00000000000002e4 .L0 
     /tmp/cc9vngzJ.s:465    .text:00000000000002ec .L0 
     /tmp/cc9vngzJ.s:466    .text:00000000000002ec .L0 
     /tmp/cc9vngzJ.s:469    .text:00000000000002f4 .L0 
     /tmp/cc9vngzJ.s:472    .text:00000000000002f8 .L0 
     /tmp/cc9vngzJ.s:474    .text:00000000000002fc .L0 
     /tmp/cc9vngzJ.s:475    .text:00000000000002fc .L0 
     /tmp/cc9vngzJ.s:477    .text:0000000000000300 .L0 
     /tmp/cc9vngzJ.s:479    .text:0000000000000304 .L0 
     /tmp/cc9vngzJ.s:482    .text:000000000000030c .L0 
     /tmp/cc9vngzJ.s:486    .text:0000000000000318 .L0 
     /tmp/cc9vngzJ.s:487    .text:0000000000000318 .L0 
     /tmp/cc9vngzJ.s:489    .text:000000000000031c .L0 
     /tmp/cc9vngzJ.s:492    .text:0000000000000324 .L0 
     /tmp/cc9vngzJ.s:497    .text:000000000000032c .L0 
     /tmp/cc9vngzJ.s:500    .text:0000000000000330 .L0 
     /tmp/cc9vngzJ.s:503    .text:0000000000000334 .L0 
     /tmp/cc9vngzJ.s:505    .text:0000000000000338 .L0 
GAS LISTING /tmp/cc9vngzJ.s 			page 29


     /tmp/cc9vngzJ.s:512    .text:000000000000033c .L0 
     /tmp/cc9vngzJ.s:513    .text:0000000000000340 .L0 
     /tmp/cc9vngzJ.s:514    .text:0000000000000340 .L0 
     /tmp/cc9vngzJ.s:515    .text:0000000000000340 .L0 
     /tmp/cc9vngzJ.s:517    .text:0000000000000344 .L0 
     /tmp/cc9vngzJ.s:521    .text:0000000000000348 .L0 
     /tmp/cc9vngzJ.s:525    .text:0000000000000348 .L0 
     /tmp/cc9vngzJ.s:529    .text:000000000000034c .L0 
     /tmp/cc9vngzJ.s:530    .text:000000000000034c .L0 
     /tmp/cc9vngzJ.s:532    .text:0000000000000350 .L0 
     /tmp/cc9vngzJ.s:534    .text:0000000000000354 .L0 
     /tmp/cc9vngzJ.s:536    .text:0000000000000358 .L0 
     /tmp/cc9vngzJ.s:538    .text:000000000000035c .L0 
     /tmp/cc9vngzJ.s:540    .text:0000000000000360 .L0 
     /tmp/cc9vngzJ.s:543    .text:0000000000000364 .L0 
     /tmp/cc9vngzJ.s:544    .text:0000000000000364 .L0 
     /tmp/cc9vngzJ.s:548    .text:0000000000000368 .L0 
     /tmp/cc9vngzJ.s:549    .text:0000000000000368 .L0 
     /tmp/cc9vngzJ.s:553    .text:000000000000036c .L0 
     /tmp/cc9vngzJ.s:555    .text:0000000000000370 .L0 
     /tmp/cc9vngzJ.s:556    .text:0000000000000370 .L0 
     /tmp/cc9vngzJ.s:558    .text:0000000000000374 .L0 
     /tmp/cc9vngzJ.s:562    .text:0000000000000380 .L0 
     /tmp/cc9vngzJ.s:565    .text:0000000000000388 .L0 
     /tmp/cc9vngzJ.s:567    .text:000000000000038c .L0 
     /tmp/cc9vngzJ.s:569    .text:0000000000000390 .L0 
     /tmp/cc9vngzJ.s:571    .text:0000000000000394 .L0 
     /tmp/cc9vngzJ.s:573    .text:0000000000000398 .L0 
     /tmp/cc9vngzJ.s:582    .text:00000000000003a0 .L0 
     /tmp/cc9vngzJ.s:589    .text:00000000000003a8 .L0 
     /tmp/cc9vngzJ.s:592    .text:00000000000003b0 .L0 
     /tmp/cc9vngzJ.s:603    .text:00000000000003b0 _ZN16KObjectAllocator10freeObjectEPv
     /tmp/cc9vngzJ.s:606    .text:00000000000003b0 .L0 
     /tmp/cc9vngzJ.s:608    .text:00000000000003b0 .L0 
     /tmp/cc9vngzJ.s:610    .text:00000000000003b0 .L0 
     /tmp/cc9vngzJ.s:611    .text:00000000000003b0 .L0 
     /tmp/cc9vngzJ.s:616    .text:00000000000003b8 .L0 
     /tmp/cc9vngzJ.s:620    .text:00000000000003bc .L0 
     /tmp/cc9vngzJ.s:621    .text:00000000000003bc .L0 
     /tmp/cc9vngzJ.s:623    .text:00000000000003c0 .L0 
     /tmp/cc9vngzJ.s:626    .text:00000000000003c4 .L0 
     /tmp/cc9vngzJ.s:627    .text:00000000000003c4 .L0 
     /tmp/cc9vngzJ.s:629    .text:00000000000003c8 .L0 
     /tmp/cc9vngzJ.s:633    .text:00000000000003d4 .L0 
     /tmp/cc9vngzJ.s:635    .text:00000000000003d8 .L0 
     /tmp/cc9vngzJ.s:636    .text:00000000000003d8 .L0 
     /tmp/cc9vngzJ.s:639    .text:00000000000003dc .L0 
     /tmp/cc9vngzJ.s:640    .text:00000000000003dc .L0 
     /tmp/cc9vngzJ.s:642    .text:00000000000003e0 .L0 
     /tmp/cc9vngzJ.s:645    .text:00000000000003e4 .L0 
     /tmp/cc9vngzJ.s:648    .text:00000000000003e8 .L0 
     /tmp/cc9vngzJ.s:649    .text:00000000000003e8 .L0 
     /tmp/cc9vngzJ.s:651    .text:00000000000003ec .L0 
     /tmp/cc9vngzJ.s:653    .text:00000000000003f0 .L0 
     /tmp/cc9vngzJ.s:654    .text:00000000000003f0 .L0 
     /tmp/cc9vngzJ.s:657    .text:00000000000003f4 .L0 
     /tmp/cc9vngzJ.s:659    .text:00000000000003f8 .L0 
GAS LISTING /tmp/cc9vngzJ.s 			page 30


     /tmp/cc9vngzJ.s:664    .text:0000000000000400 .L0 
     /tmp/cc9vngzJ.s:666    .text:0000000000000404 .L0 
     /tmp/cc9vngzJ.s:669    .text:000000000000040c .L0 
     /tmp/cc9vngzJ.s:673    .text:0000000000000414 .L0 
     /tmp/cc9vngzJ.s:678    .text:0000000000000424 .L0 
     /tmp/cc9vngzJ.s:684    .text:0000000000000428 .L0 
     /tmp/cc9vngzJ.s:685    .text:000000000000042c .L0 
     /tmp/cc9vngzJ.s:688    .text:0000000000000434 .L0 
     /tmp/cc9vngzJ.s:689    .text:0000000000000434 .L0 
     /tmp/cc9vngzJ.s:691    .text:0000000000000438 .L0 
     /tmp/cc9vngzJ.s:693    .text:0000000000000438 .L0 
     /tmp/cc9vngzJ.s:694    .text:0000000000000438 .L0 
     /tmp/cc9vngzJ.s:699    .text:0000000000000448 .L0 
     /tmp/cc9vngzJ.s:700    .text:000000000000044c .L0 
     /tmp/cc9vngzJ.s:702    .text:0000000000000450 .L0 
     /tmp/cc9vngzJ.s:703    .text:0000000000000450 .L0 
     /tmp/cc9vngzJ.s:705    .text:0000000000000454 .L0 
     /tmp/cc9vngzJ.s:707    .text:0000000000000458 .L0 
     /tmp/cc9vngzJ.s:713    .text:0000000000000458 _ZN16KObjectAllocator28handleNotEnoughMemoryProblemEv
     /tmp/cc9vngzJ.s:716    .text:0000000000000458 .L0 
     /tmp/cc9vngzJ.s:718    .text:0000000000000458 .L0 
     /tmp/cc9vngzJ.s:719    .text:000000000000045c .L0 
     /tmp/cc9vngzJ.s:729    .text:0000000000000480 .L0 
     /tmp/cc9vngzJ.s:730    .text:0000000000000480 .L0 
     /tmp/cc9vngzJ.s:731    .text:0000000000000480 .L0 
     /tmp/cc9vngzJ.s:732    .text:0000000000000480 .L0 
     /tmp/cc9vngzJ.s:733    .text:0000000000000480 .L0 
     /tmp/cc9vngzJ.s:734    .text:0000000000000480 .L0 
     /tmp/cc9vngzJ.s:735    .text:0000000000000480 .L0 
     /tmp/cc9vngzJ.s:736    .text:0000000000000480 .L0 
     /tmp/cc9vngzJ.s:737    .text:0000000000000480 .L0 
     /tmp/cc9vngzJ.s:739    .text:0000000000000484 .L0 
     /tmp/cc9vngzJ.s:742    .text:0000000000000488 .L0 
     /tmp/cc9vngzJ.s:743    .text:0000000000000488 .L0 
     /tmp/cc9vngzJ.s:745    .text:000000000000048c .L0 
     /tmp/cc9vngzJ.s:748    .text:0000000000000490 .L0 
     /tmp/cc9vngzJ.s:749    .text:0000000000000490 .L0 
     /tmp/cc9vngzJ.s:752    .text:0000000000000494 .L0 
     /tmp/cc9vngzJ.s:753    .text:0000000000000494 .L0 
     /tmp/cc9vngzJ.s:760    .text:00000000000004ac .L0 
     /tmp/cc9vngzJ.s:765    .text:00000000000004b8 .L0 
     /tmp/cc9vngzJ.s:766    .text:00000000000004b8 .L0 
     /tmp/cc9vngzJ.s:774    .text:00000000000004d0 .L0 
     /tmp/cc9vngzJ.s:777    .text:00000000000004d4 .L0 
     /tmp/cc9vngzJ.s:781    .text:00000000000004d8 .L0 
     /tmp/cc9vngzJ.s:782    .text:00000000000004d8 .L0 
     /tmp/cc9vngzJ.s:784    .text:00000000000004dc .L0 
     /tmp/cc9vngzJ.s:786    .text:00000000000004e0 .L0 
     /tmp/cc9vngzJ.s:787    .text:00000000000004e0 .L0 
     /tmp/cc9vngzJ.s:789    .text:00000000000004e4 .L0 
     /tmp/cc9vngzJ.s:791    .text:00000000000004e8 .L0 
     /tmp/cc9vngzJ.s:793    .text:00000000000004ec .L0 
     /tmp/cc9vngzJ.s:796    .text:00000000000004f4 .L0 
     /tmp/cc9vngzJ.s:798    .text:00000000000004f8 .L0 
     /tmp/cc9vngzJ.s:806    .text:0000000000000500 .L0 
     /tmp/cc9vngzJ.s:810    .text:0000000000000504 .L0 
     /tmp/cc9vngzJ.s:812    .text:0000000000000508 .L0 
GAS LISTING /tmp/cc9vngzJ.s 			page 31


     /tmp/cc9vngzJ.s:813    .text:0000000000000508 .L0 
     /tmp/cc9vngzJ.s:816    .text:0000000000000510 .L0 
     /tmp/cc9vngzJ.s:818    .text:0000000000000514 .L0 
     /tmp/cc9vngzJ.s:820    .text:0000000000000518 .L0 
     /tmp/cc9vngzJ.s:822    .text:000000000000051c .L0 
     /tmp/cc9vngzJ.s:824    .text:0000000000000520 .L0 
     /tmp/cc9vngzJ.s:827    .text:0000000000000528 .L0 
     /tmp/cc9vngzJ.s:831    .text:0000000000000534 .L0 
     /tmp/cc9vngzJ.s:833    .text:0000000000000538 .L0 
     /tmp/cc9vngzJ.s:835    .text:000000000000053c .L0 
     /tmp/cc9vngzJ.s:841    .text:0000000000000544 .L0 
     /tmp/cc9vngzJ.s:845    .text:0000000000000548 .L0 
     /tmp/cc9vngzJ.s:847    .text:000000000000054c .L0 
     /tmp/cc9vngzJ.s:848    .text:000000000000054c .L0 
     /tmp/cc9vngzJ.s:852    .text:0000000000000558 .L0 
     /tmp/cc9vngzJ.s:854    .text:000000000000055c .L0 
     /tmp/cc9vngzJ.s:856    .text:0000000000000560 .L0 
     /tmp/cc9vngzJ.s:858    .text:0000000000000564 .L0 
     /tmp/cc9vngzJ.s:860    .text:0000000000000568 .L0 
     /tmp/cc9vngzJ.s:867    .text:0000000000000570 .L0 
     /tmp/cc9vngzJ.s:868    .text:0000000000000570 .L0 
     /tmp/cc9vngzJ.s:875    .text:0000000000000578 .L0 
     /tmp/cc9vngzJ.s:876    .text:0000000000000578 .L0 
     /tmp/cc9vngzJ.s:881    .text:0000000000000584 .L0 
     /tmp/cc9vngzJ.s:883    .text:0000000000000588 .L0 
     /tmp/cc9vngzJ.s:885    .text:000000000000058c .L0 
     /tmp/cc9vngzJ.s:889    .text:0000000000000590 .L0 
     /tmp/cc9vngzJ.s:890    .text:0000000000000590 .L0 
     /tmp/cc9vngzJ.s:892    .text:0000000000000594 .L0 
     /tmp/cc9vngzJ.s:895    .text:0000000000000598 .L0 
     /tmp/cc9vngzJ.s:899    .text:000000000000059c .L0 
     /tmp/cc9vngzJ.s:902    .text:00000000000005a0 .L0 
     /tmp/cc9vngzJ.s:908    .text:00000000000005a8 .L0 
     /tmp/cc9vngzJ.s:909    .text:00000000000005a8 .L0 
     /tmp/cc9vngzJ.s:915    .text:00000000000005bc .L0 
     /tmp/cc9vngzJ.s:916    .text:00000000000005bc .L0 
     /tmp/cc9vngzJ.s:922    .text:00000000000005d0 .L0 
     /tmp/cc9vngzJ.s:923    .text:00000000000005d0 .L0 
     /tmp/cc9vngzJ.s:925    .text:00000000000005d4 .L0 
     /tmp/cc9vngzJ.s:926    .text:00000000000005d4 .L0 
     /tmp/cc9vngzJ.s:928    .text:00000000000005d8 .L0 
     /tmp/cc9vngzJ.s:930    .text:00000000000005dc .L0 
     /tmp/cc9vngzJ.s:932    .text:00000000000005e0 .L0 
     /tmp/cc9vngzJ.s:934    .text:00000000000005e4 .L0 
     /tmp/cc9vngzJ.s:935    .text:00000000000005e4 .L0 
     /tmp/cc9vngzJ.s:937    .text:00000000000005e8 .L0 
     /tmp/cc9vngzJ.s:938    .text:00000000000005e8 .L0 
     /tmp/cc9vngzJ.s:940    .text:00000000000005ec .L0 
     /tmp/cc9vngzJ.s:941    .text:00000000000005ec .L0 
     /tmp/cc9vngzJ.s:943    .text:00000000000005f0 .L0 
     /tmp/cc9vngzJ.s:944    .text:00000000000005f0 .L0 
     /tmp/cc9vngzJ.s:949    .text:00000000000005f8 .L0 
     /tmp/cc9vngzJ.s:953    .text:00000000000005fc .L0 
     /tmp/cc9vngzJ.s:954    .text:0000000000000600 .L0 
     /tmp/cc9vngzJ.s:955    .text:0000000000000600 .L0 
     /tmp/cc9vngzJ.s:957    .text:0000000000000604 .L0 
     /tmp/cc9vngzJ.s:958    .text:0000000000000604 .L0 
GAS LISTING /tmp/cc9vngzJ.s 			page 32


     /tmp/cc9vngzJ.s:960    .text:0000000000000608 .L0 
     /tmp/cc9vngzJ.s:963    .text:000000000000060c .L0 
     /tmp/cc9vngzJ.s:965    .text:0000000000000610 .L0 
     /tmp/cc9vngzJ.s:968    .text:0000000000000614 .L0 
     /tmp/cc9vngzJ.s:970    .text:0000000000000618 .L0 
     /tmp/cc9vngzJ.s:972    .text:000000000000061c .L0 
     /tmp/cc9vngzJ.s:974    .text:0000000000000620 .L0 
     /tmp/cc9vngzJ.s:976    .text:0000000000000624 .L0 
     /tmp/cc9vngzJ.s:980    .text:0000000000000628 .L0 
     /tmp/cc9vngzJ.s:982    .text:0000000000000628 .L0 
     /tmp/cc9vngzJ.s:985    .text:0000000000000630 .L0 
     /tmp/cc9vngzJ.s:991    .text:0000000000000630 _ZN16KObjectAllocator17allocateNewObjectEv
     /tmp/cc9vngzJ.s:994    .text:0000000000000630 .L0 
     /tmp/cc9vngzJ.s:996    .text:0000000000000630 .L0 
     /tmp/cc9vngzJ.s:997    .text:0000000000000634 .L0 
     /tmp/cc9vngzJ.s:1002   .text:0000000000000644 .L0 
     /tmp/cc9vngzJ.s:1003   .text:0000000000000644 .L0 
     /tmp/cc9vngzJ.s:1004   .text:0000000000000644 .L0 
     /tmp/cc9vngzJ.s:1005   .text:0000000000000644 .L0 
     /tmp/cc9vngzJ.s:1007   .text:0000000000000648 .L0 
     /tmp/cc9vngzJ.s:1010   .text:000000000000064c .L0 
     /tmp/cc9vngzJ.s:1011   .text:000000000000064c .L0 
     /tmp/cc9vngzJ.s:1016   .text:0000000000000658 .L0 
     /tmp/cc9vngzJ.s:1019   .text:000000000000065c .L0 
     /tmp/cc9vngzJ.s:1021   .text:0000000000000664 .L0 
     /tmp/cc9vngzJ.s:1022   .text:0000000000000664 .L0 
     /tmp/cc9vngzJ.s:1024   .text:0000000000000668 .L0 
     /tmp/cc9vngzJ.s:1025   .text:0000000000000668 .L0 
     /tmp/cc9vngzJ.s:1027   .text:000000000000066c .L0 
     /tmp/cc9vngzJ.s:1030   .text:0000000000000670 .L0 
     /tmp/cc9vngzJ.s:1033   .text:0000000000000674 .L0 
     /tmp/cc9vngzJ.s:1037   .text:0000000000000678 .L0 
     /tmp/cc9vngzJ.s:1039   .text:0000000000000678 .L0 
     /tmp/cc9vngzJ.s:1040   .text:0000000000000678 .L0 
     /tmp/cc9vngzJ.s:1042   .text:000000000000067c .L0 
     /tmp/cc9vngzJ.s:1043   .text:000000000000067c .L0 
     /tmp/cc9vngzJ.s:1049   .text:000000000000068c .L0 
     /tmp/cc9vngzJ.s:1051   .text:0000000000000690 .L0 
     /tmp/cc9vngzJ.s:1052   .text:0000000000000690 .L0 
     /tmp/cc9vngzJ.s:1056   .text:000000000000069c .L0 
     /tmp/cc9vngzJ.s:1058   .text:00000000000006a0 .L0 
     /tmp/cc9vngzJ.s:1059   .text:00000000000006a0 .L0 
     /tmp/cc9vngzJ.s:1065   .text:00000000000006b0 .L0 
     /tmp/cc9vngzJ.s:1066   .text:00000000000006b4 .L0 
     /tmp/cc9vngzJ.s:1074   .text:00000000000006b4 .L0 
     /tmp/cc9vngzJ.s:8      .rodata.str1.8:0000000000000000 .LC0
     /tmp/cc9vngzJ.s:69     .text:0000000000000034 .L0 
     /tmp/cc9vngzJ.s:11     .rodata.str1.8:0000000000000008 .LC1
     /tmp/cc9vngzJ.s:101    .text:0000000000000080 .L0 
     /tmp/cc9vngzJ.s:14     .rodata.str1.8:0000000000000010 .LC2
     /tmp/cc9vngzJ.s:150    .text:00000000000000e8 .L0 
     /tmp/cc9vngzJ.s:17     .rodata.str1.8:0000000000000018 .LC3
     /tmp/cc9vngzJ.s:174    .text:000000000000010c .L0 
     /tmp/cc9vngzJ.s:23     .rodata.str1.8:0000000000000028 .LC5
     /tmp/cc9vngzJ.s:206    .text:0000000000000138 .L0 
     /tmp/cc9vngzJ.s:20     .rodata.str1.8:0000000000000020 .LC4
     /tmp/cc9vngzJ.s:230    .text:0000000000000160 .L0 
GAS LISTING /tmp/cc9vngzJ.s 			page 33


     /tmp/cc9vngzJ.s:244    .text:0000000000000178 .L0 
     /tmp/cc9vngzJ.s:260    .text:0000000000000190 .L0 
     /tmp/cc9vngzJ.s:292    .text:00000000000001dc .L0 
     /tmp/cc9vngzJ.s:349    .text:0000000000000254 .L0 
     /tmp/cc9vngzJ.s:373    .text:0000000000000278 .L0 
     /tmp/cc9vngzJ.s:597    .rodata.str1.8:0000000000000030 .LC6
     /tmp/cc9vngzJ.s:694    .text:0000000000000438 .L0 
     /tmp/cc9vngzJ.s:181    .text:0000000000000120 .L11
     /tmp/cc9vngzJ.s:104    .text:0000000000000090 .L6
     /tmp/cc9vngzJ.s:132    .text:00000000000000c8 .L7
     /tmp/cc9vngzJ.s:146    .text:00000000000000e8 .L4
     /tmp/cc9vngzJ.s:62     .text:0000000000000034 .L27
     /tmp/cc9vngzJ.s:73     .text:0000000000000048 .L28
     /tmp/cc9vngzJ.s:86     .text:0000000000000064 .L8
     /tmp/cc9vngzJ.s:80     .text:0000000000000058 .L29
     /tmp/cc9vngzJ.s:168    .text:000000000000010c .L3
     /tmp/cc9vngzJ.s:108    .text:0000000000000094 .L9
     /tmp/cc9vngzJ.s:194    .text:0000000000000130 .L25
     /tmp/cc9vngzJ.s:157    .text:00000000000000fc .L10
     /tmp/cc9vngzJ.s:213    .text:000000000000014c .L2
     /tmp/cc9vngzJ.s:238    .text:0000000000000178 .L12
     /tmp/cc9vngzJ.s:202    .text:0000000000000138 .L13
     /tmp/cc9vngzJ.s:223    .text:0000000000000158 .L14
     /tmp/cc9vngzJ.s:380    .text:000000000000028c .L24
     /tmp/cc9vngzJ.s:295    .text:00000000000001ec .L19
     /tmp/cc9vngzJ.s:331    .text:0000000000000234 .L20
     /tmp/cc9vngzJ.s:345    .text:0000000000000254 .L17
     /tmp/cc9vngzJ.s:253    .text:0000000000000190 .L30
     /tmp/cc9vngzJ.s:264    .text:00000000000001a4 .L31
     /tmp/cc9vngzJ.s:277    .text:00000000000001c0 .L21
     /tmp/cc9vngzJ.s:271    .text:00000000000001b4 .L32
     /tmp/cc9vngzJ.s:367    .text:0000000000000278 .L16
     /tmp/cc9vngzJ.s:299    .text:00000000000001f0 .L22
     /tmp/cc9vngzJ.s:397    .text:00000000000002a4 .L1
     /tmp/cc9vngzJ.s:356    .text:0000000000000268 .L23
     /tmp/cc9vngzJ.s:586    .text:00000000000003a8 .L41
     /tmp/cc9vngzJ.s:527    .text:000000000000034c .L39
     /tmp/cc9vngzJ.s:577    .text:00000000000003a0 .L35
     /tmp/cc9vngzJ.s:520    .text:0000000000000348 .L36
     /tmp/cc9vngzJ.s:461    .text:00000000000002ec .L43
     /tmp/cc9vngzJ.s:551    .text:000000000000036c .L38
     /tmp/cc9vngzJ.s:446    .text:00000000000002dc .L40
     /tmp/cc9vngzJ.s:506    .text:000000000000033c .L33
     /tmp/cc9vngzJ.s:618    .text:00000000000003bc .L48
     /tmp/cc9vngzJ.s:680    .text:0000000000000428 .L45
     /tmp/cc9vngzJ.s:614    .text:00000000000003b8 .L46
     /tmp/cc9vngzJ.s:947    .text:00000000000005f8 .L62
     /tmp/cc9vngzJ.s:979    .text:0000000000000628 .L63
     /tmp/cc9vngzJ.s:808    .text:0000000000000504 .L54
     /tmp/cc9vngzJ.s:778    .text:00000000000004d8 .L55
     /tmp/cc9vngzJ.s:837    .text:0000000000000544 .L64
     /tmp/cc9vngzJ.s:802    .text:0000000000000500 .L67
     /tmp/cc9vngzJ.s:951    .text:00000000000005fc .L53
     /tmp/cc9vngzJ.s:863    .text:0000000000000570 .L57
     /tmp/cc9vngzJ.s:842    .text:0000000000000548 .L56
     /tmp/cc9vngzJ.s:897    .text:000000000000059c .L61
     /tmp/cc9vngzJ.s:872    .text:0000000000000578 .L68
GAS LISTING /tmp/cc9vngzJ.s 			page 34


     /tmp/cc9vngzJ.s:904    .text:00000000000005a8 .L58
     /tmp/cc9vngzJ.s:887    .text:0000000000000590 .L60
     /tmp/cc9vngzJ.s:1036   .text:0000000000000678 .L72
     /tmp/cc9vngzJ.s:1017   .text:000000000000065c .L69
     /tmp/cc9vngzJ.s:2311   .debug_abbrev:0000000000000000 .Ldebug_abbrev0
     /tmp/cc9vngzJ.s:3626   .debug_str:000000000000075d .LASF99
     /tmp/cc9vngzJ.s:3560   .debug_str:0000000000000451 .LASF100
     /tmp/cc9vngzJ.s:3586   .debug_str:0000000000000574 .LASF101
     /tmp/cc9vngzJ.s:5      .text:0000000000000000 .Ltext0
     /tmp/cc9vngzJ.s:1069   .text:00000000000006b4 .Letext0
     /tmp/cc9vngzJ.s:3452   .debug_line:0000000000000000 .Ldebug_line0
     /tmp/cc9vngzJ.s:3552   .debug_str:0000000000000412 .LASF0
     /tmp/cc9vngzJ.s:3564   .debug_str:000000000000047d .LASF1
     /tmp/cc9vngzJ.s:3542   .debug_str:00000000000003a5 .LASF2
     /tmp/cc9vngzJ.s:3496   .debug_str:00000000000001f9 .LASF3
     /tmp/cc9vngzJ.s:3518   .debug_str:00000000000002e3 .LASF4
     /tmp/cc9vngzJ.s:3608   .debug_str:00000000000006b7 .LASF5
     /tmp/cc9vngzJ.s:3468   .debug_str:00000000000000a0 .LASF6
     /tmp/cc9vngzJ.s:3568   .debug_str:0000000000000496 .LASF7
     /tmp/cc9vngzJ.s:3550   .debug_str:00000000000003ff .LASF8
     /tmp/cc9vngzJ.s:3642   .debug_str:00000000000008c5 .LASF9
     /tmp/cc9vngzJ.s:3508   .debug_str:0000000000000253 .LASF10
     /tmp/cc9vngzJ.s:3580   .debug_str:0000000000000533 .LASF11
     /tmp/cc9vngzJ.s:3632   .debug_str:0000000000000874 .LASF12
     /tmp/cc9vngzJ.s:3470   .debug_str:00000000000000a7 .LASF13
     /tmp/cc9vngzJ.s:3460   .debug_str:0000000000000055 .LASF14
     /tmp/cc9vngzJ.s:3482   .debug_str:000000000000013f .LASF15
     /tmp/cc9vngzJ.s:3600   .debug_str:000000000000065d .LASF16
     /tmp/cc9vngzJ.s:3494   .debug_str:00000000000001e3 .LASF17
     /tmp/cc9vngzJ.s:3540   .debug_str:0000000000000395 .LASF50
     /tmp/cc9vngzJ.s:3584   .debug_str:0000000000000562 .LASF102
     /tmp/cc9vngzJ.s:3534   .debug_str:0000000000000367 .LASF18
     /tmp/cc9vngzJ.s:3664   .debug_str:00000000000009bd .LASF19
     /tmp/cc9vngzJ.s:3558   .debug_str:0000000000000448 .LASF103
     /tmp/cc9vngzJ.s:3630   .debug_str:0000000000000854 .LASF104
     /tmp/cc9vngzJ.s:3640   .debug_str:00000000000008ae .LASF36
     /tmp/cc9vngzJ.s:3484   .debug_str:000000000000014b .LASF38
     /tmp/cc9vngzJ.s:3614   .debug_str:00000000000006f4 .LASF24
     /tmp/cc9vngzJ.s:3572   .debug_str:00000000000004b9 .LASF26
     /tmp/cc9vngzJ.s:3636   .debug_str:0000000000000895 .LASF20
     /tmp/cc9vngzJ.s:3596   .debug_str:000000000000060e .LASF22
     /tmp/cc9vngzJ.s:3648   .debug_str:0000000000000904 .LASF21
     /tmp/cc9vngzJ.s:3464   .debug_str:0000000000000071 .LASF23
     /tmp/cc9vngzJ.s:3602   .debug_str:0000000000000673 .LASF25
     /tmp/cc9vngzJ.s:3594   .debug_str:00000000000005d7 .LASF27
     /tmp/cc9vngzJ.s:3478   .debug_str:000000000000011a .LASF28
     /tmp/cc9vngzJ.s:3488   .debug_str:00000000000001a0 .LASF29
     /tmp/cc9vngzJ.s:3528   .debug_str:0000000000000338 .LASF30
     /tmp/cc9vngzJ.s:3644   .debug_str:00000000000008d5 .LASF31
     /tmp/cc9vngzJ.s:3538   .debug_str:0000000000000387 .LASF32
     /tmp/cc9vngzJ.s:3486   .debug_str:000000000000017a .LASF33
     /tmp/cc9vngzJ.s:3650   .debug_str:000000000000090e .LASF34
     /tmp/cc9vngzJ.s:3516   .debug_str:00000000000002bc .LASF35
     /tmp/cc9vngzJ.s:3502   .debug_str:0000000000000229 .LASF37
     /tmp/cc9vngzJ.s:3520   .debug_str:00000000000002ea .LASF39
     /tmp/cc9vngzJ.s:3466   .debug_str:0000000000000093 .LASF40
     /tmp/cc9vngzJ.s:3652   .debug_str:000000000000091d .LASF41
GAS LISTING /tmp/cc9vngzJ.s 			page 35


     /tmp/cc9vngzJ.s:3612   .debug_str:00000000000006de .LASF42
     /tmp/cc9vngzJ.s:3618   .debug_str:0000000000000716 .LASF43
     /tmp/cc9vngzJ.s:3588   .debug_str:00000000000005a7 .LASF44
     /tmp/cc9vngzJ.s:3582   .debug_str:0000000000000542 .LASF45
     /tmp/cc9vngzJ.s:3646   .debug_str:00000000000008fa .LASF46
     /tmp/cc9vngzJ.s:3524   .debug_str:000000000000031c .LASF47
     /tmp/cc9vngzJ.s:3660   .debug_str:00000000000009a5 .LASF48
     /tmp/cc9vngzJ.s:3458   .debug_str:0000000000000046 .LASF49
     /tmp/cc9vngzJ.s:3510   .debug_str:0000000000000261 .LASF51
     /tmp/cc9vngzJ.s:3476   .debug_str:0000000000000100 .LASF52
     /tmp/cc9vngzJ.s:3474   .debug_str:00000000000000e5 .LASF53
     /tmp/cc9vngzJ.s:3480   .debug_str:0000000000000132 .LASF54
     /tmp/cc9vngzJ.s:3544   .debug_str:00000000000003b3 .LASF55
     /tmp/cc9vngzJ.s:3616   .debug_str:0000000000000706 .LASF105
     /tmp/cc9vngzJ.s:3454   .debug_str:0000000000000000 .LASF106
     /tmp/cc9vngzJ.s:3514   .debug_str:00000000000002a8 .LASF56
     /tmp/cc9vngzJ.s:3654   .debug_str:0000000000000935 .LASF57
     /tmp/cc9vngzJ.s:3490   .debug_str:00000000000001d0 .LASF58
     /tmp/cc9vngzJ.s:3548   .debug_str:00000000000003d8 .LASF59
     /tmp/cc9vngzJ.s:3590   .debug_str:00000000000005b0 .LASF60
     /tmp/cc9vngzJ.s:3628   .debug_str:0000000000000821 .LASF61
     /tmp/cc9vngzJ.s:3604   .debug_str:0000000000000692 .LASF62
     /tmp/cc9vngzJ.s:3576   .debug_str:00000000000004f4 .LASF63
     /tmp/cc9vngzJ.s:3610   .debug_str:00000000000006c9 .LASF64
     /tmp/cc9vngzJ.s:3472   .debug_str:00000000000000b7 .LASF65
     /tmp/cc9vngzJ.s:3556   .debug_str:0000000000000431 .LASF66
     /tmp/cc9vngzJ.s:3656   .debug_str:0000000000000962 .LASF67
     /tmp/cc9vngzJ.s:3606   .debug_str:00000000000006a5 .LASF68
     /tmp/cc9vngzJ.s:3456   .debug_str:000000000000001b .LASF69
     /tmp/cc9vngzJ.s:3622   .debug_str:0000000000000743 .LASF70
     /tmp/cc9vngzJ.s:3498   .debug_str:00000000000001ff .LASF71
     /tmp/cc9vngzJ.s:3530   .debug_str:0000000000000345 .LASF72
     /tmp/cc9vngzJ.s:3512   .debug_str:0000000000000272 .LASF73
     /tmp/cc9vngzJ.s:3562   .debug_str:000000000000046a .LASF74
     /tmp/cc9vngzJ.s:3598   .debug_str:0000000000000631 .LASF75
     /tmp/cc9vngzJ.s:3536   .debug_str:0000000000000370 .LASF76
     /tmp/cc9vngzJ.s:3570   .debug_str:00000000000004a9 .LASF77
     /tmp/cc9vngzJ.s:3554   .debug_str:000000000000041f .LASF78
     /tmp/cc9vngzJ.s:3522   .debug_str:0000000000000311 .LASF79
     /tmp/cc9vngzJ.s:3638   .debug_str:00000000000008a0 .LASF80
     /tmp/cc9vngzJ.s:3546   .debug_str:00000000000003cd .LASF81
     /tmp/cc9vngzJ.s:3666   .debug_str:00000000000009c2 .LASF82
     /tmp/cc9vngzJ.s:3574   .debug_str:00000000000004e3 .LASF83
     /tmp/cc9vngzJ.s:3500   .debug_str:0000000000000224 .LASF84
     /tmp/cc9vngzJ.s:714    .text:0000000000000458 .LFB20
     /tmp/cc9vngzJ.s:986    .text:0000000000000630 .LFE20
     /tmp/cc9vngzJ.s:3492   .debug_str:00000000000001de .LASF89
     /tmp/cc9vngzJ.s:2937   .debug_loc:0000000000000000 .LLST19
     /tmp/cc9vngzJ.s:3620   .debug_str:000000000000072c .LASF85
     /tmp/cc9vngzJ.s:2959   .debug_loc:000000000000005f .LLST20
     /tmp/cc9vngzJ.s:3578   .debug_str:0000000000000520 .LASF86
     /tmp/cc9vngzJ.s:2970   .debug_loc:0000000000000095 .LLST21
     /tmp/cc9vngzJ.s:3668   .debug_str:00000000000009d6 .LASF87
     /tmp/cc9vngzJ.s:2997   .debug_loc:00000000000000f9 .LLST22
     /tmp/cc9vngzJ.s:3526   .debug_str:0000000000000327 .LASF88
     /tmp/cc9vngzJ.s:3016   .debug_loc:0000000000000155 .LLST23
     /tmp/cc9vngzJ.s:775    .text:00000000000004d4 .LBB33
GAS LISTING /tmp/cc9vngzJ.s 			page 36


     /tmp/cc9vngzJ.s:803    .text:0000000000000500 .LBE33
     /tmp/cc9vngzJ.s:3035   .debug_loc:00000000000001b1 .LLST24
     /tmp/cc9vngzJ.s:804    .text:0000000000000500 .LBB34
     /tmp/cc9vngzJ.s:838    .text:0000000000000544 .LBE34
     /tmp/cc9vngzJ.s:3042   .debug_loc:00000000000001d4 .LLST25
     /tmp/cc9vngzJ.s:814    .text:0000000000000510 .LVL80
     /tmp/cc9vngzJ.s:829    .text:0000000000000534 .LVL81
     /tmp/cc9vngzJ.s:839    .text:0000000000000544 .LBB35
     /tmp/cc9vngzJ.s:864    .text:0000000000000570 .LBE35
     /tmp/cc9vngzJ.s:3049   .debug_loc:00000000000001f7 .LLST26
     /tmp/cc9vngzJ.s:866    .text:0000000000000570 .LBB36
     /tmp/cc9vngzJ.s:906    .text:00000000000005a8 .LBE36
     /tmp/cc9vngzJ.s:3056   .debug_loc:000000000000021a .LLST27
     /tmp/cc9vngzJ.s:3394   .debug_ranges:0000000000000000 .Ldebug_ranges0
     /tmp/cc9vngzJ.s:3063   .debug_loc:000000000000023d .LLST28
     /tmp/cc9vngzJ.s:754    .text:000000000000049c .LVL70
     /tmp/cc9vngzJ.s:758    .text:00000000000004ac .LVL71
     /tmp/cc9vngzJ.s:767    .text:00000000000004c0 .LVL73
     /tmp/cc9vngzJ.s:770    .text:00000000000004cc .LVL74
     /tmp/cc9vngzJ.s:910    .text:00000000000005b0 .LVL89
     /tmp/cc9vngzJ.s:913    .text:00000000000005bc .LVL90
     /tmp/cc9vngzJ.s:917    .text:00000000000005c4 .LVL91
     /tmp/cc9vngzJ.s:920    .text:00000000000005d0 .LVL92
     /tmp/cc9vngzJ.s:604    .text:00000000000003b0 .LFB19
     /tmp/cc9vngzJ.s:708    .text:0000000000000458 .LFE19
     /tmp/cc9vngzJ.s:3080   .debug_loc:0000000000000288 .LLST13
     /tmp/cc9vngzJ.s:3506   .debug_str:0000000000000245 .LASF107
     /tmp/cc9vngzJ.s:3094   .debug_loc:00000000000002c1 .LLST14
     /tmp/cc9vngzJ.s:609    .text:00000000000003b0 .LBB31
     /tmp/cc9vngzJ.s:682    .text:0000000000000428 .LBE31
     /tmp/cc9vngzJ.s:3108   .debug_loc:00000000000002fa .LLST15
     /tmp/cc9vngzJ.s:624    .text:00000000000003c4 .LBB32
     /tmp/cc9vngzJ.s:681    .text:0000000000000428 .LBE32
     /tmp/cc9vngzJ.s:3566   .debug_str:0000000000000490 .LASF90
     /tmp/cc9vngzJ.s:3124   .debug_loc:0000000000000344 .LLST16
     /tmp/cc9vngzJ.s:3532   .debug_str:0000000000000362 .LASF91
     /tmp/cc9vngzJ.s:3161   .debug_loc:00000000000003a3 .LLST17
     /tmp/cc9vngzJ.s:3168   .debug_loc:00000000000003c6 .LLST18
     /tmp/cc9vngzJ.s:697    .text:0000000000000448 .LVL66
     /tmp/cc9vngzJ.s:430    .text:00000000000002cc .LFB18
     /tmp/cc9vngzJ.s:593    .text:00000000000003b0 .LFE18
     /tmp/cc9vngzJ.s:3175   .debug_loc:00000000000003e9 .LLST8
     /tmp/cc9vngzJ.s:3200   .debug_loc:000000000000044b .LLST9
     /tmp/cc9vngzJ.s:3212   .debug_loc:0000000000000482 .LLST10
     /tmp/cc9vngzJ.s:3223   .debug_loc:00000000000004b8 .LLST11
     /tmp/cc9vngzJ.s:3244   .debug_loc:0000000000000516 .LLST12
     /tmp/cc9vngzJ.s:992    .text:0000000000000630 .LFB17
     /tmp/cc9vngzJ.s:1067   .text:00000000000006b4 .LFE17
     /tmp/cc9vngzJ.s:3264   .debug_loc:0000000000000573 .LLST29
     /tmp/cc9vngzJ.s:3624   .debug_str:000000000000074e .LASF92
     /tmp/cc9vngzJ.s:3286   .debug_loc:00000000000005d2 .LLST30
     /tmp/cc9vngzJ.s:1012   .text:0000000000000654 .LVL100
     /tmp/cc9vngzJ.s:1045   .text:0000000000000688 .LVL105
     /tmp/cc9vngzJ.s:1054   .text:000000000000069c .LVL107
     /tmp/cc9vngzJ.s:1061   .text:00000000000006ac .LVL108
     /tmp/cc9vngzJ.s:30     .text:0000000000000000 .LFB16
     /tmp/cc9vngzJ.s:424    .text:00000000000002cc .LFE16
GAS LISTING /tmp/cc9vngzJ.s 			page 37


     /tmp/cc9vngzJ.s:3301   .debug_loc:000000000000061b .LLST0
     /tmp/cc9vngzJ.s:3662   .debug_str:00000000000009b1 .LASF93
     /tmp/cc9vngzJ.s:3592   .debug_str:00000000000005ca .LASF94
     /tmp/cc9vngzJ.s:3319   .debug_loc:0000000000000667 .LLST1
     /tmp/cc9vngzJ.s:3335   .debug_loc:00000000000006b1 .LLST2
     /tmp/cc9vngzJ.s:3342   .debug_loc:00000000000006d4 .LLST3
     /tmp/cc9vngzJ.s:71     .text:0000000000000044 .LVL3
     /tmp/cc9vngzJ.s:78     .text:0000000000000054 .LVL4
     /tmp/cc9vngzJ.s:85     .text:0000000000000064 .LVL5
     /tmp/cc9vngzJ.s:98     .text:0000000000000080 .LVL6
     /tmp/cc9vngzJ.s:103    .text:0000000000000090 .LVL7
     /tmp/cc9vngzJ.s:152    .text:00000000000000f8 .LVL9
     /tmp/cc9vngzJ.s:197    .text:0000000000000130 .LBB10
     /tmp/cc9vngzJ.s:241    .text:0000000000000178 .LBE10
     /tmp/cc9vngzJ.s:3349   .debug_loc:00000000000006f7 .LLST4
     /tmp/cc9vngzJ.s:220    .text:0000000000000154 .LBB12
     /tmp/cc9vngzJ.s:239    .text:0000000000000178 .LBE12
     /tmp/cc9vngzJ.s:3356   .debug_loc:000000000000071a .LLST5
     /tmp/cc9vngzJ.s:232    .text:0000000000000170 .LVL17
     /tmp/cc9vngzJ.s:208    .text:0000000000000148 .LVL14
     /tmp/cc9vngzJ.s:3367   .debug_loc:0000000000000750 .LLST6
     /tmp/cc9vngzJ.s:3374   .debug_loc:0000000000000773 .LLST7
     /tmp/cc9vngzJ.s:262    .text:00000000000001a0 .LVL23
     /tmp/cc9vngzJ.s:269    .text:00000000000001b0 .LVL24
     /tmp/cc9vngzJ.s:276    .text:00000000000001c0 .LVL25
     /tmp/cc9vngzJ.s:289    .text:00000000000001dc .LVL26
     /tmp/cc9vngzJ.s:294    .text:00000000000001ec .LVL27
     /tmp/cc9vngzJ.s:351    .text:0000000000000264 .LVL29
     /tmp/cc9vngzJ.s:176    .text:000000000000011c .LVL11
     /tmp/cc9vngzJ.s:246    .text:0000000000000188 .LVL20
     /tmp/cc9vngzJ.s:375    .text:0000000000000288 .LVL31
     /tmp/cc9vngzJ.s:3658   .debug_str:0000000000000992 .LASF95
     /tmp/cc9vngzJ.s:3462   .debug_str:0000000000000065 .LASF97
     /tmp/cc9vngzJ.s:3634   .debug_str:0000000000000883 .LASF96
     /tmp/cc9vngzJ.s:3504   .debug_str:0000000000000238 .LASF98
     /tmp/cc9vngzJ.s:717    .text:0000000000000458 .LVL67
     /tmp/cc9vngzJ.s:961    .text:0000000000000608 .LVL95
     /tmp/cc9vngzJ.s:978    .text:0000000000000628 .LVL97
     /tmp/cc9vngzJ.s:746    .text:0000000000000490 .LVL68
     /tmp/cc9vngzJ.s:966    .text:0000000000000610 .LVL96
     /tmp/cc9vngzJ.s:750    .text:0000000000000494 .LVL69
     /tmp/cc9vngzJ.s:762    .text:00000000000004b4 .LVL72
     /tmp/cc9vngzJ.s:946    .text:00000000000005f8 .LVL93
     /tmp/cc9vngzJ.s:950    .text:00000000000005fc .LVL94
     /tmp/cc9vngzJ.s:772    .text:00000000000004d0 .LVL75
     /tmp/cc9vngzJ.s:801    .text:0000000000000500 .LVL78
     /tmp/cc9vngzJ.s:983    .text:000000000000062c .LVL98
     /tmp/cc9vngzJ.s:779    .text:00000000000004d8 .LVL76
     /tmp/cc9vngzJ.s:843    .text:0000000000000548 .LVL82
     /tmp/cc9vngzJ.s:871    .text:0000000000000578 .LVL85
     /tmp/cc9vngzJ.s:869    .text:0000000000000574 .LVL84
     /tmp/cc9vngzJ.s:879    .text:0000000000000584 .LVL86
     /tmp/cc9vngzJ.s:886    .text:0000000000000590 .LVL87
     /tmp/cc9vngzJ.s:896    .text:000000000000059c .LVL88
     /tmp/cc9vngzJ.s:607    .text:00000000000003b0 .LVL54
     /tmp/cc9vngzJ.s:695    .text:0000000000000440 .LVL65
     /tmp/cc9vngzJ.s:613    .text:00000000000003b8 .LVL55
GAS LISTING /tmp/cc9vngzJ.s 			page 38


     /tmp/cc9vngzJ.s:662    .text:0000000000000400 .LVL62
     /tmp/cc9vngzJ.s:679    .text:0000000000000428 .LVL64
     /tmp/cc9vngzJ.s:637    .text:00000000000003dc .LVL57
     /tmp/cc9vngzJ.s:643    .text:00000000000003e4 .LVL58
     /tmp/cc9vngzJ.s:660    .text:00000000000003fc .LVL61
     /tmp/cc9vngzJ.s:646    .text:00000000000003e8 .LVL59
     /tmp/cc9vngzJ.s:655    .text:00000000000003f4 .LVL60
     /tmp/cc9vngzJ.s:670    .text:0000000000000410 .LVL63
     /tmp/cc9vngzJ.s:433    .text:00000000000002cc .LVL35
     /tmp/cc9vngzJ.s:501    .text:0000000000000334 .LVL44
     /tmp/cc9vngzJ.s:519    .text:0000000000000348 .LVL45
     /tmp/cc9vngzJ.s:590    .text:00000000000003ac .LVL53
     /tmp/cc9vngzJ.s:441    .text:00000000000002d8 .LVL36
     /tmp/cc9vngzJ.s:445    .text:00000000000002dc .LVL37
     /tmp/cc9vngzJ.s:458    .text:00000000000002e8 .LVL38
     /tmp/cc9vngzJ.s:470    .text:00000000000002f8 .LVL40
     /tmp/cc9vngzJ.s:585    .text:00000000000003a8 .LVL52
     /tmp/cc9vngzJ.s:460    .text:00000000000002ec .LVL39
     /tmp/cc9vngzJ.s:493    .text:0000000000000328 .LVL41
     /tmp/cc9vngzJ.s:495    .text:000000000000032c .LVL42
     /tmp/cc9vngzJ.s:526    .text:000000000000034c .LVL46
     /tmp/cc9vngzJ.s:545    .text:0000000000000368 .LVL47
     /tmp/cc9vngzJ.s:576    .text:00000000000003a0 .LVL50
     /tmp/cc9vngzJ.s:498    .text:0000000000000330 .LVL43
     /tmp/cc9vngzJ.s:550    .text:000000000000036c .LVL48
     /tmp/cc9vngzJ.s:995    .text:0000000000000630 .LVL99
     /tmp/cc9vngzJ.s:1031   .text:0000000000000670 .LVL103
     /tmp/cc9vngzJ.s:1035   .text:0000000000000678 .LVL104
     /tmp/cc9vngzJ.s:1014   .text:0000000000000658 .LVL101
     /tmp/cc9vngzJ.s:1028   .text:000000000000066c .LVL102
     /tmp/cc9vngzJ.s:34     .text:0000000000000000 .LVL0
     /tmp/cc9vngzJ.s:61     .text:0000000000000034 .LVL2
     /tmp/cc9vngzJ.s:408    .text:00000000000002b0 .LVL33
     /tmp/cc9vngzJ.s:57     .text:000000000000002c .LVL1
     /tmp/cc9vngzJ.s:250    .text:000000000000018c .LVL21
     /tmp/cc9vngzJ.s:415    .text:00000000000002bc .LVL34
     /tmp/cc9vngzJ.s:180    .text:0000000000000120 .LVL12
     /tmp/cc9vngzJ.s:156    .text:00000000000000fc .LVL10
     /tmp/cc9vngzJ.s:201    .text:0000000000000138 .LVL13
     /tmp/cc9vngzJ.s:252    .text:0000000000000190 .LVL22
     /tmp/cc9vngzJ.s:212    .text:000000000000014c .LVL15
     /tmp/cc9vngzJ.s:224    .text:0000000000000158 .LVL16
     /tmp/cc9vngzJ.s:237    .text:0000000000000178 .LVL19
     /tmp/cc9vngzJ.s:379    .text:000000000000028c .LVL32
     /tmp/cc9vngzJ.s:355    .text:0000000000000268 .LVL30
     /tmp/cc9vngzJ.s:1075   .debug_info:0000000000000000 .Ldebug_info0
     /tmp/cc9vngzJ.s:64     .text:0000000000000034 .LBB3
     /tmp/cc9vngzJ.s:171    .text:000000000000010c .LBE3
     /tmp/cc9vngzJ.s:190    .text:0000000000000128 .LBB8
     /tmp/cc9vngzJ.s:195    .text:0000000000000130 .LBE8
     /tmp/cc9vngzJ.s:66     .text:0000000000000034 .LBB5
     /tmp/cc9vngzJ.s:147    .text:00000000000000e8 .LBE5
     /tmp/cc9vngzJ.s:164    .text:0000000000000104 .LBB6
     /tmp/cc9vngzJ.s:169    .text:000000000000010c .LBE6
     /tmp/cc9vngzJ.s:255    .text:0000000000000190 .LBB15
     /tmp/cc9vngzJ.s:370    .text:0000000000000278 .LBE15
     /tmp/cc9vngzJ.s:393    .text:000000000000029c .LBB20
GAS LISTING /tmp/cc9vngzJ.s 			page 39


     /tmp/cc9vngzJ.s:398    .text:00000000000002a4 .LBE20
     /tmp/cc9vngzJ.s:257    .text:0000000000000190 .LBB17
     /tmp/cc9vngzJ.s:346    .text:0000000000000254 .LBE17
     /tmp/cc9vngzJ.s:363    .text:0000000000000270 .LBB18
     /tmp/cc9vngzJ.s:368    .text:0000000000000278 .LBE18
     /tmp/cc9vngzJ.s:442    .text:00000000000002d8 .LBB22
     /tmp/cc9vngzJ.s:452    .text:00000000000002e4 .LBE22
     /tmp/cc9vngzJ.s:454    .text:00000000000002e4 .LBB29
     /tmp/cc9vngzJ.s:510    .text:000000000000033c .LBE29
     /tmp/cc9vngzJ.s:522    .text:0000000000000348 .LBB30
     /tmp/cc9vngzJ.s:587    .text:00000000000003a8 .LBE30
     /tmp/cc9vngzJ.s:455    .text:00000000000002e4 .LBB23
     /tmp/cc9vngzJ.s:509    .text:000000000000033c .LBE23
     /tmp/cc9vngzJ.s:523    .text:0000000000000348 .LBB28
     /tmp/cc9vngzJ.s:580    .text:00000000000003a0 .LBE28
     /tmp/cc9vngzJ.s:462    .text:00000000000002ec .LBB24
     /tmp/cc9vngzJ.s:508    .text:000000000000033c .LBE24
     /tmp/cc9vngzJ.s:541    .text:0000000000000364 .LBB27
     /tmp/cc9vngzJ.s:579    .text:00000000000003a0 .LBE27
     /tmp/cc9vngzJ.s:463    .text:00000000000002ec .LBB25
     /tmp/cc9vngzJ.s:507    .text:000000000000033c .LBE25
     /tmp/cc9vngzJ.s:547    .text:0000000000000368 .LBB26
     /tmp/cc9vngzJ.s:578    .text:00000000000003a0 .LBE26
     /tmp/cc9vngzJ.s:873    .text:0000000000000578 .LBB37
     /tmp/cc9vngzJ.s:893    .text:0000000000000598 .LBE37
     /tmp/cc9vngzJ.s:900    .text:00000000000005a0 .LBB38
     /tmp/cc9vngzJ.s:905    .text:00000000000005a8 .LBE38

UNDEFINED SYMBOLS
_Z11printStringPKc
_Z12printIntegerm
_ZN15MemoryAllocator8instanceEv
_ZN15MemoryAllocator10kmem_allocEm
_ZN15MemoryAllocator9kmem_freeEPv
