GAS LISTING /tmp/ccKdsjgl.s 			page 1


   1              		.file	"kObjectAllocatorTest.cpp"
   2              		.option pic
   3              		.option norelax
   4              		.text
   5              	.Ltext0:
   6              		.section	.text._ZN16KObjectAllocatordlEPv,"axG",@progbits,_ZN16KObjectAllocatordlEPv,comdat
   7              		.align	2
   8              		.weak	_ZN16KObjectAllocatordlEPv
  10              	_ZN16KObjectAllocatordlEPv:
  11              	.LFB10:
  12              		.file 1 "src/../h/kObjectAllocator.hpp"
   1:src/../h/kObjectAllocator.hpp **** #ifndef KOBJECTALLOCATOR_HPP
   2:src/../h/kObjectAllocator.hpp **** #define KOBJECTALLOCATOR_HPP
   3:src/../h/kObjectAllocator.hpp **** 
   4:src/../h/kObjectAllocator.hpp **** #include "../h/memoryAllocator.hpp"
   5:src/../h/kObjectAllocator.hpp **** 
   6:src/../h/kObjectAllocator.hpp **** class KObjectAllocatorTest;
   7:src/../h/kObjectAllocator.hpp **** 
   8:src/../h/kObjectAllocator.hpp **** /*          ^
   9:src/../h/kObjectAllocator.hpp ****  *          |
  10:src/../h/kObjectAllocator.hpp ****  *          |
  11:src/../h/kObjectAllocator.hpp ****  *          |
  12:src/../h/kObjectAllocator.hpp ****  * DELETE THIS CLASS DECLARATION
  13:src/../h/kObjectAllocator.hpp ****  */
  14:src/../h/kObjectAllocator.hpp **** 
  15:src/../h/kObjectAllocator.hpp **** 
  16:src/../h/kObjectAllocator.hpp **** class KObjectAllocator {
  17:src/../h/kObjectAllocator.hpp **** public:
  18:src/../h/kObjectAllocator.hpp **** 
  19:src/../h/kObjectAllocator.hpp ****     /*
  20:src/../h/kObjectAllocator.hpp ****      *
  21:src/../h/kObjectAllocator.hpp ****      *
  22:src/../h/kObjectAllocator.hpp ****      *
  23:src/../h/kObjectAllocator.hpp ****      *
  24:src/../h/kObjectAllocator.hpp ****      *
  25:src/../h/kObjectAllocator.hpp ****      *
  26:src/../h/kObjectAllocator.hpp ****      *                      #####################################
  27:src/../h/kObjectAllocator.hpp ****      *                      #####################################
  28:src/../h/kObjectAllocator.hpp ****      *                      #####################################
  29:src/../h/kObjectAllocator.hpp ****      *                     ### NE SMEJU SE PREDATI TESTOVI !!! ###
  30:src/../h/kObjectAllocator.hpp ****      *                      #####################################
  31:src/../h/kObjectAllocator.hpp ****      *                      #####################################
  32:src/../h/kObjectAllocator.hpp ****      *                      #####################################
  33:src/../h/kObjectAllocator.hpp ****      *
  34:src/../h/kObjectAllocator.hpp ****      *
  35:src/../h/kObjectAllocator.hpp ****      *
  36:src/../h/kObjectAllocator.hpp ****      *
  37:src/../h/kObjectAllocator.hpp ****      *
  38:src/../h/kObjectAllocator.hpp ****      *
  39:src/../h/kObjectAllocator.hpp ****      */
  40:src/../h/kObjectAllocator.hpp ****     friend KObjectAllocatorTest;
  41:src/../h/kObjectAllocator.hpp **** 
  42:src/../h/kObjectAllocator.hpp ****     /*                         ^
  43:src/../h/kObjectAllocator.hpp ****      *                         |
  44:src/../h/kObjectAllocator.hpp ****      *      DELETE THIS FRIEND |
  45:src/../h/kObjectAllocator.hpp ****      *
  46:src/../h/kObjectAllocator.hpp ****      */
GAS LISTING /tmp/ccKdsjgl.s 			page 2


  47:src/../h/kObjectAllocator.hpp **** 
  48:src/../h/kObjectAllocator.hpp **** 
  49:src/../h/kObjectAllocator.hpp ****     KObjectAllocator(size_t objectSize) : KObjectAllocator(objectSize, 320) {}
  50:src/../h/kObjectAllocator.hpp ****     KObjectAllocator(size_t objectSize, size_t initialObjectNumber)
  51:src/../h/kObjectAllocator.hpp ****             : initialNumberOfObjects(initialObjectNumber), numberOfObjects(initialObjectNumber),  o
  52:src/../h/kObjectAllocator.hpp ****         bitVectors = (uint8**) MemoryAllocator::instance()->kmem_alloc(numberOfAllocations * sizeof
  53:src/../h/kObjectAllocator.hpp ****         objectVectors = (uint8**) MemoryAllocator::instance()->kmem_alloc(numberOfAllocations * siz
  54:src/../h/kObjectAllocator.hpp ****         initialNumberOfObjects = numberOfObjects = numberOfObjects / 8 * 8 + 8 * (numberOfObjects /
  55:src/../h/kObjectAllocator.hpp ****         // one bit for each object which indicates whether memory
  56:src/../h/kObjectAllocator.hpp ****         // corresponding to that object is allocated or free
  57:src/../h/kObjectAllocator.hpp ****         memorySizeForBits = numberOfObjects / 8;
  58:src/../h/kObjectAllocator.hpp ****         bitVectors[0] = (uint8*) MemoryAllocator::instance()->kmem_alloc(
  59:src/../h/kObjectAllocator.hpp ****                 memorySizeForBits + initialNumberOfObjects * objectSize
  60:src/../h/kObjectAllocator.hpp ****         );
  61:src/../h/kObjectAllocator.hpp ****         objectVectors[0] = bitVectors[0] + memorySizeForBits;   // start of memory for objects
  62:src/../h/kObjectAllocator.hpp ****         for (size_t i = 0; i < memorySizeForBits; bitVectors[0][i++] = 0);
  63:src/../h/kObjectAllocator.hpp ****     }
  64:src/../h/kObjectAllocator.hpp ****     void* operator new(size_t size) {
  65:src/../h/kObjectAllocator.hpp ****         return MemoryAllocator::instance()->kmem_alloc(size);
  66:src/../h/kObjectAllocator.hpp ****     }
  67:src/../h/kObjectAllocator.hpp ****     void operator delete(void* p) {
  13              		.loc 1 67 10
  14              		.cfi_startproc
  15              	.LVL0:
  16 0000 130101FE 		addi	sp,sp,-32
  17              		.cfi_def_cfa_offset 32
  18 0004 233C1100 		sd	ra,24(sp)
  19 0008 23388100 		sd	s0,16(sp)
  20 000c 23349100 		sd	s1,8(sp)
  21 0010 23302101 		sd	s2,0(sp)
  22              		.cfi_offset 1, -8
  23              		.cfi_offset 8, -16
  24              		.cfi_offset 9, -24
  25              		.cfi_offset 18, -32
  26 0014 13040102 		addi	s0,sp,32
  27              		.cfi_def_cfa 8, 0
  28 0018 13090500 		mv	s2,a0
  68:src/../h/kObjectAllocator.hpp ****         for (size_t i = 0; i < ((KObjectAllocator*) p)->numberOfAllocations; ++i)
  29              		.loc 1 68 9
  30              	.LVL1:
  31              	.LBB54:
  32              		.loc 1 68 21 is_stmt 0
  33 001c 93040000 		li	s1,0
  34              	.LVL2:
  35              	.L3:
  36              		.loc 1 68 30 is_stmt 1 discriminator 3
  37              		.loc 1 68 57 is_stmt 0 discriminator 3
  38 0020 83370903 		ld	a5,48(s2)
  39              		.loc 1 68 30 discriminator 3
  40 0024 63F6F402 		bleu	a5,s1,.L2
  69:src/../h/kObjectAllocator.hpp ****             MemoryAllocator::instance()->kmem_free(((KObjectAllocator*) p)->bitVectors[i]);
  41              		.loc 1 69 13 is_stmt 1 discriminator 2
  42              		.loc 1 69 51 is_stmt 0 discriminator 2
  43 0028 97000000 		call	_ZN15MemoryAllocator8instanceEv@plt
  43      E7800000 
  44              	.LVL3:
  45              		.loc 1 69 77 discriminator 2
GAS LISTING /tmp/ccKdsjgl.s 			page 3


  46 0030 83378902 		ld	a5,40(s2)
  47              		.loc 1 69 89 discriminator 2
  48 0034 13973400 		slli	a4,s1,3
  49 0038 B387E700 		add	a5,a5,a4
  50              		.loc 1 69 51 discriminator 2
  51 003c 83B50700 		ld	a1,0(a5)
  52 0040 97000000 		call	_ZN15MemoryAllocator9kmem_freeEPv@plt
  52      E7800000 
  53              	.LVL4:
  68:src/../h/kObjectAllocator.hpp ****         for (size_t i = 0; i < ((KObjectAllocator*) p)->numberOfAllocations; ++i)
  54              		.loc 1 68 9 is_stmt 1 discriminator 2
  55 0048 93841400 		addi	s1,s1,1
  56              	.LVL5:
  57 004c 6FF05FFD 		j	.L3
  58              	.L2:
  59              	.LBE54:
  70:src/../h/kObjectAllocator.hpp ****         MemoryAllocator::instance()->kmem_free(((KObjectAllocator*) p)->bitVectors);
  60              		.loc 1 70 9
  61              		.loc 1 70 47 is_stmt 0
  62 0050 97000000 		call	_ZN15MemoryAllocator8instanceEv@plt
  62      E7800000 
  63              	.LVL6:
  64 0058 83358902 		ld	a1,40(s2)
  65 005c 97000000 		call	_ZN15MemoryAllocator9kmem_freeEPv@plt
  65      E7800000 
  66              	.LVL7:
  71:src/../h/kObjectAllocator.hpp ****         MemoryAllocator::instance()->kmem_free(((KObjectAllocator*) p)->objectVectors);
  67              		.loc 1 71 9 is_stmt 1
  68              		.loc 1 71 47 is_stmt 0
  69 0064 97000000 		call	_ZN15MemoryAllocator8instanceEv@plt
  69      E7800000 
  70              	.LVL8:
  71 006c 83350902 		ld	a1,32(s2)
  72 0070 97000000 		call	_ZN15MemoryAllocator9kmem_freeEPv@plt
  72      E7800000 
  73              	.LVL9:
  72:src/../h/kObjectAllocator.hpp ****         MemoryAllocator::instance()->kmem_free(p);
  74              		.loc 1 72 9 is_stmt 1
  75              		.loc 1 72 47 is_stmt 0
  76 0078 97000000 		call	_ZN15MemoryAllocator8instanceEv@plt
  76      E7800000 
  77              	.LVL10:
  78 0080 93050900 		mv	a1,s2
  79 0084 97000000 		call	_ZN15MemoryAllocator9kmem_freeEPv@plt
  79      E7800000 
  80              	.LVL11:
  73:src/../h/kObjectAllocator.hpp ****     }
  81              		.loc 1 73 5
  82 008c 83308101 		ld	ra,24(sp)
  83              		.cfi_restore 1
  84 0090 03340101 		ld	s0,16(sp)
  85              		.cfi_restore 8
  86              		.cfi_def_cfa 2, 32
  87 0094 83348100 		ld	s1,8(sp)
  88              		.cfi_restore 9
  89              	.LVL12:
  90 0098 03390100 		ld	s2,0(sp)
GAS LISTING /tmp/ccKdsjgl.s 			page 4


  91              		.cfi_restore 18
  92              	.LVL13:
  93 009c 13010102 		addi	sp,sp,32
  94              		.cfi_def_cfa_offset 0
  95 00a0 67800000 		jr	ra
  96              		.cfi_endproc
  97              	.LFE10:
  99              		.section	.rodata.str1.8,"aMS",@progbits,1
 100              		.align	3
 101              	.LC1:
 102 0000 4552524F 		.string	"ERROR: byte not in given objAlloc\n"
 102      523A2062 
 102      79746520 
 102      6E6F7420 
 102      696E2067 
 103              		.text
 104              		.align	2
 105              		.globl	_ZN20KObjectAllocatorTest15getValueOfBitAtEmmP16KObjectAllocator
 107              	_ZN20KObjectAllocatorTest15getValueOfBitAtEmmP16KObjectAllocator:
 108              	.LFB23:
 109              		.file 2 "src/kObjectAllocatorTest.cpp"
   1:src/kObjectAllocatorTest.cpp **** #include "../h/kObjectAllocatorTest.hpp"
   2:src/kObjectAllocatorTest.cpp **** #include "../h/print.hpp"
   3:src/kObjectAllocatorTest.cpp **** 
   4:src/kObjectAllocatorTest.cpp **** bool KObjectAllocatorTest::runTests() {
   5:src/kObjectAllocatorTest.cpp ****     for (size_t size : sizes)
   6:src/kObjectAllocatorTest.cpp ****     for (size_t i = 0; i < numberOfTests; ++i) {
   7:src/kObjectAllocatorTest.cpp ****         if (!test(i, size)) {
   8:src/kObjectAllocatorTest.cpp ****             printString("Failed KObjectAllocator test ");
   9:src/kObjectAllocatorTest.cpp ****             printInteger(i); printString("\n"); return false;
  10:src/kObjectAllocatorTest.cpp ****         } else printString("Passed ");
  11:src/kObjectAllocatorTest.cpp ****         if (i != 0 && (i + 1) % 10 == 0) printString("\n");
  12:src/kObjectAllocatorTest.cpp ****     }
  13:src/kObjectAllocatorTest.cpp ****     return true;
  14:src/kObjectAllocatorTest.cpp **** }
  15:src/kObjectAllocatorTest.cpp **** 
  16:src/kObjectAllocatorTest.cpp **** bool KObjectAllocatorTest::test(size_t i, size_t size) {
  17:src/kObjectAllocatorTest.cpp ****     switch (i) {
  18:src/kObjectAllocatorTest.cpp ****         case 0: return test0(size); break;
  19:src/kObjectAllocatorTest.cpp ****         case 1: return test1(size); break;
  20:src/kObjectAllocatorTest.cpp ****         case 2: return test2(size); break;
  21:src/kObjectAllocatorTest.cpp ****         case 3: return test3(size); break;
  22:src/kObjectAllocatorTest.cpp ****         default: break;
  23:src/kObjectAllocatorTest.cpp ****     }
  24:src/kObjectAllocatorTest.cpp ****     return false;
  25:src/kObjectAllocatorTest.cpp **** }
  26:src/kObjectAllocatorTest.cpp **** 
  27:src/kObjectAllocatorTest.cpp **** bool KObjectAllocatorTest::getValueOfBitAt(size_t byte, size_t bit, KObjectAllocator* objAlloc) {
 110              		.loc 2 27 97 is_stmt 1
 111              		.cfi_startproc
 112              	.LVL14:
  28:src/kObjectAllocatorTest.cpp ****     for (size_t i = 0; i < objAlloc->numberOfAllocations; ++i) {
 113              		.loc 2 28 5
 114              	.LBB55:
 115              		.loc 2 28 17 is_stmt 0
 116 0000 93070000 		li	a5,0
 117 0004 6F008000 		j	.L9
GAS LISTING /tmp/ccKdsjgl.s 			page 5


 118              	.LVL15:
 119              	.L7:
 120              		.loc 2 28 5 is_stmt 1 discriminator 2
 121 0008 93871700 		addi	a5,a5,1
 122              	.LVL16:
 123              	.L9:
 124              		.loc 2 28 26 discriminator 1
 125              		.loc 2 28 38 is_stmt 0 discriminator 1
 126 000c 03B70603 		ld	a4,48(a3)
 127              		.loc 2 28 26 discriminator 1
 128 0010 63F2E704 		bleu	a4,a5,.L6
  29:src/kObjectAllocatorTest.cpp ****         if (i * objAlloc->memorySizeForBits <= byte && byte < (i + 1) * objAlloc->memorySizeForBits
 129              		.loc 2 29 9 is_stmt 1
 130              		.loc 2 29 27 is_stmt 0
 131 0014 03B70601 		ld	a4,16(a3)
 132              		.loc 2 29 15
 133 0018 3305F702 		mul	a0,a4,a5
 134              		.loc 2 29 9
 135 001c E3E6A5FE 		bgtu	a0,a1,.L7
 136              		.loc 2 29 66 discriminator 1
 137 0020 13881700 		addi	a6,a5,1
 138              		.loc 2 29 71 discriminator 1
 139 0024 33070703 		mul	a4,a4,a6
 140              		.loc 2 29 53 discriminator 1
 141 0028 E3F0E5FE 		bleu	a4,a1,.L7
  30:src/kObjectAllocatorTest.cpp ****             return (objAlloc->bitVectors[i][byte - i * objAlloc->memorySizeForBits] >> bit & (uint8
 142              		.loc 2 30 13 is_stmt 1
 143              		.loc 2 30 31 is_stmt 0
 144 002c 03B78602 		ld	a4,40(a3)
 145              		.loc 2 30 43
 146 0030 93973700 		slli	a5,a5,3
 147              	.LVL17:
 148 0034 B307F700 		add	a5,a4,a5
 149 0038 83B70700 		ld	a5,0(a5)
 150              		.loc 2 30 50
 151 003c B385A540 		sub	a1,a1,a0
 152              	.LVL18:
 153              		.loc 2 30 83
 154 0040 B385B700 		add	a1,a5,a1
 155 0044 03C50500 		lbu	a0,0(a1)
 156              		.loc 2 30 85
 157 0048 3B56C540 		sraw	a2,a0,a2
 158              	.LVL19:
 159              		.loc 2 30 108
 160 004c 13751600 		andi	a0,a2,1
 161              	.LBE55:
  31:src/kObjectAllocatorTest.cpp ****     }
  32:src/kObjectAllocatorTest.cpp ****     printString("ERROR: byte not in given objAlloc\n");
  33:src/kObjectAllocatorTest.cpp ****     return false;
  34:src/kObjectAllocatorTest.cpp **** }
 162              		.loc 2 34 1
 163 0050 67800000 		ret
 164              	.LVL20:
 165              	.L6:
  27:src/kObjectAllocatorTest.cpp ****     for (size_t i = 0; i < objAlloc->numberOfAllocations; ++i) {
 166              		.loc 2 27 97
 167 0054 130101FF 		addi	sp,sp,-16
GAS LISTING /tmp/ccKdsjgl.s 			page 6


 168              		.cfi_def_cfa_offset 16
 169 0058 23341100 		sd	ra,8(sp)
 170 005c 23308100 		sd	s0,0(sp)
 171              		.cfi_offset 1, -8
 172              		.cfi_offset 8, -16
 173 0060 13040101 		addi	s0,sp,16
 174              		.cfi_def_cfa 8, 0
  32:src/kObjectAllocatorTest.cpp ****     return false;
 175              		.loc 2 32 5 is_stmt 1
  32:src/kObjectAllocatorTest.cpp ****     return false;
 176              		.loc 2 32 16 is_stmt 0
 177 0064 17050000 		lla	a0,.LC1
 177      13050500 
 178 006c 97000000 		call	_Z11printStringPKc@plt
 178      E7800000 
 179              	.LVL21:
  33:src/kObjectAllocatorTest.cpp **** }
 180              		.loc 2 33 5 is_stmt 1
  33:src/kObjectAllocatorTest.cpp **** }
 181              		.loc 2 33 12 is_stmt 0
 182 0074 13050000 		li	a0,0
 183              		.loc 2 34 1
 184 0078 83308100 		ld	ra,8(sp)
 185              		.cfi_restore 1
 186 007c 03340100 		ld	s0,0(sp)
 187              		.cfi_restore 8
 188              		.cfi_def_cfa 2, 16
 189 0080 13010101 		addi	sp,sp,16
 190              		.cfi_def_cfa_offset 0
 191 0084 67800000 		jr	ra
 192              		.cfi_endproc
 193              	.LFE23:
 195              		.section	.rodata.str1.8
 196 0023 00000000 		.align	3
 196      00
 197              	.LC2:
 198 0028 0A69203D 		.string	"\ni = "
 198      2000
 199 002e 0000     		.align	3
 200              	.LC3:
 201 0030 0A00     		.string	"\n"
 202 0032 00000000 		.align	3
 202      0000
 203              	.LC4:
 204 0038 0A627974 		.string	"\nbyte = "
 204      65203D20 
 204      00
 205 0041 00000000 		.align	3
 205      000000
 206              	.LC5:
 207 0048 4552524F 		.string	"ERROR: given object not allocated in given objAlloc\n"
 207      523A2067 
 207      6976656E 
 207      206F626A 
 207      65637420 
 208              		.text
 209              		.align	2
GAS LISTING /tmp/ccKdsjgl.s 			page 7


 210              		.globl	_ZN20KObjectAllocatorTest15getByteOfObjectEPvP16KObjectAllocator
 212              	_ZN20KObjectAllocatorTest15getByteOfObjectEPvP16KObjectAllocator:
 213              	.LFB24:
  35:src/kObjectAllocatorTest.cpp **** 
  36:src/kObjectAllocatorTest.cpp **** size_t KObjectAllocatorTest::getByteOfObject(void* obj, KObjectAllocator* objAlloc) {
 214              		.loc 2 36 85 is_stmt 1
 215              		.cfi_startproc
 216              	.LVL22:
 217 0088 130101FD 		addi	sp,sp,-48
 218              		.cfi_def_cfa_offset 48
 219 008c 23341102 		sd	ra,40(sp)
 220 0090 23308102 		sd	s0,32(sp)
 221 0094 233C9100 		sd	s1,24(sp)
 222 0098 23382101 		sd	s2,16(sp)
 223 009c 23343101 		sd	s3,8(sp)
 224              		.cfi_offset 1, -8
 225              		.cfi_offset 8, -16
 226              		.cfi_offset 9, -24
 227              		.cfi_offset 18, -32
 228              		.cfi_offset 19, -40
 229 00a0 13040103 		addi	s0,sp,48
 230              		.cfi_def_cfa 8, 0
 231 00a4 13090600 		mv	s2,a2
  37:src/kObjectAllocatorTest.cpp ****     for (size_t i = 0; i < objAlloc->numberOfAllocations; ++i) {
 232              		.loc 2 37 5
 233              	.LVL23:
 234              	.LBB56:
 235              		.loc 2 37 17 is_stmt 0
 236 00a8 93090000 		li	s3,0
 237 00ac 6F008000 		j	.L17
 238              	.LVL24:
 239              	.L15:
 240              		.loc 2 37 5 is_stmt 1 discriminator 2
 241 00b0 93891900 		addi	s3,s3,1
 242              	.LVL25:
 243              	.L17:
 244              		.loc 2 37 26 discriminator 1
 245              		.loc 2 37 38 is_stmt 0 discriminator 1
 246 00b4 83370903 		ld	a5,48(s2)
 247              		.loc 2 37 26 discriminator 1
 248 00b8 63F8F90A 		bleu	a5,s3,.L14
 249              	.LBB57:
  38:src/kObjectAllocatorTest.cpp ****         if ((uint8*) obj < objAlloc->objectVectors[i]) continue;
 250              		.loc 2 38 9 is_stmt 1
 251              		.loc 2 38 38 is_stmt 0
 252 00bc 83370902 		ld	a5,32(s2)
 253              		.loc 2 38 53
 254 00c0 13973900 		slli	a4,s3,3
 255 00c4 B387E700 		add	a5,a5,a4
 256 00c8 83B70700 		ld	a5,0(a5)
 257              		.loc 2 38 9
 258 00cc E3E2F5FE 		bgtu	a5,a1,.L15
  39:src/kObjectAllocatorTest.cpp ****         size_t idiff = (size_t) ((uint8*) obj - objAlloc->objectVectors[i]);
 259              		.loc 2 39 9 is_stmt 1
 260              		.loc 2 39 47 is_stmt 0
 261 00d0 B384F540 		sub	s1,a1,a5
 262              	.LVL26:
GAS LISTING /tmp/ccKdsjgl.s 			page 8


  40:src/kObjectAllocatorTest.cpp ****         size_t byte = idiff / objAlloc->objectSize / 8;
 263              		.loc 2 40 9 is_stmt 1
 264              		.loc 2 40 41 is_stmt 0
 265 00d4 83378901 		ld	a5,24(s2)
 266              		.loc 2 40 29
 267 00d8 B3D4F402 		divu	s1,s1,a5
 268              	.LVL27:
 269              		.loc 2 40 16
 270 00dc 93D43400 		srli	s1,s1,3
 271              	.LVL28:
  41:src/kObjectAllocatorTest.cpp ****         if (byte >= objAlloc->memorySizeForBits) continue;
 272              		.loc 2 41 9 is_stmt 1
 273              		.loc 2 41 31 is_stmt 0
 274 00e0 83370901 		ld	a5,16(s2)
 275              		.loc 2 41 9
 276 00e4 E3F6F4FC 		bleu	a5,s1,.L15
  42:src/kObjectAllocatorTest.cpp ****         printString("\ni = "); printInteger(i); printString("\n");
 277              		.loc 2 42 9 is_stmt 1
 278              		.loc 2 42 20 is_stmt 0
 279 00e8 17050000 		lla	a0,.LC2
 279      13050500 
 280              	.LVL29:
 281 00f0 97000000 		call	_Z11printStringPKc@plt
 281      E7800000 
 282              	.LVL30:
 283              		.loc 2 42 32 is_stmt 1
 284              		.loc 2 42 44 is_stmt 0
 285 00f8 13850900 		mv	a0,s3
 286 00fc 97000000 		call	_Z12printIntegerm@plt
 286      E7800000 
 287              	.LVL31:
 288              		.loc 2 42 49 is_stmt 1
 289              		.loc 2 42 60 is_stmt 0
 290 0104 17050000 		lla	a0,.LC3
 290      13050500 
 291 010c 97000000 		call	_Z11printStringPKc@plt
 291      E7800000 
 292              	.LVL32:
  43:src/kObjectAllocatorTest.cpp ****         printString("\nbyte = "); printInteger(byte); printString("\n");
 293              		.loc 2 43 9 is_stmt 1
 294              		.loc 2 43 20 is_stmt 0
 295 0114 17050000 		lla	a0,.LC4
 295      13050500 
 296 011c 97000000 		call	_Z11printStringPKc@plt
 296      E7800000 
 297              	.LVL33:
 298              		.loc 2 43 35 is_stmt 1
 299              		.loc 2 43 47 is_stmt 0
 300 0124 13850400 		mv	a0,s1
 301 0128 97000000 		call	_Z12printIntegerm@plt
 301      E7800000 
 302              	.LVL34:
 303              		.loc 2 43 55 is_stmt 1
 304              		.loc 2 43 66 is_stmt 0
 305 0130 17050000 		lla	a0,.LC3
 305      13050500 
 306 0138 97000000 		call	_Z11printStringPKc@plt
GAS LISTING /tmp/ccKdsjgl.s 			page 9


 306      E7800000 
 307              	.LVL35:
  44:src/kObjectAllocatorTest.cpp ****         return byte + i * objAlloc->memorySizeForBits;
 308              		.loc 2 44 9 is_stmt 1
 309              		.loc 2 44 37 is_stmt 0
 310 0140 03350901 		ld	a0,16(s2)
 311              		.loc 2 44 25
 312 0144 33053503 		mul	a0,a0,s3
 313              		.loc 2 44 37
 314 0148 33059500 		add	a0,a0,s1
 315              	.LVL36:
 316              	.L13:
 317              	.LBE57:
 318              	.LBE56:
  45:src/kObjectAllocatorTest.cpp ****     }
  46:src/kObjectAllocatorTest.cpp ****     printString("ERROR: given object not allocated in given objAlloc\n");
  47:src/kObjectAllocatorTest.cpp ****     return 0;
  48:src/kObjectAllocatorTest.cpp **** }
 319              		.loc 2 48 1
 320 014c 83308102 		ld	ra,40(sp)
 321              		.cfi_remember_state
 322              		.cfi_restore 1
 323 0150 03340102 		ld	s0,32(sp)
 324              		.cfi_restore 8
 325              		.cfi_def_cfa 2, 48
 326 0154 83348101 		ld	s1,24(sp)
 327              		.cfi_restore 9
 328 0158 03390101 		ld	s2,16(sp)
 329              		.cfi_restore 18
 330              	.LVL37:
 331 015c 83398100 		ld	s3,8(sp)
 332              		.cfi_restore 19
 333              	.LVL38:
 334 0160 13010103 		addi	sp,sp,48
 335              		.cfi_def_cfa_offset 0
 336 0164 67800000 		jr	ra
 337              	.LVL39:
 338              	.L14:
 339              		.cfi_restore_state
  46:src/kObjectAllocatorTest.cpp ****     return 0;
 340              		.loc 2 46 5 is_stmt 1
  46:src/kObjectAllocatorTest.cpp ****     return 0;
 341              		.loc 2 46 16 is_stmt 0
 342 0168 17050000 		lla	a0,.LC5
 342      13050500 
 343              	.LVL40:
 344 0170 97000000 		call	_Z11printStringPKc@plt
 344      E7800000 
 345              	.LVL41:
  47:src/kObjectAllocatorTest.cpp **** }
 346              		.loc 2 47 5 is_stmt 1
  47:src/kObjectAllocatorTest.cpp **** }
 347              		.loc 2 47 12 is_stmt 0
 348 0178 13050000 		li	a0,0
 349 017c 6FF01FFD 		j	.L13
 350              		.cfi_endproc
 351              	.LFE24:
GAS LISTING /tmp/ccKdsjgl.s 			page 10


 353              		.align	2
 354              		.globl	_ZN20KObjectAllocatorTest14getBitOfObjectEPvP16KObjectAllocator
 356              	_ZN20KObjectAllocatorTest14getBitOfObjectEPvP16KObjectAllocator:
 357              	.LFB25:
  49:src/kObjectAllocatorTest.cpp **** 
  50:src/kObjectAllocatorTest.cpp **** size_t KObjectAllocatorTest::getBitOfObject(void* obj, KObjectAllocator* objAlloc) {
 358              		.loc 2 50 84 is_stmt 1
 359              		.cfi_startproc
 360              	.LVL42:
  51:src/kObjectAllocatorTest.cpp ****     for (size_t i = 0; i < objAlloc->numberOfAllocations; ++i) {
 361              		.loc 2 51 5
 362              	.LBB58:
 363              		.loc 2 51 17 is_stmt 0
 364 0180 13070000 		li	a4,0
 365 0184 6F008000 		j	.L23
 366              	.LVL43:
 367              	.L21:
 368              		.loc 2 51 5 is_stmt 1 discriminator 2
 369 0188 13071700 		addi	a4,a4,1
 370              	.LVL44:
 371              	.L23:
 372              		.loc 2 51 26 discriminator 1
 373              		.loc 2 51 38 is_stmt 0 discriminator 1
 374 018c 83370603 		ld	a5,48(a2)
 375              		.loc 2 51 26 discriminator 1
 376 0190 6370F704 		bleu	a5,a4,.L20
 377              	.LBB59:
  52:src/kObjectAllocatorTest.cpp ****         if ((uint8*) obj < objAlloc->objectVectors[i]) continue;
 378              		.loc 2 52 9 is_stmt 1
 379              		.loc 2 52 38 is_stmt 0
 380 0194 83370602 		ld	a5,32(a2)
 381              		.loc 2 52 53
 382 0198 93163700 		slli	a3,a4,3
 383 019c B387D700 		add	a5,a5,a3
 384 01a0 83B70700 		ld	a5,0(a5)
 385              		.loc 2 52 9
 386 01a4 E3E2F5FE 		bgtu	a5,a1,.L21
  53:src/kObjectAllocatorTest.cpp ****         size_t idiff = (size_t) ((uint8*) obj - objAlloc->objectVectors[i]);
 387              		.loc 2 53 9 is_stmt 1
 388              		.loc 2 53 47 is_stmt 0
 389 01a8 B387F540 		sub	a5,a1,a5
 390              	.LVL45:
  54:src/kObjectAllocatorTest.cpp ****         size_t byte = idiff / objAlloc->objectSize / 8;
 391              		.loc 2 54 9 is_stmt 1
 392              		.loc 2 54 41 is_stmt 0
 393 01ac 03358601 		ld	a0,24(a2)
 394              		.loc 2 54 29
 395 01b0 B3D7A702 		divu	a5,a5,a0
 396              	.LVL46:
 397              		.loc 2 54 16
 398 01b4 93D63700 		srli	a3,a5,3
 399              	.LVL47:
  55:src/kObjectAllocatorTest.cpp ****         if (byte >= objAlloc->memorySizeForBits) continue;
 400              		.loc 2 55 9 is_stmt 1
 401              		.loc 2 55 31 is_stmt 0
 402 01b8 03350601 		ld	a0,16(a2)
 403              		.loc 2 55 9
GAS LISTING /tmp/ccKdsjgl.s 			page 11


 404 01bc E3F6A6FC 		bleu	a0,a3,.L21
  56:src/kObjectAllocatorTest.cpp ****         size_t bit = idiff / objAlloc->objectSize - byte * 8;
 405              		.loc 2 56 9 is_stmt 1
 406              		.loc 2 56 58 is_stmt 0
 407 01c0 13F587FF 		andi	a0,a5,-8
 408              	.LVL48:
  57:src/kObjectAllocatorTest.cpp ****         return 7 - bit;
 409              		.loc 2 57 9 is_stmt 1
 410              		.loc 2 57 20 is_stmt 0
 411 01c4 B307F540 		sub	a5,a0,a5
 412              	.LVL49:
 413 01c8 13857700 		addi	a0,a5,7
 414              	.LVL50:
 415              	.LBE59:
 416              	.LBE58:
  58:src/kObjectAllocatorTest.cpp ****     }
  59:src/kObjectAllocatorTest.cpp ****     printString("ERROR: given object not allocated in given objAlloc\n");
  60:src/kObjectAllocatorTest.cpp ****     return 0;
  61:src/kObjectAllocatorTest.cpp **** }
 417              		.loc 2 61 1
 418 01cc 67800000 		ret
 419              	.LVL51:
 420              	.L20:
  50:src/kObjectAllocatorTest.cpp ****     for (size_t i = 0; i < objAlloc->numberOfAllocations; ++i) {
 421              		.loc 2 50 84
 422 01d0 130101FF 		addi	sp,sp,-16
 423              		.cfi_def_cfa_offset 16
 424 01d4 23341100 		sd	ra,8(sp)
 425 01d8 23308100 		sd	s0,0(sp)
 426              		.cfi_offset 1, -8
 427              		.cfi_offset 8, -16
 428 01dc 13040101 		addi	s0,sp,16
 429              		.cfi_def_cfa 8, 0
  59:src/kObjectAllocatorTest.cpp ****     return 0;
 430              		.loc 2 59 5 is_stmt 1
  59:src/kObjectAllocatorTest.cpp ****     return 0;
 431              		.loc 2 59 16 is_stmt 0
 432 01e0 17050000 		lla	a0,.LC5
 432      13050500 
 433 01e8 97000000 		call	_Z11printStringPKc@plt
 433      E7800000 
 434              	.LVL52:
  60:src/kObjectAllocatorTest.cpp **** }
 435              		.loc 2 60 5 is_stmt 1
  60:src/kObjectAllocatorTest.cpp **** }
 436              		.loc 2 60 12 is_stmt 0
 437 01f0 13050000 		li	a0,0
 438              		.loc 2 61 1
 439 01f4 83308100 		ld	ra,8(sp)
 440              		.cfi_restore 1
 441 01f8 03340100 		ld	s0,0(sp)
 442              		.cfi_restore 8
 443              		.cfi_def_cfa 2, 16
 444 01fc 13010101 		addi	sp,sp,16
 445              		.cfi_def_cfa_offset 0
 446 0200 67800000 		jr	ra
 447              		.cfi_endproc
GAS LISTING /tmp/ccKdsjgl.s 			page 12


 448              	.LFE25:
 450              		.align	2
 451              		.globl	_ZN20KObjectAllocatorTest11getObjectAtEmmP16KObjectAllocator
 453              	_ZN20KObjectAllocatorTest11getObjectAtEmmP16KObjectAllocator:
 454              	.LFB26:
  62:src/kObjectAllocatorTest.cpp **** 
  63:src/kObjectAllocatorTest.cpp **** void* KObjectAllocatorTest::getObjectAt(size_t byte, size_t bit, KObjectAllocator* objAlloc) {
 455              		.loc 2 63 94 is_stmt 1
 456              		.cfi_startproc
 457              	.LVL53:
  64:src/kObjectAllocatorTest.cpp ****     for (size_t i = 0; i < objAlloc->numberOfAllocations; ++i)
 458              		.loc 2 64 5
 459              	.LBB60:
 460              		.loc 2 64 17 is_stmt 0
 461 0204 93070000 		li	a5,0
 462 0208 6F008000 		j	.L31
 463              	.LVL54:
 464              	.L29:
 465              		.loc 2 64 5 is_stmt 1 discriminator 2
 466 020c 93871700 		addi	a5,a5,1
 467              	.LVL55:
 468              	.L31:
 469              		.loc 2 64 26 discriminator 1
 470              		.loc 2 64 38 is_stmt 0 discriminator 1
 471 0210 03B70603 		ld	a4,48(a3)
 472              		.loc 2 64 26 discriminator 1
 473 0214 63F6E704 		bleu	a4,a5,.L28
  65:src/kObjectAllocatorTest.cpp ****         if (i * objAlloc->memorySizeForBits <= byte && byte < (i + 1) * objAlloc->memorySizeForBits
 474              		.loc 2 65 9 is_stmt 1
 475              		.loc 2 65 27 is_stmt 0
 476 0218 03B70601 		ld	a4,16(a3)
 477              		.loc 2 65 15
 478 021c 3308F702 		mul	a6,a4,a5
 479              		.loc 2 65 9
 480 0220 E3E605FF 		bgtu	a6,a1,.L29
 481              		.loc 2 65 66 discriminator 1
 482 0224 93881700 		addi	a7,a5,1
 483              		.loc 2 65 71 discriminator 1
 484 0228 33071703 		mul	a4,a4,a7
 485              		.loc 2 65 53 discriminator 1
 486 022c E3F0E5FE 		bleu	a4,a1,.L29
  66:src/kObjectAllocatorTest.cpp ****             return &objAlloc->objectVectors[i][((byte - i * objAlloc->memorySizeForBits) * 8 + 7 - 
 487              		.loc 2 66 13 is_stmt 1
 488              		.loc 2 66 31 is_stmt 0
 489 0230 03B70602 		ld	a4,32(a3)
 490              		.loc 2 66 46
 491 0234 93973700 		slli	a5,a5,3
 492              	.LVL56:
 493 0238 B307F700 		add	a5,a4,a5
 494 023c 83B70700 		ld	a5,0(a5)
 495              		.loc 2 66 55
 496 0240 B3850541 		sub	a1,a1,a6
 497              	.LVL57:
 498              		.loc 2 66 90
 499 0244 93953500 		slli	a1,a1,3
 500              		.loc 2 66 98
 501 0248 3385C540 		sub	a0,a1,a2
GAS LISTING /tmp/ccKdsjgl.s 			page 13


 502              	.LVL58:
 503 024c 13057500 		addi	a0,a0,7
 504              		.loc 2 66 117
 505 0250 03B78601 		ld	a4,24(a3)
 506              		.loc 2 66 105
 507 0254 3305E502 		mul	a0,a0,a4
 508              		.loc 2 66 127
 509 0258 3385A700 		add	a0,a5,a0
 510              	.LBE60:
  67:src/kObjectAllocatorTest.cpp ****     printString("ERROR: given object not allocated in given objAlloc\n");
  68:src/kObjectAllocatorTest.cpp ****     return nullptr;
  69:src/kObjectAllocatorTest.cpp **** }
 511              		.loc 2 69 1
 512 025c 67800000 		ret
 513              	.LVL59:
 514              	.L28:
  63:src/kObjectAllocatorTest.cpp ****     for (size_t i = 0; i < objAlloc->numberOfAllocations; ++i)
 515              		.loc 2 63 94
 516 0260 130101FF 		addi	sp,sp,-16
 517              		.cfi_def_cfa_offset 16
 518 0264 23341100 		sd	ra,8(sp)
 519 0268 23308100 		sd	s0,0(sp)
 520              		.cfi_offset 1, -8
 521              		.cfi_offset 8, -16
 522 026c 13040101 		addi	s0,sp,16
 523              		.cfi_def_cfa 8, 0
  67:src/kObjectAllocatorTest.cpp ****     printString("ERROR: given object not allocated in given objAlloc\n");
 524              		.loc 2 67 5 is_stmt 1
  67:src/kObjectAllocatorTest.cpp ****     printString("ERROR: given object not allocated in given objAlloc\n");
 525              		.loc 2 67 16 is_stmt 0
 526 0270 17050000 		lla	a0,.LC5
 526      13050500 
 527              	.LVL60:
 528 0278 97000000 		call	_Z11printStringPKc@plt
 528      E7800000 
 529              	.LVL61:
  68:src/kObjectAllocatorTest.cpp **** }
 530              		.loc 2 68 5 is_stmt 1
  68:src/kObjectAllocatorTest.cpp **** }
 531              		.loc 2 68 12 is_stmt 0
 532 0280 13050000 		li	a0,0
 533              		.loc 2 69 1
 534 0284 83308100 		ld	ra,8(sp)
 535              		.cfi_restore 1
 536 0288 03340100 		ld	s0,0(sp)
 537              		.cfi_restore 8
 538              		.cfi_def_cfa 2, 16
 539 028c 13010101 		addi	sp,sp,16
 540              		.cfi_def_cfa_offset 0
 541 0290 67800000 		jr	ra
 542              		.cfi_endproc
 543              	.LFE26:
 545              		.align	2
 546              		.globl	_ZN20KObjectAllocatorTest5test0Em
 548              	_ZN20KObjectAllocatorTest5test0Em:
 549              	.LFB27:
  70:src/kObjectAllocatorTest.cpp **** 
GAS LISTING /tmp/ccKdsjgl.s 			page 14


  71:src/kObjectAllocatorTest.cpp **** bool KObjectAllocatorTest::test0(size_t size) {
 550              		.loc 2 71 47 is_stmt 1
 551              		.cfi_startproc
 552              		.cfi_personality 0x9b,DW.ref.__gxx_personality_v0
 553              		.cfi_lsda 0x1b,.LLSDA27
 554              	.LVL62:
 555 0294 130101F5 		addi	sp,sp,-176
 556              		.cfi_def_cfa_offset 176
 557 0298 2334110A 		sd	ra,168(sp)
 558 029c 2330810A 		sd	s0,160(sp)
 559 02a0 233C9108 		sd	s1,152(sp)
 560 02a4 23382109 		sd	s2,144(sp)
 561 02a8 23343109 		sd	s3,136(sp)
 562 02ac 23304109 		sd	s4,128(sp)
 563 02b0 233C5107 		sd	s5,120(sp)
 564 02b4 23386107 		sd	s6,112(sp)
 565 02b8 23347107 		sd	s7,104(sp)
 566              		.cfi_offset 1, -8
 567              		.cfi_offset 8, -16
 568              		.cfi_offset 9, -24
 569              		.cfi_offset 18, -32
 570              		.cfi_offset 19, -40
 571              		.cfi_offset 20, -48
 572              		.cfi_offset 21, -56
 573              		.cfi_offset 22, -64
 574              		.cfi_offset 23, -72
 575 02bc 1304010B 		addi	s0,sp,176
 576              		.cfi_def_cfa 8, 0
 577 02c0 93090500 		mv	s3,a0
 578 02c4 13890500 		mv	s2,a1
  72:src/kObjectAllocatorTest.cpp ****     KObjectAllocator* objAlloc = new KObjectAllocator(size, 9);
 579              		.loc 2 72 5
 580              	.LVL63:
 581              	.LBB109:
 582              	.LBB110:
  65:src/../h/kObjectAllocator.hpp ****     }
 583              		.loc 1 65 9
 584              	.LEHB0:
  65:src/../h/kObjectAllocator.hpp ****     }
 585              		.loc 1 65 55 is_stmt 0
 586 02c8 97000000 		call	_ZN15MemoryAllocator8instanceEv@plt
 586      E7800000 
 587              	.LVL64:
 588 02d0 93050004 		li	a1,64
 589 02d4 97000000 		call	_ZN15MemoryAllocator10kmem_allocEm@plt
 589      E7800000 
 590              	.LVL65:
 591              	.LEHE0:
 592 02dc 93040500 		mv	s1,a0
 593              	.LVL66:
 594              	.LBE110:
 595              	.LBE109:
 596              	.LBB111:
 597              	.LBB112:
  51:src/../h/kObjectAllocator.hpp ****         bitVectors = (uint8**) MemoryAllocator::instance()->kmem_alloc(numberOfAllocations * sizeof
 598              		.loc 1 51 120
 599 02e0 93079000 		li	a5,9
GAS LISTING /tmp/ccKdsjgl.s 			page 15


 600 02e4 2330F500 		sd	a5,0(a0)
 601 02e8 2334F500 		sd	a5,8(a0)
 602 02ec 233C2501 		sd	s2,24(a0)
 603 02f0 93071000 		li	a5,1
 604 02f4 2338F502 		sd	a5,48(a0)
 605 02f8 233C0502 		sd	zero,56(a0)
 606              	.LBB113:
  52:src/../h/kObjectAllocator.hpp ****         objectVectors = (uint8**) MemoryAllocator::instance()->kmem_alloc(numberOfAllocations * siz
 607              		.loc 1 52 9 is_stmt 1
 608              	.LEHB1:
  52:src/../h/kObjectAllocator.hpp ****         objectVectors = (uint8**) MemoryAllocator::instance()->kmem_alloc(numberOfAllocations * siz
 609              		.loc 1 52 71 is_stmt 0
 610 02fc 97000000 		call	_ZN15MemoryAllocator8instanceEv@plt
 610      E7800000 
 611              	.LVL67:
  52:src/../h/kObjectAllocator.hpp ****         objectVectors = (uint8**) MemoryAllocator::instance()->kmem_alloc(numberOfAllocations * siz
 612              		.loc 1 52 72
 613 0304 83B50403 		ld	a1,48(s1)
  52:src/../h/kObjectAllocator.hpp ****         objectVectors = (uint8**) MemoryAllocator::instance()->kmem_alloc(numberOfAllocations * siz
 614              		.loc 1 52 71
 615 0308 93953500 		slli	a1,a1,3
 616 030c 97000000 		call	_ZN15MemoryAllocator10kmem_allocEm@plt
 616      E7800000 
 617              	.LVL68:
  52:src/../h/kObjectAllocator.hpp ****         objectVectors = (uint8**) MemoryAllocator::instance()->kmem_alloc(numberOfAllocations * siz
 618              		.loc 1 52 20
 619 0314 23B4A402 		sd	a0,40(s1)
  53:src/../h/kObjectAllocator.hpp ****         initialNumberOfObjects = numberOfObjects = numberOfObjects / 8 * 8 + 8 * (numberOfObjects /
 620              		.loc 1 53 9 is_stmt 1
  53:src/../h/kObjectAllocator.hpp ****         initialNumberOfObjects = numberOfObjects = numberOfObjects / 8 * 8 + 8 * (numberOfObjects /
 621              		.loc 1 53 74 is_stmt 0
 622 0318 97000000 		call	_ZN15MemoryAllocator8instanceEv@plt
 622      E7800000 
 623              	.LVL69:
  53:src/../h/kObjectAllocator.hpp ****         initialNumberOfObjects = numberOfObjects = numberOfObjects / 8 * 8 + 8 * (numberOfObjects /
 624              		.loc 1 53 75
 625 0320 83B50403 		ld	a1,48(s1)
  53:src/../h/kObjectAllocator.hpp ****         initialNumberOfObjects = numberOfObjects = numberOfObjects / 8 * 8 + 8 * (numberOfObjects /
 626              		.loc 1 53 74
 627 0324 93953500 		slli	a1,a1,3
 628 0328 97000000 		call	_ZN15MemoryAllocator10kmem_allocEm@plt
 628      E7800000 
 629              	.LVL70:
  53:src/../h/kObjectAllocator.hpp ****         initialNumberOfObjects = numberOfObjects = numberOfObjects / 8 * 8 + 8 * (numberOfObjects /
 630              		.loc 1 53 23
 631 0330 23B0A402 		sd	a0,32(s1)
  54:src/../h/kObjectAllocator.hpp ****         // one bit for each object which indicates whether memory
 632              		.loc 1 54 9 is_stmt 1
  54:src/../h/kObjectAllocator.hpp ****         // one bit for each object which indicates whether memory
 633              		.loc 1 54 52 is_stmt 0
 634 0334 03B78400 		ld	a4,8(s1)
  54:src/../h/kObjectAllocator.hpp ****         // one bit for each object which indicates whether memory
 635              		.loc 1 54 72
 636 0338 937787FF 		andi	a5,a4,-8
  54:src/../h/kObjectAllocator.hpp ****         // one bit for each object which indicates whether memory
 637              		.loc 1 54 80
 638 033c 6304F702 		beq	a4,a5,.L91
GAS LISTING /tmp/ccKdsjgl.s 			page 16


 639 0340 13078000 		li	a4,8
 640              	.L36:
  54:src/../h/kObjectAllocator.hpp ****         // one bit for each object which indicates whether memory
 641              		.loc 1 54 76
 642 0344 B387E700 		add	a5,a5,a4
  54:src/../h/kObjectAllocator.hpp ****         // one bit for each object which indicates whether memory
 643              		.loc 1 54 50
 644 0348 23B4F400 		sd	a5,8(s1)
  54:src/../h/kObjectAllocator.hpp ****         // one bit for each object which indicates whether memory
 645              		.loc 1 54 32
 646 034c 23B0F400 		sd	a5,0(s1)
  57:src/../h/kObjectAllocator.hpp ****         bitVectors[0] = (uint8*) MemoryAllocator::instance()->kmem_alloc(
 647              		.loc 1 57 9 is_stmt 1
  57:src/../h/kObjectAllocator.hpp ****         bitVectors[0] = (uint8*) MemoryAllocator::instance()->kmem_alloc(
 648              		.loc 1 57 45 is_stmt 0
 649 0350 93D73700 		srli	a5,a5,3
  57:src/../h/kObjectAllocator.hpp ****         bitVectors[0] = (uint8*) MemoryAllocator::instance()->kmem_alloc(
 650              		.loc 1 57 27
 651 0354 23B8F400 		sd	a5,16(s1)
  58:src/../h/kObjectAllocator.hpp ****                 memorySizeForBits + initialNumberOfObjects * objectSize
 652              		.loc 1 58 9 is_stmt 1
  58:src/../h/kObjectAllocator.hpp ****                 memorySizeForBits + initialNumberOfObjects * objectSize
 653              		.loc 1 58 73 is_stmt 0
 654 0358 97000000 		call	_ZN15MemoryAllocator8instanceEv@plt
 654      E7800000 
 655              	.LVL71:
 656 0360 6F00C000 		j	.L99
 657              	.L91:
  54:src/../h/kObjectAllocator.hpp ****         // one bit for each object which indicates whether memory
 658              		.loc 1 54 80
 659 0364 13070000 		li	a4,0
 660 0368 6FF0DFFD 		j	.L36
 661              	.L99:
  59:src/../h/kObjectAllocator.hpp ****         );
 662              		.loc 1 59 17
 663 036c 83B50401 		ld	a1,16(s1)
  59:src/../h/kObjectAllocator.hpp ****         );
 664              		.loc 1 59 37
 665 0370 83B70400 		ld	a5,0(s1)
  59:src/../h/kObjectAllocator.hpp ****         );
 666              		.loc 1 59 60
 667 0374 B307F902 		mul	a5,s2,a5
  58:src/../h/kObjectAllocator.hpp ****                 memorySizeForBits + initialNumberOfObjects * objectSize
 668              		.loc 1 58 9
 669 0378 03BA8402 		ld	s4,40(s1)
  58:src/../h/kObjectAllocator.hpp ****                 memorySizeForBits + initialNumberOfObjects * objectSize
 670              		.loc 1 58 73
 671 037c B385F500 		add	a1,a1,a5
 672 0380 97000000 		call	_ZN15MemoryAllocator10kmem_allocEm@plt
 672      E7800000 
 673              	.LVL72:
 674              	.LEHE1:
  58:src/../h/kObjectAllocator.hpp ****                 memorySizeForBits + initialNumberOfObjects * objectSize
 675              		.loc 1 58 23
 676 0388 2330AA00 		sd	a0,0(s4)
  61:src/../h/kObjectAllocator.hpp ****         for (size_t i = 0; i < memorySizeForBits; bitVectors[0][i++] = 0);
 677              		.loc 1 61 9 is_stmt 1
GAS LISTING /tmp/ccKdsjgl.s 			page 17


  61:src/../h/kObjectAllocator.hpp ****         for (size_t i = 0; i < memorySizeForBits; bitVectors[0][i++] = 0);
 678              		.loc 1 61 28 is_stmt 0
 679 038c 83B78402 		ld	a5,40(s1)
  61:src/../h/kObjectAllocator.hpp ****         for (size_t i = 0; i < memorySizeForBits; bitVectors[0][i++] = 0);
 680              		.loc 1 61 40
 681 0390 83B70700 		ld	a5,0(a5)
  61:src/../h/kObjectAllocator.hpp ****         for (size_t i = 0; i < memorySizeForBits; bitVectors[0][i++] = 0);
 682              		.loc 1 61 44
 683 0394 83B60401 		ld	a3,16(s1)
  61:src/../h/kObjectAllocator.hpp ****         for (size_t i = 0; i < memorySizeForBits; bitVectors[0][i++] = 0);
 684              		.loc 1 61 9
 685 0398 03B70402 		ld	a4,32(s1)
  61:src/../h/kObjectAllocator.hpp ****         for (size_t i = 0; i < memorySizeForBits; bitVectors[0][i++] = 0);
 686              		.loc 1 61 42
 687 039c B387D700 		add	a5,a5,a3
  61:src/../h/kObjectAllocator.hpp ****         for (size_t i = 0; i < memorySizeForBits; bitVectors[0][i++] = 0);
 688              		.loc 1 61 26
 689 03a0 2330F700 		sd	a5,0(a4)
  62:src/../h/kObjectAllocator.hpp ****     }
 690              		.loc 1 62 9 is_stmt 1
 691              	.LVL73:
 692              	.LBB114:
  62:src/../h/kObjectAllocator.hpp ****     }
 693              		.loc 1 62 21 is_stmt 0
 694 03a4 93070000 		li	a5,0
 695              	.LVL74:
 696              	.L38:
  62:src/../h/kObjectAllocator.hpp ****     }
 697              		.loc 1 62 30 is_stmt 1
  62:src/../h/kObjectAllocator.hpp ****     }
 698              		.loc 1 62 32 is_stmt 0
 699 03a8 03B70401 		ld	a4,16(s1)
  62:src/../h/kObjectAllocator.hpp ****     }
 700              		.loc 1 62 30
 701 03ac 63FEE700 		bleu	a4,a5,.L37
  62:src/../h/kObjectAllocator.hpp ****     }
 702              		.loc 1 62 9 is_stmt 1
  62:src/../h/kObjectAllocator.hpp ****     }
 703              		.loc 1 62 51 is_stmt 0
 704 03b0 03B78402 		ld	a4,40(s1)
  62:src/../h/kObjectAllocator.hpp ****     }
 705              		.loc 1 62 63
 706 03b4 03370700 		ld	a4,0(a4)
 707              	.LVL75:
  62:src/../h/kObjectAllocator.hpp ****     }
 708              		.loc 1 62 68
 709 03b8 3307F700 		add	a4,a4,a5
  62:src/../h/kObjectAllocator.hpp ****     }
 710              		.loc 1 62 70
 711 03bc 23000700 		sb	zero,0(a4)
  62:src/../h/kObjectAllocator.hpp ****     }
 712              		.loc 1 62 66
 713 03c0 93871700 		addi	a5,a5,1
 714              	.LVL76:
  62:src/../h/kObjectAllocator.hpp ****     }
 715              		.loc 1 62 9
 716 03c4 6FF05FFE 		j	.L38
GAS LISTING /tmp/ccKdsjgl.s 			page 18


 717              	.L37:
 718              	.LVL77:
 719              	.LBE114:
 720              	.LBE113:
 721              	.LBE112:
 722              	.LBE111:
  73:src/kObjectAllocatorTest.cpp ****     if (objAlloc->getNumberOfObjects() != 16) { delete objAlloc; return false; }
 723              		.loc 2 73 5 is_stmt 1 discriminator 3
 724              	.LBB115:
 725              	.LBB116:
  74:src/../h/kObjectAllocator.hpp ****     void printInternalMemory();
  75:src/../h/kObjectAllocator.hpp ****     size_t getObjectSize() { return objectSize; }
  76:src/../h/kObjectAllocator.hpp ****     size_t getInitialNumberOfObjects() { return initialNumberOfObjects; }
  77:src/../h/kObjectAllocator.hpp ****     size_t getNumberOfObjects() { return numberOfObjects; }
 726              		.loc 1 77 35 discriminator 3
 727              		.loc 1 77 42 is_stmt 0 discriminator 3
 728 03c8 03B78400 		ld	a4,8(s1)
 729              	.LVL78:
 730              	.LBE116:
 731              	.LBE115:
 732              		.loc 2 73 5 discriminator 3
 733 03cc 93070001 		li	a5,16
 734 03d0 6306F70A 		beq	a4,a5,.L39
 735              		.loc 2 73 49 is_stmt 1 discriminator 1
 736              		.loc 2 73 64 is_stmt 0 discriminator 1
 737 03d4 638A0406 		beqz	s1,.L40
 738              	.LBB117:
 739              	.LBB118:
 740              	.LBB119:
  68:src/../h/kObjectAllocator.hpp ****             MemoryAllocator::instance()->kmem_free(((KObjectAllocator*) p)->bitVectors[i]);
 741              		.loc 1 68 21
 742 03d8 13090000 		li	s2,0
 743              	.LVL79:
 744 03dc 6F008002 		j	.L42
 745              	.LVL80:
 746              	.L100:
  69:src/../h/kObjectAllocator.hpp ****         MemoryAllocator::instance()->kmem_free(((KObjectAllocator*) p)->bitVectors);
 747              		.loc 1 69 13 is_stmt 1
 748              	.LEHB2:
  69:src/../h/kObjectAllocator.hpp ****         MemoryAllocator::instance()->kmem_free(((KObjectAllocator*) p)->bitVectors);
 749              		.loc 1 69 51 is_stmt 0
 750 03e0 97000000 		call	_ZN15MemoryAllocator8instanceEv@plt
 750      E7800000 
 751              	.LVL81:
  69:src/../h/kObjectAllocator.hpp ****         MemoryAllocator::instance()->kmem_free(((KObjectAllocator*) p)->bitVectors);
 752              		.loc 1 69 77
 753 03e8 83B78402 		ld	a5,40(s1)
  69:src/../h/kObjectAllocator.hpp ****         MemoryAllocator::instance()->kmem_free(((KObjectAllocator*) p)->bitVectors);
 754              		.loc 1 69 89
 755 03ec 13173900 		slli	a4,s2,3
 756 03f0 B387E700 		add	a5,a5,a4
  69:src/../h/kObjectAllocator.hpp ****         MemoryAllocator::instance()->kmem_free(((KObjectAllocator*) p)->bitVectors);
 757              		.loc 1 69 51
 758 03f4 83B50700 		ld	a1,0(a5)
 759 03f8 97000000 		call	_ZN15MemoryAllocator9kmem_freeEPv@plt
 759      E7800000 
 760              	.LVL82:
GAS LISTING /tmp/ccKdsjgl.s 			page 19


  68:src/../h/kObjectAllocator.hpp ****             MemoryAllocator::instance()->kmem_free(((KObjectAllocator*) p)->bitVectors[i]);
 761              		.loc 1 68 9 is_stmt 1
 762 0400 13091900 		addi	s2,s2,1
 763              	.LVL83:
 764              	.L42:
  68:src/../h/kObjectAllocator.hpp ****             MemoryAllocator::instance()->kmem_free(((KObjectAllocator*) p)->bitVectors[i]);
 765              		.loc 1 68 30
  68:src/../h/kObjectAllocator.hpp ****             MemoryAllocator::instance()->kmem_free(((KObjectAllocator*) p)->bitVectors[i]);
 766              		.loc 1 68 57 is_stmt 0
 767 0404 83B70403 		ld	a5,48(s1)
  68:src/../h/kObjectAllocator.hpp ****             MemoryAllocator::instance()->kmem_free(((KObjectAllocator*) p)->bitVectors[i]);
 768              		.loc 1 68 30
 769 0408 E36CF9FC 		bgtu	a5,s2,.L100
 770              	.LBE119:
  70:src/../h/kObjectAllocator.hpp ****         MemoryAllocator::instance()->kmem_free(((KObjectAllocator*) p)->objectVectors);
 771              		.loc 1 70 9 is_stmt 1
  70:src/../h/kObjectAllocator.hpp ****         MemoryAllocator::instance()->kmem_free(((KObjectAllocator*) p)->objectVectors);
 772              		.loc 1 70 47 is_stmt 0
 773 040c 97000000 		call	_ZN15MemoryAllocator8instanceEv@plt
 773      E7800000 
 774              	.LVL84:
 775 0414 83B58402 		ld	a1,40(s1)
 776 0418 97000000 		call	_ZN15MemoryAllocator9kmem_freeEPv@plt
 776      E7800000 
 777              	.LVL85:
  71:src/../h/kObjectAllocator.hpp ****         MemoryAllocator::instance()->kmem_free(p);
 778              		.loc 1 71 9 is_stmt 1
  71:src/../h/kObjectAllocator.hpp ****         MemoryAllocator::instance()->kmem_free(p);
 779              		.loc 1 71 47 is_stmt 0
 780 0420 97000000 		call	_ZN15MemoryAllocator8instanceEv@plt
 780      E7800000 
 781              	.LVL86:
 782 0428 83B50402 		ld	a1,32(s1)
 783 042c 97000000 		call	_ZN15MemoryAllocator9kmem_freeEPv@plt
 783      E7800000 
 784              	.LVL87:
  72:src/../h/kObjectAllocator.hpp ****     }
 785              		.loc 1 72 9 is_stmt 1
  72:src/../h/kObjectAllocator.hpp ****     }
 786              		.loc 1 72 47 is_stmt 0
 787 0434 97000000 		call	_ZN15MemoryAllocator8instanceEv@plt
 787      E7800000 
 788              	.LVL88:
 789 043c 93850400 		mv	a1,s1
 790 0440 97000000 		call	_ZN15MemoryAllocator9kmem_freeEPv@plt
 790      E7800000 
 791              	.LVL89:
 792              	.L40:
 793              	.LBE118:
 794              	.LBE117:
 795              		.loc 2 73 66 is_stmt 1 discriminator 3
 796              		.loc 2 73 73 is_stmt 0 discriminator 3
 797 0448 130A0000 		li	s4,0
 798              	.L97:
  74:src/kObjectAllocatorTest.cpp ****     if (objAlloc->getMemorySizeForBits() != 2) { delete objAlloc; return false; }
  75:src/kObjectAllocatorTest.cpp ****     if (objAlloc->getObjectSize() != size) { delete objAlloc; return false; }
  76:src/kObjectAllocatorTest.cpp ****     void* objArr[10]; for (size_t i = 0; i < 10; objArr[i++] = objAlloc->allocateNewObject());
GAS LISTING /tmp/ccKdsjgl.s 			page 20


  77:src/kObjectAllocatorTest.cpp ****     size_t byte = 0; size_t bit = 7;
  78:src/kObjectAllocatorTest.cpp ****     for (size_t i = 0; i < 10; ++i) {
  79:src/kObjectAllocatorTest.cpp ****         if (objArr[i] != getObjectAt(byte, bit, objAlloc)) { delete objAlloc; return false; }
  80:src/kObjectAllocatorTest.cpp ****         size_t objByte = getByteOfObject(objArr[i], objAlloc);
  81:src/kObjectAllocatorTest.cpp ****         size_t objBit = getBitOfObject(objArr[i], objAlloc);
  82:src/kObjectAllocatorTest.cpp ****         if (objByte != byte || objBit != bit) { delete objAlloc; return false; }
  83:src/kObjectAllocatorTest.cpp ****         if (!getValueOfBitAt(byte, bit, objAlloc)) { delete objAlloc; return false; }
  84:src/kObjectAllocatorTest.cpp ****         if (bit == 0) { ++byte; bit = 8; } --bit;
  85:src/kObjectAllocatorTest.cpp ****     }
  86:src/kObjectAllocatorTest.cpp ****     for (size_t i = 0; i < 6; ++i) {
  87:src/kObjectAllocatorTest.cpp ****         if (getValueOfBitAt(byte, bit, objAlloc)) { delete objAlloc; return false; }
  88:src/kObjectAllocatorTest.cpp ****         if (bit == 0) { ++byte; bit = 8; } --bit;
  89:src/kObjectAllocatorTest.cpp ****     }
  90:src/kObjectAllocatorTest.cpp ****     objAlloc->freeObject(objArr[4]);
  91:src/kObjectAllocatorTest.cpp ****     objAlloc->freeObject(objArr[7]);
  92:src/kObjectAllocatorTest.cpp ****     objAlloc->freeObject(objArr[8]);
  93:src/kObjectAllocatorTest.cpp ****     objArr[4] = objAlloc->allocateNewObject();
  94:src/kObjectAllocatorTest.cpp ****     if (objArr[4] != getObjectAt(1, 7, objAlloc)) { delete objAlloc; return false; }
  95:src/kObjectAllocatorTest.cpp ****     byte = getByteOfObject(objArr[4], objAlloc);
  96:src/kObjectAllocatorTest.cpp ****     bit = getBitOfObject(objArr[4], objAlloc);
  97:src/kObjectAllocatorTest.cpp ****     if (byte != 1 || bit != 7) { delete objAlloc; return false; }
  98:src/kObjectAllocatorTest.cpp ****     bool expectedBitValues[16] = {
  99:src/kObjectAllocatorTest.cpp ****             true, true, true, true, false, true, true, false,
 100:src/kObjectAllocatorTest.cpp ****             true, true, false, false, false, false, false, false
 101:src/kObjectAllocatorTest.cpp ****     };
 102:src/kObjectAllocatorTest.cpp ****     byte = 0; bit = 7;
 103:src/kObjectAllocatorTest.cpp ****     for (size_t i = 0; i < 16; ++i) {
 104:src/kObjectAllocatorTest.cpp ****         if (expectedBitValues[i] != getValueOfBitAt(byte, bit, objAlloc))
 105:src/kObjectAllocatorTest.cpp ****             { delete objAlloc; return false; } if (bit == 0) { ++byte; bit = 8; } --bit;
 106:src/kObjectAllocatorTest.cpp ****     }
 107:src/kObjectAllocatorTest.cpp ****     delete objAlloc;
 108:src/kObjectAllocatorTest.cpp ****     return true;
 109:src/kObjectAllocatorTest.cpp **** }
 799              		.loc 2 109 1
 800 044c 13050A00 		mv	a0,s4
 801 0450 8330810A 		ld	ra,168(sp)
 802              		.cfi_remember_state
 803              		.cfi_restore 1
 804 0454 0334010A 		ld	s0,160(sp)
 805              		.cfi_restore 8
 806              		.cfi_def_cfa 2, 176
 807 0458 83348109 		ld	s1,152(sp)
 808              		.cfi_restore 9
 809              	.LVL90:
 810 045c 03390109 		ld	s2,144(sp)
 811              		.cfi_restore 18
 812 0460 83398108 		ld	s3,136(sp)
 813              		.cfi_restore 19
 814              	.LVL91:
 815 0464 033A0108 		ld	s4,128(sp)
 816              		.cfi_restore 20
 817 0468 833A8107 		ld	s5,120(sp)
 818              		.cfi_restore 21
 819 046c 033B0107 		ld	s6,112(sp)
 820              		.cfi_restore 22
 821 0470 833B8106 		ld	s7,104(sp)
 822              		.cfi_restore 23
GAS LISTING /tmp/ccKdsjgl.s 			page 21


 823 0474 1301010B 		addi	sp,sp,176
 824              		.cfi_def_cfa_offset 0
 825 0478 67800000 		jr	ra
 826              	.LVL92:
 827              	.L39:
 828              		.cfi_restore_state
  74:src/kObjectAllocatorTest.cpp ****     if (objAlloc->getMemorySizeForBits() != 2) { delete objAlloc; return false; }
 829              		.loc 2 74 5 is_stmt 1
 830              	.LBB120:
 831              	.LBB121:
  78:src/../h/kObjectAllocator.hpp ****     size_t getMemorySizeForBits() { return memorySizeForBits; }
 832              		.loc 1 78 37
 833              		.loc 1 78 44 is_stmt 0
 834 047c 03B70401 		ld	a4,16(s1)
 835              	.LVL93:
 836              	.LBE121:
 837              	.LBE120:
  74:src/kObjectAllocatorTest.cpp ****     if (objAlloc->getMemorySizeForBits() != 2) { delete objAlloc; return false; }
 838              		.loc 2 74 5
 839 0480 93072000 		li	a5,2
 840 0484 6300F708 		beq	a4,a5,.L44
  74:src/kObjectAllocatorTest.cpp ****     if (objAlloc->getMemorySizeForBits() != 2) { delete objAlloc; return false; }
 841              		.loc 2 74 50 is_stmt 1 discriminator 1
  74:src/kObjectAllocatorTest.cpp ****     if (objAlloc->getMemorySizeForBits() != 2) { delete objAlloc; return false; }
 842              		.loc 2 74 65 is_stmt 0 discriminator 1
 843 0488 638A0406 		beqz	s1,.L45
 844              	.LBB122:
 845              	.LBB123:
 846              	.LBB124:
  68:src/../h/kObjectAllocator.hpp ****             MemoryAllocator::instance()->kmem_free(((KObjectAllocator*) p)->bitVectors[i]);
 847              		.loc 1 68 21
 848 048c 13090000 		li	s2,0
 849              	.LVL94:
 850 0490 6F008002 		j	.L47
 851              	.LVL95:
 852              	.L101:
  69:src/../h/kObjectAllocator.hpp ****         MemoryAllocator::instance()->kmem_free(((KObjectAllocator*) p)->bitVectors);
 853              		.loc 1 69 13 is_stmt 1
  69:src/../h/kObjectAllocator.hpp ****         MemoryAllocator::instance()->kmem_free(((KObjectAllocator*) p)->bitVectors);
 854              		.loc 1 69 51 is_stmt 0
 855 0494 97000000 		call	_ZN15MemoryAllocator8instanceEv@plt
 855      E7800000 
 856              	.LVL96:
  69:src/../h/kObjectAllocator.hpp ****         MemoryAllocator::instance()->kmem_free(((KObjectAllocator*) p)->bitVectors);
 857              		.loc 1 69 77
 858 049c 83B78402 		ld	a5,40(s1)
  69:src/../h/kObjectAllocator.hpp ****         MemoryAllocator::instance()->kmem_free(((KObjectAllocator*) p)->bitVectors);
 859              		.loc 1 69 89
 860 04a0 13173900 		slli	a4,s2,3
 861 04a4 B387E700 		add	a5,a5,a4
  69:src/../h/kObjectAllocator.hpp ****         MemoryAllocator::instance()->kmem_free(((KObjectAllocator*) p)->bitVectors);
 862              		.loc 1 69 51
 863 04a8 83B50700 		ld	a1,0(a5)
 864 04ac 97000000 		call	_ZN15MemoryAllocator9kmem_freeEPv@plt
 864      E7800000 
 865              	.LVL97:
  68:src/../h/kObjectAllocator.hpp ****             MemoryAllocator::instance()->kmem_free(((KObjectAllocator*) p)->bitVectors[i]);
GAS LISTING /tmp/ccKdsjgl.s 			page 22


 866              		.loc 1 68 9 is_stmt 1
 867 04b4 13091900 		addi	s2,s2,1
 868              	.LVL98:
 869              	.L47:
  68:src/../h/kObjectAllocator.hpp ****             MemoryAllocator::instance()->kmem_free(((KObjectAllocator*) p)->bitVectors[i]);
 870              		.loc 1 68 30
  68:src/../h/kObjectAllocator.hpp ****             MemoryAllocator::instance()->kmem_free(((KObjectAllocator*) p)->bitVectors[i]);
 871              		.loc 1 68 57 is_stmt 0
 872 04b8 83B70403 		ld	a5,48(s1)
  68:src/../h/kObjectAllocator.hpp ****             MemoryAllocator::instance()->kmem_free(((KObjectAllocator*) p)->bitVectors[i]);
 873              		.loc 1 68 30
 874 04bc E36CF9FC 		bgtu	a5,s2,.L101
 875              	.LBE124:
  70:src/../h/kObjectAllocator.hpp ****         MemoryAllocator::instance()->kmem_free(((KObjectAllocator*) p)->objectVectors);
 876              		.loc 1 70 9 is_stmt 1
  70:src/../h/kObjectAllocator.hpp ****         MemoryAllocator::instance()->kmem_free(((KObjectAllocator*) p)->objectVectors);
 877              		.loc 1 70 47 is_stmt 0
 878 04c0 97000000 		call	_ZN15MemoryAllocator8instanceEv@plt
 878      E7800000 
 879              	.LVL99:
 880 04c8 83B58402 		ld	a1,40(s1)
 881 04cc 97000000 		call	_ZN15MemoryAllocator9kmem_freeEPv@plt
 881      E7800000 
 882              	.LVL100:
  71:src/../h/kObjectAllocator.hpp ****         MemoryAllocator::instance()->kmem_free(p);
 883              		.loc 1 71 9 is_stmt 1
  71:src/../h/kObjectAllocator.hpp ****         MemoryAllocator::instance()->kmem_free(p);
 884              		.loc 1 71 47 is_stmt 0
 885 04d4 97000000 		call	_ZN15MemoryAllocator8instanceEv@plt
 885      E7800000 
 886              	.LVL101:
 887 04dc 83B50402 		ld	a1,32(s1)
 888 04e0 97000000 		call	_ZN15MemoryAllocator9kmem_freeEPv@plt
 888      E7800000 
 889              	.LVL102:
  72:src/../h/kObjectAllocator.hpp ****     }
 890              		.loc 1 72 9 is_stmt 1
  72:src/../h/kObjectAllocator.hpp ****     }
 891              		.loc 1 72 47 is_stmt 0
 892 04e8 97000000 		call	_ZN15MemoryAllocator8instanceEv@plt
 892      E7800000 
 893              	.LVL103:
 894 04f0 93850400 		mv	a1,s1
 895 04f4 97000000 		call	_ZN15MemoryAllocator9kmem_freeEPv@plt
 895      E7800000 
 896              	.LVL104:
 897              	.L45:
 898              	.LBE123:
 899              	.LBE122:
  74:src/kObjectAllocatorTest.cpp ****     if (objAlloc->getObjectSize() != size) { delete objAlloc; return false; }
 900              		.loc 2 74 67 is_stmt 1 discriminator 3
  74:src/kObjectAllocatorTest.cpp ****     if (objAlloc->getObjectSize() != size) { delete objAlloc; return false; }
 901              		.loc 2 74 74 is_stmt 0 discriminator 3
 902 04fc 130A0000 		li	s4,0
 903 0500 6FF0DFF4 		j	.L97
 904              	.LVL105:
 905              	.L44:
GAS LISTING /tmp/ccKdsjgl.s 			page 23


  75:src/kObjectAllocatorTest.cpp ****     void* objArr[10]; for (size_t i = 0; i < 10; objArr[i++] = objAlloc->allocateNewObject());
 906              		.loc 2 75 5 is_stmt 1
 907              	.LBB125:
 908              	.LBB126:
  75:src/../h/kObjectAllocator.hpp ****     size_t getInitialNumberOfObjects() { return initialNumberOfObjects; }
 909              		.loc 1 75 30
  75:src/../h/kObjectAllocator.hpp ****     size_t getInitialNumberOfObjects() { return initialNumberOfObjects; }
 910              		.loc 1 75 37 is_stmt 0
 911 0504 83B78401 		ld	a5,24(s1)
 912              	.LVL106:
 913              	.LBE126:
 914              	.LBE125:
  75:src/kObjectAllocatorTest.cpp ****     void* objArr[10]; for (size_t i = 0; i < 10; objArr[i++] = objAlloc->allocateNewObject());
 915              		.loc 2 75 5
 916 0508 6300F908 		beq	s2,a5,.L92
  75:src/kObjectAllocatorTest.cpp ****     void* objArr[10]; for (size_t i = 0; i < 10; objArr[i++] = objAlloc->allocateNewObject());
 917              		.loc 2 75 46 is_stmt 1 discriminator 1
  75:src/kObjectAllocatorTest.cpp ****     void* objArr[10]; for (size_t i = 0; i < 10; objArr[i++] = objAlloc->allocateNewObject());
 918              		.loc 2 75 61 is_stmt 0 discriminator 1
 919 050c 638A0406 		beqz	s1,.L49
 920              	.LBB127:
 921              	.LBB128:
 922              	.LBB129:
  68:src/../h/kObjectAllocator.hpp ****             MemoryAllocator::instance()->kmem_free(((KObjectAllocator*) p)->bitVectors[i]);
 923              		.loc 1 68 21
 924 0510 13090000 		li	s2,0
 925              	.LVL107:
 926              	.L51:
  68:src/../h/kObjectAllocator.hpp ****             MemoryAllocator::instance()->kmem_free(((KObjectAllocator*) p)->bitVectors[i]);
 927              		.loc 1 68 30 is_stmt 1
  68:src/../h/kObjectAllocator.hpp ****             MemoryAllocator::instance()->kmem_free(((KObjectAllocator*) p)->bitVectors[i]);
 928              		.loc 1 68 57 is_stmt 0
 929 0514 83B70403 		ld	a5,48(s1)
  68:src/../h/kObjectAllocator.hpp ****             MemoryAllocator::instance()->kmem_free(((KObjectAllocator*) p)->bitVectors[i]);
 930              		.loc 1 68 30
 931 0518 6376F902 		bleu	a5,s2,.L50
  69:src/../h/kObjectAllocator.hpp ****         MemoryAllocator::instance()->kmem_free(((KObjectAllocator*) p)->bitVectors);
 932              		.loc 1 69 13 is_stmt 1
  69:src/../h/kObjectAllocator.hpp ****         MemoryAllocator::instance()->kmem_free(((KObjectAllocator*) p)->bitVectors);
 933              		.loc 1 69 51 is_stmt 0
 934 051c 97000000 		call	_ZN15MemoryAllocator8instanceEv@plt
 934      E7800000 
 935              	.LVL108:
  69:src/../h/kObjectAllocator.hpp ****         MemoryAllocator::instance()->kmem_free(((KObjectAllocator*) p)->bitVectors);
 936              		.loc 1 69 77
 937 0524 83B78402 		ld	a5,40(s1)
  69:src/../h/kObjectAllocator.hpp ****         MemoryAllocator::instance()->kmem_free(((KObjectAllocator*) p)->bitVectors);
 938              		.loc 1 69 89
 939 0528 13173900 		slli	a4,s2,3
 940 052c B387E700 		add	a5,a5,a4
  69:src/../h/kObjectAllocator.hpp ****         MemoryAllocator::instance()->kmem_free(((KObjectAllocator*) p)->bitVectors);
 941              		.loc 1 69 51
 942 0530 83B50700 		ld	a1,0(a5)
 943 0534 97000000 		call	_ZN15MemoryAllocator9kmem_freeEPv@plt
 943      E7800000 
 944              	.LVL109:
  68:src/../h/kObjectAllocator.hpp ****             MemoryAllocator::instance()->kmem_free(((KObjectAllocator*) p)->bitVectors[i]);
GAS LISTING /tmp/ccKdsjgl.s 			page 24


 945              		.loc 1 68 9 is_stmt 1
 946 053c 13091900 		addi	s2,s2,1
 947              	.LVL110:
 948 0540 6FF05FFD 		j	.L51
 949              	.L50:
 950              	.LBE129:
  70:src/../h/kObjectAllocator.hpp ****         MemoryAllocator::instance()->kmem_free(((KObjectAllocator*) p)->objectVectors);
 951              		.loc 1 70 9
  70:src/../h/kObjectAllocator.hpp ****         MemoryAllocator::instance()->kmem_free(((KObjectAllocator*) p)->objectVectors);
 952              		.loc 1 70 47 is_stmt 0
 953 0544 97000000 		call	_ZN15MemoryAllocator8instanceEv@plt
 953      E7800000 
 954              	.LVL111:
 955 054c 83B58402 		ld	a1,40(s1)
 956 0550 97000000 		call	_ZN15MemoryAllocator9kmem_freeEPv@plt
 956      E7800000 
 957              	.LVL112:
  71:src/../h/kObjectAllocator.hpp ****         MemoryAllocator::instance()->kmem_free(p);
 958              		.loc 1 71 9 is_stmt 1
  71:src/../h/kObjectAllocator.hpp ****         MemoryAllocator::instance()->kmem_free(p);
 959              		.loc 1 71 47 is_stmt 0
 960 0558 97000000 		call	_ZN15MemoryAllocator8instanceEv@plt
 960      E7800000 
 961              	.LVL113:
 962 0560 83B50402 		ld	a1,32(s1)
 963 0564 97000000 		call	_ZN15MemoryAllocator9kmem_freeEPv@plt
 963      E7800000 
 964              	.LVL114:
  72:src/../h/kObjectAllocator.hpp ****     }
 965              		.loc 1 72 9 is_stmt 1
  72:src/../h/kObjectAllocator.hpp ****     }
 966              		.loc 1 72 47 is_stmt 0
 967 056c 97000000 		call	_ZN15MemoryAllocator8instanceEv@plt
 967      E7800000 
 968              	.LVL115:
 969 0574 93850400 		mv	a1,s1
 970 0578 97000000 		call	_ZN15MemoryAllocator9kmem_freeEPv@plt
 970      E7800000 
 971              	.LVL116:
 972              	.L49:
 973              	.LBE128:
 974              	.LBE127:
  75:src/kObjectAllocatorTest.cpp ****     void* objArr[10]; for (size_t i = 0; i < 10; objArr[i++] = objAlloc->allocateNewObject());
 975              		.loc 2 75 63 is_stmt 1 discriminator 3
  75:src/kObjectAllocatorTest.cpp ****     void* objArr[10]; for (size_t i = 0; i < 10; objArr[i++] = objAlloc->allocateNewObject());
 976              		.loc 2 75 70 is_stmt 0 discriminator 3
 977 0580 130A0000 		li	s4,0
 978 0584 6FF09FEC 		j	.L97
 979              	.LVL117:
 980              	.L92:
 981              	.LBB130:
  76:src/kObjectAllocatorTest.cpp ****     size_t byte = 0; size_t bit = 7;
 982              		.loc 2 76 35
 983 0588 13090000 		li	s2,0
 984              	.LVL118:
 985              	.L48:
  76:src/kObjectAllocatorTest.cpp ****     size_t byte = 0; size_t bit = 7;
GAS LISTING /tmp/ccKdsjgl.s 			page 25


 986              		.loc 2 76 44 is_stmt 1 discriminator 4
 987 058c 93079000 		li	a5,9
 988 0590 63E62703 		bgtu	s2,a5,.L93
  76:src/kObjectAllocatorTest.cpp ****     size_t byte = 0; size_t bit = 7;
 989              		.loc 2 76 23 discriminator 2
  76:src/kObjectAllocatorTest.cpp ****     size_t byte = 0; size_t bit = 7;
 990              		.loc 2 76 58 is_stmt 0 discriminator 2
 991 0594 130A1900 		addi	s4,s2,1
 992              	.LVL119:
  76:src/kObjectAllocatorTest.cpp ****     size_t byte = 0; size_t bit = 7;
 993              		.loc 2 76 91 discriminator 2
 994 0598 13850400 		mv	a0,s1
 995 059c 97000000 		call	_ZN16KObjectAllocator17allocateNewObjectEv@plt
 995      E7800000 
 996              	.LVL120:
  76:src/kObjectAllocatorTest.cpp ****     size_t byte = 0; size_t bit = 7;
 997              		.loc 2 76 62 discriminator 2
 998 05a4 13193900 		slli	s2,s2,3
 999 05a8 930704FB 		addi	a5,s0,-80
 1000 05ac 33892701 		add	s2,a5,s2
 1001 05b0 2338A9FA 		sd	a0,-80(s2)
  76:src/kObjectAllocatorTest.cpp ****     size_t byte = 0; size_t bit = 7;
 1002              		.loc 2 76 58 discriminator 2
 1003 05b4 13090A00 		mv	s2,s4
  76:src/kObjectAllocatorTest.cpp ****     size_t byte = 0; size_t bit = 7;
 1004              		.loc 2 76 23 discriminator 2
 1005 05b8 6FF05FFD 		j	.L48
 1006              	.LVL121:
 1007              	.L93:
 1008              	.LBE130:
 1009              	.LBB131:
  78:src/kObjectAllocatorTest.cpp ****         if (objArr[i] != getObjectAt(byte, bit, objAlloc)) { delete objAlloc; return false; }
 1010              		.loc 2 78 17
 1011 05bc 130B0000 		li	s6,0
 1012              	.LBE131:
  77:src/kObjectAllocatorTest.cpp ****     for (size_t i = 0; i < 10; ++i) {
 1013              		.loc 2 77 29
 1014 05c0 13097000 		li	s2,7
 1015              	.LVL122:
  77:src/kObjectAllocatorTest.cpp ****     for (size_t i = 0; i < 10; ++i) {
 1016              		.loc 2 77 12
 1017 05c4 930A0000 		li	s5,0
 1018 05c8 6F004018 		j	.L52
 1019              	.LVL123:
 1020              	.L103:
 1021              	.LBB143:
 1022              	.LBB132:
  79:src/kObjectAllocatorTest.cpp ****         size_t objByte = getByteOfObject(objArr[i], objAlloc);
 1023              		.loc 2 79 62 is_stmt 1 discriminator 2
  79:src/kObjectAllocatorTest.cpp ****         size_t objByte = getByteOfObject(objArr[i], objAlloc);
 1024              		.loc 2 79 77 is_stmt 0 discriminator 2
 1025 05cc 638A0406 		beqz	s1,.L55
 1026              	.LBB133:
 1027              	.LBB134:
 1028              	.LBB135:
  68:src/../h/kObjectAllocator.hpp ****             MemoryAllocator::instance()->kmem_free(((KObjectAllocator*) p)->bitVectors[i]);
 1029              		.loc 1 68 21
GAS LISTING /tmp/ccKdsjgl.s 			page 26


 1030 05d0 13090000 		li	s2,0
 1031              	.LVL124:
 1032              	.L57:
  68:src/../h/kObjectAllocator.hpp ****             MemoryAllocator::instance()->kmem_free(((KObjectAllocator*) p)->bitVectors[i]);
 1033              		.loc 1 68 30 is_stmt 1
  68:src/../h/kObjectAllocator.hpp ****             MemoryAllocator::instance()->kmem_free(((KObjectAllocator*) p)->bitVectors[i]);
 1034              		.loc 1 68 57 is_stmt 0
 1035 05d4 83B70403 		ld	a5,48(s1)
  68:src/../h/kObjectAllocator.hpp ****             MemoryAllocator::instance()->kmem_free(((KObjectAllocator*) p)->bitVectors[i]);
 1036              		.loc 1 68 30
 1037 05d8 6376F902 		bleu	a5,s2,.L56
  69:src/../h/kObjectAllocator.hpp ****         MemoryAllocator::instance()->kmem_free(((KObjectAllocator*) p)->bitVectors);
 1038              		.loc 1 69 13 is_stmt 1
  69:src/../h/kObjectAllocator.hpp ****         MemoryAllocator::instance()->kmem_free(((KObjectAllocator*) p)->bitVectors);
 1039              		.loc 1 69 51 is_stmt 0
 1040 05dc 97000000 		call	_ZN15MemoryAllocator8instanceEv@plt
 1040      E7800000 
 1041              	.LVL125:
  69:src/../h/kObjectAllocator.hpp ****         MemoryAllocator::instance()->kmem_free(((KObjectAllocator*) p)->bitVectors);
 1042              		.loc 1 69 77
 1043 05e4 83B78402 		ld	a5,40(s1)
  69:src/../h/kObjectAllocator.hpp ****         MemoryAllocator::instance()->kmem_free(((KObjectAllocator*) p)->bitVectors);
 1044              		.loc 1 69 89
 1045 05e8 13173900 		slli	a4,s2,3
 1046 05ec B387E700 		add	a5,a5,a4
  69:src/../h/kObjectAllocator.hpp ****         MemoryAllocator::instance()->kmem_free(((KObjectAllocator*) p)->bitVectors);
 1047              		.loc 1 69 51
 1048 05f0 83B50700 		ld	a1,0(a5)
 1049 05f4 97000000 		call	_ZN15MemoryAllocator9kmem_freeEPv@plt
 1049      E7800000 
 1050              	.LVL126:
  68:src/../h/kObjectAllocator.hpp ****             MemoryAllocator::instance()->kmem_free(((KObjectAllocator*) p)->bitVectors[i]);
 1051              		.loc 1 68 9 is_stmt 1
 1052 05fc 13091900 		addi	s2,s2,1
 1053              	.LVL127:
 1054 0600 6FF05FFD 		j	.L57
 1055              	.L56:
 1056              	.LBE135:
  70:src/../h/kObjectAllocator.hpp ****         MemoryAllocator::instance()->kmem_free(((KObjectAllocator*) p)->objectVectors);
 1057              		.loc 1 70 9
  70:src/../h/kObjectAllocator.hpp ****         MemoryAllocator::instance()->kmem_free(((KObjectAllocator*) p)->objectVectors);
 1058              		.loc 1 70 47 is_stmt 0
 1059 0604 97000000 		call	_ZN15MemoryAllocator8instanceEv@plt
 1059      E7800000 
 1060              	.LVL128:
 1061 060c 83B58402 		ld	a1,40(s1)
 1062 0610 97000000 		call	_ZN15MemoryAllocator9kmem_freeEPv@plt
 1062      E7800000 
 1063              	.LVL129:
  71:src/../h/kObjectAllocator.hpp ****         MemoryAllocator::instance()->kmem_free(p);
 1064              		.loc 1 71 9 is_stmt 1
  71:src/../h/kObjectAllocator.hpp ****         MemoryAllocator::instance()->kmem_free(p);
 1065              		.loc 1 71 47 is_stmt 0
 1066 0618 97000000 		call	_ZN15MemoryAllocator8instanceEv@plt
 1066      E7800000 
 1067              	.LVL130:
 1068 0620 83B50402 		ld	a1,32(s1)
GAS LISTING /tmp/ccKdsjgl.s 			page 27


 1069 0624 97000000 		call	_ZN15MemoryAllocator9kmem_freeEPv@plt
 1069      E7800000 
 1070              	.LVL131:
  72:src/../h/kObjectAllocator.hpp ****     }
 1071              		.loc 1 72 9 is_stmt 1
  72:src/../h/kObjectAllocator.hpp ****     }
 1072              		.loc 1 72 47 is_stmt 0
 1073 062c 97000000 		call	_ZN15MemoryAllocator8instanceEv@plt
 1073      E7800000 
 1074              	.LVL132:
 1075 0634 93850400 		mv	a1,s1
 1076 0638 97000000 		call	_ZN15MemoryAllocator9kmem_freeEPv@plt
 1076      E7800000 
 1077              	.LVL133:
 1078              	.L55:
 1079              	.LBE134:
 1080              	.LBE133:
  79:src/kObjectAllocatorTest.cpp ****         size_t objByte = getByteOfObject(objArr[i], objAlloc);
 1081              		.loc 2 79 79 is_stmt 1 discriminator 4
  79:src/kObjectAllocatorTest.cpp ****         size_t objByte = getByteOfObject(objArr[i], objAlloc);
 1082              		.loc 2 79 86 is_stmt 0 discriminator 4
 1083 0640 130A0000 		li	s4,0
 1084 0644 6FF09FE0 		j	.L97
 1085              	.LVL134:
 1086              	.L58:
  82:src/kObjectAllocatorTest.cpp ****         if (!getValueOfBitAt(byte, bit, objAlloc)) { delete objAlloc; return false; }
 1087              		.loc 2 82 49 is_stmt 1 discriminator 3
  82:src/kObjectAllocatorTest.cpp ****         if (!getValueOfBitAt(byte, bit, objAlloc)) { delete objAlloc; return false; }
 1088              		.loc 2 82 64 is_stmt 0 discriminator 3
 1089 0648 638A0406 		beqz	s1,.L60
 1090              	.LBB136:
 1091              	.LBB137:
 1092              	.LBB138:
  68:src/../h/kObjectAllocator.hpp ****             MemoryAllocator::instance()->kmem_free(((KObjectAllocator*) p)->bitVectors[i]);
 1093              		.loc 1 68 21
 1094 064c 13090000 		li	s2,0
 1095              	.LVL135:
 1096              	.L62:
  68:src/../h/kObjectAllocator.hpp ****             MemoryAllocator::instance()->kmem_free(((KObjectAllocator*) p)->bitVectors[i]);
 1097              		.loc 1 68 30 is_stmt 1
  68:src/../h/kObjectAllocator.hpp ****             MemoryAllocator::instance()->kmem_free(((KObjectAllocator*) p)->bitVectors[i]);
 1098              		.loc 1 68 57 is_stmt 0
 1099 0650 83B70403 		ld	a5,48(s1)
  68:src/../h/kObjectAllocator.hpp ****             MemoryAllocator::instance()->kmem_free(((KObjectAllocator*) p)->bitVectors[i]);
 1100              		.loc 1 68 30
 1101 0654 6376F902 		bleu	a5,s2,.L61
  69:src/../h/kObjectAllocator.hpp ****         MemoryAllocator::instance()->kmem_free(((KObjectAllocator*) p)->bitVectors);
 1102              		.loc 1 69 13 is_stmt 1
  69:src/../h/kObjectAllocator.hpp ****         MemoryAllocator::instance()->kmem_free(((KObjectAllocator*) p)->bitVectors);
 1103              		.loc 1 69 51 is_stmt 0
 1104 0658 97000000 		call	_ZN15MemoryAllocator8instanceEv@plt
 1104      E7800000 
 1105              	.LVL136:
  69:src/../h/kObjectAllocator.hpp ****         MemoryAllocator::instance()->kmem_free(((KObjectAllocator*) p)->bitVectors);
 1106              		.loc 1 69 77
 1107 0660 83B78402 		ld	a5,40(s1)
  69:src/../h/kObjectAllocator.hpp ****         MemoryAllocator::instance()->kmem_free(((KObjectAllocator*) p)->bitVectors);
GAS LISTING /tmp/ccKdsjgl.s 			page 28


 1108              		.loc 1 69 89
 1109 0664 13173900 		slli	a4,s2,3
 1110 0668 B387E700 		add	a5,a5,a4
  69:src/../h/kObjectAllocator.hpp ****         MemoryAllocator::instance()->kmem_free(((KObjectAllocator*) p)->bitVectors);
 1111              		.loc 1 69 51
 1112 066c 83B50700 		ld	a1,0(a5)
 1113 0670 97000000 		call	_ZN15MemoryAllocator9kmem_freeEPv@plt
 1113      E7800000 
 1114              	.LVL137:
  68:src/../h/kObjectAllocator.hpp ****             MemoryAllocator::instance()->kmem_free(((KObjectAllocator*) p)->bitVectors[i]);
 1115              		.loc 1 68 9 is_stmt 1
 1116 0678 13091900 		addi	s2,s2,1
 1117              	.LVL138:
 1118 067c 6FF05FFD 		j	.L62
 1119              	.L61:
 1120              	.LBE138:
  70:src/../h/kObjectAllocator.hpp ****         MemoryAllocator::instance()->kmem_free(((KObjectAllocator*) p)->objectVectors);
 1121              		.loc 1 70 9
  70:src/../h/kObjectAllocator.hpp ****         MemoryAllocator::instance()->kmem_free(((KObjectAllocator*) p)->objectVectors);
 1122              		.loc 1 70 47 is_stmt 0
 1123 0680 97000000 		call	_ZN15MemoryAllocator8instanceEv@plt
 1123      E7800000 
 1124              	.LVL139:
 1125 0688 83B58402 		ld	a1,40(s1)
 1126 068c 97000000 		call	_ZN15MemoryAllocator9kmem_freeEPv@plt
 1126      E7800000 
 1127              	.LVL140:
  71:src/../h/kObjectAllocator.hpp ****         MemoryAllocator::instance()->kmem_free(p);
 1128              		.loc 1 71 9 is_stmt 1
  71:src/../h/kObjectAllocator.hpp ****         MemoryAllocator::instance()->kmem_free(p);
 1129              		.loc 1 71 47 is_stmt 0
 1130 0694 97000000 		call	_ZN15MemoryAllocator8instanceEv@plt
 1130      E7800000 
 1131              	.LVL141:
 1132 069c 83B50402 		ld	a1,32(s1)
 1133 06a0 97000000 		call	_ZN15MemoryAllocator9kmem_freeEPv@plt
 1133      E7800000 
 1134              	.LVL142:
  72:src/../h/kObjectAllocator.hpp ****     }
 1135              		.loc 1 72 9 is_stmt 1
  72:src/../h/kObjectAllocator.hpp ****     }
 1136              		.loc 1 72 47 is_stmt 0
 1137 06a8 97000000 		call	_ZN15MemoryAllocator8instanceEv@plt
 1137      E7800000 
 1138              	.LVL143:
 1139 06b0 93850400 		mv	a1,s1
 1140 06b4 97000000 		call	_ZN15MemoryAllocator9kmem_freeEPv@plt
 1140      E7800000 
 1141              	.LVL144:
 1142              	.L60:
 1143              	.LBE137:
 1144              	.LBE136:
  82:src/kObjectAllocatorTest.cpp ****         if (!getValueOfBitAt(byte, bit, objAlloc)) { delete objAlloc; return false; }
 1145              		.loc 2 82 66 is_stmt 1 discriminator 5
  82:src/kObjectAllocatorTest.cpp ****         if (!getValueOfBitAt(byte, bit, objAlloc)) { delete objAlloc; return false; }
 1146              		.loc 2 82 73 is_stmt 0 discriminator 5
 1147 06bc 130A0000 		li	s4,0
GAS LISTING /tmp/ccKdsjgl.s 			page 29


 1148 06c0 6FF0DFD8 		j	.L97
 1149              	.LVL145:
 1150              	.L104:
  83:src/kObjectAllocatorTest.cpp ****         if (bit == 0) { ++byte; bit = 8; } --bit;
 1151              		.loc 2 83 54 is_stmt 1 discriminator 2
  83:src/kObjectAllocatorTest.cpp ****         if (bit == 0) { ++byte; bit = 8; } --bit;
 1152              		.loc 2 83 69 is_stmt 0 discriminator 2
 1153 06c4 E38404D8 		beqz	s1,.L97
 1154              	.LBB139:
 1155              	.LBB140:
 1156              	.LBB141:
  68:src/../h/kObjectAllocator.hpp ****             MemoryAllocator::instance()->kmem_free(((KObjectAllocator*) p)->bitVectors[i]);
 1157              		.loc 1 68 21
 1158 06c8 13090000 		li	s2,0
 1159              	.LVL146:
 1160 06cc 6F008002 		j	.L66
 1161              	.LVL147:
 1162              	.L102:
  69:src/../h/kObjectAllocator.hpp ****         MemoryAllocator::instance()->kmem_free(((KObjectAllocator*) p)->bitVectors);
 1163              		.loc 1 69 13 is_stmt 1
  69:src/../h/kObjectAllocator.hpp ****         MemoryAllocator::instance()->kmem_free(((KObjectAllocator*) p)->bitVectors);
 1164              		.loc 1 69 51 is_stmt 0
 1165 06d0 97000000 		call	_ZN15MemoryAllocator8instanceEv@plt
 1165      E7800000 
 1166              	.LVL148:
  69:src/../h/kObjectAllocator.hpp ****         MemoryAllocator::instance()->kmem_free(((KObjectAllocator*) p)->bitVectors);
 1167              		.loc 1 69 77
 1168 06d8 83B78402 		ld	a5,40(s1)
  69:src/../h/kObjectAllocator.hpp ****         MemoryAllocator::instance()->kmem_free(((KObjectAllocator*) p)->bitVectors);
 1169              		.loc 1 69 89
 1170 06dc 13173900 		slli	a4,s2,3
 1171 06e0 B387E700 		add	a5,a5,a4
  69:src/../h/kObjectAllocator.hpp ****         MemoryAllocator::instance()->kmem_free(((KObjectAllocator*) p)->bitVectors);
 1172              		.loc 1 69 51
 1173 06e4 83B50700 		ld	a1,0(a5)
 1174 06e8 97000000 		call	_ZN15MemoryAllocator9kmem_freeEPv@plt
 1174      E7800000 
 1175              	.LVL149:
  68:src/../h/kObjectAllocator.hpp ****             MemoryAllocator::instance()->kmem_free(((KObjectAllocator*) p)->bitVectors[i]);
 1176              		.loc 1 68 9 is_stmt 1
 1177 06f0 13091900 		addi	s2,s2,1
 1178              	.LVL150:
 1179              	.L66:
  68:src/../h/kObjectAllocator.hpp ****             MemoryAllocator::instance()->kmem_free(((KObjectAllocator*) p)->bitVectors[i]);
 1180              		.loc 1 68 30
  68:src/../h/kObjectAllocator.hpp ****             MemoryAllocator::instance()->kmem_free(((KObjectAllocator*) p)->bitVectors[i]);
 1181              		.loc 1 68 57 is_stmt 0
 1182 06f4 83B70403 		ld	a5,48(s1)
  68:src/../h/kObjectAllocator.hpp ****             MemoryAllocator::instance()->kmem_free(((KObjectAllocator*) p)->bitVectors[i]);
 1183              		.loc 1 68 30
 1184 06f8 E36CF9FC 		bgtu	a5,s2,.L102
 1185              	.LBE141:
  70:src/../h/kObjectAllocator.hpp ****         MemoryAllocator::instance()->kmem_free(((KObjectAllocator*) p)->objectVectors);
 1186              		.loc 1 70 9 is_stmt 1
  70:src/../h/kObjectAllocator.hpp ****         MemoryAllocator::instance()->kmem_free(((KObjectAllocator*) p)->objectVectors);
 1187              		.loc 1 70 47 is_stmt 0
 1188 06fc 97000000 		call	_ZN15MemoryAllocator8instanceEv@plt
GAS LISTING /tmp/ccKdsjgl.s 			page 30


 1188      E7800000 
 1189              	.LVL151:
 1190 0704 83B58402 		ld	a1,40(s1)
 1191 0708 97000000 		call	_ZN15MemoryAllocator9kmem_freeEPv@plt
 1191      E7800000 
 1192              	.LVL152:
  71:src/../h/kObjectAllocator.hpp ****         MemoryAllocator::instance()->kmem_free(p);
 1193              		.loc 1 71 9 is_stmt 1
  71:src/../h/kObjectAllocator.hpp ****         MemoryAllocator::instance()->kmem_free(p);
 1194              		.loc 1 71 47 is_stmt 0
 1195 0710 97000000 		call	_ZN15MemoryAllocator8instanceEv@plt
 1195      E7800000 
 1196              	.LVL153:
 1197 0718 83B50402 		ld	a1,32(s1)
 1198 071c 97000000 		call	_ZN15MemoryAllocator9kmem_freeEPv@plt
 1198      E7800000 
 1199              	.LVL154:
  72:src/../h/kObjectAllocator.hpp ****     }
 1200              		.loc 1 72 9 is_stmt 1
  72:src/../h/kObjectAllocator.hpp ****     }
 1201              		.loc 1 72 47 is_stmt 0
 1202 0724 97000000 		call	_ZN15MemoryAllocator8instanceEv@plt
 1202      E7800000 
 1203              	.LVL155:
 1204 072c 93850400 		mv	a1,s1
 1205 0730 97000000 		call	_ZN15MemoryAllocator9kmem_freeEPv@plt
 1205      E7800000 
 1206              	.LVL156:
 1207              	.LBE140:
 1208              	.LBE139:
  83:src/kObjectAllocatorTest.cpp ****         if (bit == 0) { ++byte; bit = 8; } --bit;
 1209              		.loc 2 83 71 is_stmt 1
  83:src/kObjectAllocatorTest.cpp ****         if (bit == 0) { ++byte; bit = 8; } --bit;
 1210              		.loc 2 83 78 is_stmt 0
 1211 0738 6FF05FD1 		j	.L97
 1212              	.LVL157:
 1213              	.L105:
  84:src/kObjectAllocatorTest.cpp ****     }
 1214              		.loc 2 84 25 is_stmt 1 discriminator 1
 1215 073c 938A1A00 		addi	s5,s5,1
 1216              	.LVL158:
  84:src/kObjectAllocatorTest.cpp ****     }
 1217              		.loc 2 84 33 discriminator 1
  84:src/kObjectAllocatorTest.cpp ****     }
 1218              		.loc 2 84 37 is_stmt 0 discriminator 1
 1219 0740 13098000 		li	s2,8
 1220              	.LVL159:
 1221              	.L67:
  84:src/kObjectAllocatorTest.cpp ****     }
 1222              		.loc 2 84 44 is_stmt 1 discriminator 3
 1223 0744 1309F9FF 		addi	s2,s2,-1
 1224              	.LVL160:
 1225              	.LBE132:
  78:src/kObjectAllocatorTest.cpp ****         if (objArr[i] != getObjectAt(byte, bit, objAlloc)) { delete objAlloc; return false; }
 1226              		.loc 2 78 5 discriminator 3
 1227 0748 130B1B00 		addi	s6,s6,1
 1228              	.LVL161:
GAS LISTING /tmp/ccKdsjgl.s 			page 31


 1229              	.L52:
  78:src/kObjectAllocatorTest.cpp ****         if (objArr[i] != getObjectAt(byte, bit, objAlloc)) { delete objAlloc; return false; }
 1230              		.loc 2 78 26 discriminator 2
 1231 074c 93079000 		li	a5,9
 1232 0750 63E66709 		bgtu	s6,a5,.L94
 1233              	.LBB142:
  79:src/kObjectAllocatorTest.cpp ****         size_t objByte = getByteOfObject(objArr[i], objAlloc);
 1234              		.loc 2 79 9
  79:src/kObjectAllocatorTest.cpp ****         size_t objByte = getByteOfObject(objArr[i], objAlloc);
 1235              		.loc 2 79 21 is_stmt 0
 1236 0754 93173B00 		slli	a5,s6,3
 1237 0758 130704FB 		addi	a4,s0,-80
 1238 075c B307F700 		add	a5,a4,a5
 1239 0760 03BA07FB 		ld	s4,-80(a5)
  79:src/kObjectAllocatorTest.cpp ****         size_t objByte = getByteOfObject(objArr[i], objAlloc);
 1240              		.loc 2 79 37
 1241 0764 93860400 		mv	a3,s1
 1242 0768 13060900 		mv	a2,s2
 1243 076c 93850A00 		mv	a1,s5
 1244 0770 13850900 		mv	a0,s3
 1245 0774 97000000 		call	_ZN20KObjectAllocatorTest11getObjectAtEmmP16KObjectAllocator
 1245      E7800000 
 1246              	.LVL162:
  79:src/kObjectAllocatorTest.cpp ****         size_t objByte = getByteOfObject(objArr[i], objAlloc);
 1247              		.loc 2 79 9
 1248 077c E318AAE4 		bne	s4,a0,.L103
  80:src/kObjectAllocatorTest.cpp ****         size_t objBit = getBitOfObject(objArr[i], objAlloc);
 1249              		.loc 2 80 9 is_stmt 1
  80:src/kObjectAllocatorTest.cpp ****         size_t objBit = getBitOfObject(objArr[i], objAlloc);
 1250              		.loc 2 80 41 is_stmt 0
 1251 0780 13860400 		mv	a2,s1
 1252 0784 93050A00 		mv	a1,s4
 1253 0788 13850900 		mv	a0,s3
 1254 078c 97000000 		call	_ZN20KObjectAllocatorTest15getByteOfObjectEPvP16KObjectAllocator
 1254      E7800000 
 1255              	.LVL163:
 1256 0794 930B0500 		mv	s7,a0
 1257              	.LVL164:
  81:src/kObjectAllocatorTest.cpp ****         if (objByte != byte || objBit != bit) { delete objAlloc; return false; }
 1258              		.loc 2 81 9 is_stmt 1
  81:src/kObjectAllocatorTest.cpp ****         if (objByte != byte || objBit != bit) { delete objAlloc; return false; }
 1259              		.loc 2 81 39 is_stmt 0
 1260 0798 13860400 		mv	a2,s1
 1261 079c 93050A00 		mv	a1,s4
 1262 07a0 13850900 		mv	a0,s3
 1263              	.LVL165:
 1264 07a4 97000000 		call	_ZN20KObjectAllocatorTest14getBitOfObjectEPvP16KObjectAllocator
 1264      E7800000 
 1265              	.LVL166:
  82:src/kObjectAllocatorTest.cpp ****         if (!getValueOfBitAt(byte, bit, objAlloc)) { delete objAlloc; return false; }
 1266              		.loc 2 82 9 is_stmt 1
 1267 07ac E39E7AE9 		bne	s5,s7,.L58
  82:src/kObjectAllocatorTest.cpp ****         if (!getValueOfBitAt(byte, bit, objAlloc)) { delete objAlloc; return false; }
 1268              		.loc 2 82 29 is_stmt 0 discriminator 2
 1269 07b0 E31CA9E8 		bne	s2,a0,.L58
  83:src/kObjectAllocatorTest.cpp ****         if (bit == 0) { ++byte; bit = 8; } --bit;
 1270              		.loc 2 83 9 is_stmt 1
GAS LISTING /tmp/ccKdsjgl.s 			page 32


  83:src/kObjectAllocatorTest.cpp ****         if (bit == 0) { ++byte; bit = 8; } --bit;
 1271              		.loc 2 83 29 is_stmt 0
 1272 07b4 93860400 		mv	a3,s1
 1273 07b8 13060900 		mv	a2,s2
 1274 07bc 93850A00 		mv	a1,s5
 1275 07c0 13850900 		mv	a0,s3
 1276              	.LVL167:
 1277 07c4 97000000 		call	_ZN20KObjectAllocatorTest15getValueOfBitAtEmmP16KObjectAllocator
 1277      E7800000 
 1278              	.LVL168:
 1279 07cc 130A0500 		mv	s4,a0
  83:src/kObjectAllocatorTest.cpp ****         if (bit == 0) { ++byte; bit = 8; } --bit;
 1280              		.loc 2 83 9
 1281 07d0 E30A05EE 		beqz	a0,.L104
  84:src/kObjectAllocatorTest.cpp ****     }
 1282              		.loc 2 84 9 is_stmt 1
 1283 07d4 E31809F6 		bnez	s2,.L67
 1284 07d8 6FF05FF6 		j	.L105
 1285              	.LVL169:
 1286              	.L94:
 1287              	.LBE142:
 1288              	.LBE143:
 1289              	.LBB144:
  86:src/kObjectAllocatorTest.cpp ****         if (getValueOfBitAt(byte, bit, objAlloc)) { delete objAlloc; return false; }
 1290              		.loc 2 86 17 is_stmt 0
 1291 07dc 130A0000 		li	s4,0
 1292 07e0 6F000009 		j	.L53
 1293              	.LVL170:
 1294              	.L106:
  87:src/kObjectAllocatorTest.cpp ****         if (bit == 0) { ++byte; bit = 8; } --bit;
 1295              		.loc 2 87 53 is_stmt 1 discriminator 2
  87:src/kObjectAllocatorTest.cpp ****         if (bit == 0) { ++byte; bit = 8; } --bit;
 1296              		.loc 2 87 68 is_stmt 0 discriminator 2
 1297 07e4 638A0406 		beqz	s1,.L70
 1298              	.LBB145:
 1299              	.LBB146:
 1300              	.LBB147:
  68:src/../h/kObjectAllocator.hpp ****             MemoryAllocator::instance()->kmem_free(((KObjectAllocator*) p)->bitVectors[i]);
 1301              		.loc 1 68 21
 1302 07e8 13090000 		li	s2,0
 1303              	.LVL171:
 1304              	.L72:
  68:src/../h/kObjectAllocator.hpp ****             MemoryAllocator::instance()->kmem_free(((KObjectAllocator*) p)->bitVectors[i]);
 1305              		.loc 1 68 30 is_stmt 1
  68:src/../h/kObjectAllocator.hpp ****             MemoryAllocator::instance()->kmem_free(((KObjectAllocator*) p)->bitVectors[i]);
 1306              		.loc 1 68 57 is_stmt 0
 1307 07ec 83B70403 		ld	a5,48(s1)
  68:src/../h/kObjectAllocator.hpp ****             MemoryAllocator::instance()->kmem_free(((KObjectAllocator*) p)->bitVectors[i]);
 1308              		.loc 1 68 30
 1309 07f0 6376F902 		bleu	a5,s2,.L71
  69:src/../h/kObjectAllocator.hpp ****         MemoryAllocator::instance()->kmem_free(((KObjectAllocator*) p)->bitVectors);
 1310              		.loc 1 69 13 is_stmt 1
  69:src/../h/kObjectAllocator.hpp ****         MemoryAllocator::instance()->kmem_free(((KObjectAllocator*) p)->bitVectors);
 1311              		.loc 1 69 51 is_stmt 0
 1312 07f4 97000000 		call	_ZN15MemoryAllocator8instanceEv@plt
 1312      E7800000 
 1313              	.LVL172:
GAS LISTING /tmp/ccKdsjgl.s 			page 33


  69:src/../h/kObjectAllocator.hpp ****         MemoryAllocator::instance()->kmem_free(((KObjectAllocator*) p)->bitVectors);
 1314              		.loc 1 69 77
 1315 07fc 83B78402 		ld	a5,40(s1)
  69:src/../h/kObjectAllocator.hpp ****         MemoryAllocator::instance()->kmem_free(((KObjectAllocator*) p)->bitVectors);
 1316              		.loc 1 69 89
 1317 0800 13173900 		slli	a4,s2,3
 1318 0804 B387E700 		add	a5,a5,a4
  69:src/../h/kObjectAllocator.hpp ****         MemoryAllocator::instance()->kmem_free(((KObjectAllocator*) p)->bitVectors);
 1319              		.loc 1 69 51
 1320 0808 83B50700 		ld	a1,0(a5)
 1321 080c 97000000 		call	_ZN15MemoryAllocator9kmem_freeEPv@plt
 1321      E7800000 
 1322              	.LVL173:
  68:src/../h/kObjectAllocator.hpp ****             MemoryAllocator::instance()->kmem_free(((KObjectAllocator*) p)->bitVectors[i]);
 1323              		.loc 1 68 9 is_stmt 1
 1324 0814 13091900 		addi	s2,s2,1
 1325              	.LVL174:
 1326 0818 6FF05FFD 		j	.L72
 1327              	.L71:
 1328              	.LBE147:
  70:src/../h/kObjectAllocator.hpp ****         MemoryAllocator::instance()->kmem_free(((KObjectAllocator*) p)->objectVectors);
 1329              		.loc 1 70 9
  70:src/../h/kObjectAllocator.hpp ****         MemoryAllocator::instance()->kmem_free(((KObjectAllocator*) p)->objectVectors);
 1330              		.loc 1 70 47 is_stmt 0
 1331 081c 97000000 		call	_ZN15MemoryAllocator8instanceEv@plt
 1331      E7800000 
 1332              	.LVL175:
 1333 0824 83B58402 		ld	a1,40(s1)
 1334 0828 97000000 		call	_ZN15MemoryAllocator9kmem_freeEPv@plt
 1334      E7800000 
 1335              	.LVL176:
  71:src/../h/kObjectAllocator.hpp ****         MemoryAllocator::instance()->kmem_free(p);
 1336              		.loc 1 71 9 is_stmt 1
  71:src/../h/kObjectAllocator.hpp ****         MemoryAllocator::instance()->kmem_free(p);
 1337              		.loc 1 71 47 is_stmt 0
 1338 0830 97000000 		call	_ZN15MemoryAllocator8instanceEv@plt
 1338      E7800000 
 1339              	.LVL177:
 1340 0838 83B50402 		ld	a1,32(s1)
 1341 083c 97000000 		call	_ZN15MemoryAllocator9kmem_freeEPv@plt
 1341      E7800000 
 1342              	.LVL178:
  72:src/../h/kObjectAllocator.hpp ****     }
 1343              		.loc 1 72 9 is_stmt 1
  72:src/../h/kObjectAllocator.hpp ****     }
 1344              		.loc 1 72 47 is_stmt 0
 1345 0844 97000000 		call	_ZN15MemoryAllocator8instanceEv@plt
 1345      E7800000 
 1346              	.LVL179:
 1347 084c 93850400 		mv	a1,s1
 1348 0850 97000000 		call	_ZN15MemoryAllocator9kmem_freeEPv@plt
 1348      E7800000 
 1349              	.LVL180:
 1350              	.L70:
 1351              	.LBE146:
 1352              	.LBE145:
  87:src/kObjectAllocatorTest.cpp ****         if (bit == 0) { ++byte; bit = 8; } --bit;
GAS LISTING /tmp/ccKdsjgl.s 			page 34


 1353              		.loc 2 87 70 is_stmt 1 discriminator 4
  87:src/kObjectAllocatorTest.cpp ****         if (bit == 0) { ++byte; bit = 8; } --bit;
 1354              		.loc 2 87 77 is_stmt 0 discriminator 4
 1355 0858 130A0000 		li	s4,0
 1356              	.LVL181:
 1357 085c 6FF01FBF 		j	.L97
 1358              	.LVL182:
 1359              	.L107:
  88:src/kObjectAllocatorTest.cpp ****     }
 1360              		.loc 2 88 25 is_stmt 1 discriminator 1
 1361 0860 938A1A00 		addi	s5,s5,1
 1362              	.LVL183:
  88:src/kObjectAllocatorTest.cpp ****     }
 1363              		.loc 2 88 33 discriminator 1
  88:src/kObjectAllocatorTest.cpp ****     }
 1364              		.loc 2 88 37 is_stmt 0 discriminator 1
 1365 0864 13098000 		li	s2,8
 1366              	.LVL184:
 1367              	.L73:
  88:src/kObjectAllocatorTest.cpp ****     }
 1368              		.loc 2 88 44 is_stmt 1 discriminator 3
 1369 0868 1309F9FF 		addi	s2,s2,-1
 1370              	.LVL185:
  86:src/kObjectAllocatorTest.cpp ****         if (getValueOfBitAt(byte, bit, objAlloc)) { delete objAlloc; return false; }
 1371              		.loc 2 86 5 discriminator 3
 1372 086c 130A1A00 		addi	s4,s4,1
 1373              	.LVL186:
 1374              	.L53:
  86:src/kObjectAllocatorTest.cpp ****         if (getValueOfBitAt(byte, bit, objAlloc)) { delete objAlloc; return false; }
 1375              		.loc 2 86 26 discriminator 2
 1376 0870 93075000 		li	a5,5
 1377 0874 63E44703 		bgtu	s4,a5,.L68
  87:src/kObjectAllocatorTest.cpp ****         if (bit == 0) { ++byte; bit = 8; } --bit;
 1378              		.loc 2 87 9
  87:src/kObjectAllocatorTest.cpp ****         if (bit == 0) { ++byte; bit = 8; } --bit;
 1379              		.loc 2 87 28 is_stmt 0
 1380 0878 93860400 		mv	a3,s1
 1381 087c 13060900 		mv	a2,s2
 1382 0880 93850A00 		mv	a1,s5
 1383 0884 13850900 		mv	a0,s3
 1384 0888 97000000 		call	_ZN20KObjectAllocatorTest15getValueOfBitAtEmmP16KObjectAllocator
 1384      E7800000 
 1385              	.LVL187:
  87:src/kObjectAllocatorTest.cpp ****         if (bit == 0) { ++byte; bit = 8; } --bit;
 1386              		.loc 2 87 9
 1387 0890 E31A05F4 		bnez	a0,.L106
  88:src/kObjectAllocatorTest.cpp ****     }
 1388              		.loc 2 88 9 is_stmt 1
 1389 0894 E31A09FC 		bnez	s2,.L73
 1390 0898 6FF09FFC 		j	.L107
 1391              	.L68:
 1392              	.LBE144:
  90:src/kObjectAllocatorTest.cpp ****     objAlloc->freeObject(objArr[7]);
 1393              		.loc 2 90 5
  90:src/kObjectAllocatorTest.cpp ****     objAlloc->freeObject(objArr[7]);
 1394              		.loc 2 90 25 is_stmt 0
 1395 089c 833504F8 		ld	a1,-128(s0)
GAS LISTING /tmp/ccKdsjgl.s 			page 35


 1396 08a0 13850400 		mv	a0,s1
 1397 08a4 97000000 		call	_ZN16KObjectAllocator10freeObjectEPv@plt
 1397      E7800000 
 1398              	.LVL188:
  91:src/kObjectAllocatorTest.cpp ****     objAlloc->freeObject(objArr[8]);
 1399              		.loc 2 91 5 is_stmt 1
  91:src/kObjectAllocatorTest.cpp ****     objAlloc->freeObject(objArr[8]);
 1400              		.loc 2 91 25 is_stmt 0
 1401 08ac 833584F9 		ld	a1,-104(s0)
 1402 08b0 13850400 		mv	a0,s1
 1403 08b4 97000000 		call	_ZN16KObjectAllocator10freeObjectEPv@plt
 1403      E7800000 
 1404              	.LVL189:
  92:src/kObjectAllocatorTest.cpp ****     objArr[4] = objAlloc->allocateNewObject();
 1405              		.loc 2 92 5 is_stmt 1
  92:src/kObjectAllocatorTest.cpp ****     objArr[4] = objAlloc->allocateNewObject();
 1406              		.loc 2 92 25 is_stmt 0
 1407 08bc 833504FA 		ld	a1,-96(s0)
 1408 08c0 13850400 		mv	a0,s1
 1409 08c4 97000000 		call	_ZN16KObjectAllocator10freeObjectEPv@plt
 1409      E7800000 
 1410              	.LVL190:
  93:src/kObjectAllocatorTest.cpp ****     if (objArr[4] != getObjectAt(1, 7, objAlloc)) { delete objAlloc; return false; }
 1411              		.loc 2 93 5 is_stmt 1
  93:src/kObjectAllocatorTest.cpp ****     if (objArr[4] != getObjectAt(1, 7, objAlloc)) { delete objAlloc; return false; }
 1412              		.loc 2 93 44 is_stmt 0
 1413 08cc 13850400 		mv	a0,s1
 1414 08d0 97000000 		call	_ZN16KObjectAllocator17allocateNewObjectEv@plt
 1414      E7800000 
 1415              	.LVL191:
 1416 08d8 13090500 		mv	s2,a0
 1417              	.LVL192:
  94:src/kObjectAllocatorTest.cpp ****     byte = getByteOfObject(objArr[4], objAlloc);
 1418              		.loc 2 94 5 is_stmt 1
  94:src/kObjectAllocatorTest.cpp ****     byte = getByteOfObject(objArr[4], objAlloc);
 1419              		.loc 2 94 33 is_stmt 0
 1420 08dc 93860400 		mv	a3,s1
 1421 08e0 13067000 		li	a2,7
 1422 08e4 93051000 		li	a1,1
 1423 08e8 13850900 		mv	a0,s3
 1424 08ec 97000000 		call	_ZN20KObjectAllocatorTest11getObjectAtEmmP16KObjectAllocator
 1424      E7800000 
 1425              	.LVL193:
  94:src/kObjectAllocatorTest.cpp ****     byte = getByteOfObject(objArr[4], objAlloc);
 1426              		.loc 2 94 5
 1427 08f4 6300A908 		beq	s2,a0,.L74
  94:src/kObjectAllocatorTest.cpp ****     byte = getByteOfObject(objArr[4], objAlloc);
 1428              		.loc 2 94 53 is_stmt 1 discriminator 2
  94:src/kObjectAllocatorTest.cpp ****     byte = getByteOfObject(objArr[4], objAlloc);
 1429              		.loc 2 94 68 is_stmt 0 discriminator 2
 1430 08f8 638A0406 		beqz	s1,.L75
 1431              	.LBB148:
 1432              	.LBB149:
 1433              	.LBB150:
  68:src/../h/kObjectAllocator.hpp ****             MemoryAllocator::instance()->kmem_free(((KObjectAllocator*) p)->bitVectors[i]);
 1434              		.loc 1 68 21
 1435 08fc 13090000 		li	s2,0
GAS LISTING /tmp/ccKdsjgl.s 			page 36


 1436 0900 6F008002 		j	.L77
 1437              	.LVL194:
 1438              	.L108:
  69:src/../h/kObjectAllocator.hpp ****         MemoryAllocator::instance()->kmem_free(((KObjectAllocator*) p)->bitVectors);
 1439              		.loc 1 69 13 is_stmt 1
  69:src/../h/kObjectAllocator.hpp ****         MemoryAllocator::instance()->kmem_free(((KObjectAllocator*) p)->bitVectors);
 1440              		.loc 1 69 51 is_stmt 0
 1441 0904 97000000 		call	_ZN15MemoryAllocator8instanceEv@plt
 1441      E7800000 
 1442              	.LVL195:
  69:src/../h/kObjectAllocator.hpp ****         MemoryAllocator::instance()->kmem_free(((KObjectAllocator*) p)->bitVectors);
 1443              		.loc 1 69 77
 1444 090c 83B78402 		ld	a5,40(s1)
  69:src/../h/kObjectAllocator.hpp ****         MemoryAllocator::instance()->kmem_free(((KObjectAllocator*) p)->bitVectors);
 1445              		.loc 1 69 89
 1446 0910 13173900 		slli	a4,s2,3
 1447 0914 B387E700 		add	a5,a5,a4
  69:src/../h/kObjectAllocator.hpp ****         MemoryAllocator::instance()->kmem_free(((KObjectAllocator*) p)->bitVectors);
 1448              		.loc 1 69 51
 1449 0918 83B50700 		ld	a1,0(a5)
 1450 091c 97000000 		call	_ZN15MemoryAllocator9kmem_freeEPv@plt
 1450      E7800000 
 1451              	.LVL196:
  68:src/../h/kObjectAllocator.hpp ****             MemoryAllocator::instance()->kmem_free(((KObjectAllocator*) p)->bitVectors[i]);
 1452              		.loc 1 68 9 is_stmt 1
 1453 0924 13091900 		addi	s2,s2,1
 1454              	.LVL197:
 1455              	.L77:
  68:src/../h/kObjectAllocator.hpp ****             MemoryAllocator::instance()->kmem_free(((KObjectAllocator*) p)->bitVectors[i]);
 1456              		.loc 1 68 30
  68:src/../h/kObjectAllocator.hpp ****             MemoryAllocator::instance()->kmem_free(((KObjectAllocator*) p)->bitVectors[i]);
 1457              		.loc 1 68 57 is_stmt 0
 1458 0928 83B70403 		ld	a5,48(s1)
  68:src/../h/kObjectAllocator.hpp ****             MemoryAllocator::instance()->kmem_free(((KObjectAllocator*) p)->bitVectors[i]);
 1459              		.loc 1 68 30
 1460 092c E36CF9FC 		bgtu	a5,s2,.L108
 1461              	.LBE150:
  70:src/../h/kObjectAllocator.hpp ****         MemoryAllocator::instance()->kmem_free(((KObjectAllocator*) p)->objectVectors);
 1462              		.loc 1 70 9 is_stmt 1
  70:src/../h/kObjectAllocator.hpp ****         MemoryAllocator::instance()->kmem_free(((KObjectAllocator*) p)->objectVectors);
 1463              		.loc 1 70 47 is_stmt 0
 1464 0930 97000000 		call	_ZN15MemoryAllocator8instanceEv@plt
 1464      E7800000 
 1465              	.LVL198:
 1466 0938 83B58402 		ld	a1,40(s1)
 1467 093c 97000000 		call	_ZN15MemoryAllocator9kmem_freeEPv@plt
 1467      E7800000 
 1468              	.LVL199:
  71:src/../h/kObjectAllocator.hpp ****         MemoryAllocator::instance()->kmem_free(p);
 1469              		.loc 1 71 9 is_stmt 1
  71:src/../h/kObjectAllocator.hpp ****         MemoryAllocator::instance()->kmem_free(p);
 1470              		.loc 1 71 47 is_stmt 0
 1471 0944 97000000 		call	_ZN15MemoryAllocator8instanceEv@plt
 1471      E7800000 
 1472              	.LVL200:
 1473 094c 83B50402 		ld	a1,32(s1)
 1474 0950 97000000 		call	_ZN15MemoryAllocator9kmem_freeEPv@plt
GAS LISTING /tmp/ccKdsjgl.s 			page 37


 1474      E7800000 
 1475              	.LVL201:
  72:src/../h/kObjectAllocator.hpp ****     }
 1476              		.loc 1 72 9 is_stmt 1
  72:src/../h/kObjectAllocator.hpp ****     }
 1477              		.loc 1 72 47 is_stmt 0
 1478 0958 97000000 		call	_ZN15MemoryAllocator8instanceEv@plt
 1478      E7800000 
 1479              	.LVL202:
 1480 0960 93850400 		mv	a1,s1
 1481 0964 97000000 		call	_ZN15MemoryAllocator9kmem_freeEPv@plt
 1481      E7800000 
 1482              	.LVL203:
 1483              	.L75:
 1484              	.LBE149:
 1485              	.LBE148:
  94:src/kObjectAllocatorTest.cpp ****     byte = getByteOfObject(objArr[4], objAlloc);
 1486              		.loc 2 94 70 is_stmt 1 discriminator 4
  94:src/kObjectAllocatorTest.cpp ****     byte = getByteOfObject(objArr[4], objAlloc);
 1487              		.loc 2 94 77 is_stmt 0 discriminator 4
 1488 096c 130A0000 		li	s4,0
 1489              	.LVL204:
 1490 0970 6FF0DFAD 		j	.L97
 1491              	.LVL205:
 1492              	.L74:
  95:src/kObjectAllocatorTest.cpp ****     bit = getBitOfObject(objArr[4], objAlloc);
 1493              		.loc 2 95 5 is_stmt 1
  95:src/kObjectAllocatorTest.cpp ****     bit = getBitOfObject(objArr[4], objAlloc);
 1494              		.loc 2 95 27 is_stmt 0
 1495 0974 13860400 		mv	a2,s1
 1496 0978 93050900 		mv	a1,s2
 1497 097c 13850900 		mv	a0,s3
 1498 0980 97000000 		call	_ZN20KObjectAllocatorTest15getByteOfObjectEPvP16KObjectAllocator
 1498      E7800000 
 1499              	.LVL206:
 1500 0988 130A0500 		mv	s4,a0
 1501              	.LVL207:
  96:src/kObjectAllocatorTest.cpp ****     if (byte != 1 || bit != 7) { delete objAlloc; return false; }
 1502              		.loc 2 96 5 is_stmt 1
  96:src/kObjectAllocatorTest.cpp ****     if (byte != 1 || bit != 7) { delete objAlloc; return false; }
 1503              		.loc 2 96 25 is_stmt 0
 1504 098c 13860400 		mv	a2,s1
 1505 0990 93050900 		mv	a1,s2
 1506 0994 13850900 		mv	a0,s3
 1507              	.LVL208:
 1508 0998 97000000 		call	_ZN20KObjectAllocatorTest14getBitOfObjectEPvP16KObjectAllocator
 1508      E7800000 
 1509              	.LVL209:
 1510 09a0 13090500 		mv	s2,a0
 1511              	.LVL210:
  97:src/kObjectAllocatorTest.cpp ****     bool expectedBitValues[16] = {
 1512              		.loc 2 97 5 is_stmt 1
 1513 09a4 93071000 		li	a5,1
 1514 09a8 6316FA00 		bne	s4,a5,.L78
  97:src/kObjectAllocatorTest.cpp ****     bool expectedBitValues[16] = {
 1515              		.loc 2 97 19 is_stmt 0 discriminator 2
 1516 09ac 93077000 		li	a5,7
GAS LISTING /tmp/ccKdsjgl.s 			page 38


 1517 09b0 6300F508 		beq	a0,a5,.L79
 1518              	.L78:
  97:src/kObjectAllocatorTest.cpp ****     bool expectedBitValues[16] = {
 1519              		.loc 2 97 34 is_stmt 1 discriminator 3
  97:src/kObjectAllocatorTest.cpp ****     bool expectedBitValues[16] = {
 1520              		.loc 2 97 49 is_stmt 0 discriminator 3
 1521 09b4 638A0406 		beqz	s1,.L80
 1522              	.LBB151:
 1523              	.LBB152:
 1524              	.LBB153:
  68:src/../h/kObjectAllocator.hpp ****             MemoryAllocator::instance()->kmem_free(((KObjectAllocator*) p)->bitVectors[i]);
 1525              		.loc 1 68 21
 1526 09b8 13090000 		li	s2,0
 1527 09bc 6F008002 		j	.L82
 1528              	.LVL211:
 1529              	.L109:
  69:src/../h/kObjectAllocator.hpp ****         MemoryAllocator::instance()->kmem_free(((KObjectAllocator*) p)->bitVectors);
 1530              		.loc 1 69 13 is_stmt 1
  69:src/../h/kObjectAllocator.hpp ****         MemoryAllocator::instance()->kmem_free(((KObjectAllocator*) p)->bitVectors);
 1531              		.loc 1 69 51 is_stmt 0
 1532 09c0 97000000 		call	_ZN15MemoryAllocator8instanceEv@plt
 1532      E7800000 
 1533              	.LVL212:
  69:src/../h/kObjectAllocator.hpp ****         MemoryAllocator::instance()->kmem_free(((KObjectAllocator*) p)->bitVectors);
 1534              		.loc 1 69 77
 1535 09c8 83B78402 		ld	a5,40(s1)
  69:src/../h/kObjectAllocator.hpp ****         MemoryAllocator::instance()->kmem_free(((KObjectAllocator*) p)->bitVectors);
 1536              		.loc 1 69 89
 1537 09cc 13173900 		slli	a4,s2,3
 1538 09d0 B387E700 		add	a5,a5,a4
  69:src/../h/kObjectAllocator.hpp ****         MemoryAllocator::instance()->kmem_free(((KObjectAllocator*) p)->bitVectors);
 1539              		.loc 1 69 51
 1540 09d4 83B50700 		ld	a1,0(a5)
 1541 09d8 97000000 		call	_ZN15MemoryAllocator9kmem_freeEPv@plt
 1541      E7800000 
 1542              	.LVL213:
  68:src/../h/kObjectAllocator.hpp ****             MemoryAllocator::instance()->kmem_free(((KObjectAllocator*) p)->bitVectors[i]);
 1543              		.loc 1 68 9 is_stmt 1
 1544 09e0 13091900 		addi	s2,s2,1
 1545              	.LVL214:
 1546              	.L82:
  68:src/../h/kObjectAllocator.hpp ****             MemoryAllocator::instance()->kmem_free(((KObjectAllocator*) p)->bitVectors[i]);
 1547              		.loc 1 68 30
  68:src/../h/kObjectAllocator.hpp ****             MemoryAllocator::instance()->kmem_free(((KObjectAllocator*) p)->bitVectors[i]);
 1548              		.loc 1 68 57 is_stmt 0
 1549 09e4 83B70403 		ld	a5,48(s1)
  68:src/../h/kObjectAllocator.hpp ****             MemoryAllocator::instance()->kmem_free(((KObjectAllocator*) p)->bitVectors[i]);
 1550              		.loc 1 68 30
 1551 09e8 E36CF9FC 		bgtu	a5,s2,.L109
 1552              	.LBE153:
  70:src/../h/kObjectAllocator.hpp ****         MemoryAllocator::instance()->kmem_free(((KObjectAllocator*) p)->objectVectors);
 1553              		.loc 1 70 9 is_stmt 1
  70:src/../h/kObjectAllocator.hpp ****         MemoryAllocator::instance()->kmem_free(((KObjectAllocator*) p)->objectVectors);
 1554              		.loc 1 70 47 is_stmt 0
 1555 09ec 97000000 		call	_ZN15MemoryAllocator8instanceEv@plt
 1555      E7800000 
 1556              	.LVL215:
GAS LISTING /tmp/ccKdsjgl.s 			page 39


 1557 09f4 83B58402 		ld	a1,40(s1)
 1558 09f8 97000000 		call	_ZN15MemoryAllocator9kmem_freeEPv@plt
 1558      E7800000 
 1559              	.LVL216:
  71:src/../h/kObjectAllocator.hpp ****         MemoryAllocator::instance()->kmem_free(p);
 1560              		.loc 1 71 9 is_stmt 1
  71:src/../h/kObjectAllocator.hpp ****         MemoryAllocator::instance()->kmem_free(p);
 1561              		.loc 1 71 47 is_stmt 0
 1562 0a00 97000000 		call	_ZN15MemoryAllocator8instanceEv@plt
 1562      E7800000 
 1563              	.LVL217:
 1564 0a08 83B50402 		ld	a1,32(s1)
 1565 0a0c 97000000 		call	_ZN15MemoryAllocator9kmem_freeEPv@plt
 1565      E7800000 
 1566              	.LVL218:
  72:src/../h/kObjectAllocator.hpp ****     }
 1567              		.loc 1 72 9 is_stmt 1
  72:src/../h/kObjectAllocator.hpp ****     }
 1568              		.loc 1 72 47 is_stmt 0
 1569 0a14 97000000 		call	_ZN15MemoryAllocator8instanceEv@plt
 1569      E7800000 
 1570              	.LVL219:
 1571 0a1c 93850400 		mv	a1,s1
 1572 0a20 97000000 		call	_ZN15MemoryAllocator9kmem_freeEPv@plt
 1572      E7800000 
 1573              	.LVL220:
 1574              	.L80:
 1575              	.LBE152:
 1576              	.LBE151:
  97:src/kObjectAllocatorTest.cpp ****     bool expectedBitValues[16] = {
 1577              		.loc 2 97 51 is_stmt 1 discriminator 5
  97:src/kObjectAllocatorTest.cpp ****     bool expectedBitValues[16] = {
 1578              		.loc 2 97 58 is_stmt 0 discriminator 5
 1579 0a28 130A0000 		li	s4,0
 1580              	.LVL221:
 1581 0a2c 6FF01FA2 		j	.L97
 1582              	.LVL222:
 1583              	.L79:
  98:src/kObjectAllocatorTest.cpp ****             true, true, true, true, false, true, true, false,
 1584              		.loc 2 98 5 is_stmt 1
  98:src/kObjectAllocatorTest.cpp ****             true, true, true, true, false, true, true, false,
 1585              		.loc 2 98 10 is_stmt 0
 1586 0a30 97070000 		lla	a5,.LANCHOR0
 1586      93870700 
 1587 0a38 03B70700 		ld	a4,0(a5)
 1588 0a3c 2338E4F4 		sd	a4,-176(s0)
 1589 0a40 83B78700 		ld	a5,8(a5)
 1590 0a44 233CF4F4 		sd	a5,-168(s0)
 102:src/kObjectAllocatorTest.cpp ****     for (size_t i = 0; i < 16; ++i) {
 1591              		.loc 2 102 5 is_stmt 1
 1592              	.LVL223:
 102:src/kObjectAllocatorTest.cpp ****     for (size_t i = 0; i < 16; ++i) {
 1593              		.loc 2 102 15
 103:src/kObjectAllocatorTest.cpp ****         if (expectedBitValues[i] != getValueOfBitAt(byte, bit, objAlloc))
 1594              		.loc 2 103 5
 1595              	.LBB154:
 103:src/kObjectAllocatorTest.cpp ****         if (expectedBitValues[i] != getValueOfBitAt(byte, bit, objAlloc))
GAS LISTING /tmp/ccKdsjgl.s 			page 40


 1596              		.loc 2 103 17 is_stmt 0
 1597 0a48 130A0000 		li	s4,0
 1598              	.LBE154:
 102:src/kObjectAllocatorTest.cpp ****     for (size_t i = 0; i < 16; ++i) {
 1599              		.loc 2 102 10
 1600 0a4c 930A0000 		li	s5,0
 1601 0a50 6F00C002 		j	.L87
 1602              	.LVL224:
 1603              	.L110:
 1604              	.LBB155:
 105:src/kObjectAllocatorTest.cpp ****     }
 1605              		.loc 2 105 15 is_stmt 1
 105:src/kObjectAllocatorTest.cpp ****     }
 1606              		.loc 2 105 30 is_stmt 0
 1607 0a54 63880400 		beqz	s1,.L85
 105:src/kObjectAllocatorTest.cpp ****     }
 1608              		.loc 2 105 22 discriminator 1
 1609 0a58 13850400 		mv	a0,s1
 1610 0a5c 97000000 		call	_ZN16KObjectAllocatordlEPv
 1610      E7800000 
 1611              	.LVL225:
 1612              	.L85:
 105:src/kObjectAllocatorTest.cpp ****     }
 1613              		.loc 2 105 32 is_stmt 1 discriminator 2
 105:src/kObjectAllocatorTest.cpp ****     }
 1614              		.loc 2 105 39 is_stmt 0 discriminator 2
 1615 0a64 130A0000 		li	s4,0
 1616              	.LVL226:
 1617 0a68 6FF05F9E 		j	.L97
 1618              	.LVL227:
 1619              	.L111:
 105:src/kObjectAllocatorTest.cpp ****     }
 1620              		.loc 2 105 64 is_stmt 1 discriminator 3
 1621 0a6c 938A1A00 		addi	s5,s5,1
 1622              	.LVL228:
 105:src/kObjectAllocatorTest.cpp ****     }
 1623              		.loc 2 105 72 discriminator 3
 105:src/kObjectAllocatorTest.cpp ****     }
 1624              		.loc 2 105 76 is_stmt 0 discriminator 3
 1625 0a70 13098000 		li	s2,8
 1626              	.LVL229:
 1627              	.L86:
 105:src/kObjectAllocatorTest.cpp ****     }
 1628              		.loc 2 105 83 is_stmt 1 discriminator 5
 1629 0a74 1309F9FF 		addi	s2,s2,-1
 1630              	.LVL230:
 103:src/kObjectAllocatorTest.cpp ****         if (expectedBitValues[i] != getValueOfBitAt(byte, bit, objAlloc))
 1631              		.loc 2 103 5 discriminator 5
 1632 0a78 130A1A00 		addi	s4,s4,1
 1633              	.LVL231:
 1634              	.L87:
 103:src/kObjectAllocatorTest.cpp ****         if (expectedBitValues[i] != getValueOfBitAt(byte, bit, objAlloc))
 1635              		.loc 2 103 26 discriminator 2
 1636 0a7c 9307F000 		li	a5,15
 1637 0a80 63EA4703 		bgtu	s4,a5,.L83
 104:src/kObjectAllocatorTest.cpp ****             { delete objAlloc; return false; } if (bit == 0) { ++byte; bit = 8; } --bit;
 1638              		.loc 2 104 9
GAS LISTING /tmp/ccKdsjgl.s 			page 41


 104:src/kObjectAllocatorTest.cpp ****             { delete objAlloc; return false; } if (bit == 0) { ++byte; bit = 8; } --bit;
 1639              		.loc 2 104 32 is_stmt 0
 1640 0a84 930704FB 		addi	a5,s0,-80
 1641 0a88 B3874701 		add	a5,a5,s4
 1642 0a8c 03CB07FA 		lbu	s6,-96(a5)
 104:src/kObjectAllocatorTest.cpp ****             { delete objAlloc; return false; } if (bit == 0) { ++byte; bit = 8; } --bit;
 1643              		.loc 2 104 52
 1644 0a90 93860400 		mv	a3,s1
 1645 0a94 13060900 		mv	a2,s2
 1646 0a98 93850A00 		mv	a1,s5
 1647 0a9c 13850900 		mv	a0,s3
 1648 0aa0 97000000 		call	_ZN20KObjectAllocatorTest15getValueOfBitAtEmmP16KObjectAllocator
 1648      E7800000 
 1649              	.LVL232:
 104:src/kObjectAllocatorTest.cpp ****             { delete objAlloc; return false; } if (bit == 0) { ++byte; bit = 8; } --bit;
 1650              		.loc 2 104 9
 1651 0aa8 E316ABFA 		bne	s6,a0,.L110
 105:src/kObjectAllocatorTest.cpp ****     }
 1652              		.loc 2 105 48 is_stmt 1
 1653 0aac E31409FC 		bnez	s2,.L86
 1654 0ab0 6FF0DFFB 		j	.L111
 1655              	.L83:
 1656              	.LBE155:
 107:src/kObjectAllocatorTest.cpp ****     return true;
 1657              		.loc 2 107 5
 107:src/kObjectAllocatorTest.cpp ****     return true;
 1658              		.loc 2 107 20 is_stmt 0
 1659 0ab4 638E0406 		beqz	s1,.L95
 1660              	.LBB156:
 1661              	.LBB157:
 1662              	.LBB158:
  68:src/../h/kObjectAllocator.hpp ****             MemoryAllocator::instance()->kmem_free(((KObjectAllocator*) p)->bitVectors[i]);
 1663              		.loc 1 68 21
 1664 0ab8 13090000 		li	s2,0
 1665              	.LVL233:
 1666 0abc 6F008002 		j	.L89
 1667              	.LVL234:
 1668              	.L112:
  69:src/../h/kObjectAllocator.hpp ****         MemoryAllocator::instance()->kmem_free(((KObjectAllocator*) p)->bitVectors);
 1669              		.loc 1 69 13 is_stmt 1
  69:src/../h/kObjectAllocator.hpp ****         MemoryAllocator::instance()->kmem_free(((KObjectAllocator*) p)->bitVectors);
 1670              		.loc 1 69 51 is_stmt 0
 1671 0ac0 97000000 		call	_ZN15MemoryAllocator8instanceEv@plt
 1671      E7800000 
 1672              	.LVL235:
  69:src/../h/kObjectAllocator.hpp ****         MemoryAllocator::instance()->kmem_free(((KObjectAllocator*) p)->bitVectors);
 1673              		.loc 1 69 77
 1674 0ac8 83B78402 		ld	a5,40(s1)
  69:src/../h/kObjectAllocator.hpp ****         MemoryAllocator::instance()->kmem_free(((KObjectAllocator*) p)->bitVectors);
 1675              		.loc 1 69 89
 1676 0acc 13173900 		slli	a4,s2,3
 1677 0ad0 B387E700 		add	a5,a5,a4
  69:src/../h/kObjectAllocator.hpp ****         MemoryAllocator::instance()->kmem_free(((KObjectAllocator*) p)->bitVectors);
 1678              		.loc 1 69 51
 1679 0ad4 83B50700 		ld	a1,0(a5)
 1680 0ad8 97000000 		call	_ZN15MemoryAllocator9kmem_freeEPv@plt
 1680      E7800000 
GAS LISTING /tmp/ccKdsjgl.s 			page 42


 1681              	.LVL236:
  68:src/../h/kObjectAllocator.hpp ****             MemoryAllocator::instance()->kmem_free(((KObjectAllocator*) p)->bitVectors[i]);
 1682              		.loc 1 68 9 is_stmt 1
 1683 0ae0 13091900 		addi	s2,s2,1
 1684              	.LVL237:
 1685              	.L89:
  68:src/../h/kObjectAllocator.hpp ****             MemoryAllocator::instance()->kmem_free(((KObjectAllocator*) p)->bitVectors[i]);
 1686              		.loc 1 68 30
  68:src/../h/kObjectAllocator.hpp ****             MemoryAllocator::instance()->kmem_free(((KObjectAllocator*) p)->bitVectors[i]);
 1687              		.loc 1 68 57 is_stmt 0
 1688 0ae4 83B70403 		ld	a5,48(s1)
  68:src/../h/kObjectAllocator.hpp ****             MemoryAllocator::instance()->kmem_free(((KObjectAllocator*) p)->bitVectors[i]);
 1689              		.loc 1 68 30
 1690 0ae8 E36CF9FC 		bgtu	a5,s2,.L112
 1691              	.LBE158:
  70:src/../h/kObjectAllocator.hpp ****         MemoryAllocator::instance()->kmem_free(((KObjectAllocator*) p)->objectVectors);
 1692              		.loc 1 70 9 is_stmt 1
  70:src/../h/kObjectAllocator.hpp ****         MemoryAllocator::instance()->kmem_free(((KObjectAllocator*) p)->objectVectors);
 1693              		.loc 1 70 47 is_stmt 0
 1694 0aec 97000000 		call	_ZN15MemoryAllocator8instanceEv@plt
 1694      E7800000 
 1695              	.LVL238:
 1696 0af4 83B58402 		ld	a1,40(s1)
 1697 0af8 97000000 		call	_ZN15MemoryAllocator9kmem_freeEPv@plt
 1697      E7800000 
 1698              	.LVL239:
  71:src/../h/kObjectAllocator.hpp ****         MemoryAllocator::instance()->kmem_free(p);
 1699              		.loc 1 71 9 is_stmt 1
  71:src/../h/kObjectAllocator.hpp ****         MemoryAllocator::instance()->kmem_free(p);
 1700              		.loc 1 71 47 is_stmt 0
 1701 0b00 97000000 		call	_ZN15MemoryAllocator8instanceEv@plt
 1701      E7800000 
 1702              	.LVL240:
 1703 0b08 83B50402 		ld	a1,32(s1)
 1704 0b0c 97000000 		call	_ZN15MemoryAllocator9kmem_freeEPv@plt
 1704      E7800000 
 1705              	.LVL241:
  72:src/../h/kObjectAllocator.hpp ****     }
 1706              		.loc 1 72 9 is_stmt 1
  72:src/../h/kObjectAllocator.hpp ****     }
 1707              		.loc 1 72 47 is_stmt 0
 1708 0b14 97000000 		call	_ZN15MemoryAllocator8instanceEv@plt
 1708      E7800000 
 1709              	.LVL242:
 1710 0b1c 93850400 		mv	a1,s1
 1711 0b20 97000000 		call	_ZN15MemoryAllocator9kmem_freeEPv@plt
 1711      E7800000 
 1712              	.LVL243:
 1713              	.LEHE2:
 1714              	.LBE157:
 1715              	.LBE156:
 108:src/kObjectAllocatorTest.cpp **** }
 1716              		.loc 2 108 12
 1717 0b28 130A1000 		li	s4,1
 1718              	.LVL244:
 1719              	.LBB160:
 1720              	.LBB159:
GAS LISTING /tmp/ccKdsjgl.s 			page 43


  73:src/../h/kObjectAllocator.hpp ****     void printInternalMemory();
 1721              		.loc 1 73 5
 1722 0b2c 6FF01F92 		j	.L97
 1723              	.LVL245:
 1724              	.L95:
 1725              	.LBE159:
 1726              	.LBE160:
 108:src/kObjectAllocatorTest.cpp **** }
 1727              		.loc 2 108 12
 1728 0b30 130A1000 		li	s4,1
 1729              	.LVL246:
 1730 0b34 6FF09F91 		j	.L97
 1731              	.LVL247:
 1732              	.L96:
 1733 0b38 13090500 		mv	s2,a0
 1734              	.LVL248:
  72:src/kObjectAllocatorTest.cpp ****     if (objAlloc->getNumberOfObjects() != 16) { delete objAlloc; return false; }
 1735              		.loc 2 72 62
 1736 0b3c 13850400 		mv	a0,s1
 1737 0b40 97000000 		call	_ZN16KObjectAllocatordlEPv
 1737      E7800000 
 1738              	.LVL249:
 1739 0b48 13050900 		mv	a0,s2
 1740              	.LEHB3:
 1741 0b4c 97000000 		call	_Unwind_Resume@plt
 1741      E7800000 
 1742              	.LVL250:
 1743              	.LEHE3:
 1744              		.cfi_endproc
 1745              	.LFE27:
 1746              		.globl	__gxx_personality_v0
 1747              		.section	.gcc_except_table,"a",@progbits
 1748              	.LLSDA27:
 1749 0000 FF       		.byte	0xff
 1750 0001 FF       		.byte	0xff
 1751 0002 03       		.byte	0x3
 1752 0003 34       		.byte	0x34
 1753 0004 00000000 		.4byte	.LEHB0-.LFB27
 1754 0008 00000000 		.4byte	.LEHE0-.LEHB0
 1755 000c 00000000 		.4byte	0
 1756 0010 00       		.byte	0
 1757 0011 00000000 		.4byte	.LEHB1-.LFB27
 1758 0015 00000000 		.4byte	.LEHE1-.LEHB1
 1759 0019 00000000 		.4byte	.L96-.LFB27
 1760 001d 00       		.byte	0
 1761 001e 00000000 		.4byte	.LEHB2-.LFB27
 1762 0022 00000000 		.4byte	.LEHE2-.LEHB2
 1763 0026 00000000 		.4byte	0
 1764 002a 00       		.byte	0
 1765 002b 00000000 		.4byte	.LEHB3-.LFB27
 1766 002f 00000000 		.4byte	.LEHE3-.LEHB3
 1767 0033 00000000 		.4byte	0
 1768 0037 00       		.byte	0
 1769              		.text
 1771              		.align	2
 1772              		.globl	_ZN20KObjectAllocatorTest5test1Em
 1774              	_ZN20KObjectAllocatorTest5test1Em:
GAS LISTING /tmp/ccKdsjgl.s 			page 44


 1775              	.LFB28:
 110:src/kObjectAllocatorTest.cpp **** 
 111:src/kObjectAllocatorTest.cpp **** bool KObjectAllocatorTest::test1(size_t size) {
 1776              		.loc 2 111 47 is_stmt 1
 1777              		.cfi_startproc
 1778              		.cfi_personality 0x9b,DW.ref.__gxx_personality_v0
 1779              		.cfi_lsda 0x1b,.LLSDA28
 1780              	.LVL251:
 1781 0b54 13010181 		addi	sp,sp,-2032
 1782              		.cfi_def_cfa_offset 2032
 1783 0b58 2334117E 		sd	ra,2024(sp)
 1784 0b5c 2330817E 		sd	s0,2016(sp)
 1785 0b60 233C917C 		sd	s1,2008(sp)
 1786 0b64 2338217D 		sd	s2,2000(sp)
 1787 0b68 2334317D 		sd	s3,1992(sp)
 1788 0b6c 2330417D 		sd	s4,1984(sp)
 1789 0b70 233C517B 		sd	s5,1976(sp)
 1790              		.cfi_offset 1, -8
 1791              		.cfi_offset 8, -16
 1792              		.cfi_offset 9, -24
 1793              		.cfi_offset 18, -32
 1794              		.cfi_offset 19, -40
 1795              		.cfi_offset 20, -48
 1796              		.cfi_offset 21, -56
 1797 0b74 1304017F 		addi	s0,sp,2032
 1798              		.cfi_def_cfa 8, 0
 1799 0b78 130101DB 		addi	sp,sp,-592
 1800 0b7c 93090500 		mv	s3,a0
 1801 0b80 13890500 		mv	s2,a1
 112:src/kObjectAllocatorTest.cpp ****     KObjectAllocator* objAlloc = new KObjectAllocator(size);
 1802              		.loc 2 112 5
 1803              	.LVL252:
 1804              	.LBB201:
 1805              	.LBB202:
  65:src/../h/kObjectAllocator.hpp ****     }
 1806              		.loc 1 65 9
 1807              	.LEHB4:
  65:src/../h/kObjectAllocator.hpp ****     }
 1808              		.loc 1 65 55 is_stmt 0
 1809 0b84 97000000 		call	_ZN15MemoryAllocator8instanceEv@plt
 1809      E7800000 
 1810              	.LVL253:
 1811 0b8c 93050004 		li	a1,64
 1812 0b90 97000000 		call	_ZN15MemoryAllocator10kmem_allocEm@plt
 1812      E7800000 
 1813              	.LVL254:
 1814              	.LEHE4:
 1815 0b98 93040500 		mv	s1,a0
 1816              	.LVL255:
 1817              	.LBE202:
 1818              	.LBE201:
 1819              	.LBB203:
 1820              	.LBB204:
 1821              	.LBB205:
  51:src/../h/kObjectAllocator.hpp ****         bitVectors = (uint8**) MemoryAllocator::instance()->kmem_alloc(numberOfAllocations * sizeof
 1822              		.loc 1 51 120
 1823 0b9c 93070014 		li	a5,320
GAS LISTING /tmp/ccKdsjgl.s 			page 45


 1824 0ba0 2330F500 		sd	a5,0(a0)
 1825 0ba4 2334F500 		sd	a5,8(a0)
 1826 0ba8 233C2501 		sd	s2,24(a0)
 1827 0bac 93071000 		li	a5,1
 1828 0bb0 2338F502 		sd	a5,48(a0)
 1829 0bb4 233C0502 		sd	zero,56(a0)
 1830              	.LBB206:
  52:src/../h/kObjectAllocator.hpp ****         objectVectors = (uint8**) MemoryAllocator::instance()->kmem_alloc(numberOfAllocations * siz
 1831              		.loc 1 52 9 is_stmt 1
 1832              	.LEHB5:
  52:src/../h/kObjectAllocator.hpp ****         objectVectors = (uint8**) MemoryAllocator::instance()->kmem_alloc(numberOfAllocations * siz
 1833              		.loc 1 52 71 is_stmt 0
 1834 0bb8 97000000 		call	_ZN15MemoryAllocator8instanceEv@plt
 1834      E7800000 
 1835              	.LVL256:
  52:src/../h/kObjectAllocator.hpp ****         objectVectors = (uint8**) MemoryAllocator::instance()->kmem_alloc(numberOfAllocations * siz
 1836              		.loc 1 52 72
 1837 0bc0 83B50403 		ld	a1,48(s1)
  52:src/../h/kObjectAllocator.hpp ****         objectVectors = (uint8**) MemoryAllocator::instance()->kmem_alloc(numberOfAllocations * siz
 1838              		.loc 1 52 71
 1839 0bc4 93953500 		slli	a1,a1,3
 1840 0bc8 97000000 		call	_ZN15MemoryAllocator10kmem_allocEm@plt
 1840      E7800000 
 1841              	.LVL257:
  52:src/../h/kObjectAllocator.hpp ****         objectVectors = (uint8**) MemoryAllocator::instance()->kmem_alloc(numberOfAllocations * siz
 1842              		.loc 1 52 20
 1843 0bd0 23B4A402 		sd	a0,40(s1)
  53:src/../h/kObjectAllocator.hpp ****         initialNumberOfObjects = numberOfObjects = numberOfObjects / 8 * 8 + 8 * (numberOfObjects /
 1844              		.loc 1 53 9 is_stmt 1
  53:src/../h/kObjectAllocator.hpp ****         initialNumberOfObjects = numberOfObjects = numberOfObjects / 8 * 8 + 8 * (numberOfObjects /
 1845              		.loc 1 53 74 is_stmt 0
 1846 0bd4 97000000 		call	_ZN15MemoryAllocator8instanceEv@plt
 1846      E7800000 
 1847              	.LVL258:
  53:src/../h/kObjectAllocator.hpp ****         initialNumberOfObjects = numberOfObjects = numberOfObjects / 8 * 8 + 8 * (numberOfObjects /
 1848              		.loc 1 53 75
 1849 0bdc 83B50403 		ld	a1,48(s1)
  53:src/../h/kObjectAllocator.hpp ****         initialNumberOfObjects = numberOfObjects = numberOfObjects / 8 * 8 + 8 * (numberOfObjects /
 1850              		.loc 1 53 74
 1851 0be0 93953500 		slli	a1,a1,3
 1852 0be4 97000000 		call	_ZN15MemoryAllocator10kmem_allocEm@plt
 1852      E7800000 
 1853              	.LVL259:
  53:src/../h/kObjectAllocator.hpp ****         initialNumberOfObjects = numberOfObjects = numberOfObjects / 8 * 8 + 8 * (numberOfObjects /
 1854              		.loc 1 53 23
 1855 0bec 23B0A402 		sd	a0,32(s1)
  54:src/../h/kObjectAllocator.hpp ****         // one bit for each object which indicates whether memory
 1856              		.loc 1 54 9 is_stmt 1
  54:src/../h/kObjectAllocator.hpp ****         // one bit for each object which indicates whether memory
 1857              		.loc 1 54 52 is_stmt 0
 1858 0bf0 03B78400 		ld	a4,8(s1)
  54:src/../h/kObjectAllocator.hpp ****         // one bit for each object which indicates whether memory
 1859              		.loc 1 54 72
 1860 0bf4 937787FF 		andi	a5,a4,-8
  54:src/../h/kObjectAllocator.hpp ****         // one bit for each object which indicates whether memory
 1861              		.loc 1 54 80
 1862 0bf8 6304F702 		beq	a4,a5,.L183
GAS LISTING /tmp/ccKdsjgl.s 			page 46


 1863 0bfc 13078000 		li	a4,8
 1864              	.L114:
  54:src/../h/kObjectAllocator.hpp ****         // one bit for each object which indicates whether memory
 1865              		.loc 1 54 76
 1866 0c00 B387E700 		add	a5,a5,a4
  54:src/../h/kObjectAllocator.hpp ****         // one bit for each object which indicates whether memory
 1867              		.loc 1 54 50
 1868 0c04 23B4F400 		sd	a5,8(s1)
  54:src/../h/kObjectAllocator.hpp ****         // one bit for each object which indicates whether memory
 1869              		.loc 1 54 32
 1870 0c08 23B0F400 		sd	a5,0(s1)
  57:src/../h/kObjectAllocator.hpp ****         bitVectors[0] = (uint8*) MemoryAllocator::instance()->kmem_alloc(
 1871              		.loc 1 57 9 is_stmt 1
  57:src/../h/kObjectAllocator.hpp ****         bitVectors[0] = (uint8*) MemoryAllocator::instance()->kmem_alloc(
 1872              		.loc 1 57 45 is_stmt 0
 1873 0c0c 93D73700 		srli	a5,a5,3
  57:src/../h/kObjectAllocator.hpp ****         bitVectors[0] = (uint8*) MemoryAllocator::instance()->kmem_alloc(
 1874              		.loc 1 57 27
 1875 0c10 23B8F400 		sd	a5,16(s1)
  58:src/../h/kObjectAllocator.hpp ****                 memorySizeForBits + initialNumberOfObjects * objectSize
 1876              		.loc 1 58 9 is_stmt 1
  58:src/../h/kObjectAllocator.hpp ****                 memorySizeForBits + initialNumberOfObjects * objectSize
 1877              		.loc 1 58 73 is_stmt 0
 1878 0c14 97000000 		call	_ZN15MemoryAllocator8instanceEv@plt
 1878      E7800000 
 1879              	.LVL260:
 1880 0c1c 6F00C000 		j	.L195
 1881              	.L183:
  54:src/../h/kObjectAllocator.hpp ****         // one bit for each object which indicates whether memory
 1882              		.loc 1 54 80
 1883 0c20 13070000 		li	a4,0
 1884 0c24 6FF0DFFD 		j	.L114
 1885              	.L195:
  59:src/../h/kObjectAllocator.hpp ****         );
 1886              		.loc 1 59 17
 1887 0c28 83B50401 		ld	a1,16(s1)
  59:src/../h/kObjectAllocator.hpp ****         );
 1888              		.loc 1 59 37
 1889 0c2c 83B70400 		ld	a5,0(s1)
  59:src/../h/kObjectAllocator.hpp ****         );
 1890              		.loc 1 59 60
 1891 0c30 B307F902 		mul	a5,s2,a5
  58:src/../h/kObjectAllocator.hpp ****                 memorySizeForBits + initialNumberOfObjects * objectSize
 1892              		.loc 1 58 9
 1893 0c34 03BA8402 		ld	s4,40(s1)
  58:src/../h/kObjectAllocator.hpp ****                 memorySizeForBits + initialNumberOfObjects * objectSize
 1894              		.loc 1 58 73
 1895 0c38 B385F500 		add	a1,a1,a5
 1896 0c3c 97000000 		call	_ZN15MemoryAllocator10kmem_allocEm@plt
 1896      E7800000 
 1897              	.LVL261:
 1898              	.LEHE5:
  58:src/../h/kObjectAllocator.hpp ****                 memorySizeForBits + initialNumberOfObjects * objectSize
 1899              		.loc 1 58 23
 1900 0c44 2330AA00 		sd	a0,0(s4)
  61:src/../h/kObjectAllocator.hpp ****         for (size_t i = 0; i < memorySizeForBits; bitVectors[0][i++] = 0);
 1901              		.loc 1 61 9 is_stmt 1
GAS LISTING /tmp/ccKdsjgl.s 			page 47


  61:src/../h/kObjectAllocator.hpp ****         for (size_t i = 0; i < memorySizeForBits; bitVectors[0][i++] = 0);
 1902              		.loc 1 61 28 is_stmt 0
 1903 0c48 83B78402 		ld	a5,40(s1)
  61:src/../h/kObjectAllocator.hpp ****         for (size_t i = 0; i < memorySizeForBits; bitVectors[0][i++] = 0);
 1904              		.loc 1 61 40
 1905 0c4c 83B70700 		ld	a5,0(a5)
  61:src/../h/kObjectAllocator.hpp ****         for (size_t i = 0; i < memorySizeForBits; bitVectors[0][i++] = 0);
 1906              		.loc 1 61 44
 1907 0c50 83B60401 		ld	a3,16(s1)
  61:src/../h/kObjectAllocator.hpp ****         for (size_t i = 0; i < memorySizeForBits; bitVectors[0][i++] = 0);
 1908              		.loc 1 61 9
 1909 0c54 03B70402 		ld	a4,32(s1)
  61:src/../h/kObjectAllocator.hpp ****         for (size_t i = 0; i < memorySizeForBits; bitVectors[0][i++] = 0);
 1910              		.loc 1 61 42
 1911 0c58 B387D700 		add	a5,a5,a3
  61:src/../h/kObjectAllocator.hpp ****         for (size_t i = 0; i < memorySizeForBits; bitVectors[0][i++] = 0);
 1912              		.loc 1 61 26
 1913 0c5c 2330F700 		sd	a5,0(a4)
  62:src/../h/kObjectAllocator.hpp ****     }
 1914              		.loc 1 62 9 is_stmt 1
 1915              	.LVL262:
 1916              	.LBB207:
  62:src/../h/kObjectAllocator.hpp ****     }
 1917              		.loc 1 62 21 is_stmt 0
 1918 0c60 93070000 		li	a5,0
 1919              	.LVL263:
 1920              	.L116:
  62:src/../h/kObjectAllocator.hpp ****     }
 1921              		.loc 1 62 30 is_stmt 1
  62:src/../h/kObjectAllocator.hpp ****     }
 1922              		.loc 1 62 32 is_stmt 0
 1923 0c64 03B70401 		ld	a4,16(s1)
  62:src/../h/kObjectAllocator.hpp ****     }
 1924              		.loc 1 62 30
 1925 0c68 63FEE700 		bleu	a4,a5,.L115
  62:src/../h/kObjectAllocator.hpp ****     }
 1926              		.loc 1 62 9 is_stmt 1
  62:src/../h/kObjectAllocator.hpp ****     }
 1927              		.loc 1 62 51 is_stmt 0
 1928 0c6c 03B78402 		ld	a4,40(s1)
  62:src/../h/kObjectAllocator.hpp ****     }
 1929              		.loc 1 62 63
 1930 0c70 03370700 		ld	a4,0(a4)
 1931              	.LVL264:
  62:src/../h/kObjectAllocator.hpp ****     }
 1932              		.loc 1 62 68
 1933 0c74 3307F700 		add	a4,a4,a5
  62:src/../h/kObjectAllocator.hpp ****     }
 1934              		.loc 1 62 70
 1935 0c78 23000700 		sb	zero,0(a4)
  62:src/../h/kObjectAllocator.hpp ****     }
 1936              		.loc 1 62 66
 1937 0c7c 93871700 		addi	a5,a5,1
 1938              	.LVL265:
  62:src/../h/kObjectAllocator.hpp ****     }
 1939              		.loc 1 62 9
 1940 0c80 6FF05FFE 		j	.L116
GAS LISTING /tmp/ccKdsjgl.s 			page 48


 1941              	.L115:
 1942              	.LVL266:
 1943              	.LBE207:
 1944              	.LBE206:
 1945              	.LBE205:
 1946              	.LBE204:
 1947              	.LBE203:
 113:src/kObjectAllocatorTest.cpp ****     if (objAlloc->getNumberOfObjects() != 320) { delete objAlloc; return false; }
 1948              		.loc 2 113 5 is_stmt 1 discriminator 3
 1949              	.LBB208:
 1950              	.LBB209:
  77:src/../h/kObjectAllocator.hpp ****     size_t getMemorySizeForBits() { return memorySizeForBits; }
 1951              		.loc 1 77 35 discriminator 3
  77:src/../h/kObjectAllocator.hpp ****     size_t getMemorySizeForBits() { return memorySizeForBits; }
 1952              		.loc 1 77 42 is_stmt 0 discriminator 3
 1953 0c84 03B78400 		ld	a4,8(s1)
 1954              	.LVL267:
 1955              	.LBE209:
 1956              	.LBE208:
 1957              		.loc 2 113 5 discriminator 3
 1958 0c88 93070014 		li	a5,320
 1959 0c8c 6302F70A 		beq	a4,a5,.L117
 1960              		.loc 2 113 50 is_stmt 1 discriminator 1
 1961              		.loc 2 113 65 is_stmt 0 discriminator 1
 1962 0c90 638A0406 		beqz	s1,.L118
 1963              	.LBB210:
 1964              	.LBB211:
 1965              	.LBB212:
  68:src/../h/kObjectAllocator.hpp ****             MemoryAllocator::instance()->kmem_free(((KObjectAllocator*) p)->bitVectors[i]);
 1966              		.loc 1 68 21
 1967 0c94 13090000 		li	s2,0
 1968              	.LVL268:
 1969              	.L120:
  68:src/../h/kObjectAllocator.hpp ****             MemoryAllocator::instance()->kmem_free(((KObjectAllocator*) p)->bitVectors[i]);
 1970              		.loc 1 68 30 is_stmt 1
  68:src/../h/kObjectAllocator.hpp ****             MemoryAllocator::instance()->kmem_free(((KObjectAllocator*) p)->bitVectors[i]);
 1971              		.loc 1 68 57 is_stmt 0
 1972 0c98 83B70403 		ld	a5,48(s1)
  68:src/../h/kObjectAllocator.hpp ****             MemoryAllocator::instance()->kmem_free(((KObjectAllocator*) p)->bitVectors[i]);
 1973              		.loc 1 68 30
 1974 0c9c 6376F902 		bleu	a5,s2,.L119
  69:src/../h/kObjectAllocator.hpp ****         MemoryAllocator::instance()->kmem_free(((KObjectAllocator*) p)->bitVectors);
 1975              		.loc 1 69 13 is_stmt 1
 1976              	.LEHB6:
  69:src/../h/kObjectAllocator.hpp ****         MemoryAllocator::instance()->kmem_free(((KObjectAllocator*) p)->bitVectors);
 1977              		.loc 1 69 51 is_stmt 0
 1978 0ca0 97000000 		call	_ZN15MemoryAllocator8instanceEv@plt
 1978      E7800000 
 1979              	.LVL269:
  69:src/../h/kObjectAllocator.hpp ****         MemoryAllocator::instance()->kmem_free(((KObjectAllocator*) p)->bitVectors);
 1980              		.loc 1 69 77
 1981 0ca8 83B78402 		ld	a5,40(s1)
  69:src/../h/kObjectAllocator.hpp ****         MemoryAllocator::instance()->kmem_free(((KObjectAllocator*) p)->bitVectors);
 1982              		.loc 1 69 89
 1983 0cac 13173900 		slli	a4,s2,3
 1984 0cb0 B387E700 		add	a5,a5,a4
  69:src/../h/kObjectAllocator.hpp ****         MemoryAllocator::instance()->kmem_free(((KObjectAllocator*) p)->bitVectors);
GAS LISTING /tmp/ccKdsjgl.s 			page 49


 1985              		.loc 1 69 51
 1986 0cb4 83B50700 		ld	a1,0(a5)
 1987 0cb8 97000000 		call	_ZN15MemoryAllocator9kmem_freeEPv@plt
 1987      E7800000 
 1988              	.LVL270:
  68:src/../h/kObjectAllocator.hpp ****             MemoryAllocator::instance()->kmem_free(((KObjectAllocator*) p)->bitVectors[i]);
 1989              		.loc 1 68 9 is_stmt 1
 1990 0cc0 13091900 		addi	s2,s2,1
 1991              	.LVL271:
 1992 0cc4 6FF05FFD 		j	.L120
 1993              	.L119:
 1994              	.LBE212:
  70:src/../h/kObjectAllocator.hpp ****         MemoryAllocator::instance()->kmem_free(((KObjectAllocator*) p)->objectVectors);
 1995              		.loc 1 70 9
  70:src/../h/kObjectAllocator.hpp ****         MemoryAllocator::instance()->kmem_free(((KObjectAllocator*) p)->objectVectors);
 1996              		.loc 1 70 47 is_stmt 0
 1997 0cc8 97000000 		call	_ZN15MemoryAllocator8instanceEv@plt
 1997      E7800000 
 1998              	.LVL272:
 1999 0cd0 83B58402 		ld	a1,40(s1)
 2000 0cd4 97000000 		call	_ZN15MemoryAllocator9kmem_freeEPv@plt
 2000      E7800000 
 2001              	.LVL273:
  71:src/../h/kObjectAllocator.hpp ****         MemoryAllocator::instance()->kmem_free(p);
 2002              		.loc 1 71 9 is_stmt 1
  71:src/../h/kObjectAllocator.hpp ****         MemoryAllocator::instance()->kmem_free(p);
 2003              		.loc 1 71 47 is_stmt 0
 2004 0cdc 97000000 		call	_ZN15MemoryAllocator8instanceEv@plt
 2004      E7800000 
 2005              	.LVL274:
 2006 0ce4 83B50402 		ld	a1,32(s1)
 2007 0ce8 97000000 		call	_ZN15MemoryAllocator9kmem_freeEPv@plt
 2007      E7800000 
 2008              	.LVL275:
  72:src/../h/kObjectAllocator.hpp ****     }
 2009              		.loc 1 72 9 is_stmt 1
  72:src/../h/kObjectAllocator.hpp ****     }
 2010              		.loc 1 72 47 is_stmt 0
 2011 0cf0 97000000 		call	_ZN15MemoryAllocator8instanceEv@plt
 2011      E7800000 
 2012              	.LVL276:
 2013 0cf8 93850400 		mv	a1,s1
 2014 0cfc 97000000 		call	_ZN15MemoryAllocator9kmem_freeEPv@plt
 2014      E7800000 
 2015              	.LVL277:
 2016              	.L118:
 2017              	.LBE211:
 2018              	.LBE210:
 2019              		.loc 2 113 67 is_stmt 1 discriminator 3
 2020              		.loc 2 113 74 is_stmt 0 discriminator 3
 2021 0d04 13050000 		li	a0,0
 2022              	.L188:
 114:src/kObjectAllocatorTest.cpp ****     if (objAlloc->getMemorySizeForBits() != 40) { delete objAlloc; return false; }
 115:src/kObjectAllocatorTest.cpp ****     if (objAlloc->getObjectSize() != size) { delete objAlloc; return false; }
 116:src/kObjectAllocatorTest.cpp ****     void* objArr[320]; for (size_t i = 0; i < 32; objArr[i++] = objAlloc->allocateNewObject());
 117:src/kObjectAllocatorTest.cpp ****     if (getByteOfObject(objArr[31], objAlloc) != 3
 118:src/kObjectAllocatorTest.cpp ****         || getBitOfObject(objArr[31], objAlloc) != 0)
GAS LISTING /tmp/ccKdsjgl.s 			page 50


 119:src/kObjectAllocatorTest.cpp ****         { delete objAlloc; return false; }
 120:src/kObjectAllocatorTest.cpp **** 
 121:src/kObjectAllocatorTest.cpp ****     if (objAlloc->nextNonTakenByte != 4) { delete objAlloc; return false; }
 122:src/kObjectAllocatorTest.cpp ****     for (size_t i = 32; i < 320; objArr[i++] = objAlloc->allocateNewObject());
 123:src/kObjectAllocatorTest.cpp ****     if (objAlloc->nextNonTakenByte != 40) { delete objAlloc; return false; }
 124:src/kObjectAllocatorTest.cpp **** 
 125:src/kObjectAllocatorTest.cpp ****     objAlloc->freeObject(objArr[7 * 8]);
 126:src/kObjectAllocatorTest.cpp ****     objArr[7 * 8] = objAlloc->allocateNewObject();
 127:src/kObjectAllocatorTest.cpp ****     if (getByteOfObject(objArr[7 * 8], objAlloc) != 7
 128:src/kObjectAllocatorTest.cpp ****         || getBitOfObject(objArr[7 * 8], objAlloc) != 7)
 129:src/kObjectAllocatorTest.cpp ****         { delete objAlloc; return false; }
 130:src/kObjectAllocatorTest.cpp ****     if (objAlloc->nextNonTakenByte != 7) { delete objAlloc; return false; }
 131:src/kObjectAllocatorTest.cpp **** 
 132:src/kObjectAllocatorTest.cpp ****     objAlloc->freeObject(objArr[6 * 8 + 3]);
 133:src/kObjectAllocatorTest.cpp ****     objAlloc->freeObject(objArr[7 * 8 + 4]);
 134:src/kObjectAllocatorTest.cpp ****     objAlloc->freeObject(objArr[38 * 8 + 5]);
 135:src/kObjectAllocatorTest.cpp **** 
 136:src/kObjectAllocatorTest.cpp ****     objArr[7 * 8 + 4] = objAlloc->allocateNewObject();
 137:src/kObjectAllocatorTest.cpp ****     if (getByteOfObject(objArr[7 * 8 + 4], objAlloc) != 7
 138:src/kObjectAllocatorTest.cpp ****         || getBitOfObject(objArr[7 * 8 + 4], objAlloc) != 3)
 139:src/kObjectAllocatorTest.cpp ****         { delete objAlloc; return false; }
 140:src/kObjectAllocatorTest.cpp ****     if (objAlloc->nextNonTakenByte != 7) { delete objAlloc; return false; }
 141:src/kObjectAllocatorTest.cpp ****     objAlloc->freeObject(objArr[3 * 8 + 5]);
 142:src/kObjectAllocatorTest.cpp **** 
 143:src/kObjectAllocatorTest.cpp ****     objArr[38 * 8 + 5] = objAlloc->allocateNewObject();
 144:src/kObjectAllocatorTest.cpp ****     if (getByteOfObject(objArr[38 * 8 + 5], objAlloc) != 38
 145:src/kObjectAllocatorTest.cpp ****         || getBitOfObject(objArr[38 * 8 + 5], objAlloc) != 2)
 146:src/kObjectAllocatorTest.cpp ****     { delete objAlloc; return false; }
 147:src/kObjectAllocatorTest.cpp ****     if (objAlloc->nextNonTakenByte != 38) { delete objAlloc; return false; }
 148:src/kObjectAllocatorTest.cpp **** 
 149:src/kObjectAllocatorTest.cpp **** 
 150:src/kObjectAllocatorTest.cpp ****     objArr[3 * 8 + 5] = objAlloc->allocateNewObject();
 151:src/kObjectAllocatorTest.cpp ****     if (getByteOfObject(objArr[3 * 8 + 5], objAlloc) != 3 || getBitOfObject(objArr[3 * 8 + 5], objA
 152:src/kObjectAllocatorTest.cpp ****     if (objAlloc->nextNonTakenByte != 3) { delete objAlloc; return false; }
 153:src/kObjectAllocatorTest.cpp **** 
 154:src/kObjectAllocatorTest.cpp ****     objArr[6 * 8 + 3] = objAlloc->allocateNewObject();
 155:src/kObjectAllocatorTest.cpp ****     if (getByteOfObject(objArr[6 * 8 + 3], objAlloc) != 6
 156:src/kObjectAllocatorTest.cpp ****         || getBitOfObject(objArr[6 * 8 + 3], objAlloc) != 4)
 157:src/kObjectAllocatorTest.cpp ****     { delete objAlloc; return false; }
 158:src/kObjectAllocatorTest.cpp ****     if (objAlloc->nextNonTakenByte != 6) { delete objAlloc; return false; }
 159:src/kObjectAllocatorTest.cpp **** 
 160:src/kObjectAllocatorTest.cpp ****     for (int i = 0; i < 3; ++i) {
 161:src/kObjectAllocatorTest.cpp ****         objAlloc->freeObject(objArr[319]);
 162:src/kObjectAllocatorTest.cpp ****         objArr[319] = objAlloc->allocateNewObject();
 163:src/kObjectAllocatorTest.cpp ****         if (getByteOfObject(objArr[319], objAlloc) != 39
 164:src/kObjectAllocatorTest.cpp ****             || getBitOfObject(objArr[319], objAlloc) != 0)
 165:src/kObjectAllocatorTest.cpp ****         { delete objAlloc; return false; }
 166:src/kObjectAllocatorTest.cpp ****         if (objAlloc->nextNonTakenByte != 40) { delete objAlloc; return false; }
 167:src/kObjectAllocatorTest.cpp **** 
 168:src/kObjectAllocatorTest.cpp ****         objAlloc->freeObject(objArr[1]);
 169:src/kObjectAllocatorTest.cpp ****         objArr[1] = objAlloc->allocateNewObject();
 170:src/kObjectAllocatorTest.cpp ****         if (getByteOfObject(objArr[1], objAlloc) != 0
 171:src/kObjectAllocatorTest.cpp ****             || getBitOfObject(objArr[1], objAlloc) != 6)
 172:src/kObjectAllocatorTest.cpp ****         { delete objAlloc; return false; }
 173:src/kObjectAllocatorTest.cpp ****         if (objAlloc->nextNonTakenByte != 0) { delete objAlloc; return false; }
 174:src/kObjectAllocatorTest.cpp ****     }
 175:src/kObjectAllocatorTest.cpp ****     delete objAlloc;
GAS LISTING /tmp/ccKdsjgl.s 			page 51


 176:src/kObjectAllocatorTest.cpp ****     return true;
 177:src/kObjectAllocatorTest.cpp **** }
 2023              		.loc 2 177 1
 2024 0d08 13010125 		addi	sp,sp,592
 2025              		.cfi_remember_state
 2026              		.cfi_def_cfa 2, 2032
 2027 0d0c 8330817E 		ld	ra,2024(sp)
 2028              		.cfi_restore 1
 2029 0d10 0334017E 		ld	s0,2016(sp)
 2030              		.cfi_restore 8
 2031 0d14 8334817D 		ld	s1,2008(sp)
 2032              		.cfi_restore 9
 2033              	.LVL278:
 2034 0d18 0339017D 		ld	s2,2000(sp)
 2035              		.cfi_restore 18
 2036 0d1c 8339817C 		ld	s3,1992(sp)
 2037              		.cfi_restore 19
 2038              	.LVL279:
 2039 0d20 033A017C 		ld	s4,1984(sp)
 2040              		.cfi_restore 20
 2041 0d24 833A817B 		ld	s5,1976(sp)
 2042              		.cfi_restore 21
 2043 0d28 1301017F 		addi	sp,sp,2032
 2044              		.cfi_def_cfa_offset 0
 2045 0d2c 67800000 		jr	ra
 2046              	.LVL280:
 2047              	.L117:
 2048              		.cfi_restore_state
 114:src/kObjectAllocatorTest.cpp ****     if (objAlloc->getMemorySizeForBits() != 40) { delete objAlloc; return false; }
 2049              		.loc 2 114 5 is_stmt 1
 2050              	.LBB213:
 2051              	.LBB214:
 2052              		.loc 1 78 37
 2053              		.loc 1 78 44 is_stmt 0
 2054 0d30 03B70401 		ld	a4,16(s1)
 2055              	.LVL281:
 2056              	.LBE214:
 2057              	.LBE213:
 114:src/kObjectAllocatorTest.cpp ****     if (objAlloc->getMemorySizeForBits() != 40) { delete objAlloc; return false; }
 2058              		.loc 2 114 5
 2059 0d34 93078002 		li	a5,40
 2060 0d38 6300F708 		beq	a4,a5,.L122
 114:src/kObjectAllocatorTest.cpp ****     if (objAlloc->getMemorySizeForBits() != 40) { delete objAlloc; return false; }
 2061              		.loc 2 114 51 is_stmt 1 discriminator 1
 114:src/kObjectAllocatorTest.cpp ****     if (objAlloc->getMemorySizeForBits() != 40) { delete objAlloc; return false; }
 2062              		.loc 2 114 66 is_stmt 0 discriminator 1
 2063 0d3c 638A0406 		beqz	s1,.L123
 2064              	.LBB215:
 2065              	.LBB216:
 2066              	.LBB217:
  68:src/../h/kObjectAllocator.hpp ****             MemoryAllocator::instance()->kmem_free(((KObjectAllocator*) p)->bitVectors[i]);
 2067              		.loc 1 68 21
 2068 0d40 13090000 		li	s2,0
 2069              	.LVL282:
 2070              	.L125:
  68:src/../h/kObjectAllocator.hpp ****             MemoryAllocator::instance()->kmem_free(((KObjectAllocator*) p)->bitVectors[i]);
 2071              		.loc 1 68 30 is_stmt 1
GAS LISTING /tmp/ccKdsjgl.s 			page 52


  68:src/../h/kObjectAllocator.hpp ****             MemoryAllocator::instance()->kmem_free(((KObjectAllocator*) p)->bitVectors[i]);
 2072              		.loc 1 68 57 is_stmt 0
 2073 0d44 83B70403 		ld	a5,48(s1)
  68:src/../h/kObjectAllocator.hpp ****             MemoryAllocator::instance()->kmem_free(((KObjectAllocator*) p)->bitVectors[i]);
 2074              		.loc 1 68 30
 2075 0d48 6376F902 		bleu	a5,s2,.L124
  69:src/../h/kObjectAllocator.hpp ****         MemoryAllocator::instance()->kmem_free(((KObjectAllocator*) p)->bitVectors);
 2076              		.loc 1 69 13 is_stmt 1
  69:src/../h/kObjectAllocator.hpp ****         MemoryAllocator::instance()->kmem_free(((KObjectAllocator*) p)->bitVectors);
 2077              		.loc 1 69 51 is_stmt 0
 2078 0d4c 97000000 		call	_ZN15MemoryAllocator8instanceEv@plt
 2078      E7800000 
 2079              	.LVL283:
  69:src/../h/kObjectAllocator.hpp ****         MemoryAllocator::instance()->kmem_free(((KObjectAllocator*) p)->bitVectors);
 2080              		.loc 1 69 77
 2081 0d54 83B78402 		ld	a5,40(s1)
  69:src/../h/kObjectAllocator.hpp ****         MemoryAllocator::instance()->kmem_free(((KObjectAllocator*) p)->bitVectors);
 2082              		.loc 1 69 89
 2083 0d58 13173900 		slli	a4,s2,3
 2084 0d5c B387E700 		add	a5,a5,a4
  69:src/../h/kObjectAllocator.hpp ****         MemoryAllocator::instance()->kmem_free(((KObjectAllocator*) p)->bitVectors);
 2085              		.loc 1 69 51
 2086 0d60 83B50700 		ld	a1,0(a5)
 2087 0d64 97000000 		call	_ZN15MemoryAllocator9kmem_freeEPv@plt
 2087      E7800000 
 2088              	.LVL284:
  68:src/../h/kObjectAllocator.hpp ****             MemoryAllocator::instance()->kmem_free(((KObjectAllocator*) p)->bitVectors[i]);
 2089              		.loc 1 68 9 is_stmt 1
 2090 0d6c 13091900 		addi	s2,s2,1
 2091              	.LVL285:
 2092 0d70 6FF05FFD 		j	.L125
 2093              	.L124:
 2094              	.LBE217:
  70:src/../h/kObjectAllocator.hpp ****         MemoryAllocator::instance()->kmem_free(((KObjectAllocator*) p)->objectVectors);
 2095              		.loc 1 70 9
  70:src/../h/kObjectAllocator.hpp ****         MemoryAllocator::instance()->kmem_free(((KObjectAllocator*) p)->objectVectors);
 2096              		.loc 1 70 47 is_stmt 0
 2097 0d74 97000000 		call	_ZN15MemoryAllocator8instanceEv@plt
 2097      E7800000 
 2098              	.LVL286:
 2099 0d7c 83B58402 		ld	a1,40(s1)
 2100 0d80 97000000 		call	_ZN15MemoryAllocator9kmem_freeEPv@plt
 2100      E7800000 
 2101              	.LVL287:
  71:src/../h/kObjectAllocator.hpp ****         MemoryAllocator::instance()->kmem_free(p);
 2102              		.loc 1 71 9 is_stmt 1
  71:src/../h/kObjectAllocator.hpp ****         MemoryAllocator::instance()->kmem_free(p);
 2103              		.loc 1 71 47 is_stmt 0
 2104 0d88 97000000 		call	_ZN15MemoryAllocator8instanceEv@plt
 2104      E7800000 
 2105              	.LVL288:
 2106 0d90 83B50402 		ld	a1,32(s1)
 2107 0d94 97000000 		call	_ZN15MemoryAllocator9kmem_freeEPv@plt
 2107      E7800000 
 2108              	.LVL289:
  72:src/../h/kObjectAllocator.hpp ****     }
 2109              		.loc 1 72 9 is_stmt 1
GAS LISTING /tmp/ccKdsjgl.s 			page 53


  72:src/../h/kObjectAllocator.hpp ****     }
 2110              		.loc 1 72 47 is_stmt 0
 2111 0d9c 97000000 		call	_ZN15MemoryAllocator8instanceEv@plt
 2111      E7800000 
 2112              	.LVL290:
 2113 0da4 93850400 		mv	a1,s1
 2114 0da8 97000000 		call	_ZN15MemoryAllocator9kmem_freeEPv@plt
 2114      E7800000 
 2115              	.LVL291:
 2116              	.L123:
 2117              	.LBE216:
 2118              	.LBE215:
 114:src/kObjectAllocatorTest.cpp ****     if (objAlloc->getObjectSize() != size) { delete objAlloc; return false; }
 2119              		.loc 2 114 68 is_stmt 1 discriminator 3
 114:src/kObjectAllocatorTest.cpp ****     if (objAlloc->getObjectSize() != size) { delete objAlloc; return false; }
 2120              		.loc 2 114 75 is_stmt 0 discriminator 3
 2121 0db0 13050000 		li	a0,0
 2122 0db4 6FF05FF5 		j	.L188
 2123              	.LVL292:
 2124              	.L122:
 115:src/kObjectAllocatorTest.cpp ****     void* objArr[320]; for (size_t i = 0; i < 32; objArr[i++] = objAlloc->allocateNewObject());
 2125              		.loc 2 115 5 is_stmt 1
 2126              	.LBB218:
 2127              	.LBB219:
  75:src/../h/kObjectAllocator.hpp ****     size_t getInitialNumberOfObjects() { return initialNumberOfObjects; }
 2128              		.loc 1 75 30
  75:src/../h/kObjectAllocator.hpp ****     size_t getInitialNumberOfObjects() { return initialNumberOfObjects; }
 2129              		.loc 1 75 37 is_stmt 0
 2130 0db8 83B78401 		ld	a5,24(s1)
 2131              	.LVL293:
 2132              	.LBE219:
 2133              	.LBE218:
 115:src/kObjectAllocatorTest.cpp ****     void* objArr[320]; for (size_t i = 0; i < 32; objArr[i++] = objAlloc->allocateNewObject());
 2134              		.loc 2 115 5
 2135 0dbc 6300F908 		beq	s2,a5,.L184
 115:src/kObjectAllocatorTest.cpp ****     void* objArr[320]; for (size_t i = 0; i < 32; objArr[i++] = objAlloc->allocateNewObject());
 2136              		.loc 2 115 46 is_stmt 1 discriminator 1
 115:src/kObjectAllocatorTest.cpp ****     void* objArr[320]; for (size_t i = 0; i < 32; objArr[i++] = objAlloc->allocateNewObject());
 2137              		.loc 2 115 61 is_stmt 0 discriminator 1
 2138 0dc0 638A0406 		beqz	s1,.L127
 2139              	.LBB220:
 2140              	.LBB221:
 2141              	.LBB222:
  68:src/../h/kObjectAllocator.hpp ****             MemoryAllocator::instance()->kmem_free(((KObjectAllocator*) p)->bitVectors[i]);
 2142              		.loc 1 68 21
 2143 0dc4 13090000 		li	s2,0
 2144              	.LVL294:
 2145              	.L129:
  68:src/../h/kObjectAllocator.hpp ****             MemoryAllocator::instance()->kmem_free(((KObjectAllocator*) p)->bitVectors[i]);
 2146              		.loc 1 68 30 is_stmt 1
  68:src/../h/kObjectAllocator.hpp ****             MemoryAllocator::instance()->kmem_free(((KObjectAllocator*) p)->bitVectors[i]);
 2147              		.loc 1 68 57 is_stmt 0
 2148 0dc8 83B70403 		ld	a5,48(s1)
  68:src/../h/kObjectAllocator.hpp ****             MemoryAllocator::instance()->kmem_free(((KObjectAllocator*) p)->bitVectors[i]);
 2149              		.loc 1 68 30
 2150 0dcc 6376F902 		bleu	a5,s2,.L128
  69:src/../h/kObjectAllocator.hpp ****         MemoryAllocator::instance()->kmem_free(((KObjectAllocator*) p)->bitVectors);
GAS LISTING /tmp/ccKdsjgl.s 			page 54


 2151              		.loc 1 69 13 is_stmt 1
  69:src/../h/kObjectAllocator.hpp ****         MemoryAllocator::instance()->kmem_free(((KObjectAllocator*) p)->bitVectors);
 2152              		.loc 1 69 51 is_stmt 0
 2153 0dd0 97000000 		call	_ZN15MemoryAllocator8instanceEv@plt
 2153      E7800000 
 2154              	.LVL295:
  69:src/../h/kObjectAllocator.hpp ****         MemoryAllocator::instance()->kmem_free(((KObjectAllocator*) p)->bitVectors);
 2155              		.loc 1 69 77
 2156 0dd8 83B78402 		ld	a5,40(s1)
  69:src/../h/kObjectAllocator.hpp ****         MemoryAllocator::instance()->kmem_free(((KObjectAllocator*) p)->bitVectors);
 2157              		.loc 1 69 89
 2158 0ddc 13173900 		slli	a4,s2,3
 2159 0de0 B387E700 		add	a5,a5,a4
  69:src/../h/kObjectAllocator.hpp ****         MemoryAllocator::instance()->kmem_free(((KObjectAllocator*) p)->bitVectors);
 2160              		.loc 1 69 51
 2161 0de4 83B50700 		ld	a1,0(a5)
 2162 0de8 97000000 		call	_ZN15MemoryAllocator9kmem_freeEPv@plt
 2162      E7800000 
 2163              	.LVL296:
  68:src/../h/kObjectAllocator.hpp ****             MemoryAllocator::instance()->kmem_free(((KObjectAllocator*) p)->bitVectors[i]);
 2164              		.loc 1 68 9 is_stmt 1
 2165 0df0 13091900 		addi	s2,s2,1
 2166              	.LVL297:
 2167 0df4 6FF05FFD 		j	.L129
 2168              	.L128:
 2169              	.LBE222:
  70:src/../h/kObjectAllocator.hpp ****         MemoryAllocator::instance()->kmem_free(((KObjectAllocator*) p)->objectVectors);
 2170              		.loc 1 70 9
  70:src/../h/kObjectAllocator.hpp ****         MemoryAllocator::instance()->kmem_free(((KObjectAllocator*) p)->objectVectors);
 2171              		.loc 1 70 47 is_stmt 0
 2172 0df8 97000000 		call	_ZN15MemoryAllocator8instanceEv@plt
 2172      E7800000 
 2173              	.LVL298:
 2174 0e00 83B58402 		ld	a1,40(s1)
 2175 0e04 97000000 		call	_ZN15MemoryAllocator9kmem_freeEPv@plt
 2175      E7800000 
 2176              	.LVL299:
  71:src/../h/kObjectAllocator.hpp ****         MemoryAllocator::instance()->kmem_free(p);
 2177              		.loc 1 71 9 is_stmt 1
  71:src/../h/kObjectAllocator.hpp ****         MemoryAllocator::instance()->kmem_free(p);
 2178              		.loc 1 71 47 is_stmt 0
 2179 0e0c 97000000 		call	_ZN15MemoryAllocator8instanceEv@plt
 2179      E7800000 
 2180              	.LVL300:
 2181 0e14 83B50402 		ld	a1,32(s1)
 2182 0e18 97000000 		call	_ZN15MemoryAllocator9kmem_freeEPv@plt
 2182      E7800000 
 2183              	.LVL301:
  72:src/../h/kObjectAllocator.hpp ****     }
 2184              		.loc 1 72 9 is_stmt 1
  72:src/../h/kObjectAllocator.hpp ****     }
 2185              		.loc 1 72 47 is_stmt 0
 2186 0e20 97000000 		call	_ZN15MemoryAllocator8instanceEv@plt
 2186      E7800000 
 2187              	.LVL302:
 2188 0e28 93850400 		mv	a1,s1
 2189 0e2c 97000000 		call	_ZN15MemoryAllocator9kmem_freeEPv@plt
GAS LISTING /tmp/ccKdsjgl.s 			page 55


 2189      E7800000 
 2190              	.LVL303:
 2191              	.L127:
 2192              	.LBE221:
 2193              	.LBE220:
 115:src/kObjectAllocatorTest.cpp ****     void* objArr[320]; for (size_t i = 0; i < 32; objArr[i++] = objAlloc->allocateNewObject());
 2194              		.loc 2 115 63 is_stmt 1 discriminator 3
 115:src/kObjectAllocatorTest.cpp ****     void* objArr[320]; for (size_t i = 0; i < 32; objArr[i++] = objAlloc->allocateNewObject());
 2195              		.loc 2 115 70 is_stmt 0 discriminator 3
 2196 0e34 13050000 		li	a0,0
 2197 0e38 6FF01FED 		j	.L188
 2198              	.LVL304:
 2199              	.L184:
 2200              	.LBB223:
 116:src/kObjectAllocatorTest.cpp ****     if (getByteOfObject(objArr[31], objAlloc) != 3
 2201              		.loc 2 116 36
 2202 0e3c 13090000 		li	s2,0
 2203              	.LVL305:
 2204              	.L126:
 116:src/kObjectAllocatorTest.cpp ****     if (getByteOfObject(objArr[31], objAlloc) != 3
 2205              		.loc 2 116 45 is_stmt 1 discriminator 4
 2206 0e40 9307F001 		li	a5,31
 2207 0e44 63EA2703 		bgtu	s2,a5,.L130
 116:src/kObjectAllocatorTest.cpp ****     if (getByteOfObject(objArr[31], objAlloc) != 3
 2208              		.loc 2 116 24 discriminator 2
 116:src/kObjectAllocatorTest.cpp ****     if (getByteOfObject(objArr[31], objAlloc) != 3
 2209              		.loc 2 116 59 is_stmt 0 discriminator 2
 2210 0e48 130A1900 		addi	s4,s2,1
 2211              	.LVL306:
 116:src/kObjectAllocatorTest.cpp ****     if (getByteOfObject(objArr[31], objAlloc) != 3
 2212              		.loc 2 116 92 discriminator 2
 2213 0e4c 13850400 		mv	a0,s1
 2214 0e50 97000000 		call	_ZN16KObjectAllocator17allocateNewObjectEv@plt
 2214      E7800000 
 2215              	.LVL307:
 116:src/kObjectAllocatorTest.cpp ****     if (getByteOfObject(objArr[31], objAlloc) != 3
 2216              		.loc 2 116 63 discriminator 2
 2217 0e58 B7F7FFFF 		li	a5,-4096
 2218 0e5c 13193900 		slli	s2,s2,3
 2219 0e60 130704FC 		addi	a4,s0,-64
 2220 0e64 B307F700 		add	a5,a4,a5
 2221 0e68 33892701 		add	s2,a5,s2
 2222 0e6c 2330A960 		sd	a0,1536(s2)
 116:src/kObjectAllocatorTest.cpp ****     if (getByteOfObject(objArr[31], objAlloc) != 3
 2223              		.loc 2 116 59 discriminator 2
 2224 0e70 13090A00 		mv	s2,s4
 116:src/kObjectAllocatorTest.cpp ****     if (getByteOfObject(objArr[31], objAlloc) != 3
 2225              		.loc 2 116 24 discriminator 2
 2226 0e74 6FF0DFFC 		j	.L126
 2227              	.LVL308:
 2228              	.L130:
 2229              	.LBE223:
 117:src/kObjectAllocatorTest.cpp ****         || getBitOfObject(objArr[31], objAlloc) != 0)
 2230              		.loc 2 117 5 is_stmt 1
 117:src/kObjectAllocatorTest.cpp ****         || getBitOfObject(objArr[31], objAlloc) != 0)
 2231              		.loc 2 117 24 is_stmt 0
 2232 0e78 B7F7FFFF 		li	a5,-4096
GAS LISTING /tmp/ccKdsjgl.s 			page 56


 2233 0e7c 130704FC 		addi	a4,s0,-64
 2234 0e80 B307F700 		add	a5,a4,a5
 2235 0e84 03B9876F 		ld	s2,1784(a5)
 2236              	.LVL309:
 2237 0e88 13860400 		mv	a2,s1
 2238 0e8c 93050900 		mv	a1,s2
 2239 0e90 13850900 		mv	a0,s3
 2240 0e94 97000000 		call	_ZN20KObjectAllocatorTest15getByteOfObjectEPvP16KObjectAllocator
 2240      E7800000 
 2241              	.LVL310:
 118:src/kObjectAllocatorTest.cpp ****         { delete objAlloc; return false; }
 2242              		.loc 2 118 9
 2243 0e9c 93073000 		li	a5,3
 2244 0ea0 630EF502 		beq	a0,a5,.L196
 2245              	.L131:
 119:src/kObjectAllocatorTest.cpp **** 
 2246              		.loc 2 119 11 is_stmt 1 discriminator 4
 119:src/kObjectAllocatorTest.cpp **** 
 2247              		.loc 2 119 26 is_stmt 0 discriminator 4
 2248 0ea4 638C040C 		beqz	s1,.L134
 2249              	.LBB224:
 2250              	.LBB225:
 2251              	.LBB226:
  68:src/../h/kObjectAllocator.hpp ****             MemoryAllocator::instance()->kmem_free(((KObjectAllocator*) p)->bitVectors[i]);
 2252              		.loc 1 68 21
 2253 0ea8 13090000 		li	s2,0
 2254              	.L133:
 2255              	.LVL311:
  68:src/../h/kObjectAllocator.hpp ****             MemoryAllocator::instance()->kmem_free(((KObjectAllocator*) p)->bitVectors[i]);
 2256              		.loc 1 68 30 is_stmt 1
  68:src/../h/kObjectAllocator.hpp ****             MemoryAllocator::instance()->kmem_free(((KObjectAllocator*) p)->bitVectors[i]);
 2257              		.loc 1 68 57 is_stmt 0
 2258 0eac 83B70403 		ld	a5,48(s1)
  68:src/../h/kObjectAllocator.hpp ****             MemoryAllocator::instance()->kmem_free(((KObjectAllocator*) p)->bitVectors[i]);
 2259              		.loc 1 68 30
 2260 0eb0 6378F908 		bleu	a5,s2,.L137
  69:src/../h/kObjectAllocator.hpp ****         MemoryAllocator::instance()->kmem_free(((KObjectAllocator*) p)->bitVectors);
 2261              		.loc 1 69 13 is_stmt 1
  69:src/../h/kObjectAllocator.hpp ****         MemoryAllocator::instance()->kmem_free(((KObjectAllocator*) p)->bitVectors);
 2262              		.loc 1 69 51 is_stmt 0
 2263 0eb4 97000000 		call	_ZN15MemoryAllocator8instanceEv@plt
 2263      E7800000 
 2264              	.LVL312:
  69:src/../h/kObjectAllocator.hpp ****         MemoryAllocator::instance()->kmem_free(((KObjectAllocator*) p)->bitVectors);
 2265              		.loc 1 69 77
 2266 0ebc 83B78402 		ld	a5,40(s1)
  69:src/../h/kObjectAllocator.hpp ****         MemoryAllocator::instance()->kmem_free(((KObjectAllocator*) p)->bitVectors);
 2267              		.loc 1 69 89
 2268 0ec0 13173900 		slli	a4,s2,3
 2269 0ec4 B387E700 		add	a5,a5,a4
  69:src/../h/kObjectAllocator.hpp ****         MemoryAllocator::instance()->kmem_free(((KObjectAllocator*) p)->bitVectors);
 2270              		.loc 1 69 51
 2271 0ec8 83B50700 		ld	a1,0(a5)
 2272 0ecc 97000000 		call	_ZN15MemoryAllocator9kmem_freeEPv@plt
 2272      E7800000 
 2273              	.LVL313:
  68:src/../h/kObjectAllocator.hpp ****             MemoryAllocator::instance()->kmem_free(((KObjectAllocator*) p)->bitVectors[i]);
GAS LISTING /tmp/ccKdsjgl.s 			page 57


 2274              		.loc 1 68 9 is_stmt 1
 2275 0ed4 13091900 		addi	s2,s2,1
 2276              	.LVL314:
 2277 0ed8 6FF05FFD 		j	.L133
 2278              	.LVL315:
 2279              	.L196:
 2280              	.LBE226:
 2281              	.LBE225:
 2282              	.LBE224:
 118:src/kObjectAllocatorTest.cpp ****         { delete objAlloc; return false; }
 2283              		.loc 2 118 26 is_stmt 0 discriminator 2
 2284 0edc 13860400 		mv	a2,s1
 2285 0ee0 93050900 		mv	a1,s2
 2286 0ee4 13850900 		mv	a0,s3
 2287 0ee8 97000000 		call	_ZN20KObjectAllocatorTest14getBitOfObjectEPvP16KObjectAllocator
 2287      E7800000 
 2288              	.LVL316:
 2289 0ef0 930A0500 		mv	s5,a0
 118:src/kObjectAllocatorTest.cpp ****         { delete objAlloc; return false; }
 2290              		.loc 2 118 9 discriminator 2
 2291 0ef4 E31805FA 		bnez	a0,.L131
 121:src/kObjectAllocatorTest.cpp ****     for (size_t i = 32; i < 320; objArr[i++] = objAlloc->allocateNewObject());
 2292              		.loc 2 121 5 is_stmt 1
 121:src/kObjectAllocatorTest.cpp ****     for (size_t i = 32; i < 320; objArr[i++] = objAlloc->allocateNewObject());
 2293              		.loc 2 121 19 is_stmt 0
 2294 0ef8 03B78403 		ld	a4,56(s1)
 121:src/kObjectAllocatorTest.cpp ****     for (size_t i = 32; i < 320; objArr[i++] = objAlloc->allocateNewObject());
 2295              		.loc 2 121 5
 2296 0efc 93074000 		li	a5,4
 2297 0f00 6312F708 		bne	a4,a5,.L135
 2298              	.LBB228:
 122:src/kObjectAllocatorTest.cpp ****     if (objAlloc->nextNonTakenByte != 40) { delete objAlloc; return false; }
 2299              		.loc 2 122 17
 2300 0f04 13090002 		li	s2,32
 2301              	.L136:
 2302              	.LVL317:
 122:src/kObjectAllocatorTest.cpp ****     if (objAlloc->nextNonTakenByte != 40) { delete objAlloc; return false; }
 2303              		.loc 2 122 27 is_stmt 1 discriminator 4
 2304 0f08 9307F013 		li	a5,319
 2305 0f0c 63E8270F 		bgtu	s2,a5,.L141
 122:src/kObjectAllocatorTest.cpp ****     if (objAlloc->nextNonTakenByte != 40) { delete objAlloc; return false; }
 2306              		.loc 2 122 5 discriminator 2
 122:src/kObjectAllocatorTest.cpp ****     if (objAlloc->nextNonTakenByte != 40) { delete objAlloc; return false; }
 2307              		.loc 2 122 42 is_stmt 0 discriminator 2
 2308 0f10 130A1900 		addi	s4,s2,1
 2309              	.LVL318:
 122:src/kObjectAllocatorTest.cpp ****     if (objAlloc->nextNonTakenByte != 40) { delete objAlloc; return false; }
 2310              		.loc 2 122 75 discriminator 2
 2311 0f14 13850400 		mv	a0,s1
 2312 0f18 97000000 		call	_ZN16KObjectAllocator17allocateNewObjectEv@plt
 2312      E7800000 
 2313              	.LVL319:
 122:src/kObjectAllocatorTest.cpp ****     if (objAlloc->nextNonTakenByte != 40) { delete objAlloc; return false; }
 2314              		.loc 2 122 46 discriminator 2
 2315 0f20 B7F7FFFF 		li	a5,-4096
 2316 0f24 13193900 		slli	s2,s2,3
 2317 0f28 130704FC 		addi	a4,s0,-64
GAS LISTING /tmp/ccKdsjgl.s 			page 58


 2318 0f2c B307F700 		add	a5,a4,a5
 2319 0f30 33892701 		add	s2,a5,s2
 2320 0f34 2330A960 		sd	a0,1536(s2)
 122:src/kObjectAllocatorTest.cpp ****     if (objAlloc->nextNonTakenByte != 40) { delete objAlloc; return false; }
 2321              		.loc 2 122 42 discriminator 2
 2322 0f38 13090A00 		mv	s2,s4
 122:src/kObjectAllocatorTest.cpp ****     if (objAlloc->nextNonTakenByte != 40) { delete objAlloc; return false; }
 2323              		.loc 2 122 5 discriminator 2
 2324 0f3c 6FF0DFFC 		j	.L136
 2325              	.LVL320:
 2326              	.L137:
 2327              	.LBE228:
 2328              	.LBB229:
 2329              	.LBB227:
  70:src/../h/kObjectAllocator.hpp ****         MemoryAllocator::instance()->kmem_free(((KObjectAllocator*) p)->objectVectors);
 2330              		.loc 1 70 9 is_stmt 1
  70:src/../h/kObjectAllocator.hpp ****         MemoryAllocator::instance()->kmem_free(((KObjectAllocator*) p)->objectVectors);
 2331              		.loc 1 70 47 is_stmt 0
 2332 0f40 97000000 		call	_ZN15MemoryAllocator8instanceEv@plt
 2332      E7800000 
 2333              	.LVL321:
 2334 0f48 83B58402 		ld	a1,40(s1)
 2335 0f4c 97000000 		call	_ZN15MemoryAllocator9kmem_freeEPv@plt
 2335      E7800000 
 2336              	.LVL322:
  71:src/../h/kObjectAllocator.hpp ****         MemoryAllocator::instance()->kmem_free(p);
 2337              		.loc 1 71 9 is_stmt 1
  71:src/../h/kObjectAllocator.hpp ****         MemoryAllocator::instance()->kmem_free(p);
 2338              		.loc 1 71 47 is_stmt 0
 2339 0f54 97000000 		call	_ZN15MemoryAllocator8instanceEv@plt
 2339      E7800000 
 2340              	.LVL323:
 2341 0f5c 83B50402 		ld	a1,32(s1)
 2342 0f60 97000000 		call	_ZN15MemoryAllocator9kmem_freeEPv@plt
 2342      E7800000 
 2343              	.LVL324:
  72:src/../h/kObjectAllocator.hpp ****     }
 2344              		.loc 1 72 9 is_stmt 1
  72:src/../h/kObjectAllocator.hpp ****     }
 2345              		.loc 1 72 47 is_stmt 0
 2346 0f68 97000000 		call	_ZN15MemoryAllocator8instanceEv@plt
 2346      E7800000 
 2347              	.LVL325:
 2348 0f70 93850400 		mv	a1,s1
 2349 0f74 97000000 		call	_ZN15MemoryAllocator9kmem_freeEPv@plt
 2349      E7800000 
 2350              	.LVL326:
 2351              	.L134:
 2352              	.LBE227:
 2353              	.LBE229:
 119:src/kObjectAllocatorTest.cpp **** 
 2354              		.loc 2 119 28 is_stmt 1 discriminator 2
 119:src/kObjectAllocatorTest.cpp **** 
 2355              		.loc 2 119 35 is_stmt 0 discriminator 2
 2356 0f7c 13050000 		li	a0,0
 2357 0f80 6FF09FD8 		j	.L188
 2358              	.L135:
GAS LISTING /tmp/ccKdsjgl.s 			page 59


 121:src/kObjectAllocatorTest.cpp ****     for (size_t i = 32; i < 320; objArr[i++] = objAlloc->allocateNewObject());
 2359              		.loc 2 121 44 is_stmt 1 discriminator 1
 121:src/kObjectAllocatorTest.cpp ****     for (size_t i = 32; i < 320; objArr[i++] = objAlloc->allocateNewObject());
 2360              		.loc 2 121 59 is_stmt 0 discriminator 1
 2361 0f84 63960402 		bnez	s1,.L140
 2362 0f88 6F00C006 		j	.L138
 2363              	.LVL327:
 2364              	.L197:
 2365              	.LBB230:
 2366              	.LBB231:
 2367              	.LBB232:
  69:src/../h/kObjectAllocator.hpp ****         MemoryAllocator::instance()->kmem_free(((KObjectAllocator*) p)->bitVectors);
 2368              		.loc 1 69 13 is_stmt 1
  69:src/../h/kObjectAllocator.hpp ****         MemoryAllocator::instance()->kmem_free(((KObjectAllocator*) p)->bitVectors);
 2369              		.loc 1 69 51 is_stmt 0
 2370 0f8c 97000000 		call	_ZN15MemoryAllocator8instanceEv@plt
 2370      E7800000 
 2371              	.LVL328:
  69:src/../h/kObjectAllocator.hpp ****         MemoryAllocator::instance()->kmem_free(((KObjectAllocator*) p)->bitVectors);
 2372              		.loc 1 69 77
 2373 0f94 83B78402 		ld	a5,40(s1)
  69:src/../h/kObjectAllocator.hpp ****         MemoryAllocator::instance()->kmem_free(((KObjectAllocator*) p)->bitVectors);
 2374              		.loc 1 69 89
 2375 0f98 13973A00 		slli	a4,s5,3
 2376 0f9c B387E700 		add	a5,a5,a4
  69:src/../h/kObjectAllocator.hpp ****         MemoryAllocator::instance()->kmem_free(((KObjectAllocator*) p)->bitVectors);
 2377              		.loc 1 69 51
 2378 0fa0 83B50700 		ld	a1,0(a5)
 2379 0fa4 97000000 		call	_ZN15MemoryAllocator9kmem_freeEPv@plt
 2379      E7800000 
 2380              	.LVL329:
  68:src/../h/kObjectAllocator.hpp ****             MemoryAllocator::instance()->kmem_free(((KObjectAllocator*) p)->bitVectors[i]);
 2381              		.loc 1 68 9 is_stmt 1
 2382 0fac 938A1A00 		addi	s5,s5,1
 2383              	.LVL330:
 2384              	.L140:
  68:src/../h/kObjectAllocator.hpp ****             MemoryAllocator::instance()->kmem_free(((KObjectAllocator*) p)->bitVectors[i]);
 2385              		.loc 1 68 30
  68:src/../h/kObjectAllocator.hpp ****             MemoryAllocator::instance()->kmem_free(((KObjectAllocator*) p)->bitVectors[i]);
 2386              		.loc 1 68 57 is_stmt 0
 2387 0fb0 83B70403 		ld	a5,48(s1)
  68:src/../h/kObjectAllocator.hpp ****             MemoryAllocator::instance()->kmem_free(((KObjectAllocator*) p)->bitVectors[i]);
 2388              		.loc 1 68 30
 2389 0fb4 E3ECFAFC 		bgtu	a5,s5,.L197
 2390              	.LBE232:
  70:src/../h/kObjectAllocator.hpp ****         MemoryAllocator::instance()->kmem_free(((KObjectAllocator*) p)->objectVectors);
 2391              		.loc 1 70 9 is_stmt 1
  70:src/../h/kObjectAllocator.hpp ****         MemoryAllocator::instance()->kmem_free(((KObjectAllocator*) p)->objectVectors);
 2392              		.loc 1 70 47 is_stmt 0
 2393 0fb8 97000000 		call	_ZN15MemoryAllocator8instanceEv@plt
 2393      E7800000 
 2394              	.LVL331:
 2395 0fc0 83B58402 		ld	a1,40(s1)
 2396 0fc4 97000000 		call	_ZN15MemoryAllocator9kmem_freeEPv@plt
 2396      E7800000 
 2397              	.LVL332:
  71:src/../h/kObjectAllocator.hpp ****         MemoryAllocator::instance()->kmem_free(p);
GAS LISTING /tmp/ccKdsjgl.s 			page 60


 2398              		.loc 1 71 9 is_stmt 1
  71:src/../h/kObjectAllocator.hpp ****         MemoryAllocator::instance()->kmem_free(p);
 2399              		.loc 1 71 47 is_stmt 0
 2400 0fcc 97000000 		call	_ZN15MemoryAllocator8instanceEv@plt
 2400      E7800000 
 2401              	.LVL333:
 2402 0fd4 83B50402 		ld	a1,32(s1)
 2403 0fd8 97000000 		call	_ZN15MemoryAllocator9kmem_freeEPv@plt
 2403      E7800000 
 2404              	.LVL334:
  72:src/../h/kObjectAllocator.hpp ****     }
 2405              		.loc 1 72 9 is_stmt 1
  72:src/../h/kObjectAllocator.hpp ****     }
 2406              		.loc 1 72 47 is_stmt 0
 2407 0fe0 97000000 		call	_ZN15MemoryAllocator8instanceEv@plt
 2407      E7800000 
 2408              	.LVL335:
 2409 0fe8 93850400 		mv	a1,s1
 2410 0fec 97000000 		call	_ZN15MemoryAllocator9kmem_freeEPv@plt
 2410      E7800000 
 2411              	.LVL336:
 2412              	.L138:
 2413              	.LBE231:
 2414              	.LBE230:
 121:src/kObjectAllocatorTest.cpp ****     for (size_t i = 32; i < 320; objArr[i++] = objAlloc->allocateNewObject());
 2415              		.loc 2 121 61 is_stmt 1 discriminator 3
 121:src/kObjectAllocatorTest.cpp ****     for (size_t i = 32; i < 320; objArr[i++] = objAlloc->allocateNewObject());
 2416              		.loc 2 121 68 is_stmt 0 discriminator 3
 2417 0ff4 13050000 		li	a0,0
 2418 0ff8 6FF01FD1 		j	.L188
 2419              	.LVL337:
 2420              	.L141:
 123:src/kObjectAllocatorTest.cpp **** 
 2421              		.loc 2 123 5 is_stmt 1
 123:src/kObjectAllocatorTest.cpp **** 
 2422              		.loc 2 123 19 is_stmt 0
 2423 0ffc 03B78403 		ld	a4,56(s1)
 123:src/kObjectAllocatorTest.cpp **** 
 2424              		.loc 2 123 5
 2425 1000 93078002 		li	a5,40
 2426 1004 630EF706 		beq	a4,a5,.L142
 123:src/kObjectAllocatorTest.cpp **** 
 2427              		.loc 2 123 45 is_stmt 1 discriminator 1
 123:src/kObjectAllocatorTest.cpp **** 
 2428              		.loc 2 123 60 is_stmt 0 discriminator 1
 2429 1008 63880406 		beqz	s1,.L143
 2430              	.L145:
 2431              	.LVL338:
 2432              	.LBB233:
 2433              	.LBB234:
 2434              	.LBB235:
  68:src/../h/kObjectAllocator.hpp ****             MemoryAllocator::instance()->kmem_free(((KObjectAllocator*) p)->bitVectors[i]);
 2435              		.loc 1 68 30 is_stmt 1
  68:src/../h/kObjectAllocator.hpp ****             MemoryAllocator::instance()->kmem_free(((KObjectAllocator*) p)->bitVectors[i]);
 2436              		.loc 1 68 57 is_stmt 0
 2437 100c 83B70403 		ld	a5,48(s1)
  68:src/../h/kObjectAllocator.hpp ****             MemoryAllocator::instance()->kmem_free(((KObjectAllocator*) p)->bitVectors[i]);
GAS LISTING /tmp/ccKdsjgl.s 			page 61


 2438              		.loc 1 68 30
 2439 1010 63F6FA02 		bleu	a5,s5,.L144
  69:src/../h/kObjectAllocator.hpp ****         MemoryAllocator::instance()->kmem_free(((KObjectAllocator*) p)->bitVectors);
 2440              		.loc 1 69 13 is_stmt 1
  69:src/../h/kObjectAllocator.hpp ****         MemoryAllocator::instance()->kmem_free(((KObjectAllocator*) p)->bitVectors);
 2441              		.loc 1 69 51 is_stmt 0
 2442 1014 97000000 		call	_ZN15MemoryAllocator8instanceEv@plt
 2442      E7800000 
 2443              	.LVL339:
  69:src/../h/kObjectAllocator.hpp ****         MemoryAllocator::instance()->kmem_free(((KObjectAllocator*) p)->bitVectors);
 2444              		.loc 1 69 77
 2445 101c 83B78402 		ld	a5,40(s1)
  69:src/../h/kObjectAllocator.hpp ****         MemoryAllocator::instance()->kmem_free(((KObjectAllocator*) p)->bitVectors);
 2446              		.loc 1 69 89
 2447 1020 13973A00 		slli	a4,s5,3
 2448 1024 B387E700 		add	a5,a5,a4
  69:src/../h/kObjectAllocator.hpp ****         MemoryAllocator::instance()->kmem_free(((KObjectAllocator*) p)->bitVectors);
 2449              		.loc 1 69 51
 2450 1028 83B50700 		ld	a1,0(a5)
 2451 102c 97000000 		call	_ZN15MemoryAllocator9kmem_freeEPv@plt
 2451      E7800000 
 2452              	.LVL340:
  68:src/../h/kObjectAllocator.hpp ****             MemoryAllocator::instance()->kmem_free(((KObjectAllocator*) p)->bitVectors[i]);
 2453              		.loc 1 68 9 is_stmt 1
 2454 1034 938A1A00 		addi	s5,s5,1
 2455              	.LVL341:
 2456 1038 6FF05FFD 		j	.L145
 2457              	.L144:
 2458              	.LBE235:
  70:src/../h/kObjectAllocator.hpp ****         MemoryAllocator::instance()->kmem_free(((KObjectAllocator*) p)->objectVectors);
 2459              		.loc 1 70 9
  70:src/../h/kObjectAllocator.hpp ****         MemoryAllocator::instance()->kmem_free(((KObjectAllocator*) p)->objectVectors);
 2460              		.loc 1 70 47 is_stmt 0
 2461 103c 97000000 		call	_ZN15MemoryAllocator8instanceEv@plt
 2461      E7800000 
 2462              	.LVL342:
 2463 1044 83B58402 		ld	a1,40(s1)
 2464 1048 97000000 		call	_ZN15MemoryAllocator9kmem_freeEPv@plt
 2464      E7800000 
 2465              	.LVL343:
  71:src/../h/kObjectAllocator.hpp ****         MemoryAllocator::instance()->kmem_free(p);
 2466              		.loc 1 71 9 is_stmt 1
  71:src/../h/kObjectAllocator.hpp ****         MemoryAllocator::instance()->kmem_free(p);
 2467              		.loc 1 71 47 is_stmt 0
 2468 1050 97000000 		call	_ZN15MemoryAllocator8instanceEv@plt
 2468      E7800000 
 2469              	.LVL344:
 2470 1058 83B50402 		ld	a1,32(s1)
 2471 105c 97000000 		call	_ZN15MemoryAllocator9kmem_freeEPv@plt
 2471      E7800000 
 2472              	.LVL345:
  72:src/../h/kObjectAllocator.hpp ****     }
 2473              		.loc 1 72 9 is_stmt 1
  72:src/../h/kObjectAllocator.hpp ****     }
 2474              		.loc 1 72 47 is_stmt 0
 2475 1064 97000000 		call	_ZN15MemoryAllocator8instanceEv@plt
 2475      E7800000 
GAS LISTING /tmp/ccKdsjgl.s 			page 62


 2476              	.LVL346:
 2477 106c 93850400 		mv	a1,s1
 2478 1070 97000000 		call	_ZN15MemoryAllocator9kmem_freeEPv@plt
 2478      E7800000 
 2479              	.LVL347:
 2480              	.L143:
 2481              	.LBE234:
 2482              	.LBE233:
 123:src/kObjectAllocatorTest.cpp **** 
 2483              		.loc 2 123 62 is_stmt 1 discriminator 3
 123:src/kObjectAllocatorTest.cpp **** 
 2484              		.loc 2 123 69 is_stmt 0 discriminator 3
 2485 1078 13050000 		li	a0,0
 2486 107c 6FF0DFC8 		j	.L188
 2487              	.L142:
 125:src/kObjectAllocatorTest.cpp ****     objArr[7 * 8] = objAlloc->allocateNewObject();
 2488              		.loc 2 125 5 is_stmt 1
 125:src/kObjectAllocatorTest.cpp ****     objArr[7 * 8] = objAlloc->allocateNewObject();
 2489              		.loc 2 125 25 is_stmt 0
 2490 1080 B7F7FFFF 		li	a5,-4096
 2491 1084 130704FC 		addi	a4,s0,-64
 2492 1088 B307F700 		add	a5,a4,a5
 2493 108c 83B5077C 		ld	a1,1984(a5)
 2494 1090 13850400 		mv	a0,s1
 2495 1094 97000000 		call	_ZN16KObjectAllocator10freeObjectEPv@plt
 2495      E7800000 
 2496              	.LVL348:
 126:src/kObjectAllocatorTest.cpp ****     if (getByteOfObject(objArr[7 * 8], objAlloc) != 7
 2497              		.loc 2 126 5 is_stmt 1
 126:src/kObjectAllocatorTest.cpp ****     if (getByteOfObject(objArr[7 * 8], objAlloc) != 7
 2498              		.loc 2 126 48 is_stmt 0
 2499 109c 13850400 		mv	a0,s1
 2500 10a0 97000000 		call	_ZN16KObjectAllocator17allocateNewObjectEv@plt
 2500      E7800000 
 2501              	.LVL349:
 2502 10a8 13090500 		mv	s2,a0
 2503              	.LVL350:
 127:src/kObjectAllocatorTest.cpp ****         || getBitOfObject(objArr[7 * 8], objAlloc) != 7)
 2504              		.loc 2 127 5 is_stmt 1
 127:src/kObjectAllocatorTest.cpp ****         || getBitOfObject(objArr[7 * 8], objAlloc) != 7)
 2505              		.loc 2 127 24 is_stmt 0
 2506 10ac 13860400 		mv	a2,s1
 2507 10b0 93050500 		mv	a1,a0
 2508 10b4 13850900 		mv	a0,s3
 2509 10b8 97000000 		call	_ZN20KObjectAllocatorTest15getByteOfObjectEPvP16KObjectAllocator
 2509      E7800000 
 2510              	.LVL351:
 128:src/kObjectAllocatorTest.cpp ****         { delete objAlloc; return false; }
 2511              		.loc 2 128 9
 2512 10c0 93077000 		li	a5,7
 2513 10c4 630CF502 		beq	a0,a5,.L198
 2514              	.L146:
 129:src/kObjectAllocatorTest.cpp ****     if (objAlloc->nextNonTakenByte != 7) { delete objAlloc; return false; }
 2515              		.loc 2 129 11 is_stmt 1 discriminator 4
 129:src/kObjectAllocatorTest.cpp ****     if (objAlloc->nextNonTakenByte != 7) { delete objAlloc; return false; }
 2516              		.loc 2 129 26 is_stmt 0 discriminator 4
 2517 10c8 6386040A 		beqz	s1,.L149
GAS LISTING /tmp/ccKdsjgl.s 			page 63


 2518              	.L151:
 2519              	.LVL352:
 2520              	.LBB236:
 2521              	.LBB237:
 2522              	.LBB238:
  68:src/../h/kObjectAllocator.hpp ****             MemoryAllocator::instance()->kmem_free(((KObjectAllocator*) p)->bitVectors[i]);
 2523              		.loc 1 68 30 is_stmt 1
  68:src/../h/kObjectAllocator.hpp ****             MemoryAllocator::instance()->kmem_free(((KObjectAllocator*) p)->bitVectors[i]);
 2524              		.loc 1 68 57 is_stmt 0
 2525 10cc 83B70403 		ld	a5,48(s1)
  68:src/../h/kObjectAllocator.hpp ****             MemoryAllocator::instance()->kmem_free(((KObjectAllocator*) p)->bitVectors[i]);
 2526              		.loc 1 68 30
 2527 10d0 63F4FA06 		bleu	a5,s5,.L150
  69:src/../h/kObjectAllocator.hpp ****         MemoryAllocator::instance()->kmem_free(((KObjectAllocator*) p)->bitVectors);
 2528              		.loc 1 69 13 is_stmt 1
  69:src/../h/kObjectAllocator.hpp ****         MemoryAllocator::instance()->kmem_free(((KObjectAllocator*) p)->bitVectors);
 2529              		.loc 1 69 51 is_stmt 0
 2530 10d4 97000000 		call	_ZN15MemoryAllocator8instanceEv@plt
 2530      E7800000 
 2531              	.LVL353:
  69:src/../h/kObjectAllocator.hpp ****         MemoryAllocator::instance()->kmem_free(((KObjectAllocator*) p)->bitVectors);
 2532              		.loc 1 69 77
 2533 10dc 83B78402 		ld	a5,40(s1)
  69:src/../h/kObjectAllocator.hpp ****         MemoryAllocator::instance()->kmem_free(((KObjectAllocator*) p)->bitVectors);
 2534              		.loc 1 69 89
 2535 10e0 13973A00 		slli	a4,s5,3
 2536 10e4 B387E700 		add	a5,a5,a4
  69:src/../h/kObjectAllocator.hpp ****         MemoryAllocator::instance()->kmem_free(((KObjectAllocator*) p)->bitVectors);
 2537              		.loc 1 69 51
 2538 10e8 83B50700 		ld	a1,0(a5)
 2539 10ec 97000000 		call	_ZN15MemoryAllocator9kmem_freeEPv@plt
 2539      E7800000 
 2540              	.LVL354:
  68:src/../h/kObjectAllocator.hpp ****             MemoryAllocator::instance()->kmem_free(((KObjectAllocator*) p)->bitVectors[i]);
 2541              		.loc 1 68 9 is_stmt 1
 2542 10f4 938A1A00 		addi	s5,s5,1
 2543              	.LVL355:
 2544 10f8 6FF05FFD 		j	.L151
 2545              	.LVL356:
 2546              	.L198:
 2547              	.LBE238:
 2548              	.LBE237:
 2549              	.LBE236:
 128:src/kObjectAllocatorTest.cpp ****         { delete objAlloc; return false; }
 2550              		.loc 2 128 26 is_stmt 0 discriminator 2
 2551 10fc 13860400 		mv	a2,s1
 2552 1100 93050900 		mv	a1,s2
 2553 1104 13850900 		mv	a0,s3
 2554 1108 97000000 		call	_ZN20KObjectAllocatorTest14getBitOfObjectEPvP16KObjectAllocator
 2554      E7800000 
 2555              	.LVL357:
 128:src/kObjectAllocatorTest.cpp ****         { delete objAlloc; return false; }
 2556              		.loc 2 128 9 discriminator 2
 2557 1110 93077000 		li	a5,7
 2558 1114 E31AF5FA 		bne	a0,a5,.L146
 130:src/kObjectAllocatorTest.cpp **** 
 2559              		.loc 2 130 5 is_stmt 1
GAS LISTING /tmp/ccKdsjgl.s 			page 64


 130:src/kObjectAllocatorTest.cpp **** 
 2560              		.loc 2 130 19 is_stmt 0
 2561 1118 03B78403 		ld	a4,56(s1)
 130:src/kObjectAllocatorTest.cpp **** 
 2562              		.loc 2 130 5
 2563 111c 6300F706 		beq	a4,a5,.L199
 130:src/kObjectAllocatorTest.cpp **** 
 2564              		.loc 2 130 44 is_stmt 1 discriminator 1
 130:src/kObjectAllocatorTest.cpp **** 
 2565              		.loc 2 130 59 is_stmt 0 discriminator 1
 2566 1120 63880400 		beqz	s1,.L152
 130:src/kObjectAllocatorTest.cpp **** 
 2567              		.loc 2 130 51 discriminator 2
 2568 1124 13850400 		mv	a0,s1
 2569 1128 97000000 		call	_ZN16KObjectAllocatordlEPv
 2569      E7800000 
 2570              	.LVL358:
 2571              	.L152:
 130:src/kObjectAllocatorTest.cpp **** 
 2572              		.loc 2 130 61 is_stmt 1 discriminator 3
 130:src/kObjectAllocatorTest.cpp **** 
 2573              		.loc 2 130 68 is_stmt 0 discriminator 3
 2574 1130 13050000 		li	a0,0
 2575 1134 6FF05FBD 		j	.L188
 2576              	.LVL359:
 2577              	.L150:
 2578              	.LBB240:
 2579              	.LBB239:
  70:src/../h/kObjectAllocator.hpp ****         MemoryAllocator::instance()->kmem_free(((KObjectAllocator*) p)->objectVectors);
 2580              		.loc 1 70 9 is_stmt 1
  70:src/../h/kObjectAllocator.hpp ****         MemoryAllocator::instance()->kmem_free(((KObjectAllocator*) p)->objectVectors);
 2581              		.loc 1 70 47 is_stmt 0
 2582 1138 97000000 		call	_ZN15MemoryAllocator8instanceEv@plt
 2582      E7800000 
 2583              	.LVL360:
 2584 1140 83B58402 		ld	a1,40(s1)
 2585 1144 97000000 		call	_ZN15MemoryAllocator9kmem_freeEPv@plt
 2585      E7800000 
 2586              	.LVL361:
  71:src/../h/kObjectAllocator.hpp ****         MemoryAllocator::instance()->kmem_free(p);
 2587              		.loc 1 71 9 is_stmt 1
  71:src/../h/kObjectAllocator.hpp ****         MemoryAllocator::instance()->kmem_free(p);
 2588              		.loc 1 71 47 is_stmt 0
 2589 114c 97000000 		call	_ZN15MemoryAllocator8instanceEv@plt
 2589      E7800000 
 2590              	.LVL362:
 2591 1154 83B50402 		ld	a1,32(s1)
 2592 1158 97000000 		call	_ZN15MemoryAllocator9kmem_freeEPv@plt
 2592      E7800000 
 2593              	.LVL363:
  72:src/../h/kObjectAllocator.hpp ****     }
 2594              		.loc 1 72 9 is_stmt 1
  72:src/../h/kObjectAllocator.hpp ****     }
 2595              		.loc 1 72 47 is_stmt 0
 2596 1160 97000000 		call	_ZN15MemoryAllocator8instanceEv@plt
 2596      E7800000 
 2597              	.LVL364:
GAS LISTING /tmp/ccKdsjgl.s 			page 65


 2598 1168 93850400 		mv	a1,s1
 2599 116c 97000000 		call	_ZN15MemoryAllocator9kmem_freeEPv@plt
 2599      E7800000 
 2600              	.LVL365:
 2601              	.L149:
 2602              	.LBE239:
 2603              	.LBE240:
 129:src/kObjectAllocatorTest.cpp ****     if (objAlloc->nextNonTakenByte != 7) { delete objAlloc; return false; }
 2604              		.loc 2 129 28 is_stmt 1 discriminator 2
 129:src/kObjectAllocatorTest.cpp ****     if (objAlloc->nextNonTakenByte != 7) { delete objAlloc; return false; }
 2605              		.loc 2 129 35 is_stmt 0 discriminator 2
 2606 1174 13050000 		li	a0,0
 2607 1178 6FF01FB9 		j	.L188
 2608              	.L199:
 132:src/kObjectAllocatorTest.cpp ****     objAlloc->freeObject(objArr[7 * 8 + 4]);
 2609              		.loc 2 132 5 is_stmt 1
 132:src/kObjectAllocatorTest.cpp ****     objAlloc->freeObject(objArr[7 * 8 + 4]);
 2610              		.loc 2 132 25 is_stmt 0
 2611 117c 37F9FFFF 		li	s2,-4096
 2612 1180 930704FC 		addi	a5,s0,-64
 2613 1184 33892701 		add	s2,a5,s2
 2614 1188 83358979 		ld	a1,1944(s2)
 2615 118c 13850400 		mv	a0,s1
 2616 1190 97000000 		call	_ZN16KObjectAllocator10freeObjectEPv@plt
 2616      E7800000 
 2617              	.LVL366:
 133:src/kObjectAllocatorTest.cpp ****     objAlloc->freeObject(objArr[38 * 8 + 5]);
 2618              		.loc 2 133 5 is_stmt 1
 133:src/kObjectAllocatorTest.cpp ****     objAlloc->freeObject(objArr[38 * 8 + 5]);
 2619              		.loc 2 133 25 is_stmt 0
 2620 1198 8335097E 		ld	a1,2016(s2)
 2621 119c 13850400 		mv	a0,s1
 2622 11a0 97000000 		call	_ZN16KObjectAllocator10freeObjectEPv@plt
 2622      E7800000 
 2623              	.LVL367:
 134:src/kObjectAllocatorTest.cpp **** 
 2624              		.loc 2 134 5 is_stmt 1
 134:src/kObjectAllocatorTest.cpp **** 
 2625              		.loc 2 134 25 is_stmt 0
 2626 11a8 833584F6 		ld	a1,-152(s0)
 2627 11ac 13850400 		mv	a0,s1
 2628 11b0 97000000 		call	_ZN16KObjectAllocator10freeObjectEPv@plt
 2628      E7800000 
 2629              	.LVL368:
 136:src/kObjectAllocatorTest.cpp ****     if (getByteOfObject(objArr[7 * 8 + 4], objAlloc) != 7
 2630              		.loc 2 136 5 is_stmt 1
 136:src/kObjectAllocatorTest.cpp ****     if (getByteOfObject(objArr[7 * 8 + 4], objAlloc) != 7
 2631              		.loc 2 136 52 is_stmt 0
 2632 11b8 13850400 		mv	a0,s1
 2633 11bc 97000000 		call	_ZN16KObjectAllocator17allocateNewObjectEv@plt
 2633      E7800000 
 2634              	.LVL369:
 2635 11c4 13090500 		mv	s2,a0
 137:src/kObjectAllocatorTest.cpp ****         || getBitOfObject(objArr[7 * 8 + 4], objAlloc) != 3)
 2636              		.loc 2 137 5 is_stmt 1
 137:src/kObjectAllocatorTest.cpp ****         || getBitOfObject(objArr[7 * 8 + 4], objAlloc) != 3)
 2637              		.loc 2 137 24 is_stmt 0
GAS LISTING /tmp/ccKdsjgl.s 			page 66


 2638 11c8 13860400 		mv	a2,s1
 2639 11cc 93050500 		mv	a1,a0
 2640 11d0 13850900 		mv	a0,s3
 2641 11d4 97000000 		call	_ZN20KObjectAllocatorTest15getByteOfObjectEPvP16KObjectAllocator
 2641      E7800000 
 2642              	.LVL370:
 138:src/kObjectAllocatorTest.cpp ****         { delete objAlloc; return false; }
 2643              		.loc 2 138 9
 2644 11dc 93077000 		li	a5,7
 2645 11e0 630EF500 		beq	a0,a5,.L200
 2646              	.L153:
 139:src/kObjectAllocatorTest.cpp ****     if (objAlloc->nextNonTakenByte != 7) { delete objAlloc; return false; }
 2647              		.loc 2 139 11 is_stmt 1 discriminator 4
 139:src/kObjectAllocatorTest.cpp ****     if (objAlloc->nextNonTakenByte != 7) { delete objAlloc; return false; }
 2648              		.loc 2 139 26 is_stmt 0 discriminator 4
 2649 11e4 63880400 		beqz	s1,.L156
 139:src/kObjectAllocatorTest.cpp ****     if (objAlloc->nextNonTakenByte != 7) { delete objAlloc; return false; }
 2650              		.loc 2 139 18 discriminator 1
 2651 11e8 13850400 		mv	a0,s1
 2652 11ec 97000000 		call	_ZN16KObjectAllocatordlEPv
 2652      E7800000 
 2653              	.LVL371:
 2654              	.L156:
 139:src/kObjectAllocatorTest.cpp ****     if (objAlloc->nextNonTakenByte != 7) { delete objAlloc; return false; }
 2655              		.loc 2 139 28 is_stmt 1 discriminator 2
 139:src/kObjectAllocatorTest.cpp ****     if (objAlloc->nextNonTakenByte != 7) { delete objAlloc; return false; }
 2656              		.loc 2 139 35 is_stmt 0 discriminator 2
 2657 11f4 13050000 		li	a0,0
 2658 11f8 6FF01FB1 		j	.L188
 2659              	.L200:
 138:src/kObjectAllocatorTest.cpp ****         { delete objAlloc; return false; }
 2660              		.loc 2 138 26 discriminator 2
 2661 11fc 13860400 		mv	a2,s1
 2662 1200 93050900 		mv	a1,s2
 2663 1204 13850900 		mv	a0,s3
 2664 1208 97000000 		call	_ZN20KObjectAllocatorTest14getBitOfObjectEPvP16KObjectAllocator
 2664      E7800000 
 2665              	.LVL372:
 138:src/kObjectAllocatorTest.cpp ****         { delete objAlloc; return false; }
 2666              		.loc 2 138 9 discriminator 2
 2667 1210 93073000 		li	a5,3
 2668 1214 E318F5FC 		bne	a0,a5,.L153
 140:src/kObjectAllocatorTest.cpp ****     objAlloc->freeObject(objArr[3 * 8 + 5]);
 2669              		.loc 2 140 5 is_stmt 1
 140:src/kObjectAllocatorTest.cpp ****     objAlloc->freeObject(objArr[3 * 8 + 5]);
 2670              		.loc 2 140 19 is_stmt 0
 2671 1218 03B78403 		ld	a4,56(s1)
 140:src/kObjectAllocatorTest.cpp ****     objAlloc->freeObject(objArr[3 * 8 + 5]);
 2672              		.loc 2 140 5
 2673 121c 93077000 		li	a5,7
 2674 1220 630EF700 		beq	a4,a5,.L201
 140:src/kObjectAllocatorTest.cpp ****     objAlloc->freeObject(objArr[3 * 8 + 5]);
 2675              		.loc 2 140 44 is_stmt 1 discriminator 1
 140:src/kObjectAllocatorTest.cpp ****     objAlloc->freeObject(objArr[3 * 8 + 5]);
 2676              		.loc 2 140 59 is_stmt 0 discriminator 1
 2677 1224 63880400 		beqz	s1,.L157
 140:src/kObjectAllocatorTest.cpp ****     objAlloc->freeObject(objArr[3 * 8 + 5]);
GAS LISTING /tmp/ccKdsjgl.s 			page 67


 2678              		.loc 2 140 51 discriminator 2
 2679 1228 13850400 		mv	a0,s1
 2680 122c 97000000 		call	_ZN16KObjectAllocatordlEPv
 2680      E7800000 
 2681              	.LVL373:
 2682              	.L157:
 140:src/kObjectAllocatorTest.cpp ****     objAlloc->freeObject(objArr[3 * 8 + 5]);
 2683              		.loc 2 140 61 is_stmt 1 discriminator 3
 140:src/kObjectAllocatorTest.cpp ****     objAlloc->freeObject(objArr[3 * 8 + 5]);
 2684              		.loc 2 140 68 is_stmt 0 discriminator 3
 2685 1234 13050000 		li	a0,0
 2686 1238 6FF01FAD 		j	.L188
 2687              	.L201:
 141:src/kObjectAllocatorTest.cpp **** 
 2688              		.loc 2 141 5 is_stmt 1
 141:src/kObjectAllocatorTest.cpp **** 
 2689              		.loc 2 141 25 is_stmt 0
 2690 123c B7F7FFFF 		li	a5,-4096
 2691 1240 130704FC 		addi	a4,s0,-64
 2692 1244 B307F700 		add	a5,a4,a5
 2693 1248 83B5876E 		ld	a1,1768(a5)
 2694 124c 13850400 		mv	a0,s1
 2695 1250 97000000 		call	_ZN16KObjectAllocator10freeObjectEPv@plt
 2695      E7800000 
 2696              	.LVL374:
 143:src/kObjectAllocatorTest.cpp ****     if (getByteOfObject(objArr[38 * 8 + 5], objAlloc) != 38
 2697              		.loc 2 143 5 is_stmt 1
 143:src/kObjectAllocatorTest.cpp ****     if (getByteOfObject(objArr[38 * 8 + 5], objAlloc) != 38
 2698              		.loc 2 143 53 is_stmt 0
 2699 1258 13850400 		mv	a0,s1
 2700 125c 97000000 		call	_ZN16KObjectAllocator17allocateNewObjectEv@plt
 2700      E7800000 
 2701              	.LVL375:
 2702 1264 13090500 		mv	s2,a0
 144:src/kObjectAllocatorTest.cpp ****         || getBitOfObject(objArr[38 * 8 + 5], objAlloc) != 2)
 2703              		.loc 2 144 5 is_stmt 1
 144:src/kObjectAllocatorTest.cpp ****         || getBitOfObject(objArr[38 * 8 + 5], objAlloc) != 2)
 2704              		.loc 2 144 24 is_stmt 0
 2705 1268 13860400 		mv	a2,s1
 2706 126c 93050500 		mv	a1,a0
 2707 1270 13850900 		mv	a0,s3
 2708 1274 97000000 		call	_ZN20KObjectAllocatorTest15getByteOfObjectEPvP16KObjectAllocator
 2708      E7800000 
 2709              	.LVL376:
 145:src/kObjectAllocatorTest.cpp ****     { delete objAlloc; return false; }
 2710              		.loc 2 145 9
 2711 127c 93076002 		li	a5,38
 2712 1280 630EF500 		beq	a0,a5,.L202
 2713              	.L158:
 146:src/kObjectAllocatorTest.cpp ****     if (objAlloc->nextNonTakenByte != 38) { delete objAlloc; return false; }
 2714              		.loc 2 146 7 is_stmt 1 discriminator 4
 146:src/kObjectAllocatorTest.cpp ****     if (objAlloc->nextNonTakenByte != 38) { delete objAlloc; return false; }
 2715              		.loc 2 146 22 is_stmt 0 discriminator 4
 2716 1284 63880400 		beqz	s1,.L161
 146:src/kObjectAllocatorTest.cpp ****     if (objAlloc->nextNonTakenByte != 38) { delete objAlloc; return false; }
 2717              		.loc 2 146 14 discriminator 1
 2718 1288 13850400 		mv	a0,s1
GAS LISTING /tmp/ccKdsjgl.s 			page 68


 2719 128c 97000000 		call	_ZN16KObjectAllocatordlEPv
 2719      E7800000 
 2720              	.LVL377:
 2721              	.L161:
 146:src/kObjectAllocatorTest.cpp ****     if (objAlloc->nextNonTakenByte != 38) { delete objAlloc; return false; }
 2722              		.loc 2 146 24 is_stmt 1 discriminator 2
 146:src/kObjectAllocatorTest.cpp ****     if (objAlloc->nextNonTakenByte != 38) { delete objAlloc; return false; }
 2723              		.loc 2 146 31 is_stmt 0 discriminator 2
 2724 1294 13050000 		li	a0,0
 2725 1298 6FF01FA7 		j	.L188
 2726              	.L202:
 145:src/kObjectAllocatorTest.cpp ****     { delete objAlloc; return false; }
 2727              		.loc 2 145 26 discriminator 2
 2728 129c 13860400 		mv	a2,s1
 2729 12a0 93050900 		mv	a1,s2
 2730 12a4 13850900 		mv	a0,s3
 2731 12a8 97000000 		call	_ZN20KObjectAllocatorTest14getBitOfObjectEPvP16KObjectAllocator
 2731      E7800000 
 2732              	.LVL378:
 145:src/kObjectAllocatorTest.cpp ****     { delete objAlloc; return false; }
 2733              		.loc 2 145 9 discriminator 2
 2734 12b0 93072000 		li	a5,2
 2735 12b4 E318F5FC 		bne	a0,a5,.L158
 147:src/kObjectAllocatorTest.cpp **** 
 2736              		.loc 2 147 5 is_stmt 1
 147:src/kObjectAllocatorTest.cpp **** 
 2737              		.loc 2 147 19 is_stmt 0
 2738 12b8 03B78403 		ld	a4,56(s1)
 147:src/kObjectAllocatorTest.cpp **** 
 2739              		.loc 2 147 5
 2740 12bc 93076002 		li	a5,38
 2741 12c0 630EF700 		beq	a4,a5,.L203
 147:src/kObjectAllocatorTest.cpp **** 
 2742              		.loc 2 147 45 is_stmt 1 discriminator 1
 147:src/kObjectAllocatorTest.cpp **** 
 2743              		.loc 2 147 60 is_stmt 0 discriminator 1
 2744 12c4 63880400 		beqz	s1,.L162
 147:src/kObjectAllocatorTest.cpp **** 
 2745              		.loc 2 147 52 discriminator 2
 2746 12c8 13850400 		mv	a0,s1
 2747 12cc 97000000 		call	_ZN16KObjectAllocatordlEPv
 2747      E7800000 
 2748              	.LVL379:
 2749              	.L162:
 147:src/kObjectAllocatorTest.cpp **** 
 2750              		.loc 2 147 62 is_stmt 1 discriminator 3
 147:src/kObjectAllocatorTest.cpp **** 
 2751              		.loc 2 147 69 is_stmt 0 discriminator 3
 2752 12d4 13050000 		li	a0,0
 2753 12d8 6FF01FA3 		j	.L188
 2754              	.L203:
 150:src/kObjectAllocatorTest.cpp ****     if (getByteOfObject(objArr[3 * 8 + 5], objAlloc) != 3 || getBitOfObject(objArr[3 * 8 + 5], objA
 2755              		.loc 2 150 5 is_stmt 1
 150:src/kObjectAllocatorTest.cpp ****     if (getByteOfObject(objArr[3 * 8 + 5], objAlloc) != 3 || getBitOfObject(objArr[3 * 8 + 5], objA
 2756              		.loc 2 150 52 is_stmt 0
 2757 12dc 13850400 		mv	a0,s1
 2758 12e0 97000000 		call	_ZN16KObjectAllocator17allocateNewObjectEv@plt
GAS LISTING /tmp/ccKdsjgl.s 			page 69


 2758      E7800000 
 2759              	.LVL380:
 2760 12e8 13090500 		mv	s2,a0
 151:src/kObjectAllocatorTest.cpp ****     if (objAlloc->nextNonTakenByte != 3) { delete objAlloc; return false; }
 2761              		.loc 2 151 5 is_stmt 1
 151:src/kObjectAllocatorTest.cpp ****     if (objAlloc->nextNonTakenByte != 3) { delete objAlloc; return false; }
 2762              		.loc 2 151 24 is_stmt 0
 2763 12ec 13860400 		mv	a2,s1
 2764 12f0 93050500 		mv	a1,a0
 2765 12f4 13850900 		mv	a0,s3
 2766 12f8 97000000 		call	_ZN20KObjectAllocatorTest15getByteOfObjectEPvP16KObjectAllocator
 2766      E7800000 
 2767              	.LVL381:
 151:src/kObjectAllocatorTest.cpp ****     if (objAlloc->nextNonTakenByte != 3) { delete objAlloc; return false; }
 2768              		.loc 2 151 59
 2769 1300 93073000 		li	a5,3
 2770 1304 6304F502 		beq	a0,a5,.L204
 2771              	.L163:
 152:src/kObjectAllocatorTest.cpp **** 
 2772              		.loc 2 152 5 is_stmt 1 discriminator 5
 152:src/kObjectAllocatorTest.cpp **** 
 2773              		.loc 2 152 19 is_stmt 0 discriminator 5
 2774 1308 03B78403 		ld	a4,56(s1)
 152:src/kObjectAllocatorTest.cpp **** 
 2775              		.loc 2 152 5 discriminator 5
 2776 130c 93073000 		li	a5,3
 2777 1310 630CF702 		beq	a4,a5,.L164
 152:src/kObjectAllocatorTest.cpp **** 
 2778              		.loc 2 152 44 is_stmt 1 discriminator 1
 152:src/kObjectAllocatorTest.cpp **** 
 2779              		.loc 2 152 59 is_stmt 0 discriminator 1
 2780 1314 63880400 		beqz	s1,.L165
 152:src/kObjectAllocatorTest.cpp **** 
 2781              		.loc 2 152 51 discriminator 2
 2782 1318 13850400 		mv	a0,s1
 2783 131c 97000000 		call	_ZN16KObjectAllocatordlEPv
 2783      E7800000 
 2784              	.LVL382:
 2785              	.L165:
 152:src/kObjectAllocatorTest.cpp **** 
 2786              		.loc 2 152 61 is_stmt 1 discriminator 3
 152:src/kObjectAllocatorTest.cpp **** 
 2787              		.loc 2 152 68 is_stmt 0 discriminator 3
 2788 1324 13050000 		li	a0,0
 2789 1328 6FF01F9E 		j	.L188
 2790              	.L204:
 151:src/kObjectAllocatorTest.cpp ****     if (objAlloc->nextNonTakenByte != 3) { delete objAlloc; return false; }
 2791              		.loc 2 151 76 discriminator 3
 2792 132c 13860400 		mv	a2,s1
 2793 1330 93050900 		mv	a1,s2
 2794 1334 13850900 		mv	a0,s3
 2795 1338 97000000 		call	_ZN20KObjectAllocatorTest14getBitOfObjectEPvP16KObjectAllocator
 2795      E7800000 
 2796              	.LVL383:
 151:src/kObjectAllocatorTest.cpp ****     if (objAlloc->nextNonTakenByte != 3) { delete objAlloc; return false; }
 2797              		.loc 2 151 59 discriminator 3
 2798 1340 93072000 		li	a5,2
GAS LISTING /tmp/ccKdsjgl.s 			page 70


 2799 1344 E312F5FC 		bne	a0,a5,.L163
 2800              	.L164:
 154:src/kObjectAllocatorTest.cpp ****     if (getByteOfObject(objArr[6 * 8 + 3], objAlloc) != 6
 2801              		.loc 2 154 5 is_stmt 1
 154:src/kObjectAllocatorTest.cpp ****     if (getByteOfObject(objArr[6 * 8 + 3], objAlloc) != 6
 2802              		.loc 2 154 52 is_stmt 0
 2803 1348 13850400 		mv	a0,s1
 2804 134c 97000000 		call	_ZN16KObjectAllocator17allocateNewObjectEv@plt
 2804      E7800000 
 2805              	.LVL384:
 2806 1354 13090500 		mv	s2,a0
 155:src/kObjectAllocatorTest.cpp ****         || getBitOfObject(objArr[6 * 8 + 3], objAlloc) != 4)
 2807              		.loc 2 155 5 is_stmt 1
 155:src/kObjectAllocatorTest.cpp ****         || getBitOfObject(objArr[6 * 8 + 3], objAlloc) != 4)
 2808              		.loc 2 155 24 is_stmt 0
 2809 1358 13860400 		mv	a2,s1
 2810 135c 93050500 		mv	a1,a0
 2811 1360 13850900 		mv	a0,s3
 2812 1364 97000000 		call	_ZN20KObjectAllocatorTest15getByteOfObjectEPvP16KObjectAllocator
 2812      E7800000 
 2813              	.LVL385:
 156:src/kObjectAllocatorTest.cpp ****     { delete objAlloc; return false; }
 2814              		.loc 2 156 9
 2815 136c 93076000 		li	a5,6
 2816 1370 630EF500 		beq	a0,a5,.L205
 2817              	.L166:
 157:src/kObjectAllocatorTest.cpp ****     if (objAlloc->nextNonTakenByte != 6) { delete objAlloc; return false; }
 2818              		.loc 2 157 7 is_stmt 1 discriminator 4
 157:src/kObjectAllocatorTest.cpp ****     if (objAlloc->nextNonTakenByte != 6) { delete objAlloc; return false; }
 2819              		.loc 2 157 22 is_stmt 0 discriminator 4
 2820 1374 63880400 		beqz	s1,.L169
 157:src/kObjectAllocatorTest.cpp ****     if (objAlloc->nextNonTakenByte != 6) { delete objAlloc; return false; }
 2821              		.loc 2 157 14 discriminator 1
 2822 1378 13850400 		mv	a0,s1
 2823 137c 97000000 		call	_ZN16KObjectAllocatordlEPv
 2823      E7800000 
 2824              	.LVL386:
 2825              	.L169:
 157:src/kObjectAllocatorTest.cpp ****     if (objAlloc->nextNonTakenByte != 6) { delete objAlloc; return false; }
 2826              		.loc 2 157 24 is_stmt 1 discriminator 2
 157:src/kObjectAllocatorTest.cpp ****     if (objAlloc->nextNonTakenByte != 6) { delete objAlloc; return false; }
 2827              		.loc 2 157 31 is_stmt 0 discriminator 2
 2828 1384 13050000 		li	a0,0
 2829 1388 6FF01F98 		j	.L188
 2830              	.L205:
 156:src/kObjectAllocatorTest.cpp ****     { delete objAlloc; return false; }
 2831              		.loc 2 156 26 discriminator 2
 2832 138c 13860400 		mv	a2,s1
 2833 1390 93050900 		mv	a1,s2
 2834 1394 13850900 		mv	a0,s3
 2835 1398 97000000 		call	_ZN20KObjectAllocatorTest14getBitOfObjectEPvP16KObjectAllocator
 2835      E7800000 
 2836              	.LVL387:
 156:src/kObjectAllocatorTest.cpp ****     { delete objAlloc; return false; }
 2837              		.loc 2 156 9 discriminator 2
 2838 13a0 93074000 		li	a5,4
 2839 13a4 E318F5FC 		bne	a0,a5,.L166
GAS LISTING /tmp/ccKdsjgl.s 			page 71


 158:src/kObjectAllocatorTest.cpp **** 
 2840              		.loc 2 158 5 is_stmt 1
 158:src/kObjectAllocatorTest.cpp **** 
 2841              		.loc 2 158 19 is_stmt 0
 2842 13a8 03B78403 		ld	a4,56(s1)
 158:src/kObjectAllocatorTest.cpp **** 
 2843              		.loc 2 158 5
 2844 13ac 93076000 		li	a5,6
 2845 13b0 6314F70E 		bne	a4,a5,.L167
 2846              	.LBB241:
 160:src/kObjectAllocatorTest.cpp ****         objAlloc->freeObject(objArr[319]);
 2847              		.loc 2 160 14
 2848 13b4 930A0000 		li	s5,0
 2849              	.L168:
 2850              	.LVL388:
 160:src/kObjectAllocatorTest.cpp ****         objAlloc->freeObject(objArr[319]);
 2851              		.loc 2 160 23 is_stmt 1 discriminator 1
 2852 13b8 93072000 		li	a5,2
 2853 13bc 63CA5715 		bgt	s5,a5,.L171
 161:src/kObjectAllocatorTest.cpp ****         objArr[319] = objAlloc->allocateNewObject();
 2854              		.loc 2 161 9
 161:src/kObjectAllocatorTest.cpp ****         objArr[319] = objAlloc->allocateNewObject();
 2855              		.loc 2 161 29 is_stmt 0
 2856 13c0 833584FB 		ld	a1,-72(s0)
 2857 13c4 13850400 		mv	a0,s1
 2858 13c8 97000000 		call	_ZN16KObjectAllocator10freeObjectEPv@plt
 2858      E7800000 
 2859              	.LVL389:
 162:src/kObjectAllocatorTest.cpp ****         if (getByteOfObject(objArr[319], objAlloc) != 39
 2860              		.loc 2 162 9 is_stmt 1
 162:src/kObjectAllocatorTest.cpp ****         if (getByteOfObject(objArr[319], objAlloc) != 39
 2861              		.loc 2 162 50 is_stmt 0
 2862 13d0 13850400 		mv	a0,s1
 2863 13d4 97000000 		call	_ZN16KObjectAllocator17allocateNewObjectEv@plt
 2863      E7800000 
 2864              	.LVL390:
 2865 13dc 13090500 		mv	s2,a0
 162:src/kObjectAllocatorTest.cpp ****         if (getByteOfObject(objArr[319], objAlloc) != 39
 2866              		.loc 2 162 21
 2867 13e0 233CA4FA 		sd	a0,-72(s0)
 163:src/kObjectAllocatorTest.cpp ****             || getBitOfObject(objArr[319], objAlloc) != 0)
 2868              		.loc 2 163 9 is_stmt 1
 163:src/kObjectAllocatorTest.cpp ****             || getBitOfObject(objArr[319], objAlloc) != 0)
 2869              		.loc 2 163 28 is_stmt 0
 2870 13e4 13860400 		mv	a2,s1
 2871 13e8 93050500 		mv	a1,a0
 2872 13ec 13850900 		mv	a0,s3
 2873 13f0 97000000 		call	_ZN20KObjectAllocatorTest15getByteOfObjectEPvP16KObjectAllocator
 2873      E7800000 
 2874              	.LVL391:
 164:src/kObjectAllocatorTest.cpp ****         { delete objAlloc; return false; }
 2875              		.loc 2 164 13
 2876 13f8 93077002 		li	a5,39
 2877 13fc 631AF50A 		bne	a0,a5,.L172
 164:src/kObjectAllocatorTest.cpp ****         { delete objAlloc; return false; }
 2878              		.loc 2 164 30 discriminator 2
 2879 1400 13860400 		mv	a2,s1
GAS LISTING /tmp/ccKdsjgl.s 			page 72


 2880 1404 93050900 		mv	a1,s2
 2881 1408 13850900 		mv	a0,s3
 2882 140c 97000000 		call	_ZN20KObjectAllocatorTest14getBitOfObjectEPvP16KObjectAllocator
 2882      E7800000 
 2883              	.LVL392:
 164:src/kObjectAllocatorTest.cpp ****         { delete objAlloc; return false; }
 2884              		.loc 2 164 13 discriminator 2
 2885 1414 631E0508 		bnez	a0,.L172
 166:src/kObjectAllocatorTest.cpp **** 
 2886              		.loc 2 166 9 is_stmt 1
 166:src/kObjectAllocatorTest.cpp **** 
 2887              		.loc 2 166 23 is_stmt 0
 2888 1418 03B78403 		ld	a4,56(s1)
 166:src/kObjectAllocatorTest.cpp **** 
 2889              		.loc 2 166 9
 2890 141c 93078002 		li	a5,40
 2891 1420 6314F70A 		bne	a4,a5,.L206
 168:src/kObjectAllocatorTest.cpp ****         objArr[1] = objAlloc->allocateNewObject();
 2892              		.loc 2 168 9 is_stmt 1
 168:src/kObjectAllocatorTest.cpp ****         objArr[1] = objAlloc->allocateNewObject();
 2893              		.loc 2 168 29 is_stmt 0
 2894 1424 37FAFFFF 		li	s4,-4096
 2895 1428 930704FC 		addi	a5,s0,-64
 2896 142c 338A4701 		add	s4,a5,s4
 2897 1430 83358A60 		ld	a1,1544(s4)
 2898 1434 13850400 		mv	a0,s1
 2899 1438 97000000 		call	_ZN16KObjectAllocator10freeObjectEPv@plt
 2899      E7800000 
 2900              	.LVL393:
 169:src/kObjectAllocatorTest.cpp ****         if (getByteOfObject(objArr[1], objAlloc) != 0
 2901              		.loc 2 169 9 is_stmt 1
 169:src/kObjectAllocatorTest.cpp ****         if (getByteOfObject(objArr[1], objAlloc) != 0
 2902              		.loc 2 169 48 is_stmt 0
 2903 1440 13850400 		mv	a0,s1
 2904 1444 97000000 		call	_ZN16KObjectAllocator17allocateNewObjectEv@plt
 2904      E7800000 
 2905              	.LVL394:
 2906 144c 13090500 		mv	s2,a0
 169:src/kObjectAllocatorTest.cpp ****         if (getByteOfObject(objArr[1], objAlloc) != 0
 2907              		.loc 2 169 19
 2908 1450 2334AA60 		sd	a0,1544(s4)
 170:src/kObjectAllocatorTest.cpp ****             || getBitOfObject(objArr[1], objAlloc) != 6)
 2909              		.loc 2 170 9 is_stmt 1
 170:src/kObjectAllocatorTest.cpp ****             || getBitOfObject(objArr[1], objAlloc) != 6)
 2910              		.loc 2 170 28 is_stmt 0
 2911 1454 13860400 		mv	a2,s1
 2912 1458 93050500 		mv	a1,a0
 2913 145c 13850900 		mv	a0,s3
 2914 1460 97000000 		call	_ZN20KObjectAllocatorTest15getByteOfObjectEPvP16KObjectAllocator
 2914      E7800000 
 2915              	.LVL395:
 171:src/kObjectAllocatorTest.cpp ****         { delete objAlloc; return false; }
 2916              		.loc 2 171 13
 2917 1468 631C0506 		bnez	a0,.L177
 171:src/kObjectAllocatorTest.cpp ****         { delete objAlloc; return false; }
 2918              		.loc 2 171 30 discriminator 2
 2919 146c 13860400 		mv	a2,s1
GAS LISTING /tmp/ccKdsjgl.s 			page 73


 2920 1470 93050900 		mv	a1,s2
 2921 1474 13850900 		mv	a0,s3
 2922 1478 97000000 		call	_ZN20KObjectAllocatorTest14getBitOfObjectEPvP16KObjectAllocator
 2922      E7800000 
 2923              	.LVL396:
 171:src/kObjectAllocatorTest.cpp ****         { delete objAlloc; return false; }
 2924              		.loc 2 171 13 discriminator 2
 2925 1480 93076000 		li	a5,6
 2926 1484 631EF504 		bne	a0,a5,.L177
 173:src/kObjectAllocatorTest.cpp ****     }
 2927              		.loc 2 173 9 is_stmt 1
 173:src/kObjectAllocatorTest.cpp ****     }
 2928              		.loc 2 173 23 is_stmt 0
 2929 1488 83B78403 		ld	a5,56(s1)
 173:src/kObjectAllocatorTest.cpp ****     }
 2930              		.loc 2 173 9
 2931 148c 63960706 		bnez	a5,.L207
 160:src/kObjectAllocatorTest.cpp ****         objAlloc->freeObject(objArr[319]);
 2932              		.loc 2 160 5 is_stmt 1 discriminator 2
 2933 1490 9B8A1A00 		addiw	s5,s5,1
 2934              	.LVL397:
 2935 1494 6FF05FF2 		j	.L168
 2936              	.L167:
 2937              	.LBE241:
 158:src/kObjectAllocatorTest.cpp **** 
 2938              		.loc 2 158 44 discriminator 1
 158:src/kObjectAllocatorTest.cpp **** 
 2939              		.loc 2 158 59 is_stmt 0 discriminator 1
 2940 1498 63880400 		beqz	s1,.L170
 158:src/kObjectAllocatorTest.cpp **** 
 2941              		.loc 2 158 51 discriminator 2
 2942 149c 13850400 		mv	a0,s1
 2943 14a0 97000000 		call	_ZN16KObjectAllocatordlEPv
 2943      E7800000 
 2944              	.LVL398:
 2945              	.L170:
 158:src/kObjectAllocatorTest.cpp **** 
 2946              		.loc 2 158 61 is_stmt 1 discriminator 3
 158:src/kObjectAllocatorTest.cpp **** 
 2947              		.loc 2 158 68 is_stmt 0 discriminator 3
 2948 14a8 13050000 		li	a0,0
 2949 14ac 6FF0DF85 		j	.L188
 2950              	.LVL399:
 2951              	.L172:
 2952              	.LBB242:
 165:src/kObjectAllocatorTest.cpp ****         if (objAlloc->nextNonTakenByte != 40) { delete objAlloc; return false; }
 2953              		.loc 2 165 11 is_stmt 1 discriminator 4
 165:src/kObjectAllocatorTest.cpp ****         if (objAlloc->nextNonTakenByte != 40) { delete objAlloc; return false; }
 2954              		.loc 2 165 26 is_stmt 0 discriminator 4
 2955 14b0 63880400 		beqz	s1,.L175
 165:src/kObjectAllocatorTest.cpp ****         if (objAlloc->nextNonTakenByte != 40) { delete objAlloc; return false; }
 2956              		.loc 2 165 18 discriminator 1
 2957 14b4 13850400 		mv	a0,s1
 2958 14b8 97000000 		call	_ZN16KObjectAllocatordlEPv
 2958      E7800000 
 2959              	.LVL400:
 2960              	.L175:
GAS LISTING /tmp/ccKdsjgl.s 			page 74


 165:src/kObjectAllocatorTest.cpp ****         if (objAlloc->nextNonTakenByte != 40) { delete objAlloc; return false; }
 2961              		.loc 2 165 28 is_stmt 1 discriminator 2
 165:src/kObjectAllocatorTest.cpp ****         if (objAlloc->nextNonTakenByte != 40) { delete objAlloc; return false; }
 2962              		.loc 2 165 35 is_stmt 0 discriminator 2
 2963 14c0 13050000 		li	a0,0
 2964 14c4 6FF05F84 		j	.L188
 2965              	.L206:
 166:src/kObjectAllocatorTest.cpp **** 
 2966              		.loc 2 166 49 is_stmt 1 discriminator 1
 166:src/kObjectAllocatorTest.cpp **** 
 2967              		.loc 2 166 64 is_stmt 0 discriminator 1
 2968 14c8 63880400 		beqz	s1,.L176
 166:src/kObjectAllocatorTest.cpp **** 
 2969              		.loc 2 166 56 discriminator 2
 2970 14cc 13850400 		mv	a0,s1
 2971 14d0 97000000 		call	_ZN16KObjectAllocatordlEPv
 2971      E7800000 
 2972              	.LVL401:
 2973              	.L176:
 166:src/kObjectAllocatorTest.cpp **** 
 2974              		.loc 2 166 66 is_stmt 1 discriminator 3
 166:src/kObjectAllocatorTest.cpp **** 
 2975              		.loc 2 166 73 is_stmt 0 discriminator 3
 2976 14d8 13050000 		li	a0,0
 2977 14dc 6FF0DF82 		j	.L188
 2978              	.L177:
 172:src/kObjectAllocatorTest.cpp ****         if (objAlloc->nextNonTakenByte != 0) { delete objAlloc; return false; }
 2979              		.loc 2 172 11 is_stmt 1 discriminator 4
 172:src/kObjectAllocatorTest.cpp ****         if (objAlloc->nextNonTakenByte != 0) { delete objAlloc; return false; }
 2980              		.loc 2 172 26 is_stmt 0 discriminator 4
 2981 14e0 63880400 		beqz	s1,.L180
 172:src/kObjectAllocatorTest.cpp ****         if (objAlloc->nextNonTakenByte != 0) { delete objAlloc; return false; }
 2982              		.loc 2 172 18 discriminator 1
 2983 14e4 13850400 		mv	a0,s1
 2984 14e8 97000000 		call	_ZN16KObjectAllocatordlEPv
 2984      E7800000 
 2985              	.LVL402:
 2986              	.L180:
 172:src/kObjectAllocatorTest.cpp ****         if (objAlloc->nextNonTakenByte != 0) { delete objAlloc; return false; }
 2987              		.loc 2 172 28 is_stmt 1 discriminator 2
 172:src/kObjectAllocatorTest.cpp ****         if (objAlloc->nextNonTakenByte != 0) { delete objAlloc; return false; }
 2988              		.loc 2 172 35 is_stmt 0 discriminator 2
 2989 14f0 13050000 		li	a0,0
 2990 14f4 6FF05F81 		j	.L188
 2991              	.L207:
 173:src/kObjectAllocatorTest.cpp ****     }
 2992              		.loc 2 173 48 is_stmt 1 discriminator 1
 173:src/kObjectAllocatorTest.cpp ****     }
 2993              		.loc 2 173 63 is_stmt 0 discriminator 1
 2994 14f8 63880400 		beqz	s1,.L181
 173:src/kObjectAllocatorTest.cpp ****     }
 2995              		.loc 2 173 55 discriminator 2
 2996 14fc 13850400 		mv	a0,s1
 2997 1500 97000000 		call	_ZN16KObjectAllocatordlEPv
 2997      E7800000 
 2998              	.LVL403:
 2999              	.L181:
GAS LISTING /tmp/ccKdsjgl.s 			page 75


 173:src/kObjectAllocatorTest.cpp ****     }
 3000              		.loc 2 173 65 is_stmt 1 discriminator 3
 173:src/kObjectAllocatorTest.cpp ****     }
 3001              		.loc 2 173 72 is_stmt 0 discriminator 3
 3002 1508 13050000 		li	a0,0
 3003 150c 6FF0CFFF 		j	.L188
 3004              	.L171:
 3005              	.LBE242:
 175:src/kObjectAllocatorTest.cpp ****     return true;
 3006              		.loc 2 175 5 is_stmt 1
 175:src/kObjectAllocatorTest.cpp ****     return true;
 3007              		.loc 2 175 20 is_stmt 0
 3008 1510 638C0400 		beqz	s1,.L186
 175:src/kObjectAllocatorTest.cpp ****     return true;
 3009              		.loc 2 175 12 discriminator 1
 3010 1514 13850400 		mv	a0,s1
 3011 1518 97000000 		call	_ZN16KObjectAllocatordlEPv
 3011      E7800000 
 3012              	.LVL404:
 3013              	.LEHE6:
 176:src/kObjectAllocatorTest.cpp **** }
 3014              		.loc 2 176 12 discriminator 1
 3015 1520 13051000 		li	a0,1
 3016 1524 6FF04FFE 		j	.L188
 3017              	.L186:
 176:src/kObjectAllocatorTest.cpp **** }
 3018              		.loc 2 176 12
 3019 1528 13051000 		li	a0,1
 3020 152c 6FF0CFFD 		j	.L188
 3021              	.LVL405:
 3022              	.L187:
 3023 1530 13090500 		mv	s2,a0
 3024              	.LVL406:
 112:src/kObjectAllocatorTest.cpp ****     if (objAlloc->getNumberOfObjects() != 320) { delete objAlloc; return false; }
 3025              		.loc 2 112 59
 3026 1534 13850400 		mv	a0,s1
 3027 1538 97000000 		call	_ZN16KObjectAllocatordlEPv
 3027      E7800000 
 3028              	.LVL407:
 3029 1540 13050900 		mv	a0,s2
 3030              	.LEHB7:
 3031 1544 97000000 		call	_Unwind_Resume@plt
 3031      E7800000 
 3032              	.LVL408:
 3033              	.LEHE7:
 3034              		.cfi_endproc
 3035              	.LFE28:
 3036              		.section	.gcc_except_table
 3037              	.LLSDA28:
 3038 0038 FF       		.byte	0xff
 3039 0039 FF       		.byte	0xff
 3040 003a 03       		.byte	0x3
 3041 003b 34       		.byte	0x34
 3042 003c 00000000 		.4byte	.LEHB4-.LFB28
 3043 0040 00000000 		.4byte	.LEHE4-.LEHB4
 3044 0044 00000000 		.4byte	0
 3045 0048 00       		.byte	0
GAS LISTING /tmp/ccKdsjgl.s 			page 76


 3046 0049 00000000 		.4byte	.LEHB5-.LFB28
 3047 004d 00000000 		.4byte	.LEHE5-.LEHB5
 3048 0051 00000000 		.4byte	.L187-.LFB28
 3049 0055 00       		.byte	0
 3050 0056 00000000 		.4byte	.LEHB6-.LFB28
 3051 005a 00000000 		.4byte	.LEHE6-.LEHB6
 3052 005e 00000000 		.4byte	0
 3053 0062 00       		.byte	0
 3054 0063 00000000 		.4byte	.LEHB7-.LFB28
 3055 0067 00000000 		.4byte	.LEHE7-.LEHB7
 3056 006b 00000000 		.4byte	0
 3057 006f 00       		.byte	0
 3058              		.text
 3060              		.align	2
 3061              		.globl	_ZN20KObjectAllocatorTest5test2Em
 3063              	_ZN20KObjectAllocatorTest5test2Em:
 3064              	.LFB29:
 178:src/kObjectAllocatorTest.cpp **** 
 179:src/kObjectAllocatorTest.cpp **** bool KObjectAllocatorTest::test2(size_t size) {
 3065              		.loc 2 179 47 is_stmt 1
 3066              		.cfi_startproc
 3067              		.cfi_personality 0x9b,DW.ref.__gxx_personality_v0
 3068              		.cfi_lsda 0x1b,.LLSDA29
 3069              	.LVL409:
 3070 154c 130101F5 		addi	sp,sp,-176
 3071              		.cfi_def_cfa_offset 176
 3072 1550 2334110A 		sd	ra,168(sp)
 3073 1554 2330810A 		sd	s0,160(sp)
 3074 1558 233C9108 		sd	s1,152(sp)
 3075 155c 23382109 		sd	s2,144(sp)
 3076 1560 23343109 		sd	s3,136(sp)
 3077 1564 23304109 		sd	s4,128(sp)
 3078 1568 233C5107 		sd	s5,120(sp)
 3079 156c 23386107 		sd	s6,112(sp)
 3080 1570 23347107 		sd	s7,104(sp)
 3081 1574 23308107 		sd	s8,96(sp)
 3082              		.cfi_offset 1, -8
 3083              		.cfi_offset 8, -16
 3084              		.cfi_offset 9, -24
 3085              		.cfi_offset 18, -32
 3086              		.cfi_offset 19, -40
 3087              		.cfi_offset 20, -48
 3088              		.cfi_offset 21, -56
 3089              		.cfi_offset 22, -64
 3090              		.cfi_offset 23, -72
 3091              		.cfi_offset 24, -80
 3092 1578 1304010B 		addi	s0,sp,176
 3093              		.cfi_def_cfa 8, 0
 3094 157c 93090500 		mv	s3,a0
 3095 1580 13890500 		mv	s2,a1
 180:src/kObjectAllocatorTest.cpp ****     KObjectAllocator* objAlloc = new KObjectAllocator(size, 3);
 3096              		.loc 2 180 5
 3097              	.LVL410:
 3098              	.LBB291:
 3099              	.LBB292:
  65:src/../h/kObjectAllocator.hpp ****     }
 3100              		.loc 1 65 9
GAS LISTING /tmp/ccKdsjgl.s 			page 77


 3101              	.LEHB8:
  65:src/../h/kObjectAllocator.hpp ****     }
 3102              		.loc 1 65 55 is_stmt 0
 3103 1584 97000000 		call	_ZN15MemoryAllocator8instanceEv@plt
 3103      E7800000 
 3104              	.LVL411:
 3105 158c 93050004 		li	a1,64
 3106 1590 97000000 		call	_ZN15MemoryAllocator10kmem_allocEm@plt
 3106      E7800000 
 3107              	.LVL412:
 3108              	.LEHE8:
 3109 1598 93040500 		mv	s1,a0
 3110              	.LVL413:
 3111              	.LBE292:
 3112              	.LBE291:
 3113              	.LBB293:
 3114              	.LBB294:
  51:src/../h/kObjectAllocator.hpp ****         bitVectors = (uint8**) MemoryAllocator::instance()->kmem_alloc(numberOfAllocations * sizeof
 3115              		.loc 1 51 120
 3116 159c 93073000 		li	a5,3
 3117 15a0 2330F500 		sd	a5,0(a0)
 3118 15a4 2334F500 		sd	a5,8(a0)
 3119 15a8 233C2501 		sd	s2,24(a0)
 3120 15ac 93071000 		li	a5,1
 3121 15b0 2338F502 		sd	a5,48(a0)
 3122 15b4 233C0502 		sd	zero,56(a0)
 3123              	.LBB295:
  52:src/../h/kObjectAllocator.hpp ****         objectVectors = (uint8**) MemoryAllocator::instance()->kmem_alloc(numberOfAllocations * siz
 3124              		.loc 1 52 9 is_stmt 1
 3125              	.LEHB9:
  52:src/../h/kObjectAllocator.hpp ****         objectVectors = (uint8**) MemoryAllocator::instance()->kmem_alloc(numberOfAllocations * siz
 3126              		.loc 1 52 71 is_stmt 0
 3127 15b8 97000000 		call	_ZN15MemoryAllocator8instanceEv@plt
 3127      E7800000 
 3128              	.LVL414:
  52:src/../h/kObjectAllocator.hpp ****         objectVectors = (uint8**) MemoryAllocator::instance()->kmem_alloc(numberOfAllocations * siz
 3129              		.loc 1 52 72
 3130 15c0 83B50403 		ld	a1,48(s1)
  52:src/../h/kObjectAllocator.hpp ****         objectVectors = (uint8**) MemoryAllocator::instance()->kmem_alloc(numberOfAllocations * siz
 3131              		.loc 1 52 71
 3132 15c4 93953500 		slli	a1,a1,3
 3133 15c8 97000000 		call	_ZN15MemoryAllocator10kmem_allocEm@plt
 3133      E7800000 
 3134              	.LVL415:
  52:src/../h/kObjectAllocator.hpp ****         objectVectors = (uint8**) MemoryAllocator::instance()->kmem_alloc(numberOfAllocations * siz
 3135              		.loc 1 52 20
 3136 15d0 23B4A402 		sd	a0,40(s1)
  53:src/../h/kObjectAllocator.hpp ****         initialNumberOfObjects = numberOfObjects = numberOfObjects / 8 * 8 + 8 * (numberOfObjects /
 3137              		.loc 1 53 9 is_stmt 1
  53:src/../h/kObjectAllocator.hpp ****         initialNumberOfObjects = numberOfObjects = numberOfObjects / 8 * 8 + 8 * (numberOfObjects /
 3138              		.loc 1 53 74 is_stmt 0
 3139 15d4 97000000 		call	_ZN15MemoryAllocator8instanceEv@plt
 3139      E7800000 
 3140              	.LVL416:
  53:src/../h/kObjectAllocator.hpp ****         initialNumberOfObjects = numberOfObjects = numberOfObjects / 8 * 8 + 8 * (numberOfObjects /
 3141              		.loc 1 53 75
 3142 15dc 83B50403 		ld	a1,48(s1)
GAS LISTING /tmp/ccKdsjgl.s 			page 78


  53:src/../h/kObjectAllocator.hpp ****         initialNumberOfObjects = numberOfObjects = numberOfObjects / 8 * 8 + 8 * (numberOfObjects /
 3143              		.loc 1 53 74
 3144 15e0 93953500 		slli	a1,a1,3
 3145 15e4 97000000 		call	_ZN15MemoryAllocator10kmem_allocEm@plt
 3145      E7800000 
 3146              	.LVL417:
  53:src/../h/kObjectAllocator.hpp ****         initialNumberOfObjects = numberOfObjects = numberOfObjects / 8 * 8 + 8 * (numberOfObjects /
 3147              		.loc 1 53 23
 3148 15ec 23B0A402 		sd	a0,32(s1)
  54:src/../h/kObjectAllocator.hpp ****         // one bit for each object which indicates whether memory
 3149              		.loc 1 54 9 is_stmt 1
  54:src/../h/kObjectAllocator.hpp ****         // one bit for each object which indicates whether memory
 3150              		.loc 1 54 52 is_stmt 0
 3151 15f0 03B78400 		ld	a4,8(s1)
  54:src/../h/kObjectAllocator.hpp ****         // one bit for each object which indicates whether memory
 3152              		.loc 1 54 72
 3153 15f4 937787FF 		andi	a5,a4,-8
  54:src/../h/kObjectAllocator.hpp ****         // one bit for each object which indicates whether memory
 3154              		.loc 1 54 80
 3155 15f8 6304F702 		beq	a4,a5,.L264
 3156 15fc 13078000 		li	a4,8
 3157              	.L209:
  54:src/../h/kObjectAllocator.hpp ****         // one bit for each object which indicates whether memory
 3158              		.loc 1 54 76
 3159 1600 B387E700 		add	a5,a5,a4
  54:src/../h/kObjectAllocator.hpp ****         // one bit for each object which indicates whether memory
 3160              		.loc 1 54 50
 3161 1604 23B4F400 		sd	a5,8(s1)
  54:src/../h/kObjectAllocator.hpp ****         // one bit for each object which indicates whether memory
 3162              		.loc 1 54 32
 3163 1608 23B0F400 		sd	a5,0(s1)
  57:src/../h/kObjectAllocator.hpp ****         bitVectors[0] = (uint8*) MemoryAllocator::instance()->kmem_alloc(
 3164              		.loc 1 57 9 is_stmt 1
  57:src/../h/kObjectAllocator.hpp ****         bitVectors[0] = (uint8*) MemoryAllocator::instance()->kmem_alloc(
 3165              		.loc 1 57 45 is_stmt 0
 3166 160c 93D73700 		srli	a5,a5,3
  57:src/../h/kObjectAllocator.hpp ****         bitVectors[0] = (uint8*) MemoryAllocator::instance()->kmem_alloc(
 3167              		.loc 1 57 27
 3168 1610 23B8F400 		sd	a5,16(s1)
  58:src/../h/kObjectAllocator.hpp ****                 memorySizeForBits + initialNumberOfObjects * objectSize
 3169              		.loc 1 58 9 is_stmt 1
  58:src/../h/kObjectAllocator.hpp ****                 memorySizeForBits + initialNumberOfObjects * objectSize
 3170              		.loc 1 58 73 is_stmt 0
 3171 1614 97000000 		call	_ZN15MemoryAllocator8instanceEv@plt
 3171      E7800000 
 3172              	.LVL418:
 3173 161c 6F00C000 		j	.L272
 3174              	.L264:
  54:src/../h/kObjectAllocator.hpp ****         // one bit for each object which indicates whether memory
 3175              		.loc 1 54 80
 3176 1620 13070000 		li	a4,0
 3177 1624 6FF0DFFD 		j	.L209
 3178              	.L272:
  59:src/../h/kObjectAllocator.hpp ****         );
 3179              		.loc 1 59 17
 3180 1628 83B50401 		ld	a1,16(s1)
  59:src/../h/kObjectAllocator.hpp ****         );
GAS LISTING /tmp/ccKdsjgl.s 			page 79


 3181              		.loc 1 59 37
 3182 162c 83B70400 		ld	a5,0(s1)
  59:src/../h/kObjectAllocator.hpp ****         );
 3183              		.loc 1 59 60
 3184 1630 B307F902 		mul	a5,s2,a5
  58:src/../h/kObjectAllocator.hpp ****                 memorySizeForBits + initialNumberOfObjects * objectSize
 3185              		.loc 1 58 9
 3186 1634 03BA8402 		ld	s4,40(s1)
  58:src/../h/kObjectAllocator.hpp ****                 memorySizeForBits + initialNumberOfObjects * objectSize
 3187              		.loc 1 58 73
 3188 1638 B385F500 		add	a1,a1,a5
 3189 163c 97000000 		call	_ZN15MemoryAllocator10kmem_allocEm@plt
 3189      E7800000 
 3190              	.LVL419:
 3191              	.LEHE9:
  58:src/../h/kObjectAllocator.hpp ****                 memorySizeForBits + initialNumberOfObjects * objectSize
 3192              		.loc 1 58 23
 3193 1644 2330AA00 		sd	a0,0(s4)
  61:src/../h/kObjectAllocator.hpp ****         for (size_t i = 0; i < memorySizeForBits; bitVectors[0][i++] = 0);
 3194              		.loc 1 61 9 is_stmt 1
  61:src/../h/kObjectAllocator.hpp ****         for (size_t i = 0; i < memorySizeForBits; bitVectors[0][i++] = 0);
 3195              		.loc 1 61 28 is_stmt 0
 3196 1648 83B78402 		ld	a5,40(s1)
  61:src/../h/kObjectAllocator.hpp ****         for (size_t i = 0; i < memorySizeForBits; bitVectors[0][i++] = 0);
 3197              		.loc 1 61 40
 3198 164c 83B70700 		ld	a5,0(a5)
  61:src/../h/kObjectAllocator.hpp ****         for (size_t i = 0; i < memorySizeForBits; bitVectors[0][i++] = 0);
 3199              		.loc 1 61 44
 3200 1650 83B60401 		ld	a3,16(s1)
  61:src/../h/kObjectAllocator.hpp ****         for (size_t i = 0; i < memorySizeForBits; bitVectors[0][i++] = 0);
 3201              		.loc 1 61 9
 3202 1654 03B70402 		ld	a4,32(s1)
  61:src/../h/kObjectAllocator.hpp ****         for (size_t i = 0; i < memorySizeForBits; bitVectors[0][i++] = 0);
 3203              		.loc 1 61 42
 3204 1658 B387D700 		add	a5,a5,a3
  61:src/../h/kObjectAllocator.hpp ****         for (size_t i = 0; i < memorySizeForBits; bitVectors[0][i++] = 0);
 3205              		.loc 1 61 26
 3206 165c 2330F700 		sd	a5,0(a4)
  62:src/../h/kObjectAllocator.hpp ****     }
 3207              		.loc 1 62 9 is_stmt 1
 3208              	.LVL420:
 3209              	.LBB296:
  62:src/../h/kObjectAllocator.hpp ****     }
 3210              		.loc 1 62 21 is_stmt 0
 3211 1660 93070000 		li	a5,0
 3212              	.LVL421:
 3213              	.L211:
  62:src/../h/kObjectAllocator.hpp ****     }
 3214              		.loc 1 62 30 is_stmt 1
  62:src/../h/kObjectAllocator.hpp ****     }
 3215              		.loc 1 62 32 is_stmt 0
 3216 1664 03B70401 		ld	a4,16(s1)
  62:src/../h/kObjectAllocator.hpp ****     }
 3217              		.loc 1 62 30
 3218 1668 63FEE700 		bleu	a4,a5,.L210
  62:src/../h/kObjectAllocator.hpp ****     }
 3219              		.loc 1 62 9 is_stmt 1
GAS LISTING /tmp/ccKdsjgl.s 			page 80


  62:src/../h/kObjectAllocator.hpp ****     }
 3220              		.loc 1 62 51 is_stmt 0
 3221 166c 03B78402 		ld	a4,40(s1)
  62:src/../h/kObjectAllocator.hpp ****     }
 3222              		.loc 1 62 63
 3223 1670 03370700 		ld	a4,0(a4)
 3224              	.LVL422:
  62:src/../h/kObjectAllocator.hpp ****     }
 3225              		.loc 1 62 68
 3226 1674 3307F700 		add	a4,a4,a5
  62:src/../h/kObjectAllocator.hpp ****     }
 3227              		.loc 1 62 70
 3228 1678 23000700 		sb	zero,0(a4)
  62:src/../h/kObjectAllocator.hpp ****     }
 3229              		.loc 1 62 66
 3230 167c 93871700 		addi	a5,a5,1
 3231              	.LVL423:
  62:src/../h/kObjectAllocator.hpp ****     }
 3232              		.loc 1 62 9
 3233 1680 6FF05FFE 		j	.L211
 3234              	.L210:
 3235              	.LVL424:
 3236              	.LBE296:
 3237              	.LBE295:
 3238              	.LBE294:
 3239              	.LBE293:
 181:src/kObjectAllocatorTest.cpp ****     if (objAlloc->getNumberOfObjects() != 8) { delete objAlloc; return false; }
 3240              		.loc 2 181 5 is_stmt 1 discriminator 3
 3241              	.LBB297:
 3242              	.LBB298:
  77:src/../h/kObjectAllocator.hpp ****     size_t getMemorySizeForBits() { return memorySizeForBits; }
 3243              		.loc 1 77 35 discriminator 3
  77:src/../h/kObjectAllocator.hpp ****     size_t getMemorySizeForBits() { return memorySizeForBits; }
 3244              		.loc 1 77 42 is_stmt 0 discriminator 3
 3245 1684 83BB8400 		ld	s7,8(s1)
 3246              	.LVL425:
 3247              	.LBE298:
 3248              	.LBE297:
 3249              		.loc 2 181 5 discriminator 3
 3250 1688 93078000 		li	a5,8
 3251 168c 6388FB0A 		beq	s7,a5,.L212
 3252              		.loc 2 181 48 is_stmt 1 discriminator 1
 3253              		.loc 2 181 63 is_stmt 0 discriminator 1
 3254 1690 638A0406 		beqz	s1,.L213
 3255              	.LBB299:
 3256              	.LBB300:
 3257              	.LBB301:
  68:src/../h/kObjectAllocator.hpp ****             MemoryAllocator::instance()->kmem_free(((KObjectAllocator*) p)->bitVectors[i]);
 3258              		.loc 1 68 21
 3259 1694 13090000 		li	s2,0
 3260              	.LVL426:
 3261 1698 6F008002 		j	.L215
 3262              	.LVL427:
 3263              	.L273:
  69:src/../h/kObjectAllocator.hpp ****         MemoryAllocator::instance()->kmem_free(((KObjectAllocator*) p)->bitVectors);
 3264              		.loc 1 69 13 is_stmt 1
 3265              	.LEHB10:
GAS LISTING /tmp/ccKdsjgl.s 			page 81


  69:src/../h/kObjectAllocator.hpp ****         MemoryAllocator::instance()->kmem_free(((KObjectAllocator*) p)->bitVectors);
 3266              		.loc 1 69 51 is_stmt 0
 3267 169c 97000000 		call	_ZN15MemoryAllocator8instanceEv@plt
 3267      E7800000 
 3268              	.LVL428:
  69:src/../h/kObjectAllocator.hpp ****         MemoryAllocator::instance()->kmem_free(((KObjectAllocator*) p)->bitVectors);
 3269              		.loc 1 69 77
 3270 16a4 83B78402 		ld	a5,40(s1)
  69:src/../h/kObjectAllocator.hpp ****         MemoryAllocator::instance()->kmem_free(((KObjectAllocator*) p)->bitVectors);
 3271              		.loc 1 69 89
 3272 16a8 13173900 		slli	a4,s2,3
 3273 16ac B387E700 		add	a5,a5,a4
  69:src/../h/kObjectAllocator.hpp ****         MemoryAllocator::instance()->kmem_free(((KObjectAllocator*) p)->bitVectors);
 3274              		.loc 1 69 51
 3275 16b0 83B50700 		ld	a1,0(a5)
 3276 16b4 97000000 		call	_ZN15MemoryAllocator9kmem_freeEPv@plt
 3276      E7800000 
 3277              	.LVL429:
  68:src/../h/kObjectAllocator.hpp ****             MemoryAllocator::instance()->kmem_free(((KObjectAllocator*) p)->bitVectors[i]);
 3278              		.loc 1 68 9 is_stmt 1
 3279 16bc 13091900 		addi	s2,s2,1
 3280              	.LVL430:
 3281              	.L215:
  68:src/../h/kObjectAllocator.hpp ****             MemoryAllocator::instance()->kmem_free(((KObjectAllocator*) p)->bitVectors[i]);
 3282              		.loc 1 68 30
  68:src/../h/kObjectAllocator.hpp ****             MemoryAllocator::instance()->kmem_free(((KObjectAllocator*) p)->bitVectors[i]);
 3283              		.loc 1 68 57 is_stmt 0
 3284 16c0 83B70403 		ld	a5,48(s1)
  68:src/../h/kObjectAllocator.hpp ****             MemoryAllocator::instance()->kmem_free(((KObjectAllocator*) p)->bitVectors[i]);
 3285              		.loc 1 68 30
 3286 16c4 E36CF9FC 		bgtu	a5,s2,.L273
 3287              	.LBE301:
  70:src/../h/kObjectAllocator.hpp ****         MemoryAllocator::instance()->kmem_free(((KObjectAllocator*) p)->objectVectors);
 3288              		.loc 1 70 9 is_stmt 1
  70:src/../h/kObjectAllocator.hpp ****         MemoryAllocator::instance()->kmem_free(((KObjectAllocator*) p)->objectVectors);
 3289              		.loc 1 70 47 is_stmt 0
 3290 16c8 97000000 		call	_ZN15MemoryAllocator8instanceEv@plt
 3290      E7800000 
 3291              	.LVL431:
 3292 16d0 83B58402 		ld	a1,40(s1)
 3293 16d4 97000000 		call	_ZN15MemoryAllocator9kmem_freeEPv@plt
 3293      E7800000 
 3294              	.LVL432:
  71:src/../h/kObjectAllocator.hpp ****         MemoryAllocator::instance()->kmem_free(p);
 3295              		.loc 1 71 9 is_stmt 1
  71:src/../h/kObjectAllocator.hpp ****         MemoryAllocator::instance()->kmem_free(p);
 3296              		.loc 1 71 47 is_stmt 0
 3297 16dc 97000000 		call	_ZN15MemoryAllocator8instanceEv@plt
 3297      E7800000 
 3298              	.LVL433:
 3299 16e4 83B50402 		ld	a1,32(s1)
 3300 16e8 97000000 		call	_ZN15MemoryAllocator9kmem_freeEPv@plt
 3300      E7800000 
 3301              	.LVL434:
  72:src/../h/kObjectAllocator.hpp ****     }
 3302              		.loc 1 72 9 is_stmt 1
  72:src/../h/kObjectAllocator.hpp ****     }
GAS LISTING /tmp/ccKdsjgl.s 			page 82


 3303              		.loc 1 72 47 is_stmt 0
 3304 16f0 97000000 		call	_ZN15MemoryAllocator8instanceEv@plt
 3304      E7800000 
 3305              	.LVL435:
 3306 16f8 93850400 		mv	a1,s1
 3307 16fc 97000000 		call	_ZN15MemoryAllocator9kmem_freeEPv@plt
 3307      E7800000 
 3308              	.LVL436:
 3309              	.L213:
 3310              	.LBE300:
 3311              	.LBE299:
 3312              		.loc 2 181 65 is_stmt 1 discriminator 3
 3313              		.loc 2 181 72 is_stmt 0 discriminator 3
 3314 1704 130A0000 		li	s4,0
 3315              	.L270:
 182:src/kObjectAllocatorTest.cpp ****     if (objAlloc->getMemorySizeForBits() != 1) { delete objAlloc; return false; }
 183:src/kObjectAllocatorTest.cpp ****     if (objAlloc->getObjectSize() != size) { delete objAlloc; return false; }
 184:src/kObjectAllocatorTest.cpp ****     void* objArr[10]; for (size_t i = 0; i < 10; objArr[i++] = objAlloc->allocateNewObject());
 185:src/kObjectAllocatorTest.cpp ****     size_t byte = 0; size_t bit = 7;
 186:src/kObjectAllocatorTest.cpp ****     for (size_t i = 0; i < 10; ++i) {
 187:src/kObjectAllocatorTest.cpp ****         if (objArr[i] != getObjectAt(byte, bit, objAlloc)) { delete objAlloc; return false; }
 188:src/kObjectAllocatorTest.cpp ****         size_t objByte = getByteOfObject(objArr[i], objAlloc);
 189:src/kObjectAllocatorTest.cpp ****         size_t objBit = getBitOfObject(objArr[i], objAlloc);
 190:src/kObjectAllocatorTest.cpp ****         if (objByte != byte || objBit != bit) { delete objAlloc; return false; }
 191:src/kObjectAllocatorTest.cpp ****         if (!getValueOfBitAt(byte, bit, objAlloc)) { delete objAlloc; return false; }
 192:src/kObjectAllocatorTest.cpp ****         if (bit == 0) { ++byte; bit = 8; } --bit;
 193:src/kObjectAllocatorTest.cpp ****     }
 194:src/kObjectAllocatorTest.cpp ****     for (size_t i = 0; i < 6; ++i) {
 195:src/kObjectAllocatorTest.cpp ****         if (getValueOfBitAt(byte, bit, objAlloc)) { delete objAlloc; return false; }
 196:src/kObjectAllocatorTest.cpp ****         if (bit == 0) { ++byte; bit = 8; } --bit;
 197:src/kObjectAllocatorTest.cpp ****     }
 198:src/kObjectAllocatorTest.cpp ****     objAlloc->freeObject(objArr[4]);
 199:src/kObjectAllocatorTest.cpp ****     objAlloc->freeObject(objArr[7]);
 200:src/kObjectAllocatorTest.cpp ****     objAlloc->freeObject(objArr[8]);
 201:src/kObjectAllocatorTest.cpp ****     objArr[4] = objAlloc->allocateNewObject();
 202:src/kObjectAllocatorTest.cpp ****     if (objArr[4] != getObjectAt(1, 7, objAlloc)) { delete objAlloc; return false; }
 203:src/kObjectAllocatorTest.cpp ****     byte = getByteOfObject(objArr[4], objAlloc);
 204:src/kObjectAllocatorTest.cpp ****     bit = getBitOfObject(objArr[4], objAlloc);
 205:src/kObjectAllocatorTest.cpp ****     if (byte != 1 || bit != 7) { delete objAlloc; return false; }
 206:src/kObjectAllocatorTest.cpp ****     bool expectedBitValues[16] = {
 207:src/kObjectAllocatorTest.cpp ****             true, true, true, true, false, true, true, false,
 208:src/kObjectAllocatorTest.cpp ****             true, true, false, false, false, false, false, false
 209:src/kObjectAllocatorTest.cpp ****     };
 210:src/kObjectAllocatorTest.cpp ****     byte = 0; bit = 7;
 211:src/kObjectAllocatorTest.cpp ****     for (size_t i = 0; i < 16; ++i) {
 212:src/kObjectAllocatorTest.cpp ****         if (expectedBitValues[i] != getValueOfBitAt(byte, bit, objAlloc))
 213:src/kObjectAllocatorTest.cpp ****         { delete objAlloc; return false; } if (bit == 0) { ++byte; bit = 8; } --bit;
 214:src/kObjectAllocatorTest.cpp ****     }
 215:src/kObjectAllocatorTest.cpp ****     delete objAlloc;
 216:src/kObjectAllocatorTest.cpp ****     return true;
 217:src/kObjectAllocatorTest.cpp **** }
 3316              		.loc 2 217 1
 3317 1708 13050A00 		mv	a0,s4
 3318 170c 8330810A 		ld	ra,168(sp)
 3319              		.cfi_remember_state
 3320              		.cfi_restore 1
 3321 1710 0334010A 		ld	s0,160(sp)
GAS LISTING /tmp/ccKdsjgl.s 			page 83


 3322              		.cfi_restore 8
 3323              		.cfi_def_cfa 2, 176
 3324 1714 83348109 		ld	s1,152(sp)
 3325              		.cfi_restore 9
 3326              	.LVL437:
 3327 1718 03390109 		ld	s2,144(sp)
 3328              		.cfi_restore 18
 3329 171c 83398108 		ld	s3,136(sp)
 3330              		.cfi_restore 19
 3331              	.LVL438:
 3332 1720 033A0108 		ld	s4,128(sp)
 3333              		.cfi_restore 20
 3334 1724 833A8107 		ld	s5,120(sp)
 3335              		.cfi_restore 21
 3336 1728 033B0107 		ld	s6,112(sp)
 3337              		.cfi_restore 22
 3338 172c 833B8106 		ld	s7,104(sp)
 3339              		.cfi_restore 23
 3340 1730 033C0106 		ld	s8,96(sp)
 3341              		.cfi_restore 24
 3342 1734 1301010B 		addi	sp,sp,176
 3343              		.cfi_def_cfa_offset 0
 3344 1738 67800000 		jr	ra
 3345              	.LVL439:
 3346              	.L212:
 3347              		.cfi_restore_state
 182:src/kObjectAllocatorTest.cpp ****     if (objAlloc->getMemorySizeForBits() != 1) { delete objAlloc; return false; }
 3348              		.loc 2 182 5 is_stmt 1
 3349              	.LBB302:
 3350              	.LBB303:
 3351              		.loc 1 78 37
 3352              		.loc 1 78 44 is_stmt 0
 3353 173c 03B70401 		ld	a4,16(s1)
 3354              	.LVL440:
 3355              	.LBE303:
 3356              	.LBE302:
 182:src/kObjectAllocatorTest.cpp ****     if (objAlloc->getMemorySizeForBits() != 1) { delete objAlloc; return false; }
 3357              		.loc 2 182 5
 3358 1740 93071000 		li	a5,1
 3359 1744 6300F708 		beq	a4,a5,.L217
 182:src/kObjectAllocatorTest.cpp ****     if (objAlloc->getMemorySizeForBits() != 1) { delete objAlloc; return false; }
 3360              		.loc 2 182 50 is_stmt 1 discriminator 1
 182:src/kObjectAllocatorTest.cpp ****     if (objAlloc->getMemorySizeForBits() != 1) { delete objAlloc; return false; }
 3361              		.loc 2 182 65 is_stmt 0 discriminator 1
 3362 1748 638A0406 		beqz	s1,.L218
 3363              	.LBB304:
 3364              	.LBB305:
 3365              	.LBB306:
  68:src/../h/kObjectAllocator.hpp ****             MemoryAllocator::instance()->kmem_free(((KObjectAllocator*) p)->bitVectors[i]);
 3366              		.loc 1 68 21
 3367 174c 13090000 		li	s2,0
 3368              	.LVL441:
 3369 1750 6F008002 		j	.L220
 3370              	.LVL442:
 3371              	.L274:
  69:src/../h/kObjectAllocator.hpp ****         MemoryAllocator::instance()->kmem_free(((KObjectAllocator*) p)->bitVectors);
 3372              		.loc 1 69 13 is_stmt 1
GAS LISTING /tmp/ccKdsjgl.s 			page 84


  69:src/../h/kObjectAllocator.hpp ****         MemoryAllocator::instance()->kmem_free(((KObjectAllocator*) p)->bitVectors);
 3373              		.loc 1 69 51 is_stmt 0
 3374 1754 97000000 		call	_ZN15MemoryAllocator8instanceEv@plt
 3374      E7800000 
 3375              	.LVL443:
  69:src/../h/kObjectAllocator.hpp ****         MemoryAllocator::instance()->kmem_free(((KObjectAllocator*) p)->bitVectors);
 3376              		.loc 1 69 77
 3377 175c 83B78402 		ld	a5,40(s1)
  69:src/../h/kObjectAllocator.hpp ****         MemoryAllocator::instance()->kmem_free(((KObjectAllocator*) p)->bitVectors);
 3378              		.loc 1 69 89
 3379 1760 13173900 		slli	a4,s2,3
 3380 1764 B387E700 		add	a5,a5,a4
  69:src/../h/kObjectAllocator.hpp ****         MemoryAllocator::instance()->kmem_free(((KObjectAllocator*) p)->bitVectors);
 3381              		.loc 1 69 51
 3382 1768 83B50700 		ld	a1,0(a5)
 3383 176c 97000000 		call	_ZN15MemoryAllocator9kmem_freeEPv@plt
 3383      E7800000 
 3384              	.LVL444:
  68:src/../h/kObjectAllocator.hpp ****             MemoryAllocator::instance()->kmem_free(((KObjectAllocator*) p)->bitVectors[i]);
 3385              		.loc 1 68 9 is_stmt 1
 3386 1774 13091900 		addi	s2,s2,1
 3387              	.LVL445:
 3388              	.L220:
  68:src/../h/kObjectAllocator.hpp ****             MemoryAllocator::instance()->kmem_free(((KObjectAllocator*) p)->bitVectors[i]);
 3389              		.loc 1 68 30
  68:src/../h/kObjectAllocator.hpp ****             MemoryAllocator::instance()->kmem_free(((KObjectAllocator*) p)->bitVectors[i]);
 3390              		.loc 1 68 57 is_stmt 0
 3391 1778 83B70403 		ld	a5,48(s1)
  68:src/../h/kObjectAllocator.hpp ****             MemoryAllocator::instance()->kmem_free(((KObjectAllocator*) p)->bitVectors[i]);
 3392              		.loc 1 68 30
 3393 177c E36CF9FC 		bgtu	a5,s2,.L274
 3394              	.LBE306:
  70:src/../h/kObjectAllocator.hpp ****         MemoryAllocator::instance()->kmem_free(((KObjectAllocator*) p)->objectVectors);
 3395              		.loc 1 70 9 is_stmt 1
  70:src/../h/kObjectAllocator.hpp ****         MemoryAllocator::instance()->kmem_free(((KObjectAllocator*) p)->objectVectors);
 3396              		.loc 1 70 47 is_stmt 0
 3397 1780 97000000 		call	_ZN15MemoryAllocator8instanceEv@plt
 3397      E7800000 
 3398              	.LVL446:
 3399 1788 83B58402 		ld	a1,40(s1)
 3400 178c 97000000 		call	_ZN15MemoryAllocator9kmem_freeEPv@plt
 3400      E7800000 
 3401              	.LVL447:
  71:src/../h/kObjectAllocator.hpp ****         MemoryAllocator::instance()->kmem_free(p);
 3402              		.loc 1 71 9 is_stmt 1
  71:src/../h/kObjectAllocator.hpp ****         MemoryAllocator::instance()->kmem_free(p);
 3403              		.loc 1 71 47 is_stmt 0
 3404 1794 97000000 		call	_ZN15MemoryAllocator8instanceEv@plt
 3404      E7800000 
 3405              	.LVL448:
 3406 179c 83B50402 		ld	a1,32(s1)
 3407 17a0 97000000 		call	_ZN15MemoryAllocator9kmem_freeEPv@plt
 3407      E7800000 
 3408              	.LVL449:
  72:src/../h/kObjectAllocator.hpp ****     }
 3409              		.loc 1 72 9 is_stmt 1
  72:src/../h/kObjectAllocator.hpp ****     }
GAS LISTING /tmp/ccKdsjgl.s 			page 85


 3410              		.loc 1 72 47 is_stmt 0
 3411 17a8 97000000 		call	_ZN15MemoryAllocator8instanceEv@plt
 3411      E7800000 
 3412              	.LVL450:
 3413 17b0 93850400 		mv	a1,s1
 3414 17b4 97000000 		call	_ZN15MemoryAllocator9kmem_freeEPv@plt
 3414      E7800000 
 3415              	.LVL451:
 3416              	.L218:
 3417              	.LBE305:
 3418              	.LBE304:
 182:src/kObjectAllocatorTest.cpp ****     if (objAlloc->getObjectSize() != size) { delete objAlloc; return false; }
 3419              		.loc 2 182 67 is_stmt 1 discriminator 3
 182:src/kObjectAllocatorTest.cpp ****     if (objAlloc->getObjectSize() != size) { delete objAlloc; return false; }
 3420              		.loc 2 182 74 is_stmt 0 discriminator 3
 3421 17bc 130A0000 		li	s4,0
 3422 17c0 6FF09FF4 		j	.L270
 3423              	.LVL452:
 3424              	.L217:
 183:src/kObjectAllocatorTest.cpp ****     void* objArr[10]; for (size_t i = 0; i < 10; objArr[i++] = objAlloc->allocateNewObject());
 3425              		.loc 2 183 5 is_stmt 1
 3426              	.LBB307:
 3427              	.LBB308:
  75:src/../h/kObjectAllocator.hpp ****     size_t getInitialNumberOfObjects() { return initialNumberOfObjects; }
 3428              		.loc 1 75 30
  75:src/../h/kObjectAllocator.hpp ****     size_t getInitialNumberOfObjects() { return initialNumberOfObjects; }
 3429              		.loc 1 75 37 is_stmt 0
 3430 17c4 83B78401 		ld	a5,24(s1)
 3431              	.LVL453:
 3432              	.LBE308:
 3433              	.LBE307:
 183:src/kObjectAllocatorTest.cpp ****     void* objArr[10]; for (size_t i = 0; i < 10; objArr[i++] = objAlloc->allocateNewObject());
 3434              		.loc 2 183 5
 3435 17c8 6300F908 		beq	s2,a5,.L265
 183:src/kObjectAllocatorTest.cpp ****     void* objArr[10]; for (size_t i = 0; i < 10; objArr[i++] = objAlloc->allocateNewObject());
 3436              		.loc 2 183 46 is_stmt 1 discriminator 1
 183:src/kObjectAllocatorTest.cpp ****     void* objArr[10]; for (size_t i = 0; i < 10; objArr[i++] = objAlloc->allocateNewObject());
 3437              		.loc 2 183 61 is_stmt 0 discriminator 1
 3438 17cc 638A0406 		beqz	s1,.L222
 3439              	.LBB309:
 3440              	.LBB310:
 3441              	.LBB311:
  68:src/../h/kObjectAllocator.hpp ****             MemoryAllocator::instance()->kmem_free(((KObjectAllocator*) p)->bitVectors[i]);
 3442              		.loc 1 68 21
 3443 17d0 13090000 		li	s2,0
 3444              	.LVL454:
 3445              	.L224:
  68:src/../h/kObjectAllocator.hpp ****             MemoryAllocator::instance()->kmem_free(((KObjectAllocator*) p)->bitVectors[i]);
 3446              		.loc 1 68 30 is_stmt 1
  68:src/../h/kObjectAllocator.hpp ****             MemoryAllocator::instance()->kmem_free(((KObjectAllocator*) p)->bitVectors[i]);
 3447              		.loc 1 68 57 is_stmt 0
 3448 17d4 83B70403 		ld	a5,48(s1)
  68:src/../h/kObjectAllocator.hpp ****             MemoryAllocator::instance()->kmem_free(((KObjectAllocator*) p)->bitVectors[i]);
 3449              		.loc 1 68 30
 3450 17d8 6376F902 		bleu	a5,s2,.L223
  69:src/../h/kObjectAllocator.hpp ****         MemoryAllocator::instance()->kmem_free(((KObjectAllocator*) p)->bitVectors);
 3451              		.loc 1 69 13 is_stmt 1
GAS LISTING /tmp/ccKdsjgl.s 			page 86


  69:src/../h/kObjectAllocator.hpp ****         MemoryAllocator::instance()->kmem_free(((KObjectAllocator*) p)->bitVectors);
 3452              		.loc 1 69 51 is_stmt 0
 3453 17dc 97000000 		call	_ZN15MemoryAllocator8instanceEv@plt
 3453      E7800000 
 3454              	.LVL455:
  69:src/../h/kObjectAllocator.hpp ****         MemoryAllocator::instance()->kmem_free(((KObjectAllocator*) p)->bitVectors);
 3455              		.loc 1 69 77
 3456 17e4 83B78402 		ld	a5,40(s1)
  69:src/../h/kObjectAllocator.hpp ****         MemoryAllocator::instance()->kmem_free(((KObjectAllocator*) p)->bitVectors);
 3457              		.loc 1 69 89
 3458 17e8 13173900 		slli	a4,s2,3
 3459 17ec B387E700 		add	a5,a5,a4
  69:src/../h/kObjectAllocator.hpp ****         MemoryAllocator::instance()->kmem_free(((KObjectAllocator*) p)->bitVectors);
 3460              		.loc 1 69 51
 3461 17f0 83B50700 		ld	a1,0(a5)
 3462 17f4 97000000 		call	_ZN15MemoryAllocator9kmem_freeEPv@plt
 3462      E7800000 
 3463              	.LVL456:
  68:src/../h/kObjectAllocator.hpp ****             MemoryAllocator::instance()->kmem_free(((KObjectAllocator*) p)->bitVectors[i]);
 3464              		.loc 1 68 9 is_stmt 1
 3465 17fc 13091900 		addi	s2,s2,1
 3466              	.LVL457:
 3467 1800 6FF05FFD 		j	.L224
 3468              	.L223:
 3469              	.LBE311:
  70:src/../h/kObjectAllocator.hpp ****         MemoryAllocator::instance()->kmem_free(((KObjectAllocator*) p)->objectVectors);
 3470              		.loc 1 70 9
  70:src/../h/kObjectAllocator.hpp ****         MemoryAllocator::instance()->kmem_free(((KObjectAllocator*) p)->objectVectors);
 3471              		.loc 1 70 47 is_stmt 0
 3472 1804 97000000 		call	_ZN15MemoryAllocator8instanceEv@plt
 3472      E7800000 
 3473              	.LVL458:
 3474 180c 83B58402 		ld	a1,40(s1)
 3475 1810 97000000 		call	_ZN15MemoryAllocator9kmem_freeEPv@plt
 3475      E7800000 
 3476              	.LVL459:
  71:src/../h/kObjectAllocator.hpp ****         MemoryAllocator::instance()->kmem_free(p);
 3477              		.loc 1 71 9 is_stmt 1
  71:src/../h/kObjectAllocator.hpp ****         MemoryAllocator::instance()->kmem_free(p);
 3478              		.loc 1 71 47 is_stmt 0
 3479 1818 97000000 		call	_ZN15MemoryAllocator8instanceEv@plt
 3479      E7800000 
 3480              	.LVL460:
 3481 1820 83B50402 		ld	a1,32(s1)
 3482 1824 97000000 		call	_ZN15MemoryAllocator9kmem_freeEPv@plt
 3482      E7800000 
 3483              	.LVL461:
  72:src/../h/kObjectAllocator.hpp ****     }
 3484              		.loc 1 72 9 is_stmt 1
  72:src/../h/kObjectAllocator.hpp ****     }
 3485              		.loc 1 72 47 is_stmt 0
 3486 182c 97000000 		call	_ZN15MemoryAllocator8instanceEv@plt
 3486      E7800000 
 3487              	.LVL462:
 3488 1834 93850400 		mv	a1,s1
 3489 1838 97000000 		call	_ZN15MemoryAllocator9kmem_freeEPv@plt
 3489      E7800000 
GAS LISTING /tmp/ccKdsjgl.s 			page 87


 3490              	.LVL463:
 3491              	.L222:
 3492              	.LBE310:
 3493              	.LBE309:
 183:src/kObjectAllocatorTest.cpp ****     void* objArr[10]; for (size_t i = 0; i < 10; objArr[i++] = objAlloc->allocateNewObject());
 3494              		.loc 2 183 63 is_stmt 1 discriminator 3
 183:src/kObjectAllocatorTest.cpp ****     void* objArr[10]; for (size_t i = 0; i < 10; objArr[i++] = objAlloc->allocateNewObject());
 3495              		.loc 2 183 70 is_stmt 0 discriminator 3
 3496 1840 130A0000 		li	s4,0
 3497 1844 6FF05FEC 		j	.L270
 3498              	.LVL464:
 3499              	.L265:
 3500              	.LBB312:
 184:src/kObjectAllocatorTest.cpp ****     size_t byte = 0; size_t bit = 7;
 3501              		.loc 2 184 35
 3502 1848 13090000 		li	s2,0
 3503              	.LVL465:
 3504              	.L221:
 184:src/kObjectAllocatorTest.cpp ****     size_t byte = 0; size_t bit = 7;
 3505              		.loc 2 184 44 is_stmt 1 discriminator 4
 3506 184c 93079000 		li	a5,9
 3507 1850 63E62703 		bgtu	s2,a5,.L266
 184:src/kObjectAllocatorTest.cpp ****     size_t byte = 0; size_t bit = 7;
 3508              		.loc 2 184 23 discriminator 2
 184:src/kObjectAllocatorTest.cpp ****     size_t byte = 0; size_t bit = 7;
 3509              		.loc 2 184 58 is_stmt 0 discriminator 2
 3510 1854 130A1900 		addi	s4,s2,1
 3511              	.LVL466:
 184:src/kObjectAllocatorTest.cpp ****     size_t byte = 0; size_t bit = 7;
 3512              		.loc 2 184 91 discriminator 2
 3513 1858 13850400 		mv	a0,s1
 3514 185c 97000000 		call	_ZN16KObjectAllocator17allocateNewObjectEv@plt
 3514      E7800000 
 3515              	.LVL467:
 184:src/kObjectAllocatorTest.cpp ****     size_t byte = 0; size_t bit = 7;
 3516              		.loc 2 184 62 discriminator 2
 3517 1864 13193900 		slli	s2,s2,3
 3518 1868 930704FB 		addi	a5,s0,-80
 3519 186c 33892701 		add	s2,a5,s2
 3520 1870 2338A9FA 		sd	a0,-80(s2)
 184:src/kObjectAllocatorTest.cpp ****     size_t byte = 0; size_t bit = 7;
 3521              		.loc 2 184 58 discriminator 2
 3522 1874 13090A00 		mv	s2,s4
 184:src/kObjectAllocatorTest.cpp ****     size_t byte = 0; size_t bit = 7;
 3523              		.loc 2 184 23 discriminator 2
 3524 1878 6FF05FFD 		j	.L221
 3525              	.LVL468:
 3526              	.L266:
 3527              	.LBE312:
 3528              	.LBB313:
 186:src/kObjectAllocatorTest.cpp ****         if (objArr[i] != getObjectAt(byte, bit, objAlloc)) { delete objAlloc; return false; }
 3529              		.loc 2 186 17
 3530 187c 130B0000 		li	s6,0
 3531              	.LBE313:
 185:src/kObjectAllocatorTest.cpp ****     for (size_t i = 0; i < 10; ++i) {
 3532              		.loc 2 185 29
 3533 1880 13097000 		li	s2,7
GAS LISTING /tmp/ccKdsjgl.s 			page 88


 3534              	.LVL469:
 185:src/kObjectAllocatorTest.cpp ****     for (size_t i = 0; i < 10; ++i) {
 3535              		.loc 2 185 12
 3536 1884 930A0000 		li	s5,0
 3537 1888 6F004018 		j	.L225
 3538              	.LVL470:
 3539              	.L276:
 3540              	.LBB325:
 3541              	.LBB314:
 187:src/kObjectAllocatorTest.cpp ****         size_t objByte = getByteOfObject(objArr[i], objAlloc);
 3542              		.loc 2 187 62 is_stmt 1 discriminator 2
 187:src/kObjectAllocatorTest.cpp ****         size_t objByte = getByteOfObject(objArr[i], objAlloc);
 3543              		.loc 2 187 77 is_stmt 0 discriminator 2
 3544 188c 638A0406 		beqz	s1,.L228
 3545              	.LBB315:
 3546              	.LBB316:
 3547              	.LBB317:
  68:src/../h/kObjectAllocator.hpp ****             MemoryAllocator::instance()->kmem_free(((KObjectAllocator*) p)->bitVectors[i]);
 3548              		.loc 1 68 21
 3549 1890 13090000 		li	s2,0
 3550              	.LVL471:
 3551              	.L230:
  68:src/../h/kObjectAllocator.hpp ****             MemoryAllocator::instance()->kmem_free(((KObjectAllocator*) p)->bitVectors[i]);
 3552              		.loc 1 68 30 is_stmt 1
  68:src/../h/kObjectAllocator.hpp ****             MemoryAllocator::instance()->kmem_free(((KObjectAllocator*) p)->bitVectors[i]);
 3553              		.loc 1 68 57 is_stmt 0
 3554 1894 83B70403 		ld	a5,48(s1)
  68:src/../h/kObjectAllocator.hpp ****             MemoryAllocator::instance()->kmem_free(((KObjectAllocator*) p)->bitVectors[i]);
 3555              		.loc 1 68 30
 3556 1898 6376F902 		bleu	a5,s2,.L229
  69:src/../h/kObjectAllocator.hpp ****         MemoryAllocator::instance()->kmem_free(((KObjectAllocator*) p)->bitVectors);
 3557              		.loc 1 69 13 is_stmt 1
  69:src/../h/kObjectAllocator.hpp ****         MemoryAllocator::instance()->kmem_free(((KObjectAllocator*) p)->bitVectors);
 3558              		.loc 1 69 51 is_stmt 0
 3559 189c 97000000 		call	_ZN15MemoryAllocator8instanceEv@plt
 3559      E7800000 
 3560              	.LVL472:
  69:src/../h/kObjectAllocator.hpp ****         MemoryAllocator::instance()->kmem_free(((KObjectAllocator*) p)->bitVectors);
 3561              		.loc 1 69 77
 3562 18a4 83B78402 		ld	a5,40(s1)
  69:src/../h/kObjectAllocator.hpp ****         MemoryAllocator::instance()->kmem_free(((KObjectAllocator*) p)->bitVectors);
 3563              		.loc 1 69 89
 3564 18a8 13173900 		slli	a4,s2,3
 3565 18ac B387E700 		add	a5,a5,a4
  69:src/../h/kObjectAllocator.hpp ****         MemoryAllocator::instance()->kmem_free(((KObjectAllocator*) p)->bitVectors);
 3566              		.loc 1 69 51
 3567 18b0 83B50700 		ld	a1,0(a5)
 3568 18b4 97000000 		call	_ZN15MemoryAllocator9kmem_freeEPv@plt
 3568      E7800000 
 3569              	.LVL473:
  68:src/../h/kObjectAllocator.hpp ****             MemoryAllocator::instance()->kmem_free(((KObjectAllocator*) p)->bitVectors[i]);
 3570              		.loc 1 68 9 is_stmt 1
 3571 18bc 13091900 		addi	s2,s2,1
 3572              	.LVL474:
 3573 18c0 6FF05FFD 		j	.L230
 3574              	.L229:
 3575              	.LBE317:
GAS LISTING /tmp/ccKdsjgl.s 			page 89


  70:src/../h/kObjectAllocator.hpp ****         MemoryAllocator::instance()->kmem_free(((KObjectAllocator*) p)->objectVectors);
 3576              		.loc 1 70 9
  70:src/../h/kObjectAllocator.hpp ****         MemoryAllocator::instance()->kmem_free(((KObjectAllocator*) p)->objectVectors);
 3577              		.loc 1 70 47 is_stmt 0
 3578 18c4 97000000 		call	_ZN15MemoryAllocator8instanceEv@plt
 3578      E7800000 
 3579              	.LVL475:
 3580 18cc 83B58402 		ld	a1,40(s1)
 3581 18d0 97000000 		call	_ZN15MemoryAllocator9kmem_freeEPv@plt
 3581      E7800000 
 3582              	.LVL476:
  71:src/../h/kObjectAllocator.hpp ****         MemoryAllocator::instance()->kmem_free(p);
 3583              		.loc 1 71 9 is_stmt 1
  71:src/../h/kObjectAllocator.hpp ****         MemoryAllocator::instance()->kmem_free(p);
 3584              		.loc 1 71 47 is_stmt 0
 3585 18d8 97000000 		call	_ZN15MemoryAllocator8instanceEv@plt
 3585      E7800000 
 3586              	.LVL477:
 3587 18e0 83B50402 		ld	a1,32(s1)
 3588 18e4 97000000 		call	_ZN15MemoryAllocator9kmem_freeEPv@plt
 3588      E7800000 
 3589              	.LVL478:
  72:src/../h/kObjectAllocator.hpp ****     }
 3590              		.loc 1 72 9 is_stmt 1
  72:src/../h/kObjectAllocator.hpp ****     }
 3591              		.loc 1 72 47 is_stmt 0
 3592 18ec 97000000 		call	_ZN15MemoryAllocator8instanceEv@plt
 3592      E7800000 
 3593              	.LVL479:
 3594 18f4 93850400 		mv	a1,s1
 3595 18f8 97000000 		call	_ZN15MemoryAllocator9kmem_freeEPv@plt
 3595      E7800000 
 3596              	.LVL480:
 3597              	.L228:
 3598              	.LBE316:
 3599              	.LBE315:
 187:src/kObjectAllocatorTest.cpp ****         size_t objByte = getByteOfObject(objArr[i], objAlloc);
 3600              		.loc 2 187 79 is_stmt 1 discriminator 4
 187:src/kObjectAllocatorTest.cpp ****         size_t objByte = getByteOfObject(objArr[i], objAlloc);
 3601              		.loc 2 187 86 is_stmt 0 discriminator 4
 3602 1900 130A0000 		li	s4,0
 3603 1904 6FF05FE0 		j	.L270
 3604              	.LVL481:
 3605              	.L231:
 190:src/kObjectAllocatorTest.cpp ****         if (!getValueOfBitAt(byte, bit, objAlloc)) { delete objAlloc; return false; }
 3606              		.loc 2 190 49 is_stmt 1 discriminator 3
 190:src/kObjectAllocatorTest.cpp ****         if (!getValueOfBitAt(byte, bit, objAlloc)) { delete objAlloc; return false; }
 3607              		.loc 2 190 64 is_stmt 0 discriminator 3
 3608 1908 638A0406 		beqz	s1,.L233
 3609              	.LBB318:
 3610              	.LBB319:
 3611              	.LBB320:
  68:src/../h/kObjectAllocator.hpp ****             MemoryAllocator::instance()->kmem_free(((KObjectAllocator*) p)->bitVectors[i]);
 3612              		.loc 1 68 21
 3613 190c 13090000 		li	s2,0
 3614              	.LVL482:
 3615              	.L235:
GAS LISTING /tmp/ccKdsjgl.s 			page 90


  68:src/../h/kObjectAllocator.hpp ****             MemoryAllocator::instance()->kmem_free(((KObjectAllocator*) p)->bitVectors[i]);
 3616              		.loc 1 68 30 is_stmt 1
  68:src/../h/kObjectAllocator.hpp ****             MemoryAllocator::instance()->kmem_free(((KObjectAllocator*) p)->bitVectors[i]);
 3617              		.loc 1 68 57 is_stmt 0
 3618 1910 83B70403 		ld	a5,48(s1)
  68:src/../h/kObjectAllocator.hpp ****             MemoryAllocator::instance()->kmem_free(((KObjectAllocator*) p)->bitVectors[i]);
 3619              		.loc 1 68 30
 3620 1914 6376F902 		bleu	a5,s2,.L234
  69:src/../h/kObjectAllocator.hpp ****         MemoryAllocator::instance()->kmem_free(((KObjectAllocator*) p)->bitVectors);
 3621              		.loc 1 69 13 is_stmt 1
  69:src/../h/kObjectAllocator.hpp ****         MemoryAllocator::instance()->kmem_free(((KObjectAllocator*) p)->bitVectors);
 3622              		.loc 1 69 51 is_stmt 0
 3623 1918 97000000 		call	_ZN15MemoryAllocator8instanceEv@plt
 3623      E7800000 
 3624              	.LVL483:
  69:src/../h/kObjectAllocator.hpp ****         MemoryAllocator::instance()->kmem_free(((KObjectAllocator*) p)->bitVectors);
 3625              		.loc 1 69 77
 3626 1920 83B78402 		ld	a5,40(s1)
  69:src/../h/kObjectAllocator.hpp ****         MemoryAllocator::instance()->kmem_free(((KObjectAllocator*) p)->bitVectors);
 3627              		.loc 1 69 89
 3628 1924 13173900 		slli	a4,s2,3
 3629 1928 B387E700 		add	a5,a5,a4
  69:src/../h/kObjectAllocator.hpp ****         MemoryAllocator::instance()->kmem_free(((KObjectAllocator*) p)->bitVectors);
 3630              		.loc 1 69 51
 3631 192c 83B50700 		ld	a1,0(a5)
 3632 1930 97000000 		call	_ZN15MemoryAllocator9kmem_freeEPv@plt
 3632      E7800000 
 3633              	.LVL484:
  68:src/../h/kObjectAllocator.hpp ****             MemoryAllocator::instance()->kmem_free(((KObjectAllocator*) p)->bitVectors[i]);
 3634              		.loc 1 68 9 is_stmt 1
 3635 1938 13091900 		addi	s2,s2,1
 3636              	.LVL485:
 3637 193c 6FF05FFD 		j	.L235
 3638              	.L234:
 3639              	.LBE320:
  70:src/../h/kObjectAllocator.hpp ****         MemoryAllocator::instance()->kmem_free(((KObjectAllocator*) p)->objectVectors);
 3640              		.loc 1 70 9
  70:src/../h/kObjectAllocator.hpp ****         MemoryAllocator::instance()->kmem_free(((KObjectAllocator*) p)->objectVectors);
 3641              		.loc 1 70 47 is_stmt 0
 3642 1940 97000000 		call	_ZN15MemoryAllocator8instanceEv@plt
 3642      E7800000 
 3643              	.LVL486:
 3644 1948 83B58402 		ld	a1,40(s1)
 3645 194c 97000000 		call	_ZN15MemoryAllocator9kmem_freeEPv@plt
 3645      E7800000 
 3646              	.LVL487:
  71:src/../h/kObjectAllocator.hpp ****         MemoryAllocator::instance()->kmem_free(p);
 3647              		.loc 1 71 9 is_stmt 1
  71:src/../h/kObjectAllocator.hpp ****         MemoryAllocator::instance()->kmem_free(p);
 3648              		.loc 1 71 47 is_stmt 0
 3649 1954 97000000 		call	_ZN15MemoryAllocator8instanceEv@plt
 3649      E7800000 
 3650              	.LVL488:
 3651 195c 83B50402 		ld	a1,32(s1)
 3652 1960 97000000 		call	_ZN15MemoryAllocator9kmem_freeEPv@plt
 3652      E7800000 
 3653              	.LVL489:
GAS LISTING /tmp/ccKdsjgl.s 			page 91


  72:src/../h/kObjectAllocator.hpp ****     }
 3654              		.loc 1 72 9 is_stmt 1
  72:src/../h/kObjectAllocator.hpp ****     }
 3655              		.loc 1 72 47 is_stmt 0
 3656 1968 97000000 		call	_ZN15MemoryAllocator8instanceEv@plt
 3656      E7800000 
 3657              	.LVL490:
 3658 1970 93850400 		mv	a1,s1
 3659 1974 97000000 		call	_ZN15MemoryAllocator9kmem_freeEPv@plt
 3659      E7800000 
 3660              	.LVL491:
 3661              	.L233:
 3662              	.LBE319:
 3663              	.LBE318:
 190:src/kObjectAllocatorTest.cpp ****         if (!getValueOfBitAt(byte, bit, objAlloc)) { delete objAlloc; return false; }
 3664              		.loc 2 190 66 is_stmt 1 discriminator 5
 190:src/kObjectAllocatorTest.cpp ****         if (!getValueOfBitAt(byte, bit, objAlloc)) { delete objAlloc; return false; }
 3665              		.loc 2 190 73 is_stmt 0 discriminator 5
 3666 197c 130A0000 		li	s4,0
 3667 1980 6FF09FD8 		j	.L270
 3668              	.LVL492:
 3669              	.L277:
 191:src/kObjectAllocatorTest.cpp ****         if (bit == 0) { ++byte; bit = 8; } --bit;
 3670              		.loc 2 191 54 is_stmt 1 discriminator 2
 191:src/kObjectAllocatorTest.cpp ****         if (bit == 0) { ++byte; bit = 8; } --bit;
 3671              		.loc 2 191 69 is_stmt 0 discriminator 2
 3672 1984 E38204D8 		beqz	s1,.L270
 3673              	.LBB321:
 3674              	.LBB322:
 3675              	.LBB323:
  68:src/../h/kObjectAllocator.hpp ****             MemoryAllocator::instance()->kmem_free(((KObjectAllocator*) p)->bitVectors[i]);
 3676              		.loc 1 68 21
 3677 1988 13090000 		li	s2,0
 3678              	.LVL493:
 3679 198c 6F008002 		j	.L239
 3680              	.LVL494:
 3681              	.L275:
  69:src/../h/kObjectAllocator.hpp ****         MemoryAllocator::instance()->kmem_free(((KObjectAllocator*) p)->bitVectors);
 3682              		.loc 1 69 13 is_stmt 1
  69:src/../h/kObjectAllocator.hpp ****         MemoryAllocator::instance()->kmem_free(((KObjectAllocator*) p)->bitVectors);
 3683              		.loc 1 69 51 is_stmt 0
 3684 1990 97000000 		call	_ZN15MemoryAllocator8instanceEv@plt
 3684      E7800000 
 3685              	.LVL495:
  69:src/../h/kObjectAllocator.hpp ****         MemoryAllocator::instance()->kmem_free(((KObjectAllocator*) p)->bitVectors);
 3686              		.loc 1 69 77
 3687 1998 83B78402 		ld	a5,40(s1)
  69:src/../h/kObjectAllocator.hpp ****         MemoryAllocator::instance()->kmem_free(((KObjectAllocator*) p)->bitVectors);
 3688              		.loc 1 69 89
 3689 199c 13173900 		slli	a4,s2,3
 3690 19a0 B387E700 		add	a5,a5,a4
  69:src/../h/kObjectAllocator.hpp ****         MemoryAllocator::instance()->kmem_free(((KObjectAllocator*) p)->bitVectors);
 3691              		.loc 1 69 51
 3692 19a4 83B50700 		ld	a1,0(a5)
 3693 19a8 97000000 		call	_ZN15MemoryAllocator9kmem_freeEPv@plt
 3693      E7800000 
 3694              	.LVL496:
GAS LISTING /tmp/ccKdsjgl.s 			page 92


  68:src/../h/kObjectAllocator.hpp ****             MemoryAllocator::instance()->kmem_free(((KObjectAllocator*) p)->bitVectors[i]);
 3695              		.loc 1 68 9 is_stmt 1
 3696 19b0 13091900 		addi	s2,s2,1
 3697              	.LVL497:
 3698              	.L239:
  68:src/../h/kObjectAllocator.hpp ****             MemoryAllocator::instance()->kmem_free(((KObjectAllocator*) p)->bitVectors[i]);
 3699              		.loc 1 68 30
  68:src/../h/kObjectAllocator.hpp ****             MemoryAllocator::instance()->kmem_free(((KObjectAllocator*) p)->bitVectors[i]);
 3700              		.loc 1 68 57 is_stmt 0
 3701 19b4 83B70403 		ld	a5,48(s1)
  68:src/../h/kObjectAllocator.hpp ****             MemoryAllocator::instance()->kmem_free(((KObjectAllocator*) p)->bitVectors[i]);
 3702              		.loc 1 68 30
 3703 19b8 E36CF9FC 		bgtu	a5,s2,.L275
 3704              	.LBE323:
  70:src/../h/kObjectAllocator.hpp ****         MemoryAllocator::instance()->kmem_free(((KObjectAllocator*) p)->objectVectors);
 3705              		.loc 1 70 9 is_stmt 1
  70:src/../h/kObjectAllocator.hpp ****         MemoryAllocator::instance()->kmem_free(((KObjectAllocator*) p)->objectVectors);
 3706              		.loc 1 70 47 is_stmt 0
 3707 19bc 97000000 		call	_ZN15MemoryAllocator8instanceEv@plt
 3707      E7800000 
 3708              	.LVL498:
 3709 19c4 83B58402 		ld	a1,40(s1)
 3710 19c8 97000000 		call	_ZN15MemoryAllocator9kmem_freeEPv@plt
 3710      E7800000 
 3711              	.LVL499:
  71:src/../h/kObjectAllocator.hpp ****         MemoryAllocator::instance()->kmem_free(p);
 3712              		.loc 1 71 9 is_stmt 1
  71:src/../h/kObjectAllocator.hpp ****         MemoryAllocator::instance()->kmem_free(p);
 3713              		.loc 1 71 47 is_stmt 0
 3714 19d0 97000000 		call	_ZN15MemoryAllocator8instanceEv@plt
 3714      E7800000 
 3715              	.LVL500:
 3716 19d8 83B50402 		ld	a1,32(s1)
 3717 19dc 97000000 		call	_ZN15MemoryAllocator9kmem_freeEPv@plt
 3717      E7800000 
 3718              	.LVL501:
  72:src/../h/kObjectAllocator.hpp ****     }
 3719              		.loc 1 72 9 is_stmt 1
  72:src/../h/kObjectAllocator.hpp ****     }
 3720              		.loc 1 72 47 is_stmt 0
 3721 19e4 97000000 		call	_ZN15MemoryAllocator8instanceEv@plt
 3721      E7800000 
 3722              	.LVL502:
 3723 19ec 93850400 		mv	a1,s1
 3724 19f0 97000000 		call	_ZN15MemoryAllocator9kmem_freeEPv@plt
 3724      E7800000 
 3725              	.LVL503:
 3726              	.LBE322:
 3727              	.LBE321:
 191:src/kObjectAllocatorTest.cpp ****         if (bit == 0) { ++byte; bit = 8; } --bit;
 3728              		.loc 2 191 71 is_stmt 1
 191:src/kObjectAllocatorTest.cpp ****         if (bit == 0) { ++byte; bit = 8; } --bit;
 3729              		.loc 2 191 78 is_stmt 0
 3730 19f8 6FF01FD1 		j	.L270
 3731              	.LVL504:
 3732              	.L278:
 192:src/kObjectAllocatorTest.cpp ****     }
GAS LISTING /tmp/ccKdsjgl.s 			page 93


 3733              		.loc 2 192 25 is_stmt 1 discriminator 1
 3734 19fc 938A1A00 		addi	s5,s5,1
 3735              	.LVL505:
 192:src/kObjectAllocatorTest.cpp ****     }
 3736              		.loc 2 192 33 discriminator 1
 192:src/kObjectAllocatorTest.cpp ****     }
 3737              		.loc 2 192 37 is_stmt 0 discriminator 1
 3738 1a00 13890B00 		mv	s2,s7
 3739              	.LVL506:
 3740              	.L240:
 192:src/kObjectAllocatorTest.cpp ****     }
 3741              		.loc 2 192 44 is_stmt 1 discriminator 3
 3742 1a04 1309F9FF 		addi	s2,s2,-1
 3743              	.LVL507:
 3744              	.LBE314:
 186:src/kObjectAllocatorTest.cpp ****         if (objArr[i] != getObjectAt(byte, bit, objAlloc)) { delete objAlloc; return false; }
 3745              		.loc 2 186 5 discriminator 3
 3746 1a08 130B1B00 		addi	s6,s6,1
 3747              	.LVL508:
 3748              	.L225:
 186:src/kObjectAllocatorTest.cpp ****         if (objArr[i] != getObjectAt(byte, bit, objAlloc)) { delete objAlloc; return false; }
 3749              		.loc 2 186 26 discriminator 2
 3750 1a0c 93079000 		li	a5,9
 3751 1a10 63E66709 		bgtu	s6,a5,.L267
 3752              	.LBB324:
 187:src/kObjectAllocatorTest.cpp ****         size_t objByte = getByteOfObject(objArr[i], objAlloc);
 3753              		.loc 2 187 9
 187:src/kObjectAllocatorTest.cpp ****         size_t objByte = getByteOfObject(objArr[i], objAlloc);
 3754              		.loc 2 187 21 is_stmt 0
 3755 1a14 93173B00 		slli	a5,s6,3
 3756 1a18 130704FB 		addi	a4,s0,-80
 3757 1a1c B307F700 		add	a5,a4,a5
 3758 1a20 03BA07FB 		ld	s4,-80(a5)
 187:src/kObjectAllocatorTest.cpp ****         size_t objByte = getByteOfObject(objArr[i], objAlloc);
 3759              		.loc 2 187 37
 3760 1a24 93860400 		mv	a3,s1
 3761 1a28 13060900 		mv	a2,s2
 3762 1a2c 93850A00 		mv	a1,s5
 3763 1a30 13850900 		mv	a0,s3
 3764 1a34 97000000 		call	_ZN20KObjectAllocatorTest11getObjectAtEmmP16KObjectAllocator
 3764      E7800000 
 3765              	.LVL509:
 187:src/kObjectAllocatorTest.cpp ****         size_t objByte = getByteOfObject(objArr[i], objAlloc);
 3766              		.loc 2 187 9
 3767 1a3c E318AAE4 		bne	s4,a0,.L276
 188:src/kObjectAllocatorTest.cpp ****         size_t objBit = getBitOfObject(objArr[i], objAlloc);
 3768              		.loc 2 188 9 is_stmt 1
 188:src/kObjectAllocatorTest.cpp ****         size_t objBit = getBitOfObject(objArr[i], objAlloc);
 3769              		.loc 2 188 41 is_stmt 0
 3770 1a40 13860400 		mv	a2,s1
 3771 1a44 93050A00 		mv	a1,s4
 3772 1a48 13850900 		mv	a0,s3
 3773 1a4c 97000000 		call	_ZN20KObjectAllocatorTest15getByteOfObjectEPvP16KObjectAllocator
 3773      E7800000 
 3774              	.LVL510:
 3775 1a54 130C0500 		mv	s8,a0
 3776              	.LVL511:
GAS LISTING /tmp/ccKdsjgl.s 			page 94


 189:src/kObjectAllocatorTest.cpp ****         if (objByte != byte || objBit != bit) { delete objAlloc; return false; }
 3777              		.loc 2 189 9 is_stmt 1
 189:src/kObjectAllocatorTest.cpp ****         if (objByte != byte || objBit != bit) { delete objAlloc; return false; }
 3778              		.loc 2 189 39 is_stmt 0
 3779 1a58 13860400 		mv	a2,s1
 3780 1a5c 93050A00 		mv	a1,s4
 3781 1a60 13850900 		mv	a0,s3
 3782              	.LVL512:
 3783 1a64 97000000 		call	_ZN20KObjectAllocatorTest14getBitOfObjectEPvP16KObjectAllocator
 3783      E7800000 
 3784              	.LVL513:
 190:src/kObjectAllocatorTest.cpp ****         if (!getValueOfBitAt(byte, bit, objAlloc)) { delete objAlloc; return false; }
 3785              		.loc 2 190 9 is_stmt 1
 3786 1a6c E39E8AE9 		bne	s5,s8,.L231
 190:src/kObjectAllocatorTest.cpp ****         if (!getValueOfBitAt(byte, bit, objAlloc)) { delete objAlloc; return false; }
 3787              		.loc 2 190 29 is_stmt 0 discriminator 2
 3788 1a70 E31CA9E8 		bne	s2,a0,.L231
 191:src/kObjectAllocatorTest.cpp ****         if (bit == 0) { ++byte; bit = 8; } --bit;
 3789              		.loc 2 191 9 is_stmt 1
 191:src/kObjectAllocatorTest.cpp ****         if (bit == 0) { ++byte; bit = 8; } --bit;
 3790              		.loc 2 191 29 is_stmt 0
 3791 1a74 93860400 		mv	a3,s1
 3792 1a78 13060900 		mv	a2,s2
 3793 1a7c 93850A00 		mv	a1,s5
 3794 1a80 13850900 		mv	a0,s3
 3795              	.LVL514:
 3796 1a84 97000000 		call	_ZN20KObjectAllocatorTest15getValueOfBitAtEmmP16KObjectAllocator
 3796      E7800000 
 3797              	.LVL515:
 3798 1a8c 130A0500 		mv	s4,a0
 191:src/kObjectAllocatorTest.cpp ****         if (bit == 0) { ++byte; bit = 8; } --bit;
 3799              		.loc 2 191 9
 3800 1a90 E30A05EE 		beqz	a0,.L277
 192:src/kObjectAllocatorTest.cpp ****     }
 3801              		.loc 2 192 9 is_stmt 1
 3802 1a94 E31809F6 		bnez	s2,.L240
 3803 1a98 6FF05FF6 		j	.L278
 3804              	.LVL516:
 3805              	.L267:
 3806              	.LBE324:
 3807              	.LBE325:
 3808              	.LBB326:
 194:src/kObjectAllocatorTest.cpp ****         if (getValueOfBitAt(byte, bit, objAlloc)) { delete objAlloc; return false; }
 3809              		.loc 2 194 17 is_stmt 0
 3810 1a9c 130A0000 		li	s4,0
 3811 1aa0 6F000009 		j	.L226
 3812              	.LVL517:
 3813              	.L279:
 195:src/kObjectAllocatorTest.cpp ****         if (bit == 0) { ++byte; bit = 8; } --bit;
 3814              		.loc 2 195 53 is_stmt 1 discriminator 2
 195:src/kObjectAllocatorTest.cpp ****         if (bit == 0) { ++byte; bit = 8; } --bit;
 3815              		.loc 2 195 68 is_stmt 0 discriminator 2
 3816 1aa4 638A0406 		beqz	s1,.L243
 3817              	.LBB327:
 3818              	.LBB328:
 3819              	.LBB329:
  68:src/../h/kObjectAllocator.hpp ****             MemoryAllocator::instance()->kmem_free(((KObjectAllocator*) p)->bitVectors[i]);
GAS LISTING /tmp/ccKdsjgl.s 			page 95


 3820              		.loc 1 68 21
 3821 1aa8 13090000 		li	s2,0
 3822              	.LVL518:
 3823              	.L245:
  68:src/../h/kObjectAllocator.hpp ****             MemoryAllocator::instance()->kmem_free(((KObjectAllocator*) p)->bitVectors[i]);
 3824              		.loc 1 68 30 is_stmt 1
  68:src/../h/kObjectAllocator.hpp ****             MemoryAllocator::instance()->kmem_free(((KObjectAllocator*) p)->bitVectors[i]);
 3825              		.loc 1 68 57 is_stmt 0
 3826 1aac 83B70403 		ld	a5,48(s1)
  68:src/../h/kObjectAllocator.hpp ****             MemoryAllocator::instance()->kmem_free(((KObjectAllocator*) p)->bitVectors[i]);
 3827              		.loc 1 68 30
 3828 1ab0 6376F902 		bleu	a5,s2,.L244
  69:src/../h/kObjectAllocator.hpp ****         MemoryAllocator::instance()->kmem_free(((KObjectAllocator*) p)->bitVectors);
 3829              		.loc 1 69 13 is_stmt 1
  69:src/../h/kObjectAllocator.hpp ****         MemoryAllocator::instance()->kmem_free(((KObjectAllocator*) p)->bitVectors);
 3830              		.loc 1 69 51 is_stmt 0
 3831 1ab4 97000000 		call	_ZN15MemoryAllocator8instanceEv@plt
 3831      E7800000 
 3832              	.LVL519:
  69:src/../h/kObjectAllocator.hpp ****         MemoryAllocator::instance()->kmem_free(((KObjectAllocator*) p)->bitVectors);
 3833              		.loc 1 69 77
 3834 1abc 83B78402 		ld	a5,40(s1)
  69:src/../h/kObjectAllocator.hpp ****         MemoryAllocator::instance()->kmem_free(((KObjectAllocator*) p)->bitVectors);
 3835              		.loc 1 69 89
 3836 1ac0 13173900 		slli	a4,s2,3
 3837 1ac4 B387E700 		add	a5,a5,a4
  69:src/../h/kObjectAllocator.hpp ****         MemoryAllocator::instance()->kmem_free(((KObjectAllocator*) p)->bitVectors);
 3838              		.loc 1 69 51
 3839 1ac8 83B50700 		ld	a1,0(a5)
 3840 1acc 97000000 		call	_ZN15MemoryAllocator9kmem_freeEPv@plt
 3840      E7800000 
 3841              	.LVL520:
  68:src/../h/kObjectAllocator.hpp ****             MemoryAllocator::instance()->kmem_free(((KObjectAllocator*) p)->bitVectors[i]);
 3842              		.loc 1 68 9 is_stmt 1
 3843 1ad4 13091900 		addi	s2,s2,1
 3844              	.LVL521:
 3845 1ad8 6FF05FFD 		j	.L245
 3846              	.L244:
 3847              	.LBE329:
  70:src/../h/kObjectAllocator.hpp ****         MemoryAllocator::instance()->kmem_free(((KObjectAllocator*) p)->objectVectors);
 3848              		.loc 1 70 9
  70:src/../h/kObjectAllocator.hpp ****         MemoryAllocator::instance()->kmem_free(((KObjectAllocator*) p)->objectVectors);
 3849              		.loc 1 70 47 is_stmt 0
 3850 1adc 97000000 		call	_ZN15MemoryAllocator8instanceEv@plt
 3850      E7800000 
 3851              	.LVL522:
 3852 1ae4 83B58402 		ld	a1,40(s1)
 3853 1ae8 97000000 		call	_ZN15MemoryAllocator9kmem_freeEPv@plt
 3853      E7800000 
 3854              	.LVL523:
  71:src/../h/kObjectAllocator.hpp ****         MemoryAllocator::instance()->kmem_free(p);
 3855              		.loc 1 71 9 is_stmt 1
  71:src/../h/kObjectAllocator.hpp ****         MemoryAllocator::instance()->kmem_free(p);
 3856              		.loc 1 71 47 is_stmt 0
 3857 1af0 97000000 		call	_ZN15MemoryAllocator8instanceEv@plt
 3857      E7800000 
 3858              	.LVL524:
GAS LISTING /tmp/ccKdsjgl.s 			page 96


 3859 1af8 83B50402 		ld	a1,32(s1)
 3860 1afc 97000000 		call	_ZN15MemoryAllocator9kmem_freeEPv@plt
 3860      E7800000 
 3861              	.LVL525:
  72:src/../h/kObjectAllocator.hpp ****     }
 3862              		.loc 1 72 9 is_stmt 1
  72:src/../h/kObjectAllocator.hpp ****     }
 3863              		.loc 1 72 47 is_stmt 0
 3864 1b04 97000000 		call	_ZN15MemoryAllocator8instanceEv@plt
 3864      E7800000 
 3865              	.LVL526:
 3866 1b0c 93850400 		mv	a1,s1
 3867 1b10 97000000 		call	_ZN15MemoryAllocator9kmem_freeEPv@plt
 3867      E7800000 
 3868              	.LVL527:
 3869              	.L243:
 3870              	.LBE328:
 3871              	.LBE327:
 195:src/kObjectAllocatorTest.cpp ****         if (bit == 0) { ++byte; bit = 8; } --bit;
 3872              		.loc 2 195 70 is_stmt 1 discriminator 4
 195:src/kObjectAllocatorTest.cpp ****         if (bit == 0) { ++byte; bit = 8; } --bit;
 3873              		.loc 2 195 77 is_stmt 0 discriminator 4
 3874 1b18 130A0000 		li	s4,0
 3875              	.LVL528:
 3876 1b1c 6FF0DFBE 		j	.L270
 3877              	.LVL529:
 3878              	.L280:
 196:src/kObjectAllocatorTest.cpp ****     }
 3879              		.loc 2 196 25 is_stmt 1 discriminator 1
 3880 1b20 938A1A00 		addi	s5,s5,1
 3881              	.LVL530:
 196:src/kObjectAllocatorTest.cpp ****     }
 3882              		.loc 2 196 33 discriminator 1
 196:src/kObjectAllocatorTest.cpp ****     }
 3883              		.loc 2 196 37 is_stmt 0 discriminator 1
 3884 1b24 13890B00 		mv	s2,s7
 3885              	.LVL531:
 3886              	.L246:
 196:src/kObjectAllocatorTest.cpp ****     }
 3887              		.loc 2 196 44 is_stmt 1 discriminator 3
 3888 1b28 1309F9FF 		addi	s2,s2,-1
 3889              	.LVL532:
 194:src/kObjectAllocatorTest.cpp ****         if (getValueOfBitAt(byte, bit, objAlloc)) { delete objAlloc; return false; }
 3890              		.loc 2 194 5 discriminator 3
 3891 1b2c 130A1A00 		addi	s4,s4,1
 3892              	.LVL533:
 3893              	.L226:
 194:src/kObjectAllocatorTest.cpp ****         if (getValueOfBitAt(byte, bit, objAlloc)) { delete objAlloc; return false; }
 3894              		.loc 2 194 26 discriminator 2
 3895 1b30 93075000 		li	a5,5
 3896 1b34 63E44703 		bgtu	s4,a5,.L241
 195:src/kObjectAllocatorTest.cpp ****         if (bit == 0) { ++byte; bit = 8; } --bit;
 3897              		.loc 2 195 9
 195:src/kObjectAllocatorTest.cpp ****         if (bit == 0) { ++byte; bit = 8; } --bit;
 3898              		.loc 2 195 28 is_stmt 0
 3899 1b38 93860400 		mv	a3,s1
 3900 1b3c 13060900 		mv	a2,s2
GAS LISTING /tmp/ccKdsjgl.s 			page 97


 3901 1b40 93850A00 		mv	a1,s5
 3902 1b44 13850900 		mv	a0,s3
 3903 1b48 97000000 		call	_ZN20KObjectAllocatorTest15getValueOfBitAtEmmP16KObjectAllocator
 3903      E7800000 
 3904              	.LVL534:
 195:src/kObjectAllocatorTest.cpp ****         if (bit == 0) { ++byte; bit = 8; } --bit;
 3905              		.loc 2 195 9
 3906 1b50 E31A05F4 		bnez	a0,.L279
 196:src/kObjectAllocatorTest.cpp ****     }
 3907              		.loc 2 196 9 is_stmt 1
 3908 1b54 E31A09FC 		bnez	s2,.L246
 3909 1b58 6FF09FFC 		j	.L280
 3910              	.L241:
 3911              	.LBE326:
 198:src/kObjectAllocatorTest.cpp ****     objAlloc->freeObject(objArr[7]);
 3912              		.loc 2 198 5
 198:src/kObjectAllocatorTest.cpp ****     objAlloc->freeObject(objArr[7]);
 3913              		.loc 2 198 25 is_stmt 0
 3914 1b5c 833504F8 		ld	a1,-128(s0)
 3915 1b60 13850400 		mv	a0,s1
 3916 1b64 97000000 		call	_ZN16KObjectAllocator10freeObjectEPv@plt
 3916      E7800000 
 3917              	.LVL535:
 199:src/kObjectAllocatorTest.cpp ****     objAlloc->freeObject(objArr[8]);
 3918              		.loc 2 199 5 is_stmt 1
 199:src/kObjectAllocatorTest.cpp ****     objAlloc->freeObject(objArr[8]);
 3919              		.loc 2 199 25 is_stmt 0
 3920 1b6c 833584F9 		ld	a1,-104(s0)
 3921 1b70 13850400 		mv	a0,s1
 3922 1b74 97000000 		call	_ZN16KObjectAllocator10freeObjectEPv@plt
 3922      E7800000 
 3923              	.LVL536:
 200:src/kObjectAllocatorTest.cpp ****     objArr[4] = objAlloc->allocateNewObject();
 3924              		.loc 2 200 5 is_stmt 1
 200:src/kObjectAllocatorTest.cpp ****     objArr[4] = objAlloc->allocateNewObject();
 3925              		.loc 2 200 25 is_stmt 0
 3926 1b7c 833504FA 		ld	a1,-96(s0)
 3927 1b80 13850400 		mv	a0,s1
 3928 1b84 97000000 		call	_ZN16KObjectAllocator10freeObjectEPv@plt
 3928      E7800000 
 3929              	.LVL537:
 201:src/kObjectAllocatorTest.cpp ****     if (objArr[4] != getObjectAt(1, 7, objAlloc)) { delete objAlloc; return false; }
 3930              		.loc 2 201 5 is_stmt 1
 201:src/kObjectAllocatorTest.cpp ****     if (objArr[4] != getObjectAt(1, 7, objAlloc)) { delete objAlloc; return false; }
 3931              		.loc 2 201 44 is_stmt 0
 3932 1b8c 13850400 		mv	a0,s1
 3933 1b90 97000000 		call	_ZN16KObjectAllocator17allocateNewObjectEv@plt
 3933      E7800000 
 3934              	.LVL538:
 3935 1b98 13090500 		mv	s2,a0
 3936              	.LVL539:
 202:src/kObjectAllocatorTest.cpp ****     byte = getByteOfObject(objArr[4], objAlloc);
 3937              		.loc 2 202 5 is_stmt 1
 202:src/kObjectAllocatorTest.cpp ****     byte = getByteOfObject(objArr[4], objAlloc);
 3938              		.loc 2 202 33 is_stmt 0
 3939 1b9c 93860400 		mv	a3,s1
 3940 1ba0 13067000 		li	a2,7
GAS LISTING /tmp/ccKdsjgl.s 			page 98


 3941 1ba4 93051000 		li	a1,1
 3942 1ba8 13850900 		mv	a0,s3
 3943 1bac 97000000 		call	_ZN20KObjectAllocatorTest11getObjectAtEmmP16KObjectAllocator
 3943      E7800000 
 3944              	.LVL540:
 202:src/kObjectAllocatorTest.cpp ****     byte = getByteOfObject(objArr[4], objAlloc);
 3945              		.loc 2 202 5
 3946 1bb4 6300A908 		beq	s2,a0,.L247
 202:src/kObjectAllocatorTest.cpp ****     byte = getByteOfObject(objArr[4], objAlloc);
 3947              		.loc 2 202 53 is_stmt 1 discriminator 2
 202:src/kObjectAllocatorTest.cpp ****     byte = getByteOfObject(objArr[4], objAlloc);
 3948              		.loc 2 202 68 is_stmt 0 discriminator 2
 3949 1bb8 638A0406 		beqz	s1,.L248
 3950              	.LBB330:
 3951              	.LBB331:
 3952              	.LBB332:
  68:src/../h/kObjectAllocator.hpp ****             MemoryAllocator::instance()->kmem_free(((KObjectAllocator*) p)->bitVectors[i]);
 3953              		.loc 1 68 21
 3954 1bbc 13090000 		li	s2,0
 3955 1bc0 6F008002 		j	.L250
 3956              	.LVL541:
 3957              	.L281:
  69:src/../h/kObjectAllocator.hpp ****         MemoryAllocator::instance()->kmem_free(((KObjectAllocator*) p)->bitVectors);
 3958              		.loc 1 69 13 is_stmt 1
  69:src/../h/kObjectAllocator.hpp ****         MemoryAllocator::instance()->kmem_free(((KObjectAllocator*) p)->bitVectors);
 3959              		.loc 1 69 51 is_stmt 0
 3960 1bc4 97000000 		call	_ZN15MemoryAllocator8instanceEv@plt
 3960      E7800000 
 3961              	.LVL542:
  69:src/../h/kObjectAllocator.hpp ****         MemoryAllocator::instance()->kmem_free(((KObjectAllocator*) p)->bitVectors);
 3962              		.loc 1 69 77
 3963 1bcc 83B78402 		ld	a5,40(s1)
  69:src/../h/kObjectAllocator.hpp ****         MemoryAllocator::instance()->kmem_free(((KObjectAllocator*) p)->bitVectors);
 3964              		.loc 1 69 89
 3965 1bd0 13173900 		slli	a4,s2,3
 3966 1bd4 B387E700 		add	a5,a5,a4
  69:src/../h/kObjectAllocator.hpp ****         MemoryAllocator::instance()->kmem_free(((KObjectAllocator*) p)->bitVectors);
 3967              		.loc 1 69 51
 3968 1bd8 83B50700 		ld	a1,0(a5)
 3969 1bdc 97000000 		call	_ZN15MemoryAllocator9kmem_freeEPv@plt
 3969      E7800000 
 3970              	.LVL543:
  68:src/../h/kObjectAllocator.hpp ****             MemoryAllocator::instance()->kmem_free(((KObjectAllocator*) p)->bitVectors[i]);
 3971              		.loc 1 68 9 is_stmt 1
 3972 1be4 13091900 		addi	s2,s2,1
 3973              	.LVL544:
 3974              	.L250:
  68:src/../h/kObjectAllocator.hpp ****             MemoryAllocator::instance()->kmem_free(((KObjectAllocator*) p)->bitVectors[i]);
 3975              		.loc 1 68 30
  68:src/../h/kObjectAllocator.hpp ****             MemoryAllocator::instance()->kmem_free(((KObjectAllocator*) p)->bitVectors[i]);
 3976              		.loc 1 68 57 is_stmt 0
 3977 1be8 83B70403 		ld	a5,48(s1)
  68:src/../h/kObjectAllocator.hpp ****             MemoryAllocator::instance()->kmem_free(((KObjectAllocator*) p)->bitVectors[i]);
 3978              		.loc 1 68 30
 3979 1bec E36CF9FC 		bgtu	a5,s2,.L281
 3980              	.LBE332:
  70:src/../h/kObjectAllocator.hpp ****         MemoryAllocator::instance()->kmem_free(((KObjectAllocator*) p)->objectVectors);
GAS LISTING /tmp/ccKdsjgl.s 			page 99


 3981              		.loc 1 70 9 is_stmt 1
  70:src/../h/kObjectAllocator.hpp ****         MemoryAllocator::instance()->kmem_free(((KObjectAllocator*) p)->objectVectors);
 3982              		.loc 1 70 47 is_stmt 0
 3983 1bf0 97000000 		call	_ZN15MemoryAllocator8instanceEv@plt
 3983      E7800000 
 3984              	.LVL545:
 3985 1bf8 83B58402 		ld	a1,40(s1)
 3986 1bfc 97000000 		call	_ZN15MemoryAllocator9kmem_freeEPv@plt
 3986      E7800000 
 3987              	.LVL546:
  71:src/../h/kObjectAllocator.hpp ****         MemoryAllocator::instance()->kmem_free(p);
 3988              		.loc 1 71 9 is_stmt 1
  71:src/../h/kObjectAllocator.hpp ****         MemoryAllocator::instance()->kmem_free(p);
 3989              		.loc 1 71 47 is_stmt 0
 3990 1c04 97000000 		call	_ZN15MemoryAllocator8instanceEv@plt
 3990      E7800000 
 3991              	.LVL547:
 3992 1c0c 83B50402 		ld	a1,32(s1)
 3993 1c10 97000000 		call	_ZN15MemoryAllocator9kmem_freeEPv@plt
 3993      E7800000 
 3994              	.LVL548:
  72:src/../h/kObjectAllocator.hpp ****     }
 3995              		.loc 1 72 9 is_stmt 1
  72:src/../h/kObjectAllocator.hpp ****     }
 3996              		.loc 1 72 47 is_stmt 0
 3997 1c18 97000000 		call	_ZN15MemoryAllocator8instanceEv@plt
 3997      E7800000 
 3998              	.LVL549:
 3999 1c20 93850400 		mv	a1,s1
 4000 1c24 97000000 		call	_ZN15MemoryAllocator9kmem_freeEPv@plt
 4000      E7800000 
 4001              	.LVL550:
 4002              	.L248:
 4003              	.LBE331:
 4004              	.LBE330:
 202:src/kObjectAllocatorTest.cpp ****     byte = getByteOfObject(objArr[4], objAlloc);
 4005              		.loc 2 202 70 is_stmt 1 discriminator 4
 202:src/kObjectAllocatorTest.cpp ****     byte = getByteOfObject(objArr[4], objAlloc);
 4006              		.loc 2 202 77 is_stmt 0 discriminator 4
 4007 1c2c 130A0000 		li	s4,0
 4008              	.LVL551:
 4009 1c30 6FF09FAD 		j	.L270
 4010              	.LVL552:
 4011              	.L247:
 203:src/kObjectAllocatorTest.cpp ****     bit = getBitOfObject(objArr[4], objAlloc);
 4012              		.loc 2 203 5 is_stmt 1
 203:src/kObjectAllocatorTest.cpp ****     bit = getBitOfObject(objArr[4], objAlloc);
 4013              		.loc 2 203 27 is_stmt 0
 4014 1c34 13860400 		mv	a2,s1
 4015 1c38 93050900 		mv	a1,s2
 4016 1c3c 13850900 		mv	a0,s3
 4017 1c40 97000000 		call	_ZN20KObjectAllocatorTest15getByteOfObjectEPvP16KObjectAllocator
 4017      E7800000 
 4018              	.LVL553:
 4019 1c48 130A0500 		mv	s4,a0
 4020              	.LVL554:
 204:src/kObjectAllocatorTest.cpp ****     if (byte != 1 || bit != 7) { delete objAlloc; return false; }
GAS LISTING /tmp/ccKdsjgl.s 			page 100


 4021              		.loc 2 204 5 is_stmt 1
 204:src/kObjectAllocatorTest.cpp ****     if (byte != 1 || bit != 7) { delete objAlloc; return false; }
 4022              		.loc 2 204 25 is_stmt 0
 4023 1c4c 13860400 		mv	a2,s1
 4024 1c50 93050900 		mv	a1,s2
 4025 1c54 13850900 		mv	a0,s3
 4026              	.LVL555:
 4027 1c58 97000000 		call	_ZN20KObjectAllocatorTest14getBitOfObjectEPvP16KObjectAllocator
 4027      E7800000 
 4028              	.LVL556:
 4029 1c60 13090500 		mv	s2,a0
 4030              	.LVL557:
 205:src/kObjectAllocatorTest.cpp ****     bool expectedBitValues[16] = {
 4031              		.loc 2 205 5 is_stmt 1
 4032 1c64 93071000 		li	a5,1
 4033 1c68 6316FA00 		bne	s4,a5,.L251
 205:src/kObjectAllocatorTest.cpp ****     bool expectedBitValues[16] = {
 4034              		.loc 2 205 19 is_stmt 0 discriminator 2
 4035 1c6c 93077000 		li	a5,7
 4036 1c70 6300F508 		beq	a0,a5,.L252
 4037              	.L251:
 205:src/kObjectAllocatorTest.cpp ****     bool expectedBitValues[16] = {
 4038              		.loc 2 205 34 is_stmt 1 discriminator 3
 205:src/kObjectAllocatorTest.cpp ****     bool expectedBitValues[16] = {
 4039              		.loc 2 205 49 is_stmt 0 discriminator 3
 4040 1c74 638A0406 		beqz	s1,.L253
 4041              	.LBB333:
 4042              	.LBB334:
 4043              	.LBB335:
  68:src/../h/kObjectAllocator.hpp ****             MemoryAllocator::instance()->kmem_free(((KObjectAllocator*) p)->bitVectors[i]);
 4044              		.loc 1 68 21
 4045 1c78 13090000 		li	s2,0
 4046 1c7c 6F008002 		j	.L255
 4047              	.LVL558:
 4048              	.L282:
  69:src/../h/kObjectAllocator.hpp ****         MemoryAllocator::instance()->kmem_free(((KObjectAllocator*) p)->bitVectors);
 4049              		.loc 1 69 13 is_stmt 1
  69:src/../h/kObjectAllocator.hpp ****         MemoryAllocator::instance()->kmem_free(((KObjectAllocator*) p)->bitVectors);
 4050              		.loc 1 69 51 is_stmt 0
 4051 1c80 97000000 		call	_ZN15MemoryAllocator8instanceEv@plt
 4051      E7800000 
 4052              	.LVL559:
  69:src/../h/kObjectAllocator.hpp ****         MemoryAllocator::instance()->kmem_free(((KObjectAllocator*) p)->bitVectors);
 4053              		.loc 1 69 77
 4054 1c88 83B78402 		ld	a5,40(s1)
  69:src/../h/kObjectAllocator.hpp ****         MemoryAllocator::instance()->kmem_free(((KObjectAllocator*) p)->bitVectors);
 4055              		.loc 1 69 89
 4056 1c8c 13173900 		slli	a4,s2,3
 4057 1c90 B387E700 		add	a5,a5,a4
  69:src/../h/kObjectAllocator.hpp ****         MemoryAllocator::instance()->kmem_free(((KObjectAllocator*) p)->bitVectors);
 4058              		.loc 1 69 51
 4059 1c94 83B50700 		ld	a1,0(a5)
 4060 1c98 97000000 		call	_ZN15MemoryAllocator9kmem_freeEPv@plt
 4060      E7800000 
 4061              	.LVL560:
  68:src/../h/kObjectAllocator.hpp ****             MemoryAllocator::instance()->kmem_free(((KObjectAllocator*) p)->bitVectors[i]);
 4062              		.loc 1 68 9 is_stmt 1
GAS LISTING /tmp/ccKdsjgl.s 			page 101


 4063 1ca0 13091900 		addi	s2,s2,1
 4064              	.LVL561:
 4065              	.L255:
  68:src/../h/kObjectAllocator.hpp ****             MemoryAllocator::instance()->kmem_free(((KObjectAllocator*) p)->bitVectors[i]);
 4066              		.loc 1 68 30
  68:src/../h/kObjectAllocator.hpp ****             MemoryAllocator::instance()->kmem_free(((KObjectAllocator*) p)->bitVectors[i]);
 4067              		.loc 1 68 57 is_stmt 0
 4068 1ca4 83B70403 		ld	a5,48(s1)
  68:src/../h/kObjectAllocator.hpp ****             MemoryAllocator::instance()->kmem_free(((KObjectAllocator*) p)->bitVectors[i]);
 4069              		.loc 1 68 30
 4070 1ca8 E36CF9FC 		bgtu	a5,s2,.L282
 4071              	.LBE335:
  70:src/../h/kObjectAllocator.hpp ****         MemoryAllocator::instance()->kmem_free(((KObjectAllocator*) p)->objectVectors);
 4072              		.loc 1 70 9 is_stmt 1
  70:src/../h/kObjectAllocator.hpp ****         MemoryAllocator::instance()->kmem_free(((KObjectAllocator*) p)->objectVectors);
 4073              		.loc 1 70 47 is_stmt 0
 4074 1cac 97000000 		call	_ZN15MemoryAllocator8instanceEv@plt
 4074      E7800000 
 4075              	.LVL562:
 4076 1cb4 83B58402 		ld	a1,40(s1)
 4077 1cb8 97000000 		call	_ZN15MemoryAllocator9kmem_freeEPv@plt
 4077      E7800000 
 4078              	.LVL563:
  71:src/../h/kObjectAllocator.hpp ****         MemoryAllocator::instance()->kmem_free(p);
 4079              		.loc 1 71 9 is_stmt 1
  71:src/../h/kObjectAllocator.hpp ****         MemoryAllocator::instance()->kmem_free(p);
 4080              		.loc 1 71 47 is_stmt 0
 4081 1cc0 97000000 		call	_ZN15MemoryAllocator8instanceEv@plt
 4081      E7800000 
 4082              	.LVL564:
 4083 1cc8 83B50402 		ld	a1,32(s1)
 4084 1ccc 97000000 		call	_ZN15MemoryAllocator9kmem_freeEPv@plt
 4084      E7800000 
 4085              	.LVL565:
  72:src/../h/kObjectAllocator.hpp ****     }
 4086              		.loc 1 72 9 is_stmt 1
  72:src/../h/kObjectAllocator.hpp ****     }
 4087              		.loc 1 72 47 is_stmt 0
 4088 1cd4 97000000 		call	_ZN15MemoryAllocator8instanceEv@plt
 4088      E7800000 
 4089              	.LVL566:
 4090 1cdc 93850400 		mv	a1,s1
 4091 1ce0 97000000 		call	_ZN15MemoryAllocator9kmem_freeEPv@plt
 4091      E7800000 
 4092              	.LVL567:
 4093              	.L253:
 4094              	.LBE334:
 4095              	.LBE333:
 205:src/kObjectAllocatorTest.cpp ****     bool expectedBitValues[16] = {
 4096              		.loc 2 205 51 is_stmt 1 discriminator 5
 205:src/kObjectAllocatorTest.cpp ****     bool expectedBitValues[16] = {
 4097              		.loc 2 205 58 is_stmt 0 discriminator 5
 4098 1ce8 130A0000 		li	s4,0
 4099              	.LVL568:
 4100 1cec 6FF0DFA1 		j	.L270
 4101              	.LVL569:
 4102              	.L252:
GAS LISTING /tmp/ccKdsjgl.s 			page 102


 206:src/kObjectAllocatorTest.cpp ****             true, true, true, true, false, true, true, false,
 4103              		.loc 2 206 5 is_stmt 1
 206:src/kObjectAllocatorTest.cpp ****             true, true, true, true, false, true, true, false,
 4104              		.loc 2 206 10 is_stmt 0
 4105 1cf0 97070000 		lla	a5,.LANCHOR0
 4105      93870700 
 4106 1cf8 03B70700 		ld	a4,0(a5)
 4107 1cfc 2338E4F4 		sd	a4,-176(s0)
 4108 1d00 83B78700 		ld	a5,8(a5)
 4109 1d04 233CF4F4 		sd	a5,-168(s0)
 210:src/kObjectAllocatorTest.cpp ****     for (size_t i = 0; i < 16; ++i) {
 4110              		.loc 2 210 5 is_stmt 1
 4111              	.LVL570:
 210:src/kObjectAllocatorTest.cpp ****     for (size_t i = 0; i < 16; ++i) {
 4112              		.loc 2 210 15
 211:src/kObjectAllocatorTest.cpp ****         if (expectedBitValues[i] != getValueOfBitAt(byte, bit, objAlloc))
 4113              		.loc 2 211 5
 4114              	.LBB336:
 211:src/kObjectAllocatorTest.cpp ****         if (expectedBitValues[i] != getValueOfBitAt(byte, bit, objAlloc))
 4115              		.loc 2 211 17 is_stmt 0
 4116 1d08 130A0000 		li	s4,0
 4117              	.LBE336:
 210:src/kObjectAllocatorTest.cpp ****     for (size_t i = 0; i < 16; ++i) {
 4118              		.loc 2 210 10
 4119 1d0c 930A0000 		li	s5,0
 4120 1d10 6F00C002 		j	.L260
 4121              	.LVL571:
 4122              	.L283:
 4123              	.LBB337:
 213:src/kObjectAllocatorTest.cpp ****     }
 4124              		.loc 2 213 11 is_stmt 1
 213:src/kObjectAllocatorTest.cpp ****     }
 4125              		.loc 2 213 26 is_stmt 0
 4126 1d14 63880400 		beqz	s1,.L258
 213:src/kObjectAllocatorTest.cpp ****     }
 4127              		.loc 2 213 18 discriminator 1
 4128 1d18 13850400 		mv	a0,s1
 4129 1d1c 97000000 		call	_ZN16KObjectAllocatordlEPv
 4129      E7800000 
 4130              	.LVL572:
 4131              	.L258:
 213:src/kObjectAllocatorTest.cpp ****     }
 4132              		.loc 2 213 28 is_stmt 1 discriminator 2
 213:src/kObjectAllocatorTest.cpp ****     }
 4133              		.loc 2 213 35 is_stmt 0 discriminator 2
 4134 1d24 130A0000 		li	s4,0
 4135              	.LVL573:
 4136 1d28 6FF01F9E 		j	.L270
 4137              	.LVL574:
 4138              	.L284:
 213:src/kObjectAllocatorTest.cpp ****     }
 4139              		.loc 2 213 60 is_stmt 1 discriminator 3
 4140 1d2c 938A1A00 		addi	s5,s5,1
 4141              	.LVL575:
 213:src/kObjectAllocatorTest.cpp ****     }
 4142              		.loc 2 213 68 discriminator 3
 213:src/kObjectAllocatorTest.cpp ****     }
GAS LISTING /tmp/ccKdsjgl.s 			page 103


 4143              		.loc 2 213 72 is_stmt 0 discriminator 3
 4144 1d30 13890B00 		mv	s2,s7
 4145              	.LVL576:
 4146              	.L259:
 213:src/kObjectAllocatorTest.cpp ****     }
 4147              		.loc 2 213 79 is_stmt 1 discriminator 5
 4148 1d34 1309F9FF 		addi	s2,s2,-1
 4149              	.LVL577:
 211:src/kObjectAllocatorTest.cpp ****         if (expectedBitValues[i] != getValueOfBitAt(byte, bit, objAlloc))
 4150              		.loc 2 211 5 discriminator 5
 4151 1d38 130A1A00 		addi	s4,s4,1
 4152              	.LVL578:
 4153              	.L260:
 211:src/kObjectAllocatorTest.cpp ****         if (expectedBitValues[i] != getValueOfBitAt(byte, bit, objAlloc))
 4154              		.loc 2 211 26 discriminator 2
 4155 1d3c 9307F000 		li	a5,15
 4156 1d40 63EA4703 		bgtu	s4,a5,.L256
 212:src/kObjectAllocatorTest.cpp ****         { delete objAlloc; return false; } if (bit == 0) { ++byte; bit = 8; } --bit;
 4157              		.loc 2 212 9
 212:src/kObjectAllocatorTest.cpp ****         { delete objAlloc; return false; } if (bit == 0) { ++byte; bit = 8; } --bit;
 4158              		.loc 2 212 32 is_stmt 0
 4159 1d44 930704FB 		addi	a5,s0,-80
 4160 1d48 B3874701 		add	a5,a5,s4
 4161 1d4c 03CB07FA 		lbu	s6,-96(a5)
 212:src/kObjectAllocatorTest.cpp ****         { delete objAlloc; return false; } if (bit == 0) { ++byte; bit = 8; } --bit;
 4162              		.loc 2 212 52
 4163 1d50 93860400 		mv	a3,s1
 4164 1d54 13060900 		mv	a2,s2
 4165 1d58 93850A00 		mv	a1,s5
 4166 1d5c 13850900 		mv	a0,s3
 4167 1d60 97000000 		call	_ZN20KObjectAllocatorTest15getValueOfBitAtEmmP16KObjectAllocator
 4167      E7800000 
 4168              	.LVL579:
 212:src/kObjectAllocatorTest.cpp ****         { delete objAlloc; return false; } if (bit == 0) { ++byte; bit = 8; } --bit;
 4169              		.loc 2 212 9
 4170 1d68 E316ABFA 		bne	s6,a0,.L283
 213:src/kObjectAllocatorTest.cpp ****     }
 4171              		.loc 2 213 44 is_stmt 1
 4172 1d6c E31409FC 		bnez	s2,.L259
 4173 1d70 6FF0DFFB 		j	.L284
 4174              	.L256:
 4175              	.LBE337:
 215:src/kObjectAllocatorTest.cpp ****     return true;
 4176              		.loc 2 215 5
 215:src/kObjectAllocatorTest.cpp ****     return true;
 4177              		.loc 2 215 20 is_stmt 0
 4178 1d74 638E0406 		beqz	s1,.L268
 4179              	.LBB338:
 4180              	.LBB339:
 4181              	.LBB340:
  68:src/../h/kObjectAllocator.hpp ****             MemoryAllocator::instance()->kmem_free(((KObjectAllocator*) p)->bitVectors[i]);
 4182              		.loc 1 68 21
 4183 1d78 13090000 		li	s2,0
 4184              	.LVL580:
 4185 1d7c 6F008002 		j	.L262
 4186              	.LVL581:
 4187              	.L285:
GAS LISTING /tmp/ccKdsjgl.s 			page 104


  69:src/../h/kObjectAllocator.hpp ****         MemoryAllocator::instance()->kmem_free(((KObjectAllocator*) p)->bitVectors);
 4188              		.loc 1 69 13 is_stmt 1
  69:src/../h/kObjectAllocator.hpp ****         MemoryAllocator::instance()->kmem_free(((KObjectAllocator*) p)->bitVectors);
 4189              		.loc 1 69 51 is_stmt 0
 4190 1d80 97000000 		call	_ZN15MemoryAllocator8instanceEv@plt
 4190      E7800000 
 4191              	.LVL582:
  69:src/../h/kObjectAllocator.hpp ****         MemoryAllocator::instance()->kmem_free(((KObjectAllocator*) p)->bitVectors);
 4192              		.loc 1 69 77
 4193 1d88 83B78402 		ld	a5,40(s1)
  69:src/../h/kObjectAllocator.hpp ****         MemoryAllocator::instance()->kmem_free(((KObjectAllocator*) p)->bitVectors);
 4194              		.loc 1 69 89
 4195 1d8c 13173900 		slli	a4,s2,3
 4196 1d90 B387E700 		add	a5,a5,a4
  69:src/../h/kObjectAllocator.hpp ****         MemoryAllocator::instance()->kmem_free(((KObjectAllocator*) p)->bitVectors);
 4197              		.loc 1 69 51
 4198 1d94 83B50700 		ld	a1,0(a5)
 4199 1d98 97000000 		call	_ZN15MemoryAllocator9kmem_freeEPv@plt
 4199      E7800000 
 4200              	.LVL583:
  68:src/../h/kObjectAllocator.hpp ****             MemoryAllocator::instance()->kmem_free(((KObjectAllocator*) p)->bitVectors[i]);
 4201              		.loc 1 68 9 is_stmt 1
 4202 1da0 13091900 		addi	s2,s2,1
 4203              	.LVL584:
 4204              	.L262:
  68:src/../h/kObjectAllocator.hpp ****             MemoryAllocator::instance()->kmem_free(((KObjectAllocator*) p)->bitVectors[i]);
 4205              		.loc 1 68 30
  68:src/../h/kObjectAllocator.hpp ****             MemoryAllocator::instance()->kmem_free(((KObjectAllocator*) p)->bitVectors[i]);
 4206              		.loc 1 68 57 is_stmt 0
 4207 1da4 83B70403 		ld	a5,48(s1)
  68:src/../h/kObjectAllocator.hpp ****             MemoryAllocator::instance()->kmem_free(((KObjectAllocator*) p)->bitVectors[i]);
 4208              		.loc 1 68 30
 4209 1da8 E36CF9FC 		bgtu	a5,s2,.L285
 4210              	.LBE340:
  70:src/../h/kObjectAllocator.hpp ****         MemoryAllocator::instance()->kmem_free(((KObjectAllocator*) p)->objectVectors);
 4211              		.loc 1 70 9 is_stmt 1
  70:src/../h/kObjectAllocator.hpp ****         MemoryAllocator::instance()->kmem_free(((KObjectAllocator*) p)->objectVectors);
 4212              		.loc 1 70 47 is_stmt 0
 4213 1dac 97000000 		call	_ZN15MemoryAllocator8instanceEv@plt
 4213      E7800000 
 4214              	.LVL585:
 4215 1db4 83B58402 		ld	a1,40(s1)
 4216 1db8 97000000 		call	_ZN15MemoryAllocator9kmem_freeEPv@plt
 4216      E7800000 
 4217              	.LVL586:
  71:src/../h/kObjectAllocator.hpp ****         MemoryAllocator::instance()->kmem_free(p);
 4218              		.loc 1 71 9 is_stmt 1
  71:src/../h/kObjectAllocator.hpp ****         MemoryAllocator::instance()->kmem_free(p);
 4219              		.loc 1 71 47 is_stmt 0
 4220 1dc0 97000000 		call	_ZN15MemoryAllocator8instanceEv@plt
 4220      E7800000 
 4221              	.LVL587:
 4222 1dc8 83B50402 		ld	a1,32(s1)
 4223 1dcc 97000000 		call	_ZN15MemoryAllocator9kmem_freeEPv@plt
 4223      E7800000 
 4224              	.LVL588:
  72:src/../h/kObjectAllocator.hpp ****     }
GAS LISTING /tmp/ccKdsjgl.s 			page 105


 4225              		.loc 1 72 9 is_stmt 1
  72:src/../h/kObjectAllocator.hpp ****     }
 4226              		.loc 1 72 47 is_stmt 0
 4227 1dd4 97000000 		call	_ZN15MemoryAllocator8instanceEv@plt
 4227      E7800000 
 4228              	.LVL589:
 4229 1ddc 93850400 		mv	a1,s1
 4230 1de0 97000000 		call	_ZN15MemoryAllocator9kmem_freeEPv@plt
 4230      E7800000 
 4231              	.LVL590:
 4232              	.LEHE10:
 4233              	.LBE339:
 4234              	.LBE338:
 216:src/kObjectAllocatorTest.cpp **** }
 4235              		.loc 2 216 12
 4236 1de8 130A1000 		li	s4,1
 4237              	.LVL591:
 4238              	.LBB342:
 4239              	.LBB341:
  73:src/../h/kObjectAllocator.hpp ****     void printInternalMemory();
 4240              		.loc 1 73 5
 4241 1dec 6FF0DF91 		j	.L270
 4242              	.LVL592:
 4243              	.L268:
 4244              	.LBE341:
 4245              	.LBE342:
 216:src/kObjectAllocatorTest.cpp **** }
 4246              		.loc 2 216 12
 4247 1df0 130A1000 		li	s4,1
 4248              	.LVL593:
 4249 1df4 6FF05F91 		j	.L270
 4250              	.LVL594:
 4251              	.L269:
 4252 1df8 13090500 		mv	s2,a0
 4253              	.LVL595:
 180:src/kObjectAllocatorTest.cpp ****     if (objAlloc->getNumberOfObjects() != 8) { delete objAlloc; return false; }
 4254              		.loc 2 180 62
 4255 1dfc 13850400 		mv	a0,s1
 4256 1e00 97000000 		call	_ZN16KObjectAllocatordlEPv
 4256      E7800000 
 4257              	.LVL596:
 4258 1e08 13050900 		mv	a0,s2
 4259              	.LEHB11:
 4260 1e0c 97000000 		call	_Unwind_Resume@plt
 4260      E7800000 
 4261              	.LVL597:
 4262              	.LEHE11:
 4263              		.cfi_endproc
 4264              	.LFE29:
 4265              		.section	.gcc_except_table
 4266              	.LLSDA29:
 4267 0070 FF       		.byte	0xff
 4268 0071 FF       		.byte	0xff
 4269 0072 03       		.byte	0x3
 4270 0073 34       		.byte	0x34
 4271 0074 00000000 		.4byte	.LEHB8-.LFB29
 4272 0078 00000000 		.4byte	.LEHE8-.LEHB8
GAS LISTING /tmp/ccKdsjgl.s 			page 106


 4273 007c 00000000 		.4byte	0
 4274 0080 00       		.byte	0
 4275 0081 00000000 		.4byte	.LEHB9-.LFB29
 4276 0085 00000000 		.4byte	.LEHE9-.LEHB9
 4277 0089 00000000 		.4byte	.L269-.LFB29
 4278 008d 00       		.byte	0
 4279 008e 00000000 		.4byte	.LEHB10-.LFB29
 4280 0092 00000000 		.4byte	.LEHE10-.LEHB10
 4281 0096 00000000 		.4byte	0
 4282 009a 00       		.byte	0
 4283 009b 00000000 		.4byte	.LEHB11-.LFB29
 4284 009f 00000000 		.4byte	.LEHE11-.LEHB11
 4285 00a3 00000000 		.4byte	0
 4286 00a7 00       		.byte	0
 4287              		.text
 4289              		.section	.rodata.str1.8
 4290 007d 000000   		.align	3
 4291              	.LC6:
 4292 0080 0A626566 		.string	"\nbefore here\n"
 4292      6F726520 
 4292      68657265 
 4292      0A00
 4293 008e 0000     		.align	3
 4294              	.LC7:
 4295 0090 0A686572 		.string	"\nhere\n"
 4295      650A00
 4296              		.text
 4297              		.align	2
 4298              		.globl	_ZN20KObjectAllocatorTest5test3Em
 4300              	_ZN20KObjectAllocatorTest5test3Em:
 4301              	.LFB30:
 218:src/kObjectAllocatorTest.cpp **** 
 219:src/kObjectAllocatorTest.cpp **** bool KObjectAllocatorTest::test3(size_t size) {
 4302              		.loc 2 219 47 is_stmt 1
 4303              		.cfi_startproc
 4304              		.cfi_personality 0x9b,DW.ref.__gxx_personality_v0
 4305              		.cfi_lsda 0x1b,.LLSDA30
 4306              	.LVL598:
 4307 1e14 13010181 		addi	sp,sp,-2032
 4308              		.cfi_def_cfa_offset 2032
 4309 1e18 2334117E 		sd	ra,2024(sp)
 4310 1e1c 2330817E 		sd	s0,2016(sp)
 4311 1e20 233C917C 		sd	s1,2008(sp)
 4312 1e24 2338217D 		sd	s2,2000(sp)
 4313 1e28 2334317D 		sd	s3,1992(sp)
 4314 1e2c 2330417D 		sd	s4,1984(sp)
 4315 1e30 233C517B 		sd	s5,1976(sp)
 4316              		.cfi_offset 1, -8
 4317              		.cfi_offset 8, -16
 4318              		.cfi_offset 9, -24
 4319              		.cfi_offset 18, -32
 4320              		.cfi_offset 19, -40
 4321              		.cfi_offset 20, -48
 4322              		.cfi_offset 21, -56
 4323 1e34 1304017F 		addi	s0,sp,2032
 4324              		.cfi_def_cfa 8, 0
 4325 1e38 130101DB 		addi	sp,sp,-592
GAS LISTING /tmp/ccKdsjgl.s 			page 107


 4326 1e3c 93090500 		mv	s3,a0
 4327 1e40 13890500 		mv	s2,a1
 220:src/kObjectAllocatorTest.cpp ****     KObjectAllocator* objAlloc = new KObjectAllocator(size, 5);
 4328              		.loc 2 220 5
 4329              	.LVL599:
 4330              	.LBB380:
 4331              	.LBB381:
  65:src/../h/kObjectAllocator.hpp ****     }
 4332              		.loc 1 65 9
 4333              	.LEHB12:
  65:src/../h/kObjectAllocator.hpp ****     }
 4334              		.loc 1 65 55 is_stmt 0
 4335 1e44 97000000 		call	_ZN15MemoryAllocator8instanceEv@plt
 4335      E7800000 
 4336              	.LVL600:
 4337 1e4c 93050004 		li	a1,64
 4338 1e50 97000000 		call	_ZN15MemoryAllocator10kmem_allocEm@plt
 4338      E7800000 
 4339              	.LVL601:
 4340              	.LEHE12:
 4341 1e58 93040500 		mv	s1,a0
 4342              	.LVL602:
 4343              	.LBE381:
 4344              	.LBE380:
 4345              	.LBB382:
 4346              	.LBB383:
  51:src/../h/kObjectAllocator.hpp ****         bitVectors = (uint8**) MemoryAllocator::instance()->kmem_alloc(numberOfAllocations * sizeof
 4347              		.loc 1 51 120
 4348 1e5c 93075000 		li	a5,5
 4349 1e60 2330F500 		sd	a5,0(a0)
 4350 1e64 2334F500 		sd	a5,8(a0)
 4351 1e68 233C2501 		sd	s2,24(a0)
 4352 1e6c 93071000 		li	a5,1
 4353 1e70 2338F502 		sd	a5,48(a0)
 4354 1e74 233C0502 		sd	zero,56(a0)
 4355              	.LBB384:
  52:src/../h/kObjectAllocator.hpp ****         objectVectors = (uint8**) MemoryAllocator::instance()->kmem_alloc(numberOfAllocations * siz
 4356              		.loc 1 52 9 is_stmt 1
 4357              	.LEHB13:
  52:src/../h/kObjectAllocator.hpp ****         objectVectors = (uint8**) MemoryAllocator::instance()->kmem_alloc(numberOfAllocations * siz
 4358              		.loc 1 52 71 is_stmt 0
 4359 1e78 97000000 		call	_ZN15MemoryAllocator8instanceEv@plt
 4359      E7800000 
 4360              	.LVL603:
  52:src/../h/kObjectAllocator.hpp ****         objectVectors = (uint8**) MemoryAllocator::instance()->kmem_alloc(numberOfAllocations * siz
 4361              		.loc 1 52 72
 4362 1e80 83B50403 		ld	a1,48(s1)
  52:src/../h/kObjectAllocator.hpp ****         objectVectors = (uint8**) MemoryAllocator::instance()->kmem_alloc(numberOfAllocations * siz
 4363              		.loc 1 52 71
 4364 1e84 93953500 		slli	a1,a1,3
 4365 1e88 97000000 		call	_ZN15MemoryAllocator10kmem_allocEm@plt
 4365      E7800000 
 4366              	.LVL604:
  52:src/../h/kObjectAllocator.hpp ****         objectVectors = (uint8**) MemoryAllocator::instance()->kmem_alloc(numberOfAllocations * siz
 4367              		.loc 1 52 20
 4368 1e90 23B4A402 		sd	a0,40(s1)
  53:src/../h/kObjectAllocator.hpp ****         initialNumberOfObjects = numberOfObjects = numberOfObjects / 8 * 8 + 8 * (numberOfObjects /
GAS LISTING /tmp/ccKdsjgl.s 			page 108


 4369              		.loc 1 53 9 is_stmt 1
  53:src/../h/kObjectAllocator.hpp ****         initialNumberOfObjects = numberOfObjects = numberOfObjects / 8 * 8 + 8 * (numberOfObjects /
 4370              		.loc 1 53 74 is_stmt 0
 4371 1e94 97000000 		call	_ZN15MemoryAllocator8instanceEv@plt
 4371      E7800000 
 4372              	.LVL605:
  53:src/../h/kObjectAllocator.hpp ****         initialNumberOfObjects = numberOfObjects = numberOfObjects / 8 * 8 + 8 * (numberOfObjects /
 4373              		.loc 1 53 75
 4374 1e9c 83B50403 		ld	a1,48(s1)
  53:src/../h/kObjectAllocator.hpp ****         initialNumberOfObjects = numberOfObjects = numberOfObjects / 8 * 8 + 8 * (numberOfObjects /
 4375              		.loc 1 53 74
 4376 1ea0 93953500 		slli	a1,a1,3
 4377 1ea4 97000000 		call	_ZN15MemoryAllocator10kmem_allocEm@plt
 4377      E7800000 
 4378              	.LVL606:
  53:src/../h/kObjectAllocator.hpp ****         initialNumberOfObjects = numberOfObjects = numberOfObjects / 8 * 8 + 8 * (numberOfObjects /
 4379              		.loc 1 53 23
 4380 1eac 23B0A402 		sd	a0,32(s1)
  54:src/../h/kObjectAllocator.hpp ****         // one bit for each object which indicates whether memory
 4381              		.loc 1 54 9 is_stmt 1
  54:src/../h/kObjectAllocator.hpp ****         // one bit for each object which indicates whether memory
 4382              		.loc 1 54 52 is_stmt 0
 4383 1eb0 03B78400 		ld	a4,8(s1)
  54:src/../h/kObjectAllocator.hpp ****         // one bit for each object which indicates whether memory
 4384              		.loc 1 54 72
 4385 1eb4 937787FF 		andi	a5,a4,-8
  54:src/../h/kObjectAllocator.hpp ****         // one bit for each object which indicates whether memory
 4386              		.loc 1 54 80
 4387 1eb8 6304F702 		beq	a4,a5,.L356
 4388 1ebc 13078000 		li	a4,8
 4389              	.L287:
  54:src/../h/kObjectAllocator.hpp ****         // one bit for each object which indicates whether memory
 4390              		.loc 1 54 76
 4391 1ec0 B387E700 		add	a5,a5,a4
  54:src/../h/kObjectAllocator.hpp ****         // one bit for each object which indicates whether memory
 4392              		.loc 1 54 50
 4393 1ec4 23B4F400 		sd	a5,8(s1)
  54:src/../h/kObjectAllocator.hpp ****         // one bit for each object which indicates whether memory
 4394              		.loc 1 54 32
 4395 1ec8 23B0F400 		sd	a5,0(s1)
  57:src/../h/kObjectAllocator.hpp ****         bitVectors[0] = (uint8*) MemoryAllocator::instance()->kmem_alloc(
 4396              		.loc 1 57 9 is_stmt 1
  57:src/../h/kObjectAllocator.hpp ****         bitVectors[0] = (uint8*) MemoryAllocator::instance()->kmem_alloc(
 4397              		.loc 1 57 45 is_stmt 0
 4398 1ecc 93D73700 		srli	a5,a5,3
  57:src/../h/kObjectAllocator.hpp ****         bitVectors[0] = (uint8*) MemoryAllocator::instance()->kmem_alloc(
 4399              		.loc 1 57 27
 4400 1ed0 23B8F400 		sd	a5,16(s1)
  58:src/../h/kObjectAllocator.hpp ****                 memorySizeForBits + initialNumberOfObjects * objectSize
 4401              		.loc 1 58 9 is_stmt 1
  58:src/../h/kObjectAllocator.hpp ****                 memorySizeForBits + initialNumberOfObjects * objectSize
 4402              		.loc 1 58 73 is_stmt 0
 4403 1ed4 97000000 		call	_ZN15MemoryAllocator8instanceEv@plt
 4403      E7800000 
 4404              	.LVL607:
 4405 1edc 6F00C000 		j	.L368
 4406              	.L356:
GAS LISTING /tmp/ccKdsjgl.s 			page 109


  54:src/../h/kObjectAllocator.hpp ****         // one bit for each object which indicates whether memory
 4407              		.loc 1 54 80
 4408 1ee0 13070000 		li	a4,0
 4409 1ee4 6FF0DFFD 		j	.L287
 4410              	.L368:
  59:src/../h/kObjectAllocator.hpp ****         );
 4411              		.loc 1 59 17
 4412 1ee8 83B50401 		ld	a1,16(s1)
  59:src/../h/kObjectAllocator.hpp ****         );
 4413              		.loc 1 59 37
 4414 1eec 83B70400 		ld	a5,0(s1)
  59:src/../h/kObjectAllocator.hpp ****         );
 4415              		.loc 1 59 60
 4416 1ef0 B307F902 		mul	a5,s2,a5
  58:src/../h/kObjectAllocator.hpp ****                 memorySizeForBits + initialNumberOfObjects * objectSize
 4417              		.loc 1 58 9
 4418 1ef4 03BA8402 		ld	s4,40(s1)
  58:src/../h/kObjectAllocator.hpp ****                 memorySizeForBits + initialNumberOfObjects * objectSize
 4419              		.loc 1 58 73
 4420 1ef8 B385F500 		add	a1,a1,a5
 4421 1efc 97000000 		call	_ZN15MemoryAllocator10kmem_allocEm@plt
 4421      E7800000 
 4422              	.LVL608:
 4423              	.LEHE13:
  58:src/../h/kObjectAllocator.hpp ****                 memorySizeForBits + initialNumberOfObjects * objectSize
 4424              		.loc 1 58 23
 4425 1f04 2330AA00 		sd	a0,0(s4)
  61:src/../h/kObjectAllocator.hpp ****         for (size_t i = 0; i < memorySizeForBits; bitVectors[0][i++] = 0);
 4426              		.loc 1 61 9 is_stmt 1
  61:src/../h/kObjectAllocator.hpp ****         for (size_t i = 0; i < memorySizeForBits; bitVectors[0][i++] = 0);
 4427              		.loc 1 61 28 is_stmt 0
 4428 1f08 83B78402 		ld	a5,40(s1)
  61:src/../h/kObjectAllocator.hpp ****         for (size_t i = 0; i < memorySizeForBits; bitVectors[0][i++] = 0);
 4429              		.loc 1 61 40
 4430 1f0c 83B70700 		ld	a5,0(a5)
  61:src/../h/kObjectAllocator.hpp ****         for (size_t i = 0; i < memorySizeForBits; bitVectors[0][i++] = 0);
 4431              		.loc 1 61 44
 4432 1f10 83B60401 		ld	a3,16(s1)
  61:src/../h/kObjectAllocator.hpp ****         for (size_t i = 0; i < memorySizeForBits; bitVectors[0][i++] = 0);
 4433              		.loc 1 61 9
 4434 1f14 03B70402 		ld	a4,32(s1)
  61:src/../h/kObjectAllocator.hpp ****         for (size_t i = 0; i < memorySizeForBits; bitVectors[0][i++] = 0);
 4435              		.loc 1 61 42
 4436 1f18 B387D700 		add	a5,a5,a3
  61:src/../h/kObjectAllocator.hpp ****         for (size_t i = 0; i < memorySizeForBits; bitVectors[0][i++] = 0);
 4437              		.loc 1 61 26
 4438 1f1c 2330F700 		sd	a5,0(a4)
  62:src/../h/kObjectAllocator.hpp ****     }
 4439              		.loc 1 62 9 is_stmt 1
 4440              	.LVL609:
 4441              	.LBB385:
  62:src/../h/kObjectAllocator.hpp ****     }
 4442              		.loc 1 62 21 is_stmt 0
 4443 1f20 93070000 		li	a5,0
 4444              	.LVL610:
 4445              	.L289:
  62:src/../h/kObjectAllocator.hpp ****     }
GAS LISTING /tmp/ccKdsjgl.s 			page 110


 4446              		.loc 1 62 30 is_stmt 1
  62:src/../h/kObjectAllocator.hpp ****     }
 4447              		.loc 1 62 32 is_stmt 0
 4448 1f24 03B70401 		ld	a4,16(s1)
  62:src/../h/kObjectAllocator.hpp ****     }
 4449              		.loc 1 62 30
 4450 1f28 63FEE700 		bleu	a4,a5,.L288
  62:src/../h/kObjectAllocator.hpp ****     }
 4451              		.loc 1 62 9 is_stmt 1
  62:src/../h/kObjectAllocator.hpp ****     }
 4452              		.loc 1 62 51 is_stmt 0
 4453 1f2c 03B78402 		ld	a4,40(s1)
  62:src/../h/kObjectAllocator.hpp ****     }
 4454              		.loc 1 62 63
 4455 1f30 03370700 		ld	a4,0(a4)
 4456              	.LVL611:
  62:src/../h/kObjectAllocator.hpp ****     }
 4457              		.loc 1 62 68
 4458 1f34 3307F700 		add	a4,a4,a5
  62:src/../h/kObjectAllocator.hpp ****     }
 4459              		.loc 1 62 70
 4460 1f38 23000700 		sb	zero,0(a4)
  62:src/../h/kObjectAllocator.hpp ****     }
 4461              		.loc 1 62 66
 4462 1f3c 93871700 		addi	a5,a5,1
 4463              	.LVL612:
  62:src/../h/kObjectAllocator.hpp ****     }
 4464              		.loc 1 62 9
 4465 1f40 6FF05FFE 		j	.L289
 4466              	.L288:
 4467              	.LVL613:
 4468              	.LBE385:
 4469              	.LBE384:
 4470              	.LBE383:
 4471              	.LBE382:
 221:src/kObjectAllocatorTest.cpp ****     if (objAlloc->getNumberOfObjects() != 8) { delete objAlloc; return false; }
 4472              		.loc 2 221 5 is_stmt 1 discriminator 3
 4473              	.LBB386:
 4474              	.LBB387:
  77:src/../h/kObjectAllocator.hpp ****     size_t getMemorySizeForBits() { return memorySizeForBits; }
 4475              		.loc 1 77 35 discriminator 3
  77:src/../h/kObjectAllocator.hpp ****     size_t getMemorySizeForBits() { return memorySizeForBits; }
 4476              		.loc 1 77 42 is_stmt 0 discriminator 3
 4477 1f44 03B78400 		ld	a4,8(s1)
 4478              	.LVL614:
 4479              	.LBE387:
 4480              	.LBE386:
 4481              		.loc 2 221 5 discriminator 3
 4482 1f48 93078000 		li	a5,8
 4483 1f4c 6302F70A 		beq	a4,a5,.L290
 4484              		.loc 2 221 48 is_stmt 1 discriminator 1
 4485              		.loc 2 221 63 is_stmt 0 discriminator 1
 4486 1f50 638A0406 		beqz	s1,.L291
 4487              	.LBB388:
 4488              	.LBB389:
 4489              	.LBB390:
  68:src/../h/kObjectAllocator.hpp ****             MemoryAllocator::instance()->kmem_free(((KObjectAllocator*) p)->bitVectors[i]);
GAS LISTING /tmp/ccKdsjgl.s 			page 111


 4490              		.loc 1 68 21
 4491 1f54 13090000 		li	s2,0
 4492              	.LVL615:
 4493              	.L293:
  68:src/../h/kObjectAllocator.hpp ****             MemoryAllocator::instance()->kmem_free(((KObjectAllocator*) p)->bitVectors[i]);
 4494              		.loc 1 68 30 is_stmt 1
  68:src/../h/kObjectAllocator.hpp ****             MemoryAllocator::instance()->kmem_free(((KObjectAllocator*) p)->bitVectors[i]);
 4495              		.loc 1 68 57 is_stmt 0
 4496 1f58 83B70403 		ld	a5,48(s1)
  68:src/../h/kObjectAllocator.hpp ****             MemoryAllocator::instance()->kmem_free(((KObjectAllocator*) p)->bitVectors[i]);
 4497              		.loc 1 68 30
 4498 1f5c 6376F902 		bleu	a5,s2,.L292
  69:src/../h/kObjectAllocator.hpp ****         MemoryAllocator::instance()->kmem_free(((KObjectAllocator*) p)->bitVectors);
 4499              		.loc 1 69 13 is_stmt 1
 4500              	.LEHB14:
  69:src/../h/kObjectAllocator.hpp ****         MemoryAllocator::instance()->kmem_free(((KObjectAllocator*) p)->bitVectors);
 4501              		.loc 1 69 51 is_stmt 0
 4502 1f60 97000000 		call	_ZN15MemoryAllocator8instanceEv@plt
 4502      E7800000 
 4503              	.LVL616:
  69:src/../h/kObjectAllocator.hpp ****         MemoryAllocator::instance()->kmem_free(((KObjectAllocator*) p)->bitVectors);
 4504              		.loc 1 69 77
 4505 1f68 83B78402 		ld	a5,40(s1)
  69:src/../h/kObjectAllocator.hpp ****         MemoryAllocator::instance()->kmem_free(((KObjectAllocator*) p)->bitVectors);
 4506              		.loc 1 69 89
 4507 1f6c 13173900 		slli	a4,s2,3
 4508 1f70 B387E700 		add	a5,a5,a4
  69:src/../h/kObjectAllocator.hpp ****         MemoryAllocator::instance()->kmem_free(((KObjectAllocator*) p)->bitVectors);
 4509              		.loc 1 69 51
 4510 1f74 83B50700 		ld	a1,0(a5)
 4511 1f78 97000000 		call	_ZN15MemoryAllocator9kmem_freeEPv@plt
 4511      E7800000 
 4512              	.LVL617:
  68:src/../h/kObjectAllocator.hpp ****             MemoryAllocator::instance()->kmem_free(((KObjectAllocator*) p)->bitVectors[i]);
 4513              		.loc 1 68 9 is_stmt 1
 4514 1f80 13091900 		addi	s2,s2,1
 4515              	.LVL618:
 4516 1f84 6FF05FFD 		j	.L293
 4517              	.L292:
 4518              	.LBE390:
  70:src/../h/kObjectAllocator.hpp ****         MemoryAllocator::instance()->kmem_free(((KObjectAllocator*) p)->objectVectors);
 4519              		.loc 1 70 9
  70:src/../h/kObjectAllocator.hpp ****         MemoryAllocator::instance()->kmem_free(((KObjectAllocator*) p)->objectVectors);
 4520              		.loc 1 70 47 is_stmt 0
 4521 1f88 97000000 		call	_ZN15MemoryAllocator8instanceEv@plt
 4521      E7800000 
 4522              	.LVL619:
 4523 1f90 83B58402 		ld	a1,40(s1)
 4524 1f94 97000000 		call	_ZN15MemoryAllocator9kmem_freeEPv@plt
 4524      E7800000 
 4525              	.LVL620:
  71:src/../h/kObjectAllocator.hpp ****         MemoryAllocator::instance()->kmem_free(p);
 4526              		.loc 1 71 9 is_stmt 1
  71:src/../h/kObjectAllocator.hpp ****         MemoryAllocator::instance()->kmem_free(p);
 4527              		.loc 1 71 47 is_stmt 0
 4528 1f9c 97000000 		call	_ZN15MemoryAllocator8instanceEv@plt
 4528      E7800000 
GAS LISTING /tmp/ccKdsjgl.s 			page 112


 4529              	.LVL621:
 4530 1fa4 83B50402 		ld	a1,32(s1)
 4531 1fa8 97000000 		call	_ZN15MemoryAllocator9kmem_freeEPv@plt
 4531      E7800000 
 4532              	.LVL622:
  72:src/../h/kObjectAllocator.hpp ****     }
 4533              		.loc 1 72 9 is_stmt 1
  72:src/../h/kObjectAllocator.hpp ****     }
 4534              		.loc 1 72 47 is_stmt 0
 4535 1fb0 97000000 		call	_ZN15MemoryAllocator8instanceEv@plt
 4535      E7800000 
 4536              	.LVL623:
 4537 1fb8 93850400 		mv	a1,s1
 4538 1fbc 97000000 		call	_ZN15MemoryAllocator9kmem_freeEPv@plt
 4538      E7800000 
 4539              	.LVL624:
 4540              	.L291:
 4541              	.LBE389:
 4542              	.LBE388:
 4543              		.loc 2 221 65 is_stmt 1 discriminator 3
 4544              		.loc 2 221 72 is_stmt 0 discriminator 3
 4545 1fc4 13050000 		li	a0,0
 4546              	.L361:
 222:src/kObjectAllocatorTest.cpp ****     if (objAlloc->getMemorySizeForBits() != 1) { delete objAlloc; return false; }
 223:src/kObjectAllocatorTest.cpp ****     if (objAlloc->getObjectSize() != size) { delete objAlloc; return false; }
 224:src/kObjectAllocatorTest.cpp ****     void* objArr[320]; for (size_t i = 0; i < 32; objArr[i++] = objAlloc->allocateNewObject());
 225:src/kObjectAllocatorTest.cpp ****     if (getByteOfObject(objArr[31], objAlloc) != 3
 226:src/kObjectAllocatorTest.cpp ****         || getBitOfObject(objArr[31], objAlloc) != 0)
 227:src/kObjectAllocatorTest.cpp ****     { delete objAlloc; return false; }
 228:src/kObjectAllocatorTest.cpp **** 
 229:src/kObjectAllocatorTest.cpp **** 
 230:src/kObjectAllocatorTest.cpp ****     if (objAlloc->nextNonTakenByte != 4) { delete objAlloc; return false; }
 231:src/kObjectAllocatorTest.cpp ****     for (size_t i = 32; i < 320; objArr[i++] = objAlloc->allocateNewObject());
 232:src/kObjectAllocatorTest.cpp ****     if (objAlloc->nextNonTakenByte != 40) { delete objAlloc; return false; }
 233:src/kObjectAllocatorTest.cpp **** 
 234:src/kObjectAllocatorTest.cpp **** 
 235:src/kObjectAllocatorTest.cpp ****     printString("\nbefore here\n");
 236:src/kObjectAllocatorTest.cpp **** 
 237:src/kObjectAllocatorTest.cpp ****     objAlloc->freeObject(objArr[7 * 8]);
 238:src/kObjectAllocatorTest.cpp ****     objArr[7 * 8] = objAlloc->allocateNewObject();
 239:src/kObjectAllocatorTest.cpp ****     printString("\n");
 240:src/kObjectAllocatorTest.cpp ****     printInteger((uint64)getByteOfObject(objArr[7 * 8], objAlloc));
 241:src/kObjectAllocatorTest.cpp ****     printString("\n");
 242:src/kObjectAllocatorTest.cpp ****     printInteger((uint64)getBitOfObject(objArr[7 * 8], objAlloc));
 243:src/kObjectAllocatorTest.cpp ****     printString("\n");
 244:src/kObjectAllocatorTest.cpp ****     if (getByteOfObject(objArr[7 * 8], objAlloc) != 7
 245:src/kObjectAllocatorTest.cpp ****         || getBitOfObject(objArr[7 * 8], objAlloc) != 7)
 246:src/kObjectAllocatorTest.cpp ****     { delete objAlloc; return false; }
 247:src/kObjectAllocatorTest.cpp ****     if (objAlloc->nextNonTakenByte != 7) { delete objAlloc; return false; }
 248:src/kObjectAllocatorTest.cpp **** 
 249:src/kObjectAllocatorTest.cpp ****     printString("\nhere\n");
 250:src/kObjectAllocatorTest.cpp **** 
 251:src/kObjectAllocatorTest.cpp ****     objAlloc->freeObject(objArr[6 * 8 + 3]);
 252:src/kObjectAllocatorTest.cpp ****     objAlloc->freeObject(objArr[7 * 8 + 4]);
 253:src/kObjectAllocatorTest.cpp ****     objAlloc->freeObject(objArr[38 * 8 + 5]);
 254:src/kObjectAllocatorTest.cpp **** 
 255:src/kObjectAllocatorTest.cpp **** 
GAS LISTING /tmp/ccKdsjgl.s 			page 113


 256:src/kObjectAllocatorTest.cpp ****     objArr[7 * 8 + 4] = objAlloc->allocateNewObject();
 257:src/kObjectAllocatorTest.cpp ****     if (getByteOfObject(objArr[7 * 8 + 4], objAlloc) != 7
 258:src/kObjectAllocatorTest.cpp ****         || getBitOfObject(objArr[7 * 8 + 4], objAlloc) != 3)
 259:src/kObjectAllocatorTest.cpp ****     { delete objAlloc; return false; }
 260:src/kObjectAllocatorTest.cpp ****     if (objAlloc->nextNonTakenByte != 7) { delete objAlloc; return false; }
 261:src/kObjectAllocatorTest.cpp ****     objAlloc->freeObject(objArr[3 * 8 + 5]);
 262:src/kObjectAllocatorTest.cpp **** 
 263:src/kObjectAllocatorTest.cpp ****     objArr[38 * 8 + 5] = objAlloc->allocateNewObject();
 264:src/kObjectAllocatorTest.cpp ****     if (getByteOfObject(objArr[38 * 8 + 5], objAlloc) != 38
 265:src/kObjectAllocatorTest.cpp ****         || getBitOfObject(objArr[38 * 8 + 5], objAlloc) != 2)
 266:src/kObjectAllocatorTest.cpp ****     { delete objAlloc; return false; }
 267:src/kObjectAllocatorTest.cpp ****     if (objAlloc->nextNonTakenByte != 38) { delete objAlloc; return false; }
 268:src/kObjectAllocatorTest.cpp **** 
 269:src/kObjectAllocatorTest.cpp **** 
 270:src/kObjectAllocatorTest.cpp ****     objArr[3 * 8 + 5] = objAlloc->allocateNewObject();
 271:src/kObjectAllocatorTest.cpp ****     if (getByteOfObject(objArr[3 * 8 + 5], objAlloc) != 3 || getBitOfObject(objArr[3 * 8 + 5], objA
 272:src/kObjectAllocatorTest.cpp ****         if (objAlloc->nextNonTakenByte != 3) { delete objAlloc; return false; }
 273:src/kObjectAllocatorTest.cpp **** 
 274:src/kObjectAllocatorTest.cpp ****     objArr[6 * 8 + 3] = objAlloc->allocateNewObject();
 275:src/kObjectAllocatorTest.cpp ****     if (getByteOfObject(objArr[6 * 8 + 3], objAlloc) != 6
 276:src/kObjectAllocatorTest.cpp ****         || getBitOfObject(objArr[6 * 8 + 3], objAlloc) != 4)
 277:src/kObjectAllocatorTest.cpp ****     { delete objAlloc; return false; }
 278:src/kObjectAllocatorTest.cpp ****     if (objAlloc->nextNonTakenByte != 6) { delete objAlloc; return false; }
 279:src/kObjectAllocatorTest.cpp **** 
 280:src/kObjectAllocatorTest.cpp ****     for (int i = 0; i < 3; ++i) {
 281:src/kObjectAllocatorTest.cpp ****         objAlloc->freeObject(objArr[319]);
 282:src/kObjectAllocatorTest.cpp ****         objArr[319] = objAlloc->allocateNewObject();
 283:src/kObjectAllocatorTest.cpp ****         if (getByteOfObject(objArr[319], objAlloc) != 39
 284:src/kObjectAllocatorTest.cpp ****             || getBitOfObject(objArr[319], objAlloc) != 0)
 285:src/kObjectAllocatorTest.cpp ****         { delete objAlloc; return false; }
 286:src/kObjectAllocatorTest.cpp ****         if (objAlloc->nextNonTakenByte != 40) { delete objAlloc; return false; }
 287:src/kObjectAllocatorTest.cpp **** 
 288:src/kObjectAllocatorTest.cpp ****         objAlloc->freeObject(objArr[1]);
 289:src/kObjectAllocatorTest.cpp ****         objArr[1] = objAlloc->allocateNewObject();
 290:src/kObjectAllocatorTest.cpp ****         if (getByteOfObject(objArr[1], objAlloc) != 0
 291:src/kObjectAllocatorTest.cpp ****             || getBitOfObject(objArr[1], objAlloc) != 6)
 292:src/kObjectAllocatorTest.cpp ****         { delete objAlloc; return false; }
 293:src/kObjectAllocatorTest.cpp ****         if (objAlloc->nextNonTakenByte != 0) { delete objAlloc; return false; }
 294:src/kObjectAllocatorTest.cpp ****     }
 295:src/kObjectAllocatorTest.cpp ****     delete objAlloc;
 296:src/kObjectAllocatorTest.cpp ****     return true;
 297:src/kObjectAllocatorTest.cpp **** }...
 4547              		.loc 2 297 1
 4548 1fc8 13010125 		addi	sp,sp,592
 4549              		.cfi_remember_state
 4550              		.cfi_def_cfa 2, 2032
 4551 1fcc 8330817E 		ld	ra,2024(sp)
 4552              		.cfi_restore 1
 4553 1fd0 0334017E 		ld	s0,2016(sp)
 4554              		.cfi_restore 8
 4555 1fd4 8334817D 		ld	s1,2008(sp)
 4556              		.cfi_restore 9
 4557              	.LVL625:
 4558 1fd8 0339017D 		ld	s2,2000(sp)
 4559              		.cfi_restore 18
 4560 1fdc 8339817C 		ld	s3,1992(sp)
 4561              		.cfi_restore 19
GAS LISTING /tmp/ccKdsjgl.s 			page 114


 4562              	.LVL626:
 4563 1fe0 033A017C 		ld	s4,1984(sp)
 4564              		.cfi_restore 20
 4565 1fe4 833A817B 		ld	s5,1976(sp)
 4566              		.cfi_restore 21
 4567 1fe8 1301017F 		addi	sp,sp,2032
 4568              		.cfi_def_cfa_offset 0
 4569 1fec 67800000 		jr	ra
 4570              	.LVL627:
 4571              	.L290:
 4572              		.cfi_restore_state
 222:src/kObjectAllocatorTest.cpp ****     if (objAlloc->getMemorySizeForBits() != 1) { delete objAlloc; return false; }
 4573              		.loc 2 222 5 is_stmt 1
 4574              	.LBB391:
 4575              	.LBB392:
 4576              		.loc 1 78 37
 4577              		.loc 1 78 44 is_stmt 0
 4578 1ff0 03B70401 		ld	a4,16(s1)
 4579              	.LVL628:
 4580              	.LBE392:
 4581              	.LBE391:
 222:src/kObjectAllocatorTest.cpp ****     if (objAlloc->getMemorySizeForBits() != 1) { delete objAlloc; return false; }
 4582              		.loc 2 222 5
 4583 1ff4 93071000 		li	a5,1
 4584 1ff8 6300F708 		beq	a4,a5,.L295
 222:src/kObjectAllocatorTest.cpp ****     if (objAlloc->getMemorySizeForBits() != 1) { delete objAlloc; return false; }
 4585              		.loc 2 222 50 is_stmt 1 discriminator 1
 222:src/kObjectAllocatorTest.cpp ****     if (objAlloc->getMemorySizeForBits() != 1) { delete objAlloc; return false; }
 4586              		.loc 2 222 65 is_stmt 0 discriminator 1
 4587 1ffc 638A0406 		beqz	s1,.L296
 4588              	.LBB393:
 4589              	.LBB394:
 4590              	.LBB395:
  68:src/../h/kObjectAllocator.hpp ****             MemoryAllocator::instance()->kmem_free(((KObjectAllocator*) p)->bitVectors[i]);
 4591              		.loc 1 68 21
 4592 2000 13090000 		li	s2,0
 4593              	.LVL629:
 4594              	.L298:
  68:src/../h/kObjectAllocator.hpp ****             MemoryAllocator::instance()->kmem_free(((KObjectAllocator*) p)->bitVectors[i]);
 4595              		.loc 1 68 30 is_stmt 1
  68:src/../h/kObjectAllocator.hpp ****             MemoryAllocator::instance()->kmem_free(((KObjectAllocator*) p)->bitVectors[i]);
 4596              		.loc 1 68 57 is_stmt 0
 4597 2004 83B70403 		ld	a5,48(s1)
  68:src/../h/kObjectAllocator.hpp ****             MemoryAllocator::instance()->kmem_free(((KObjectAllocator*) p)->bitVectors[i]);
 4598              		.loc 1 68 30
 4599 2008 6376F902 		bleu	a5,s2,.L297
  69:src/../h/kObjectAllocator.hpp ****         MemoryAllocator::instance()->kmem_free(((KObjectAllocator*) p)->bitVectors);
 4600              		.loc 1 69 13 is_stmt 1
  69:src/../h/kObjectAllocator.hpp ****         MemoryAllocator::instance()->kmem_free(((KObjectAllocator*) p)->bitVectors);
 4601              		.loc 1 69 51 is_stmt 0
 4602 200c 97000000 		call	_ZN15MemoryAllocator8instanceEv@plt
 4602      E7800000 
 4603              	.LVL630:
  69:src/../h/kObjectAllocator.hpp ****         MemoryAllocator::instance()->kmem_free(((KObjectAllocator*) p)->bitVectors);
 4604              		.loc 1 69 77
 4605 2014 83B78402 		ld	a5,40(s1)
  69:src/../h/kObjectAllocator.hpp ****         MemoryAllocator::instance()->kmem_free(((KObjectAllocator*) p)->bitVectors);
GAS LISTING /tmp/ccKdsjgl.s 			page 115


 4606              		.loc 1 69 89
 4607 2018 13173900 		slli	a4,s2,3
 4608 201c B387E700 		add	a5,a5,a4
  69:src/../h/kObjectAllocator.hpp ****         MemoryAllocator::instance()->kmem_free(((KObjectAllocator*) p)->bitVectors);
 4609              		.loc 1 69 51
 4610 2020 83B50700 		ld	a1,0(a5)
 4611 2024 97000000 		call	_ZN15MemoryAllocator9kmem_freeEPv@plt
 4611      E7800000 
 4612              	.LVL631:
  68:src/../h/kObjectAllocator.hpp ****             MemoryAllocator::instance()->kmem_free(((KObjectAllocator*) p)->bitVectors[i]);
 4613              		.loc 1 68 9 is_stmt 1
 4614 202c 13091900 		addi	s2,s2,1
 4615              	.LVL632:
 4616 2030 6FF05FFD 		j	.L298
 4617              	.L297:
 4618              	.LBE395:
  70:src/../h/kObjectAllocator.hpp ****         MemoryAllocator::instance()->kmem_free(((KObjectAllocator*) p)->objectVectors);
 4619              		.loc 1 70 9
  70:src/../h/kObjectAllocator.hpp ****         MemoryAllocator::instance()->kmem_free(((KObjectAllocator*) p)->objectVectors);
 4620              		.loc 1 70 47 is_stmt 0
 4621 2034 97000000 		call	_ZN15MemoryAllocator8instanceEv@plt
 4621      E7800000 
 4622              	.LVL633:
 4623 203c 83B58402 		ld	a1,40(s1)
 4624 2040 97000000 		call	_ZN15MemoryAllocator9kmem_freeEPv@plt
 4624      E7800000 
 4625              	.LVL634:
  71:src/../h/kObjectAllocator.hpp ****         MemoryAllocator::instance()->kmem_free(p);
 4626              		.loc 1 71 9 is_stmt 1
  71:src/../h/kObjectAllocator.hpp ****         MemoryAllocator::instance()->kmem_free(p);
 4627              		.loc 1 71 47 is_stmt 0
 4628 2048 97000000 		call	_ZN15MemoryAllocator8instanceEv@plt
 4628      E7800000 
 4629              	.LVL635:
 4630 2050 83B50402 		ld	a1,32(s1)
 4631 2054 97000000 		call	_ZN15MemoryAllocator9kmem_freeEPv@plt
 4631      E7800000 
 4632              	.LVL636:
  72:src/../h/kObjectAllocator.hpp ****     }
 4633              		.loc 1 72 9 is_stmt 1
  72:src/../h/kObjectAllocator.hpp ****     }
 4634              		.loc 1 72 47 is_stmt 0
 4635 205c 97000000 		call	_ZN15MemoryAllocator8instanceEv@plt
 4635      E7800000 
 4636              	.LVL637:
 4637 2064 93850400 		mv	a1,s1
 4638 2068 97000000 		call	_ZN15MemoryAllocator9kmem_freeEPv@plt
 4638      E7800000 
 4639              	.LVL638:
 4640              	.L296:
 4641              	.LBE394:
 4642              	.LBE393:
 222:src/kObjectAllocatorTest.cpp ****     if (objAlloc->getMemorySizeForBits() != 1) { delete objAlloc; return false; }
 4643              		.loc 2 222 67 is_stmt 1 discriminator 3
 222:src/kObjectAllocatorTest.cpp ****     if (objAlloc->getMemorySizeForBits() != 1) { delete objAlloc; return false; }
 4644              		.loc 2 222 74 is_stmt 0 discriminator 3
 4645 2070 13050000 		li	a0,0
GAS LISTING /tmp/ccKdsjgl.s 			page 116


 4646 2074 6FF05FF5 		j	.L361
 4647              	.LVL639:
 4648              	.L295:
 223:src/kObjectAllocatorTest.cpp ****     if (objAlloc->getObjectSize() != size) { delete objAlloc; return false; }
 4649              		.loc 2 223 5 is_stmt 1
 4650              	.LBB396:
 4651              	.LBB397:
  75:src/../h/kObjectAllocator.hpp ****     size_t getInitialNumberOfObjects() { return initialNumberOfObjects; }
 4652              		.loc 1 75 30
  75:src/../h/kObjectAllocator.hpp ****     size_t getInitialNumberOfObjects() { return initialNumberOfObjects; }
 4653              		.loc 1 75 37 is_stmt 0
 4654 2078 83B78401 		ld	a5,24(s1)
 4655              	.LVL640:
 4656              	.LBE397:
 4657              	.LBE396:
 223:src/kObjectAllocatorTest.cpp ****     if (objAlloc->getObjectSize() != size) { delete objAlloc; return false; }
 4658              		.loc 2 223 5
 4659 207c 6300F908 		beq	s2,a5,.L357
 223:src/kObjectAllocatorTest.cpp ****     if (objAlloc->getObjectSize() != size) { delete objAlloc; return false; }
 4660              		.loc 2 223 46 is_stmt 1 discriminator 1
 223:src/kObjectAllocatorTest.cpp ****     if (objAlloc->getObjectSize() != size) { delete objAlloc; return false; }
 4661              		.loc 2 223 61 is_stmt 0 discriminator 1
 4662 2080 638A0406 		beqz	s1,.L300
 4663              	.LBB398:
 4664              	.LBB399:
 4665              	.LBB400:
  68:src/../h/kObjectAllocator.hpp ****             MemoryAllocator::instance()->kmem_free(((KObjectAllocator*) p)->bitVectors[i]);
 4666              		.loc 1 68 21
 4667 2084 13090000 		li	s2,0
 4668              	.LVL641:
 4669              	.L302:
  68:src/../h/kObjectAllocator.hpp ****             MemoryAllocator::instance()->kmem_free(((KObjectAllocator*) p)->bitVectors[i]);
 4670              		.loc 1 68 30 is_stmt 1
  68:src/../h/kObjectAllocator.hpp ****             MemoryAllocator::instance()->kmem_free(((KObjectAllocator*) p)->bitVectors[i]);
 4671              		.loc 1 68 57 is_stmt 0
 4672 2088 83B70403 		ld	a5,48(s1)
  68:src/../h/kObjectAllocator.hpp ****             MemoryAllocator::instance()->kmem_free(((KObjectAllocator*) p)->bitVectors[i]);
 4673              		.loc 1 68 30
 4674 208c 6376F902 		bleu	a5,s2,.L301
  69:src/../h/kObjectAllocator.hpp ****         MemoryAllocator::instance()->kmem_free(((KObjectAllocator*) p)->bitVectors);
 4675              		.loc 1 69 13 is_stmt 1
  69:src/../h/kObjectAllocator.hpp ****         MemoryAllocator::instance()->kmem_free(((KObjectAllocator*) p)->bitVectors);
 4676              		.loc 1 69 51 is_stmt 0
 4677 2090 97000000 		call	_ZN15MemoryAllocator8instanceEv@plt
 4677      E7800000 
 4678              	.LVL642:
  69:src/../h/kObjectAllocator.hpp ****         MemoryAllocator::instance()->kmem_free(((KObjectAllocator*) p)->bitVectors);
 4679              		.loc 1 69 77
 4680 2098 83B78402 		ld	a5,40(s1)
  69:src/../h/kObjectAllocator.hpp ****         MemoryAllocator::instance()->kmem_free(((KObjectAllocator*) p)->bitVectors);
 4681              		.loc 1 69 89
 4682 209c 13173900 		slli	a4,s2,3
 4683 20a0 B387E700 		add	a5,a5,a4
  69:src/../h/kObjectAllocator.hpp ****         MemoryAllocator::instance()->kmem_free(((KObjectAllocator*) p)->bitVectors);
 4684              		.loc 1 69 51
 4685 20a4 83B50700 		ld	a1,0(a5)
 4686 20a8 97000000 		call	_ZN15MemoryAllocator9kmem_freeEPv@plt
GAS LISTING /tmp/ccKdsjgl.s 			page 117


 4686      E7800000 
 4687              	.LVL643:
  68:src/../h/kObjectAllocator.hpp ****             MemoryAllocator::instance()->kmem_free(((KObjectAllocator*) p)->bitVectors[i]);
 4688              		.loc 1 68 9 is_stmt 1
 4689 20b0 13091900 		addi	s2,s2,1
 4690              	.LVL644:
 4691 20b4 6FF05FFD 		j	.L302
 4692              	.L301:
 4693              	.LBE400:
  70:src/../h/kObjectAllocator.hpp ****         MemoryAllocator::instance()->kmem_free(((KObjectAllocator*) p)->objectVectors);
 4694              		.loc 1 70 9
  70:src/../h/kObjectAllocator.hpp ****         MemoryAllocator::instance()->kmem_free(((KObjectAllocator*) p)->objectVectors);
 4695              		.loc 1 70 47 is_stmt 0
 4696 20b8 97000000 		call	_ZN15MemoryAllocator8instanceEv@plt
 4696      E7800000 
 4697              	.LVL645:
 4698 20c0 83B58402 		ld	a1,40(s1)
 4699 20c4 97000000 		call	_ZN15MemoryAllocator9kmem_freeEPv@plt
 4699      E7800000 
 4700              	.LVL646:
  71:src/../h/kObjectAllocator.hpp ****         MemoryAllocator::instance()->kmem_free(p);
 4701              		.loc 1 71 9 is_stmt 1
  71:src/../h/kObjectAllocator.hpp ****         MemoryAllocator::instance()->kmem_free(p);
 4702              		.loc 1 71 47 is_stmt 0
 4703 20cc 97000000 		call	_ZN15MemoryAllocator8instanceEv@plt
 4703      E7800000 
 4704              	.LVL647:
 4705 20d4 83B50402 		ld	a1,32(s1)
 4706 20d8 97000000 		call	_ZN15MemoryAllocator9kmem_freeEPv@plt
 4706      E7800000 
 4707              	.LVL648:
  72:src/../h/kObjectAllocator.hpp ****     }
 4708              		.loc 1 72 9 is_stmt 1
  72:src/../h/kObjectAllocator.hpp ****     }
 4709              		.loc 1 72 47 is_stmt 0
 4710 20e0 97000000 		call	_ZN15MemoryAllocator8instanceEv@plt
 4710      E7800000 
 4711              	.LVL649:
 4712 20e8 93850400 		mv	a1,s1
 4713 20ec 97000000 		call	_ZN15MemoryAllocator9kmem_freeEPv@plt
 4713      E7800000 
 4714              	.LVL650:
 4715              	.L300:
 4716              	.LBE399:
 4717              	.LBE398:
 223:src/kObjectAllocatorTest.cpp ****     if (objAlloc->getObjectSize() != size) { delete objAlloc; return false; }
 4718              		.loc 2 223 63 is_stmt 1 discriminator 3
 223:src/kObjectAllocatorTest.cpp ****     if (objAlloc->getObjectSize() != size) { delete objAlloc; return false; }
 4719              		.loc 2 223 70 is_stmt 0 discriminator 3
 4720 20f4 13050000 		li	a0,0
 4721 20f8 6FF01FED 		j	.L361
 4722              	.LVL651:
 4723              	.L357:
 4724              	.LBB401:
 224:src/kObjectAllocatorTest.cpp ****     void* objArr[320]; for (size_t i = 0; i < 32; objArr[i++] = objAlloc->allocateNewObject());
 4725              		.loc 2 224 36
 4726 20fc 13090000 		li	s2,0
GAS LISTING /tmp/ccKdsjgl.s 			page 118


 4727              	.LVL652:
 4728              	.L299:
 224:src/kObjectAllocatorTest.cpp ****     void* objArr[320]; for (size_t i = 0; i < 32; objArr[i++] = objAlloc->allocateNewObject());
 4729              		.loc 2 224 45 is_stmt 1 discriminator 4
 4730 2100 9307F001 		li	a5,31
 4731 2104 63EA2703 		bgtu	s2,a5,.L303
 224:src/kObjectAllocatorTest.cpp ****     void* objArr[320]; for (size_t i = 0; i < 32; objArr[i++] = objAlloc->allocateNewObject());
 4732              		.loc 2 224 24 discriminator 2
 224:src/kObjectAllocatorTest.cpp ****     void* objArr[320]; for (size_t i = 0; i < 32; objArr[i++] = objAlloc->allocateNewObject());
 4733              		.loc 2 224 59 is_stmt 0 discriminator 2
 4734 2108 130A1900 		addi	s4,s2,1
 4735              	.LVL653:
 224:src/kObjectAllocatorTest.cpp ****     void* objArr[320]; for (size_t i = 0; i < 32; objArr[i++] = objAlloc->allocateNewObject());
 4736              		.loc 2 224 92 discriminator 2
 4737 210c 13850400 		mv	a0,s1
 4738 2110 97000000 		call	_ZN16KObjectAllocator17allocateNewObjectEv@plt
 4738      E7800000 
 4739              	.LVL654:
 224:src/kObjectAllocatorTest.cpp ****     void* objArr[320]; for (size_t i = 0; i < 32; objArr[i++] = objAlloc->allocateNewObject());
 4740              		.loc 2 224 63 discriminator 2
 4741 2118 B7F7FFFF 		li	a5,-4096
 4742 211c 13193900 		slli	s2,s2,3
 4743 2120 130704FC 		addi	a4,s0,-64
 4744 2124 B307F700 		add	a5,a4,a5
 4745 2128 33892701 		add	s2,a5,s2
 4746 212c 2330A960 		sd	a0,1536(s2)
 224:src/kObjectAllocatorTest.cpp ****     void* objArr[320]; for (size_t i = 0; i < 32; objArr[i++] = objAlloc->allocateNewObject());
 4747              		.loc 2 224 59 discriminator 2
 4748 2130 13090A00 		mv	s2,s4
 224:src/kObjectAllocatorTest.cpp ****     void* objArr[320]; for (size_t i = 0; i < 32; objArr[i++] = objAlloc->allocateNewObject());
 4749              		.loc 2 224 24 discriminator 2
 4750 2134 6FF0DFFC 		j	.L299
 4751              	.LVL655:
 4752              	.L303:
 4753              	.LBE401:
 225:src/kObjectAllocatorTest.cpp ****     if (getByteOfObject(objArr[31], objAlloc) != 3
 4754              		.loc 2 225 5 is_stmt 1
 225:src/kObjectAllocatorTest.cpp ****     if (getByteOfObject(objArr[31], objAlloc) != 3
 4755              		.loc 2 225 24 is_stmt 0
 4756 2138 B7F7FFFF 		li	a5,-4096
 4757 213c 130704FC 		addi	a4,s0,-64
 4758 2140 B307F700 		add	a5,a4,a5
 4759 2144 03B9876F 		ld	s2,1784(a5)
 4760              	.LVL656:
 4761 2148 13860400 		mv	a2,s1
 4762 214c 93050900 		mv	a1,s2
 4763 2150 13850900 		mv	a0,s3
 4764 2154 97000000 		call	_ZN20KObjectAllocatorTest15getByteOfObjectEPvP16KObjectAllocator
 4764      E7800000 
 4765              	.LVL657:
 226:src/kObjectAllocatorTest.cpp ****         || getBitOfObject(objArr[31], objAlloc) != 0)
 4766              		.loc 2 226 9
 4767 215c 93073000 		li	a5,3
 4768 2160 630EF502 		beq	a0,a5,.L369
 4769              	.L304:
 227:src/kObjectAllocatorTest.cpp ****     { delete objAlloc; return false; }
 4770              		.loc 2 227 7 is_stmt 1 discriminator 4
GAS LISTING /tmp/ccKdsjgl.s 			page 119


 227:src/kObjectAllocatorTest.cpp ****     { delete objAlloc; return false; }
 4771              		.loc 2 227 22 is_stmt 0 discriminator 4
 4772 2164 638C040C 		beqz	s1,.L307
 4773              	.LBB402:
 4774              	.LBB403:
 4775              	.LBB404:
  68:src/../h/kObjectAllocator.hpp ****             MemoryAllocator::instance()->kmem_free(((KObjectAllocator*) p)->bitVectors[i]);
 4776              		.loc 1 68 21
 4777 2168 13090000 		li	s2,0
 4778              	.L306:
 4779              	.LVL658:
  68:src/../h/kObjectAllocator.hpp ****             MemoryAllocator::instance()->kmem_free(((KObjectAllocator*) p)->bitVectors[i]);
 4780              		.loc 1 68 30 is_stmt 1
  68:src/../h/kObjectAllocator.hpp ****             MemoryAllocator::instance()->kmem_free(((KObjectAllocator*) p)->bitVectors[i]);
 4781              		.loc 1 68 57 is_stmt 0
 4782 216c 83B70403 		ld	a5,48(s1)
  68:src/../h/kObjectAllocator.hpp ****             MemoryAllocator::instance()->kmem_free(((KObjectAllocator*) p)->bitVectors[i]);
 4783              		.loc 1 68 30
 4784 2170 6378F908 		bleu	a5,s2,.L310
  69:src/../h/kObjectAllocator.hpp ****         MemoryAllocator::instance()->kmem_free(((KObjectAllocator*) p)->bitVectors);
 4785              		.loc 1 69 13 is_stmt 1
  69:src/../h/kObjectAllocator.hpp ****         MemoryAllocator::instance()->kmem_free(((KObjectAllocator*) p)->bitVectors);
 4786              		.loc 1 69 51 is_stmt 0
 4787 2174 97000000 		call	_ZN15MemoryAllocator8instanceEv@plt
 4787      E7800000 
 4788              	.LVL659:
  69:src/../h/kObjectAllocator.hpp ****         MemoryAllocator::instance()->kmem_free(((KObjectAllocator*) p)->bitVectors);
 4789              		.loc 1 69 77
 4790 217c 83B78402 		ld	a5,40(s1)
  69:src/../h/kObjectAllocator.hpp ****         MemoryAllocator::instance()->kmem_free(((KObjectAllocator*) p)->bitVectors);
 4791              		.loc 1 69 89
 4792 2180 13173900 		slli	a4,s2,3
 4793 2184 B387E700 		add	a5,a5,a4
  69:src/../h/kObjectAllocator.hpp ****         MemoryAllocator::instance()->kmem_free(((KObjectAllocator*) p)->bitVectors);
 4794              		.loc 1 69 51
 4795 2188 83B50700 		ld	a1,0(a5)
 4796 218c 97000000 		call	_ZN15MemoryAllocator9kmem_freeEPv@plt
 4796      E7800000 
 4797              	.LVL660:
  68:src/../h/kObjectAllocator.hpp ****             MemoryAllocator::instance()->kmem_free(((KObjectAllocator*) p)->bitVectors[i]);
 4798              		.loc 1 68 9 is_stmt 1
 4799 2194 13091900 		addi	s2,s2,1
 4800              	.LVL661:
 4801 2198 6FF05FFD 		j	.L306
 4802              	.LVL662:
 4803              	.L369:
 4804              	.LBE404:
 4805              	.LBE403:
 4806              	.LBE402:
 226:src/kObjectAllocatorTest.cpp ****         || getBitOfObject(objArr[31], objAlloc) != 0)
 4807              		.loc 2 226 26 is_stmt 0 discriminator 2
 4808 219c 13860400 		mv	a2,s1
 4809 21a0 93050900 		mv	a1,s2
 4810 21a4 13850900 		mv	a0,s3
 4811 21a8 97000000 		call	_ZN20KObjectAllocatorTest14getBitOfObjectEPvP16KObjectAllocator
 4811      E7800000 
 4812              	.LVL663:
GAS LISTING /tmp/ccKdsjgl.s 			page 120


 4813 21b0 930A0500 		mv	s5,a0
 226:src/kObjectAllocatorTest.cpp ****         || getBitOfObject(objArr[31], objAlloc) != 0)
 4814              		.loc 2 226 9 discriminator 2
 4815 21b4 E31805FA 		bnez	a0,.L304
 230:src/kObjectAllocatorTest.cpp ****     if (objAlloc->nextNonTakenByte != 4) { delete objAlloc; return false; }
 4816              		.loc 2 230 5 is_stmt 1
 230:src/kObjectAllocatorTest.cpp ****     if (objAlloc->nextNonTakenByte != 4) { delete objAlloc; return false; }
 4817              		.loc 2 230 19 is_stmt 0
 4818 21b8 03B78403 		ld	a4,56(s1)
 230:src/kObjectAllocatorTest.cpp ****     if (objAlloc->nextNonTakenByte != 4) { delete objAlloc; return false; }
 4819              		.loc 2 230 5
 4820 21bc 93074000 		li	a5,4
 4821 21c0 6312F708 		bne	a4,a5,.L308
 4822              	.LBB406:
 231:src/kObjectAllocatorTest.cpp ****     for (size_t i = 32; i < 320; objArr[i++] = objAlloc->allocateNewObject());
 4823              		.loc 2 231 17
 4824 21c4 13090002 		li	s2,32
 4825              	.L309:
 4826              	.LVL664:
 231:src/kObjectAllocatorTest.cpp ****     for (size_t i = 32; i < 320; objArr[i++] = objAlloc->allocateNewObject());
 4827              		.loc 2 231 27 is_stmt 1 discriminator 4
 4828 21c8 9307F013 		li	a5,319
 4829 21cc 63E8270F 		bgtu	s2,a5,.L314
 231:src/kObjectAllocatorTest.cpp ****     for (size_t i = 32; i < 320; objArr[i++] = objAlloc->allocateNewObject());
 4830              		.loc 2 231 5 discriminator 2
 231:src/kObjectAllocatorTest.cpp ****     for (size_t i = 32; i < 320; objArr[i++] = objAlloc->allocateNewObject());
 4831              		.loc 2 231 42 is_stmt 0 discriminator 2
 4832 21d0 130A1900 		addi	s4,s2,1
 4833              	.LVL665:
 231:src/kObjectAllocatorTest.cpp ****     for (size_t i = 32; i < 320; objArr[i++] = objAlloc->allocateNewObject());
 4834              		.loc 2 231 75 discriminator 2
 4835 21d4 13850400 		mv	a0,s1
 4836 21d8 97000000 		call	_ZN16KObjectAllocator17allocateNewObjectEv@plt
 4836      E7800000 
 4837              	.LVL666:
 231:src/kObjectAllocatorTest.cpp ****     for (size_t i = 32; i < 320; objArr[i++] = objAlloc->allocateNewObject());
 4838              		.loc 2 231 46 discriminator 2
 4839 21e0 B7F7FFFF 		li	a5,-4096
 4840 21e4 13193900 		slli	s2,s2,3
 4841 21e8 130704FC 		addi	a4,s0,-64
 4842 21ec B307F700 		add	a5,a4,a5
 4843 21f0 33892701 		add	s2,a5,s2
 4844 21f4 2330A960 		sd	a0,1536(s2)
 231:src/kObjectAllocatorTest.cpp ****     for (size_t i = 32; i < 320; objArr[i++] = objAlloc->allocateNewObject());
 4845              		.loc 2 231 42 discriminator 2
 4846 21f8 13090A00 		mv	s2,s4
 231:src/kObjectAllocatorTest.cpp ****     for (size_t i = 32; i < 320; objArr[i++] = objAlloc->allocateNewObject());
 4847              		.loc 2 231 5 discriminator 2
 4848 21fc 6FF0DFFC 		j	.L309
 4849              	.LVL667:
 4850              	.L310:
 4851              	.LBE406:
 4852              	.LBB407:
 4853              	.LBB405:
  70:src/../h/kObjectAllocator.hpp ****         MemoryAllocator::instance()->kmem_free(((KObjectAllocator*) p)->objectVectors);
 4854              		.loc 1 70 9 is_stmt 1
  70:src/../h/kObjectAllocator.hpp ****         MemoryAllocator::instance()->kmem_free(((KObjectAllocator*) p)->objectVectors);
GAS LISTING /tmp/ccKdsjgl.s 			page 121


 4855              		.loc 1 70 47 is_stmt 0
 4856 2200 97000000 		call	_ZN15MemoryAllocator8instanceEv@plt
 4856      E7800000 
 4857              	.LVL668:
 4858 2208 83B58402 		ld	a1,40(s1)
 4859 220c 97000000 		call	_ZN15MemoryAllocator9kmem_freeEPv@plt
 4859      E7800000 
 4860              	.LVL669:
  71:src/../h/kObjectAllocator.hpp ****         MemoryAllocator::instance()->kmem_free(p);
 4861              		.loc 1 71 9 is_stmt 1
  71:src/../h/kObjectAllocator.hpp ****         MemoryAllocator::instance()->kmem_free(p);
 4862              		.loc 1 71 47 is_stmt 0
 4863 2214 97000000 		call	_ZN15MemoryAllocator8instanceEv@plt
 4863      E7800000 
 4864              	.LVL670:
 4865 221c 83B50402 		ld	a1,32(s1)
 4866 2220 97000000 		call	_ZN15MemoryAllocator9kmem_freeEPv@plt
 4866      E7800000 
 4867              	.LVL671:
  72:src/../h/kObjectAllocator.hpp ****     }
 4868              		.loc 1 72 9 is_stmt 1
  72:src/../h/kObjectAllocator.hpp ****     }
 4869              		.loc 1 72 47 is_stmt 0
 4870 2228 97000000 		call	_ZN15MemoryAllocator8instanceEv@plt
 4870      E7800000 
 4871              	.LVL672:
 4872 2230 93850400 		mv	a1,s1
 4873 2234 97000000 		call	_ZN15MemoryAllocator9kmem_freeEPv@plt
 4873      E7800000 
 4874              	.LVL673:
 4875              	.L307:
 4876              	.LBE405:
 4877              	.LBE407:
 227:src/kObjectAllocatorTest.cpp ****     { delete objAlloc; return false; }
 4878              		.loc 2 227 24 is_stmt 1 discriminator 2
 227:src/kObjectAllocatorTest.cpp ****     { delete objAlloc; return false; }
 4879              		.loc 2 227 31 is_stmt 0 discriminator 2
 4880 223c 13050000 		li	a0,0
 4881 2240 6FF09FD8 		j	.L361
 4882              	.L308:
 230:src/kObjectAllocatorTest.cpp ****     if (objAlloc->nextNonTakenByte != 4) { delete objAlloc; return false; }
 4883              		.loc 2 230 44 is_stmt 1 discriminator 1
 230:src/kObjectAllocatorTest.cpp ****     if (objAlloc->nextNonTakenByte != 4) { delete objAlloc; return false; }
 4884              		.loc 2 230 59 is_stmt 0 discriminator 1
 4885 2244 63960402 		bnez	s1,.L313
 4886 2248 6F00C006 		j	.L311
 4887              	.LVL674:
 4888              	.L370:
 4889              	.LBB408:
 4890              	.LBB409:
 4891              	.LBB410:
  69:src/../h/kObjectAllocator.hpp ****         MemoryAllocator::instance()->kmem_free(((KObjectAllocator*) p)->bitVectors);
 4892              		.loc 1 69 13 is_stmt 1
  69:src/../h/kObjectAllocator.hpp ****         MemoryAllocator::instance()->kmem_free(((KObjectAllocator*) p)->bitVectors);
 4893              		.loc 1 69 51 is_stmt 0
 4894 224c 97000000 		call	_ZN15MemoryAllocator8instanceEv@plt
 4894      E7800000 
GAS LISTING /tmp/ccKdsjgl.s 			page 122


 4895              	.LVL675:
  69:src/../h/kObjectAllocator.hpp ****         MemoryAllocator::instance()->kmem_free(((KObjectAllocator*) p)->bitVectors);
 4896              		.loc 1 69 77
 4897 2254 83B78402 		ld	a5,40(s1)
  69:src/../h/kObjectAllocator.hpp ****         MemoryAllocator::instance()->kmem_free(((KObjectAllocator*) p)->bitVectors);
 4898              		.loc 1 69 89
 4899 2258 13973A00 		slli	a4,s5,3
 4900 225c B387E700 		add	a5,a5,a4
  69:src/../h/kObjectAllocator.hpp ****         MemoryAllocator::instance()->kmem_free(((KObjectAllocator*) p)->bitVectors);
 4901              		.loc 1 69 51
 4902 2260 83B50700 		ld	a1,0(a5)
 4903 2264 97000000 		call	_ZN15MemoryAllocator9kmem_freeEPv@plt
 4903      E7800000 
 4904              	.LVL676:
  68:src/../h/kObjectAllocator.hpp ****             MemoryAllocator::instance()->kmem_free(((KObjectAllocator*) p)->bitVectors[i]);
 4905              		.loc 1 68 9 is_stmt 1
 4906 226c 938A1A00 		addi	s5,s5,1
 4907              	.LVL677:
 4908              	.L313:
  68:src/../h/kObjectAllocator.hpp ****             MemoryAllocator::instance()->kmem_free(((KObjectAllocator*) p)->bitVectors[i]);
 4909              		.loc 1 68 30
  68:src/../h/kObjectAllocator.hpp ****             MemoryAllocator::instance()->kmem_free(((KObjectAllocator*) p)->bitVectors[i]);
 4910              		.loc 1 68 57 is_stmt 0
 4911 2270 83B70403 		ld	a5,48(s1)
  68:src/../h/kObjectAllocator.hpp ****             MemoryAllocator::instance()->kmem_free(((KObjectAllocator*) p)->bitVectors[i]);
 4912              		.loc 1 68 30
 4913 2274 E3ECFAFC 		bgtu	a5,s5,.L370
 4914              	.LBE410:
  70:src/../h/kObjectAllocator.hpp ****         MemoryAllocator::instance()->kmem_free(((KObjectAllocator*) p)->objectVectors);
 4915              		.loc 1 70 9 is_stmt 1
  70:src/../h/kObjectAllocator.hpp ****         MemoryAllocator::instance()->kmem_free(((KObjectAllocator*) p)->objectVectors);
 4916              		.loc 1 70 47 is_stmt 0
 4917 2278 97000000 		call	_ZN15MemoryAllocator8instanceEv@plt
 4917      E7800000 
 4918              	.LVL678:
 4919 2280 83B58402 		ld	a1,40(s1)
 4920 2284 97000000 		call	_ZN15MemoryAllocator9kmem_freeEPv@plt
 4920      E7800000 
 4921              	.LVL679:
  71:src/../h/kObjectAllocator.hpp ****         MemoryAllocator::instance()->kmem_free(p);
 4922              		.loc 1 71 9 is_stmt 1
  71:src/../h/kObjectAllocator.hpp ****         MemoryAllocator::instance()->kmem_free(p);
 4923              		.loc 1 71 47 is_stmt 0
 4924 228c 97000000 		call	_ZN15MemoryAllocator8instanceEv@plt
 4924      E7800000 
 4925              	.LVL680:
 4926 2294 83B50402 		ld	a1,32(s1)
 4927 2298 97000000 		call	_ZN15MemoryAllocator9kmem_freeEPv@plt
 4927      E7800000 
 4928              	.LVL681:
  72:src/../h/kObjectAllocator.hpp ****     }
 4929              		.loc 1 72 9 is_stmt 1
  72:src/../h/kObjectAllocator.hpp ****     }
 4930              		.loc 1 72 47 is_stmt 0
 4931 22a0 97000000 		call	_ZN15MemoryAllocator8instanceEv@plt
 4931      E7800000 
 4932              	.LVL682:
GAS LISTING /tmp/ccKdsjgl.s 			page 123


 4933 22a8 93850400 		mv	a1,s1
 4934 22ac 97000000 		call	_ZN15MemoryAllocator9kmem_freeEPv@plt
 4934      E7800000 
 4935              	.LVL683:
 4936              	.L311:
 4937              	.LBE409:
 4938              	.LBE408:
 230:src/kObjectAllocatorTest.cpp ****     if (objAlloc->nextNonTakenByte != 4) { delete objAlloc; return false; }
 4939              		.loc 2 230 61 is_stmt 1 discriminator 3
 230:src/kObjectAllocatorTest.cpp ****     if (objAlloc->nextNonTakenByte != 4) { delete objAlloc; return false; }
 4940              		.loc 2 230 68 is_stmt 0 discriminator 3
 4941 22b4 13050000 		li	a0,0
 4942 22b8 6FF01FD1 		j	.L361
 4943              	.LVL684:
 4944              	.L314:
 232:src/kObjectAllocatorTest.cpp ****     if (objAlloc->nextNonTakenByte != 40) { delete objAlloc; return false; }
 4945              		.loc 2 232 5 is_stmt 1
 232:src/kObjectAllocatorTest.cpp ****     if (objAlloc->nextNonTakenByte != 40) { delete objAlloc; return false; }
 4946              		.loc 2 232 19 is_stmt 0
 4947 22bc 03B78403 		ld	a4,56(s1)
 232:src/kObjectAllocatorTest.cpp ****     if (objAlloc->nextNonTakenByte != 40) { delete objAlloc; return false; }
 4948              		.loc 2 232 5
 4949 22c0 93078002 		li	a5,40
 4950 22c4 630EF706 		beq	a4,a5,.L315
 232:src/kObjectAllocatorTest.cpp ****     if (objAlloc->nextNonTakenByte != 40) { delete objAlloc; return false; }
 4951              		.loc 2 232 45 is_stmt 1 discriminator 1
 232:src/kObjectAllocatorTest.cpp ****     if (objAlloc->nextNonTakenByte != 40) { delete objAlloc; return false; }
 4952              		.loc 2 232 60 is_stmt 0 discriminator 1
 4953 22c8 63880406 		beqz	s1,.L316
 4954              	.L318:
 4955              	.LVL685:
 4956              	.LBB411:
 4957              	.LBB412:
 4958              	.LBB413:
  68:src/../h/kObjectAllocator.hpp ****             MemoryAllocator::instance()->kmem_free(((KObjectAllocator*) p)->bitVectors[i]);
 4959              		.loc 1 68 30 is_stmt 1
  68:src/../h/kObjectAllocator.hpp ****             MemoryAllocator::instance()->kmem_free(((KObjectAllocator*) p)->bitVectors[i]);
 4960              		.loc 1 68 57 is_stmt 0
 4961 22cc 83B70403 		ld	a5,48(s1)
  68:src/../h/kObjectAllocator.hpp ****             MemoryAllocator::instance()->kmem_free(((KObjectAllocator*) p)->bitVectors[i]);
 4962              		.loc 1 68 30
 4963 22d0 63F6FA02 		bleu	a5,s5,.L317
  69:src/../h/kObjectAllocator.hpp ****         MemoryAllocator::instance()->kmem_free(((KObjectAllocator*) p)->bitVectors);
 4964              		.loc 1 69 13 is_stmt 1
  69:src/../h/kObjectAllocator.hpp ****         MemoryAllocator::instance()->kmem_free(((KObjectAllocator*) p)->bitVectors);
 4965              		.loc 1 69 51 is_stmt 0
 4966 22d4 97000000 		call	_ZN15MemoryAllocator8instanceEv@plt
 4966      E7800000 
 4967              	.LVL686:
  69:src/../h/kObjectAllocator.hpp ****         MemoryAllocator::instance()->kmem_free(((KObjectAllocator*) p)->bitVectors);
 4968              		.loc 1 69 77
 4969 22dc 83B78402 		ld	a5,40(s1)
  69:src/../h/kObjectAllocator.hpp ****         MemoryAllocator::instance()->kmem_free(((KObjectAllocator*) p)->bitVectors);
 4970              		.loc 1 69 89
 4971 22e0 13973A00 		slli	a4,s5,3
 4972 22e4 B387E700 		add	a5,a5,a4
  69:src/../h/kObjectAllocator.hpp ****         MemoryAllocator::instance()->kmem_free(((KObjectAllocator*) p)->bitVectors);
GAS LISTING /tmp/ccKdsjgl.s 			page 124


 4973              		.loc 1 69 51
 4974 22e8 83B50700 		ld	a1,0(a5)
 4975 22ec 97000000 		call	_ZN15MemoryAllocator9kmem_freeEPv@plt
 4975      E7800000 
 4976              	.LVL687:
  68:src/../h/kObjectAllocator.hpp ****             MemoryAllocator::instance()->kmem_free(((KObjectAllocator*) p)->bitVectors[i]);
 4977              		.loc 1 68 9 is_stmt 1
 4978 22f4 938A1A00 		addi	s5,s5,1
 4979              	.LVL688:
 4980 22f8 6FF05FFD 		j	.L318
 4981              	.L317:
 4982              	.LBE413:
  70:src/../h/kObjectAllocator.hpp ****         MemoryAllocator::instance()->kmem_free(((KObjectAllocator*) p)->objectVectors);
 4983              		.loc 1 70 9
  70:src/../h/kObjectAllocator.hpp ****         MemoryAllocator::instance()->kmem_free(((KObjectAllocator*) p)->objectVectors);
 4984              		.loc 1 70 47 is_stmt 0
 4985 22fc 97000000 		call	_ZN15MemoryAllocator8instanceEv@plt
 4985      E7800000 
 4986              	.LVL689:
 4987 2304 83B58402 		ld	a1,40(s1)
 4988 2308 97000000 		call	_ZN15MemoryAllocator9kmem_freeEPv@plt
 4988      E7800000 
 4989              	.LVL690:
  71:src/../h/kObjectAllocator.hpp ****         MemoryAllocator::instance()->kmem_free(p);
 4990              		.loc 1 71 9 is_stmt 1
  71:src/../h/kObjectAllocator.hpp ****         MemoryAllocator::instance()->kmem_free(p);
 4991              		.loc 1 71 47 is_stmt 0
 4992 2310 97000000 		call	_ZN15MemoryAllocator8instanceEv@plt
 4992      E7800000 
 4993              	.LVL691:
 4994 2318 83B50402 		ld	a1,32(s1)
 4995 231c 97000000 		call	_ZN15MemoryAllocator9kmem_freeEPv@plt
 4995      E7800000 
 4996              	.LVL692:
  72:src/../h/kObjectAllocator.hpp ****     }
 4997              		.loc 1 72 9 is_stmt 1
  72:src/../h/kObjectAllocator.hpp ****     }
 4998              		.loc 1 72 47 is_stmt 0
 4999 2324 97000000 		call	_ZN15MemoryAllocator8instanceEv@plt
 4999      E7800000 
 5000              	.LVL693:
 5001 232c 93850400 		mv	a1,s1
 5002 2330 97000000 		call	_ZN15MemoryAllocator9kmem_freeEPv@plt
 5002      E7800000 
 5003              	.LVL694:
 5004              	.L316:
 5005              	.LBE412:
 5006              	.LBE411:
 232:src/kObjectAllocatorTest.cpp ****     if (objAlloc->nextNonTakenByte != 40) { delete objAlloc; return false; }
 5007              		.loc 2 232 62 is_stmt 1 discriminator 3
 232:src/kObjectAllocatorTest.cpp ****     if (objAlloc->nextNonTakenByte != 40) { delete objAlloc; return false; }
 5008              		.loc 2 232 69 is_stmt 0 discriminator 3
 5009 2338 13050000 		li	a0,0
 5010 233c 6FF0DFC8 		j	.L361
 5011              	.L315:
 235:src/kObjectAllocatorTest.cpp ****     printString("\nbefore here\n");
 5012              		.loc 2 235 5 is_stmt 1
GAS LISTING /tmp/ccKdsjgl.s 			page 125


 235:src/kObjectAllocatorTest.cpp ****     printString("\nbefore here\n");
 5013              		.loc 2 235 16 is_stmt 0
 5014 2340 17050000 		lla	a0,.LC6
 5014      13050500 
 5015 2348 97000000 		call	_Z11printStringPKc@plt
 5015      E7800000 
 5016              	.LVL695:
 237:src/kObjectAllocatorTest.cpp ****     objAlloc->freeObject(objArr[7 * 8]);
 5017              		.loc 2 237 5 is_stmt 1
 237:src/kObjectAllocatorTest.cpp ****     objAlloc->freeObject(objArr[7 * 8]);
 5018              		.loc 2 237 25 is_stmt 0
 5019 2350 B7F7FFFF 		li	a5,-4096
 5020 2354 130704FC 		addi	a4,s0,-64
 5021 2358 B307F700 		add	a5,a4,a5
 5022 235c 83B5077C 		ld	a1,1984(a5)
 5023 2360 13850400 		mv	a0,s1
 5024 2364 97000000 		call	_ZN16KObjectAllocator10freeObjectEPv@plt
 5024      E7800000 
 5025              	.LVL696:
 238:src/kObjectAllocatorTest.cpp ****     objArr[7 * 8] = objAlloc->allocateNewObject();
 5026              		.loc 2 238 5 is_stmt 1
 238:src/kObjectAllocatorTest.cpp ****     objArr[7 * 8] = objAlloc->allocateNewObject();
 5027              		.loc 2 238 48 is_stmt 0
 5028 236c 13850400 		mv	a0,s1
 5029 2370 97000000 		call	_ZN16KObjectAllocator17allocateNewObjectEv@plt
 5029      E7800000 
 5030              	.LVL697:
 5031 2378 13090500 		mv	s2,a0
 5032              	.LVL698:
 239:src/kObjectAllocatorTest.cpp ****     printString("\n");
 5033              		.loc 2 239 5 is_stmt 1
 239:src/kObjectAllocatorTest.cpp ****     printString("\n");
 5034              		.loc 2 239 16 is_stmt 0
 5035 237c 17050000 		lla	a0,.LC3
 5035      13050500 
 5036 2384 97000000 		call	_Z11printStringPKc@plt
 5036      E7800000 
 5037              	.LVL699:
 240:src/kObjectAllocatorTest.cpp ****     printInteger((uint64)getByteOfObject(objArr[7 * 8], objAlloc));
 5038              		.loc 2 240 5 is_stmt 1
 240:src/kObjectAllocatorTest.cpp ****     printInteger((uint64)getByteOfObject(objArr[7 * 8], objAlloc));
 5039              		.loc 2 240 41 is_stmt 0
 5040 238c 13860400 		mv	a2,s1
 5041 2390 93050900 		mv	a1,s2
 5042 2394 13850900 		mv	a0,s3
 5043 2398 97000000 		call	_ZN20KObjectAllocatorTest15getByteOfObjectEPvP16KObjectAllocator
 5043      E7800000 
 5044              	.LVL700:
 240:src/kObjectAllocatorTest.cpp ****     printInteger((uint64)getByteOfObject(objArr[7 * 8], objAlloc));
 5045              		.loc 2 240 17
 5046 23a0 97000000 		call	_Z12printIntegerm@plt
 5046      E7800000 
 5047              	.LVL701:
 241:src/kObjectAllocatorTest.cpp ****     printString("\n");
 5048              		.loc 2 241 5 is_stmt 1
 241:src/kObjectAllocatorTest.cpp ****     printString("\n");
 5049              		.loc 2 241 16 is_stmt 0
GAS LISTING /tmp/ccKdsjgl.s 			page 126


 5050 23a8 17050000 		lla	a0,.LC3
 5050      13050500 
 5051 23b0 97000000 		call	_Z11printStringPKc@plt
 5051      E7800000 
 5052              	.LVL702:
 242:src/kObjectAllocatorTest.cpp ****     printInteger((uint64)getBitOfObject(objArr[7 * 8], objAlloc));
 5053              		.loc 2 242 5 is_stmt 1
 242:src/kObjectAllocatorTest.cpp ****     printInteger((uint64)getBitOfObject(objArr[7 * 8], objAlloc));
 5054              		.loc 2 242 40 is_stmt 0
 5055 23b8 13860400 		mv	a2,s1
 5056 23bc 93050900 		mv	a1,s2
 5057 23c0 13850900 		mv	a0,s3
 5058 23c4 97000000 		call	_ZN20KObjectAllocatorTest14getBitOfObjectEPvP16KObjectAllocator
 5058      E7800000 
 5059              	.LVL703:
 242:src/kObjectAllocatorTest.cpp ****     printInteger((uint64)getBitOfObject(objArr[7 * 8], objAlloc));
 5060              		.loc 2 242 17
 5061 23cc 97000000 		call	_Z12printIntegerm@plt
 5061      E7800000 
 5062              	.LVL704:
 243:src/kObjectAllocatorTest.cpp ****     printString("\n");
 5063              		.loc 2 243 5 is_stmt 1
 243:src/kObjectAllocatorTest.cpp ****     printString("\n");
 5064              		.loc 2 243 16 is_stmt 0
 5065 23d4 17050000 		lla	a0,.LC3
 5065      13050500 
 5066 23dc 97000000 		call	_Z11printStringPKc@plt
 5066      E7800000 
 5067              	.LVL705:
 244:src/kObjectAllocatorTest.cpp ****     if (getByteOfObject(objArr[7 * 8], objAlloc) != 7
 5068              		.loc 2 244 5 is_stmt 1
 244:src/kObjectAllocatorTest.cpp ****     if (getByteOfObject(objArr[7 * 8], objAlloc) != 7
 5069              		.loc 2 244 24 is_stmt 0
 5070 23e4 13860400 		mv	a2,s1
 5071 23e8 93050900 		mv	a1,s2
 5072 23ec 13850900 		mv	a0,s3
 5073 23f0 97000000 		call	_ZN20KObjectAllocatorTest15getByteOfObjectEPvP16KObjectAllocator
 5073      E7800000 
 5074              	.LVL706:
 245:src/kObjectAllocatorTest.cpp ****         || getBitOfObject(objArr[7 * 8], objAlloc) != 7)
 5075              		.loc 2 245 9
 5076 23f8 93077000 		li	a5,7
 5077 23fc 630CF502 		beq	a0,a5,.L371
 5078              	.L319:
 246:src/kObjectAllocatorTest.cpp ****     { delete objAlloc; return false; }
 5079              		.loc 2 246 7 is_stmt 1 discriminator 4
 246:src/kObjectAllocatorTest.cpp ****     { delete objAlloc; return false; }
 5080              		.loc 2 246 22 is_stmt 0 discriminator 4
 5081 2400 6386040A 		beqz	s1,.L322
 5082              	.L324:
 5083              	.LVL707:
 5084              	.LBB414:
 5085              	.LBB415:
 5086              	.LBB416:
  68:src/../h/kObjectAllocator.hpp ****             MemoryAllocator::instance()->kmem_free(((KObjectAllocator*) p)->bitVectors[i]);
 5087              		.loc 1 68 30 is_stmt 1
  68:src/../h/kObjectAllocator.hpp ****             MemoryAllocator::instance()->kmem_free(((KObjectAllocator*) p)->bitVectors[i]);
GAS LISTING /tmp/ccKdsjgl.s 			page 127


 5088              		.loc 1 68 57 is_stmt 0
 5089 2404 83B70403 		ld	a5,48(s1)
  68:src/../h/kObjectAllocator.hpp ****             MemoryAllocator::instance()->kmem_free(((KObjectAllocator*) p)->bitVectors[i]);
 5090              		.loc 1 68 30
 5091 2408 63F4FA06 		bleu	a5,s5,.L323
  69:src/../h/kObjectAllocator.hpp ****         MemoryAllocator::instance()->kmem_free(((KObjectAllocator*) p)->bitVectors);
 5092              		.loc 1 69 13 is_stmt 1
  69:src/../h/kObjectAllocator.hpp ****         MemoryAllocator::instance()->kmem_free(((KObjectAllocator*) p)->bitVectors);
 5093              		.loc 1 69 51 is_stmt 0
 5094 240c 97000000 		call	_ZN15MemoryAllocator8instanceEv@plt
 5094      E7800000 
 5095              	.LVL708:
  69:src/../h/kObjectAllocator.hpp ****         MemoryAllocator::instance()->kmem_free(((KObjectAllocator*) p)->bitVectors);
 5096              		.loc 1 69 77
 5097 2414 83B78402 		ld	a5,40(s1)
  69:src/../h/kObjectAllocator.hpp ****         MemoryAllocator::instance()->kmem_free(((KObjectAllocator*) p)->bitVectors);
 5098              		.loc 1 69 89
 5099 2418 13973A00 		slli	a4,s5,3
 5100 241c B387E700 		add	a5,a5,a4
  69:src/../h/kObjectAllocator.hpp ****         MemoryAllocator::instance()->kmem_free(((KObjectAllocator*) p)->bitVectors);
 5101              		.loc 1 69 51
 5102 2420 83B50700 		ld	a1,0(a5)
 5103 2424 97000000 		call	_ZN15MemoryAllocator9kmem_freeEPv@plt
 5103      E7800000 
 5104              	.LVL709:
  68:src/../h/kObjectAllocator.hpp ****             MemoryAllocator::instance()->kmem_free(((KObjectAllocator*) p)->bitVectors[i]);
 5105              		.loc 1 68 9 is_stmt 1
 5106 242c 938A1A00 		addi	s5,s5,1
 5107              	.LVL710:
 5108 2430 6FF05FFD 		j	.L324
 5109              	.LVL711:
 5110              	.L371:
 5111              	.LBE416:
 5112              	.LBE415:
 5113              	.LBE414:
 245:src/kObjectAllocatorTest.cpp ****         || getBitOfObject(objArr[7 * 8], objAlloc) != 7)
 5114              		.loc 2 245 26 is_stmt 0 discriminator 2
 5115 2434 13860400 		mv	a2,s1
 5116 2438 93050900 		mv	a1,s2
 5117 243c 13850900 		mv	a0,s3
 5118 2440 97000000 		call	_ZN20KObjectAllocatorTest14getBitOfObjectEPvP16KObjectAllocator
 5118      E7800000 
 5119              	.LVL712:
 245:src/kObjectAllocatorTest.cpp ****         || getBitOfObject(objArr[7 * 8], objAlloc) != 7)
 5120              		.loc 2 245 9 discriminator 2
 5121 2448 93077000 		li	a5,7
 5122 244c E31AF5FA 		bne	a0,a5,.L319
 247:src/kObjectAllocatorTest.cpp ****     if (objAlloc->nextNonTakenByte != 7) { delete objAlloc; return false; }
 5123              		.loc 2 247 5 is_stmt 1
 247:src/kObjectAllocatorTest.cpp ****     if (objAlloc->nextNonTakenByte != 7) { delete objAlloc; return false; }
 5124              		.loc 2 247 19 is_stmt 0
 5125 2450 03B78403 		ld	a4,56(s1)
 247:src/kObjectAllocatorTest.cpp ****     if (objAlloc->nextNonTakenByte != 7) { delete objAlloc; return false; }
 5126              		.loc 2 247 5
 5127 2454 6300F706 		beq	a4,a5,.L372
 247:src/kObjectAllocatorTest.cpp ****     if (objAlloc->nextNonTakenByte != 7) { delete objAlloc; return false; }
 5128              		.loc 2 247 44 is_stmt 1 discriminator 1
GAS LISTING /tmp/ccKdsjgl.s 			page 128


 247:src/kObjectAllocatorTest.cpp ****     if (objAlloc->nextNonTakenByte != 7) { delete objAlloc; return false; }
 5129              		.loc 2 247 59 is_stmt 0 discriminator 1
 5130 2458 63880400 		beqz	s1,.L325
 247:src/kObjectAllocatorTest.cpp ****     if (objAlloc->nextNonTakenByte != 7) { delete objAlloc; return false; }
 5131              		.loc 2 247 51 discriminator 2
 5132 245c 13850400 		mv	a0,s1
 5133 2460 97000000 		call	_ZN16KObjectAllocatordlEPv
 5133      E7800000 
 5134              	.LVL713:
 5135              	.L325:
 247:src/kObjectAllocatorTest.cpp ****     if (objAlloc->nextNonTakenByte != 7) { delete objAlloc; return false; }
 5136              		.loc 2 247 61 is_stmt 1 discriminator 3
 247:src/kObjectAllocatorTest.cpp ****     if (objAlloc->nextNonTakenByte != 7) { delete objAlloc; return false; }
 5137              		.loc 2 247 68 is_stmt 0 discriminator 3
 5138 2468 13050000 		li	a0,0
 5139 246c 6FF0DFB5 		j	.L361
 5140              	.LVL714:
 5141              	.L323:
 5142              	.LBB418:
 5143              	.LBB417:
  70:src/../h/kObjectAllocator.hpp ****         MemoryAllocator::instance()->kmem_free(((KObjectAllocator*) p)->objectVectors);
 5144              		.loc 1 70 9 is_stmt 1
  70:src/../h/kObjectAllocator.hpp ****         MemoryAllocator::instance()->kmem_free(((KObjectAllocator*) p)->objectVectors);
 5145              		.loc 1 70 47 is_stmt 0
 5146 2470 97000000 		call	_ZN15MemoryAllocator8instanceEv@plt
 5146      E7800000 
 5147              	.LVL715:
 5148 2478 83B58402 		ld	a1,40(s1)
 5149 247c 97000000 		call	_ZN15MemoryAllocator9kmem_freeEPv@plt
 5149      E7800000 
 5150              	.LVL716:
  71:src/../h/kObjectAllocator.hpp ****         MemoryAllocator::instance()->kmem_free(p);
 5151              		.loc 1 71 9 is_stmt 1
  71:src/../h/kObjectAllocator.hpp ****         MemoryAllocator::instance()->kmem_free(p);
 5152              		.loc 1 71 47 is_stmt 0
 5153 2484 97000000 		call	_ZN15MemoryAllocator8instanceEv@plt
 5153      E7800000 
 5154              	.LVL717:
 5155 248c 83B50402 		ld	a1,32(s1)
 5156 2490 97000000 		call	_ZN15MemoryAllocator9kmem_freeEPv@plt
 5156      E7800000 
 5157              	.LVL718:
  72:src/../h/kObjectAllocator.hpp ****     }
 5158              		.loc 1 72 9 is_stmt 1
  72:src/../h/kObjectAllocator.hpp ****     }
 5159              		.loc 1 72 47 is_stmt 0
 5160 2498 97000000 		call	_ZN15MemoryAllocator8instanceEv@plt
 5160      E7800000 
 5161              	.LVL719:
 5162 24a0 93850400 		mv	a1,s1
 5163 24a4 97000000 		call	_ZN15MemoryAllocator9kmem_freeEPv@plt
 5163      E7800000 
 5164              	.LVL720:
 5165              	.L322:
 5166              	.LBE417:
 5167              	.LBE418:
 246:src/kObjectAllocatorTest.cpp ****     { delete objAlloc; return false; }
GAS LISTING /tmp/ccKdsjgl.s 			page 129


 5168              		.loc 2 246 24 is_stmt 1 discriminator 2
 246:src/kObjectAllocatorTest.cpp ****     { delete objAlloc; return false; }
 5169              		.loc 2 246 31 is_stmt 0 discriminator 2
 5170 24ac 13050000 		li	a0,0
 5171 24b0 6FF09FB1 		j	.L361
 5172              	.L372:
 249:src/kObjectAllocatorTest.cpp ****     printString("\nhere\n");
 5173              		.loc 2 249 5 is_stmt 1
 249:src/kObjectAllocatorTest.cpp ****     printString("\nhere\n");
 5174              		.loc 2 249 16 is_stmt 0
 5175 24b4 17050000 		lla	a0,.LC7
 5175      13050500 
 5176 24bc 97000000 		call	_Z11printStringPKc@plt
 5176      E7800000 
 5177              	.LVL721:
 251:src/kObjectAllocatorTest.cpp ****     objAlloc->freeObject(objArr[6 * 8 + 3]);
 5178              		.loc 2 251 5 is_stmt 1
 251:src/kObjectAllocatorTest.cpp ****     objAlloc->freeObject(objArr[6 * 8 + 3]);
 5179              		.loc 2 251 25 is_stmt 0
 5180 24c4 37F9FFFF 		li	s2,-4096
 5181 24c8 930704FC 		addi	a5,s0,-64
 5182 24cc 33892701 		add	s2,a5,s2
 5183 24d0 83358979 		ld	a1,1944(s2)
 5184 24d4 13850400 		mv	a0,s1
 5185 24d8 97000000 		call	_ZN16KObjectAllocator10freeObjectEPv@plt
 5185      E7800000 
 5186              	.LVL722:
 252:src/kObjectAllocatorTest.cpp ****     objAlloc->freeObject(objArr[7 * 8 + 4]);
 5187              		.loc 2 252 5 is_stmt 1
 252:src/kObjectAllocatorTest.cpp ****     objAlloc->freeObject(objArr[7 * 8 + 4]);
 5188              		.loc 2 252 25 is_stmt 0
 5189 24e0 8335097E 		ld	a1,2016(s2)
 5190 24e4 13850400 		mv	a0,s1
 5191 24e8 97000000 		call	_ZN16KObjectAllocator10freeObjectEPv@plt
 5191      E7800000 
 5192              	.LVL723:
 253:src/kObjectAllocatorTest.cpp ****     objAlloc->freeObject(objArr[38 * 8 + 5]);
 5193              		.loc 2 253 5 is_stmt 1
 253:src/kObjectAllocatorTest.cpp ****     objAlloc->freeObject(objArr[38 * 8 + 5]);
 5194              		.loc 2 253 25 is_stmt 0
 5195 24f0 833584F6 		ld	a1,-152(s0)
 5196 24f4 13850400 		mv	a0,s1
 5197 24f8 97000000 		call	_ZN16KObjectAllocator10freeObjectEPv@plt
 5197      E7800000 
 5198              	.LVL724:
 256:src/kObjectAllocatorTest.cpp ****     objArr[7 * 8 + 4] = objAlloc->allocateNewObject();
 5199              		.loc 2 256 5 is_stmt 1
 256:src/kObjectAllocatorTest.cpp ****     objArr[7 * 8 + 4] = objAlloc->allocateNewObject();
 5200              		.loc 2 256 52 is_stmt 0
 5201 2500 13850400 		mv	a0,s1
 5202 2504 97000000 		call	_ZN16KObjectAllocator17allocateNewObjectEv@plt
 5202      E7800000 
 5203              	.LVL725:
 5204 250c 13090500 		mv	s2,a0
 257:src/kObjectAllocatorTest.cpp ****     if (getByteOfObject(objArr[7 * 8 + 4], objAlloc) != 7
 5205              		.loc 2 257 5 is_stmt 1
 257:src/kObjectAllocatorTest.cpp ****     if (getByteOfObject(objArr[7 * 8 + 4], objAlloc) != 7
GAS LISTING /tmp/ccKdsjgl.s 			page 130


 5206              		.loc 2 257 24 is_stmt 0
 5207 2510 13860400 		mv	a2,s1
 5208 2514 93050500 		mv	a1,a0
 5209 2518 13850900 		mv	a0,s3
 5210 251c 97000000 		call	_ZN20KObjectAllocatorTest15getByteOfObjectEPvP16KObjectAllocator
 5210      E7800000 
 5211              	.LVL726:
 258:src/kObjectAllocatorTest.cpp ****         || getBitOfObject(objArr[7 * 8 + 4], objAlloc) != 3)
 5212              		.loc 2 258 9
 5213 2524 93077000 		li	a5,7
 5214 2528 630EF500 		beq	a0,a5,.L373
 5215              	.L326:
 259:src/kObjectAllocatorTest.cpp ****     { delete objAlloc; return false; }
 5216              		.loc 2 259 7 is_stmt 1 discriminator 4
 259:src/kObjectAllocatorTest.cpp ****     { delete objAlloc; return false; }
 5217              		.loc 2 259 22 is_stmt 0 discriminator 4
 5218 252c 63880400 		beqz	s1,.L329
 259:src/kObjectAllocatorTest.cpp ****     { delete objAlloc; return false; }
 5219              		.loc 2 259 14 discriminator 1
 5220 2530 13850400 		mv	a0,s1
 5221 2534 97000000 		call	_ZN16KObjectAllocatordlEPv
 5221      E7800000 
 5222              	.LVL727:
 5223              	.L329:
 259:src/kObjectAllocatorTest.cpp ****     { delete objAlloc; return false; }
 5224              		.loc 2 259 24 is_stmt 1 discriminator 2
 259:src/kObjectAllocatorTest.cpp ****     { delete objAlloc; return false; }
 5225              		.loc 2 259 31 is_stmt 0 discriminator 2
 5226 253c 13050000 		li	a0,0
 5227 2540 6FF09FA8 		j	.L361
 5228              	.L373:
 258:src/kObjectAllocatorTest.cpp ****         || getBitOfObject(objArr[7 * 8 + 4], objAlloc) != 3)
 5229              		.loc 2 258 26 discriminator 2
 5230 2544 13860400 		mv	a2,s1
 5231 2548 93050900 		mv	a1,s2
 5232 254c 13850900 		mv	a0,s3
 5233 2550 97000000 		call	_ZN20KObjectAllocatorTest14getBitOfObjectEPvP16KObjectAllocator
 5233      E7800000 
 5234              	.LVL728:
 258:src/kObjectAllocatorTest.cpp ****         || getBitOfObject(objArr[7 * 8 + 4], objAlloc) != 3)
 5235              		.loc 2 258 9 discriminator 2
 5236 2558 93073000 		li	a5,3
 5237 255c E318F5FC 		bne	a0,a5,.L326
 260:src/kObjectAllocatorTest.cpp ****     if (objAlloc->nextNonTakenByte != 7) { delete objAlloc; return false; }
 5238              		.loc 2 260 5 is_stmt 1
 260:src/kObjectAllocatorTest.cpp ****     if (objAlloc->nextNonTakenByte != 7) { delete objAlloc; return false; }
 5239              		.loc 2 260 19 is_stmt 0
 5240 2560 03B78403 		ld	a4,56(s1)
 260:src/kObjectAllocatorTest.cpp ****     if (objAlloc->nextNonTakenByte != 7) { delete objAlloc; return false; }
 5241              		.loc 2 260 5
 5242 2564 93077000 		li	a5,7
 5243 2568 630EF700 		beq	a4,a5,.L374
 260:src/kObjectAllocatorTest.cpp ****     if (objAlloc->nextNonTakenByte != 7) { delete objAlloc; return false; }
 5244              		.loc 2 260 44 is_stmt 1 discriminator 1
 260:src/kObjectAllocatorTest.cpp ****     if (objAlloc->nextNonTakenByte != 7) { delete objAlloc; return false; }
 5245              		.loc 2 260 59 is_stmt 0 discriminator 1
 5246 256c 63880400 		beqz	s1,.L330
GAS LISTING /tmp/ccKdsjgl.s 			page 131


 260:src/kObjectAllocatorTest.cpp ****     if (objAlloc->nextNonTakenByte != 7) { delete objAlloc; return false; }
 5247              		.loc 2 260 51 discriminator 2
 5248 2570 13850400 		mv	a0,s1
 5249 2574 97000000 		call	_ZN16KObjectAllocatordlEPv
 5249      E7800000 
 5250              	.LVL729:
 5251              	.L330:
 260:src/kObjectAllocatorTest.cpp ****     if (objAlloc->nextNonTakenByte != 7) { delete objAlloc; return false; }
 5252              		.loc 2 260 61 is_stmt 1 discriminator 3
 260:src/kObjectAllocatorTest.cpp ****     if (objAlloc->nextNonTakenByte != 7) { delete objAlloc; return false; }
 5253              		.loc 2 260 68 is_stmt 0 discriminator 3
 5254 257c 13050000 		li	a0,0
 5255 2580 6FF09FA4 		j	.L361
 5256              	.L374:
 261:src/kObjectAllocatorTest.cpp ****     objAlloc->freeObject(objArr[3 * 8 + 5]);
 5257              		.loc 2 261 5 is_stmt 1
 261:src/kObjectAllocatorTest.cpp ****     objAlloc->freeObject(objArr[3 * 8 + 5]);
 5258              		.loc 2 261 25 is_stmt 0
 5259 2584 B7F7FFFF 		li	a5,-4096
 5260 2588 130704FC 		addi	a4,s0,-64
 5261 258c B307F700 		add	a5,a4,a5
 5262 2590 83B5876E 		ld	a1,1768(a5)
 5263 2594 13850400 		mv	a0,s1
 5264 2598 97000000 		call	_ZN16KObjectAllocator10freeObjectEPv@plt
 5264      E7800000 
 5265              	.LVL730:
 263:src/kObjectAllocatorTest.cpp ****     objArr[38 * 8 + 5] = objAlloc->allocateNewObject();
 5266              		.loc 2 263 5 is_stmt 1
 263:src/kObjectAllocatorTest.cpp ****     objArr[38 * 8 + 5] = objAlloc->allocateNewObject();
 5267              		.loc 2 263 53 is_stmt 0
 5268 25a0 13850400 		mv	a0,s1
 5269 25a4 97000000 		call	_ZN16KObjectAllocator17allocateNewObjectEv@plt
 5269      E7800000 
 5270              	.LVL731:
 5271 25ac 13090500 		mv	s2,a0
 264:src/kObjectAllocatorTest.cpp ****     if (getByteOfObject(objArr[38 * 8 + 5], objAlloc) != 38
 5272              		.loc 2 264 5 is_stmt 1
 264:src/kObjectAllocatorTest.cpp ****     if (getByteOfObject(objArr[38 * 8 + 5], objAlloc) != 38
 5273              		.loc 2 264 24 is_stmt 0
 5274 25b0 13860400 		mv	a2,s1
 5275 25b4 93050500 		mv	a1,a0
 5276 25b8 13850900 		mv	a0,s3
 5277 25bc 97000000 		call	_ZN20KObjectAllocatorTest15getByteOfObjectEPvP16KObjectAllocator
 5277      E7800000 
 5278              	.LVL732:
 265:src/kObjectAllocatorTest.cpp ****         || getBitOfObject(objArr[38 * 8 + 5], objAlloc) != 2)
 5279              		.loc 2 265 9
 5280 25c4 93076002 		li	a5,38
 5281 25c8 630EF500 		beq	a0,a5,.L375
 5282              	.L331:
 266:src/kObjectAllocatorTest.cpp ****     { delete objAlloc; return false; }
 5283              		.loc 2 266 7 is_stmt 1 discriminator 4
 266:src/kObjectAllocatorTest.cpp ****     { delete objAlloc; return false; }
 5284              		.loc 2 266 22 is_stmt 0 discriminator 4
 5285 25cc 63880400 		beqz	s1,.L334
 266:src/kObjectAllocatorTest.cpp ****     { delete objAlloc; return false; }
 5286              		.loc 2 266 14 discriminator 1
GAS LISTING /tmp/ccKdsjgl.s 			page 132


 5287 25d0 13850400 		mv	a0,s1
 5288 25d4 97000000 		call	_ZN16KObjectAllocatordlEPv
 5288      E7800000 
 5289              	.LVL733:
 5290              	.L334:
 266:src/kObjectAllocatorTest.cpp ****     { delete objAlloc; return false; }
 5291              		.loc 2 266 24 is_stmt 1 discriminator 2
 266:src/kObjectAllocatorTest.cpp ****     { delete objAlloc; return false; }
 5292              		.loc 2 266 31 is_stmt 0 discriminator 2
 5293 25dc 13050000 		li	a0,0
 5294 25e0 6FF09F9E 		j	.L361
 5295              	.L375:
 265:src/kObjectAllocatorTest.cpp ****         || getBitOfObject(objArr[38 * 8 + 5], objAlloc) != 2)
 5296              		.loc 2 265 26 discriminator 2
 5297 25e4 13860400 		mv	a2,s1
 5298 25e8 93050900 		mv	a1,s2
 5299 25ec 13850900 		mv	a0,s3
 5300 25f0 97000000 		call	_ZN20KObjectAllocatorTest14getBitOfObjectEPvP16KObjectAllocator
 5300      E7800000 
 5301              	.LVL734:
 265:src/kObjectAllocatorTest.cpp ****         || getBitOfObject(objArr[38 * 8 + 5], objAlloc) != 2)
 5302              		.loc 2 265 9 discriminator 2
 5303 25f8 93072000 		li	a5,2
 5304 25fc E318F5FC 		bne	a0,a5,.L331
 267:src/kObjectAllocatorTest.cpp ****     if (objAlloc->nextNonTakenByte != 38) { delete objAlloc; return false; }
 5305              		.loc 2 267 5 is_stmt 1
 267:src/kObjectAllocatorTest.cpp ****     if (objAlloc->nextNonTakenByte != 38) { delete objAlloc; return false; }
 5306              		.loc 2 267 19 is_stmt 0
 5307 2600 03B78403 		ld	a4,56(s1)
 267:src/kObjectAllocatorTest.cpp ****     if (objAlloc->nextNonTakenByte != 38) { delete objAlloc; return false; }
 5308              		.loc 2 267 5
 5309 2604 93076002 		li	a5,38
 5310 2608 630EF700 		beq	a4,a5,.L376
 267:src/kObjectAllocatorTest.cpp ****     if (objAlloc->nextNonTakenByte != 38) { delete objAlloc; return false; }
 5311              		.loc 2 267 45 is_stmt 1 discriminator 1
 267:src/kObjectAllocatorTest.cpp ****     if (objAlloc->nextNonTakenByte != 38) { delete objAlloc; return false; }
 5312              		.loc 2 267 60 is_stmt 0 discriminator 1
 5313 260c 63880400 		beqz	s1,.L335
 267:src/kObjectAllocatorTest.cpp ****     if (objAlloc->nextNonTakenByte != 38) { delete objAlloc; return false; }
 5314              		.loc 2 267 52 discriminator 2
 5315 2610 13850400 		mv	a0,s1
 5316 2614 97000000 		call	_ZN16KObjectAllocatordlEPv
 5316      E7800000 
 5317              	.LVL735:
 5318              	.L335:
 267:src/kObjectAllocatorTest.cpp ****     if (objAlloc->nextNonTakenByte != 38) { delete objAlloc; return false; }
 5319              		.loc 2 267 62 is_stmt 1 discriminator 3
 267:src/kObjectAllocatorTest.cpp ****     if (objAlloc->nextNonTakenByte != 38) { delete objAlloc; return false; }
 5320              		.loc 2 267 69 is_stmt 0 discriminator 3
 5321 261c 13050000 		li	a0,0
 5322 2620 6FF09F9A 		j	.L361
 5323              	.L376:
 270:src/kObjectAllocatorTest.cpp ****     objArr[3 * 8 + 5] = objAlloc->allocateNewObject();
 5324              		.loc 2 270 5 is_stmt 1
 270:src/kObjectAllocatorTest.cpp ****     objArr[3 * 8 + 5] = objAlloc->allocateNewObject();
 5325              		.loc 2 270 52 is_stmt 0
 5326 2624 13850400 		mv	a0,s1
GAS LISTING /tmp/ccKdsjgl.s 			page 133


 5327 2628 97000000 		call	_ZN16KObjectAllocator17allocateNewObjectEv@plt
 5327      E7800000 
 5328              	.LVL736:
 5329 2630 13090500 		mv	s2,a0
 271:src/kObjectAllocatorTest.cpp ****     if (getByteOfObject(objArr[3 * 8 + 5], objAlloc) != 3 || getBitOfObject(objArr[3 * 8 + 5], objA
 5330              		.loc 2 271 5 is_stmt 1
 271:src/kObjectAllocatorTest.cpp ****     if (getByteOfObject(objArr[3 * 8 + 5], objAlloc) != 3 || getBitOfObject(objArr[3 * 8 + 5], objA
 5331              		.loc 2 271 24 is_stmt 0
 5332 2634 13860400 		mv	a2,s1
 5333 2638 93050500 		mv	a1,a0
 5334 263c 13850900 		mv	a0,s3
 5335 2640 97000000 		call	_ZN20KObjectAllocatorTest15getByteOfObjectEPvP16KObjectAllocator
 5335      E7800000 
 5336              	.LVL737:
 271:src/kObjectAllocatorTest.cpp ****     if (getByteOfObject(objArr[3 * 8 + 5], objAlloc) != 3 || getBitOfObject(objArr[3 * 8 + 5], objA
 5337              		.loc 2 271 59
 5338 2648 93073000 		li	a5,3
 5339 264c 6304F502 		beq	a0,a5,.L377
 5340              	.L336:
 272:src/kObjectAllocatorTest.cpp ****         if (objAlloc->nextNonTakenByte != 3) { delete objAlloc; return false; }
 5341              		.loc 2 272 9 is_stmt 1 discriminator 5
 272:src/kObjectAllocatorTest.cpp ****         if (objAlloc->nextNonTakenByte != 3) { delete objAlloc; return false; }
 5342              		.loc 2 272 23 is_stmt 0 discriminator 5
 5343 2650 03B78403 		ld	a4,56(s1)
 272:src/kObjectAllocatorTest.cpp ****         if (objAlloc->nextNonTakenByte != 3) { delete objAlloc; return false; }
 5344              		.loc 2 272 9 discriminator 5
 5345 2654 93073000 		li	a5,3
 5346 2658 630CF702 		beq	a4,a5,.L337
 272:src/kObjectAllocatorTest.cpp ****         if (objAlloc->nextNonTakenByte != 3) { delete objAlloc; return false; }
 5347              		.loc 2 272 48 is_stmt 1 discriminator 1
 272:src/kObjectAllocatorTest.cpp ****         if (objAlloc->nextNonTakenByte != 3) { delete objAlloc; return false; }
 5348              		.loc 2 272 63 is_stmt 0 discriminator 1
 5349 265c 63880400 		beqz	s1,.L338
 272:src/kObjectAllocatorTest.cpp ****         if (objAlloc->nextNonTakenByte != 3) { delete objAlloc; return false; }
 5350              		.loc 2 272 55 discriminator 2
 5351 2660 13850400 		mv	a0,s1
 5352 2664 97000000 		call	_ZN16KObjectAllocatordlEPv
 5352      E7800000 
 5353              	.LVL738:
 5354              	.L338:
 272:src/kObjectAllocatorTest.cpp ****         if (objAlloc->nextNonTakenByte != 3) { delete objAlloc; return false; }
 5355              		.loc 2 272 65 is_stmt 1 discriminator 3
 272:src/kObjectAllocatorTest.cpp ****         if (objAlloc->nextNonTakenByte != 3) { delete objAlloc; return false; }
 5356              		.loc 2 272 72 is_stmt 0 discriminator 3
 5357 266c 13050000 		li	a0,0
 5358 2670 6FF09F95 		j	.L361
 5359              	.L377:
 271:src/kObjectAllocatorTest.cpp ****     if (getByteOfObject(objArr[3 * 8 + 5], objAlloc) != 3 || getBitOfObject(objArr[3 * 8 + 5], objA
 5360              		.loc 2 271 76 discriminator 3
 5361 2674 13860400 		mv	a2,s1
 5362 2678 93050900 		mv	a1,s2
 5363 267c 13850900 		mv	a0,s3
 5364 2680 97000000 		call	_ZN20KObjectAllocatorTest14getBitOfObjectEPvP16KObjectAllocator
 5364      E7800000 
 5365              	.LVL739:
 271:src/kObjectAllocatorTest.cpp ****     if (getByteOfObject(objArr[3 * 8 + 5], objAlloc) != 3 || getBitOfObject(objArr[3 * 8 + 5], objA
 5366              		.loc 2 271 59 discriminator 3
GAS LISTING /tmp/ccKdsjgl.s 			page 134


 5367 2688 93072000 		li	a5,2
 5368 268c E312F5FC 		bne	a0,a5,.L336
 5369              	.L337:
 274:src/kObjectAllocatorTest.cpp ****     objArr[6 * 8 + 3] = objAlloc->allocateNewObject();
 5370              		.loc 2 274 5 is_stmt 1
 274:src/kObjectAllocatorTest.cpp ****     objArr[6 * 8 + 3] = objAlloc->allocateNewObject();
 5371              		.loc 2 274 52 is_stmt 0
 5372 2690 13850400 		mv	a0,s1
 5373 2694 97000000 		call	_ZN16KObjectAllocator17allocateNewObjectEv@plt
 5373      E7800000 
 5374              	.LVL740:
 5375 269c 13090500 		mv	s2,a0
 275:src/kObjectAllocatorTest.cpp ****     if (getByteOfObject(objArr[6 * 8 + 3], objAlloc) != 6
 5376              		.loc 2 275 5 is_stmt 1
 275:src/kObjectAllocatorTest.cpp ****     if (getByteOfObject(objArr[6 * 8 + 3], objAlloc) != 6
 5377              		.loc 2 275 24 is_stmt 0
 5378 26a0 13860400 		mv	a2,s1
 5379 26a4 93050500 		mv	a1,a0
 5380 26a8 13850900 		mv	a0,s3
 5381 26ac 97000000 		call	_ZN20KObjectAllocatorTest15getByteOfObjectEPvP16KObjectAllocator
 5381      E7800000 
 5382              	.LVL741:
 276:src/kObjectAllocatorTest.cpp ****         || getBitOfObject(objArr[6 * 8 + 3], objAlloc) != 4)
 5383              		.loc 2 276 9
 5384 26b4 93076000 		li	a5,6
 5385 26b8 630EF500 		beq	a0,a5,.L378
 5386              	.L339:
 277:src/kObjectAllocatorTest.cpp ****     { delete objAlloc; return false; }
 5387              		.loc 2 277 7 is_stmt 1 discriminator 4
 277:src/kObjectAllocatorTest.cpp ****     { delete objAlloc; return false; }
 5388              		.loc 2 277 22 is_stmt 0 discriminator 4
 5389 26bc 63880400 		beqz	s1,.L342
 277:src/kObjectAllocatorTest.cpp ****     { delete objAlloc; return false; }
 5390              		.loc 2 277 14 discriminator 1
 5391 26c0 13850400 		mv	a0,s1
 5392 26c4 97000000 		call	_ZN16KObjectAllocatordlEPv
 5392      E7800000 
 5393              	.LVL742:
 5394              	.L342:
 277:src/kObjectAllocatorTest.cpp ****     { delete objAlloc; return false; }
 5395              		.loc 2 277 24 is_stmt 1 discriminator 2
 277:src/kObjectAllocatorTest.cpp ****     { delete objAlloc; return false; }
 5396              		.loc 2 277 31 is_stmt 0 discriminator 2
 5397 26cc 13050000 		li	a0,0
 5398 26d0 6FF09F8F 		j	.L361
 5399              	.L378:
 276:src/kObjectAllocatorTest.cpp ****         || getBitOfObject(objArr[6 * 8 + 3], objAlloc) != 4)
 5400              		.loc 2 276 26 discriminator 2
 5401 26d4 13860400 		mv	a2,s1
 5402 26d8 93050900 		mv	a1,s2
 5403 26dc 13850900 		mv	a0,s3
 5404 26e0 97000000 		call	_ZN20KObjectAllocatorTest14getBitOfObjectEPvP16KObjectAllocator
 5404      E7800000 
 5405              	.LVL743:
 276:src/kObjectAllocatorTest.cpp ****         || getBitOfObject(objArr[6 * 8 + 3], objAlloc) != 4)
 5406              		.loc 2 276 9 discriminator 2
 5407 26e8 93074000 		li	a5,4
GAS LISTING /tmp/ccKdsjgl.s 			page 135


 5408 26ec E318F5FC 		bne	a0,a5,.L339
 278:src/kObjectAllocatorTest.cpp ****     if (objAlloc->nextNonTakenByte != 6) { delete objAlloc; return false; }
 5409              		.loc 2 278 5 is_stmt 1
 278:src/kObjectAllocatorTest.cpp ****     if (objAlloc->nextNonTakenByte != 6) { delete objAlloc; return false; }
 5410              		.loc 2 278 19 is_stmt 0
 5411 26f0 03B78403 		ld	a4,56(s1)
 278:src/kObjectAllocatorTest.cpp ****     if (objAlloc->nextNonTakenByte != 6) { delete objAlloc; return false; }
 5412              		.loc 2 278 5
 5413 26f4 93076000 		li	a5,6
 5414 26f8 6314F70E 		bne	a4,a5,.L340
 5415              	.LBB419:
 280:src/kObjectAllocatorTest.cpp ****     for (int i = 0; i < 3; ++i) {
 5416              		.loc 2 280 14
 5417 26fc 930A0000 		li	s5,0
 5418              	.L341:
 5419              	.LVL744:
 280:src/kObjectAllocatorTest.cpp ****     for (int i = 0; i < 3; ++i) {
 5420              		.loc 2 280 23 is_stmt 1 discriminator 1
 5421 2700 93072000 		li	a5,2
 5422 2704 63CA5715 		bgt	s5,a5,.L344
 281:src/kObjectAllocatorTest.cpp ****         objAlloc->freeObject(objArr[319]);
 5423              		.loc 2 281 9
 281:src/kObjectAllocatorTest.cpp ****         objAlloc->freeObject(objArr[319]);
 5424              		.loc 2 281 29 is_stmt 0
 5425 2708 833584FB 		ld	a1,-72(s0)
 5426 270c 13850400 		mv	a0,s1
 5427 2710 97000000 		call	_ZN16KObjectAllocator10freeObjectEPv@plt
 5427      E7800000 
 5428              	.LVL745:
 282:src/kObjectAllocatorTest.cpp ****         objArr[319] = objAlloc->allocateNewObject();
 5429              		.loc 2 282 9 is_stmt 1
 282:src/kObjectAllocatorTest.cpp ****         objArr[319] = objAlloc->allocateNewObject();
 5430              		.loc 2 282 50 is_stmt 0
 5431 2718 13850400 		mv	a0,s1
 5432 271c 97000000 		call	_ZN16KObjectAllocator17allocateNewObjectEv@plt
 5432      E7800000 
 5433              	.LVL746:
 5434 2724 13090500 		mv	s2,a0
 282:src/kObjectAllocatorTest.cpp ****         objArr[319] = objAlloc->allocateNewObject();
 5435              		.loc 2 282 21
 5436 2728 233CA4FA 		sd	a0,-72(s0)
 283:src/kObjectAllocatorTest.cpp ****         if (getByteOfObject(objArr[319], objAlloc) != 39
 5437              		.loc 2 283 9 is_stmt 1
 283:src/kObjectAllocatorTest.cpp ****         if (getByteOfObject(objArr[319], objAlloc) != 39
 5438              		.loc 2 283 28 is_stmt 0
 5439 272c 13860400 		mv	a2,s1
 5440 2730 93050500 		mv	a1,a0
 5441 2734 13850900 		mv	a0,s3
 5442 2738 97000000 		call	_ZN20KObjectAllocatorTest15getByteOfObjectEPvP16KObjectAllocator
 5442      E7800000 
 5443              	.LVL747:
 284:src/kObjectAllocatorTest.cpp ****             || getBitOfObject(objArr[319], objAlloc) != 0)
 5444              		.loc 2 284 13
 5445 2740 93077002 		li	a5,39
 5446 2744 631AF50A 		bne	a0,a5,.L345
 284:src/kObjectAllocatorTest.cpp ****             || getBitOfObject(objArr[319], objAlloc) != 0)
 5447              		.loc 2 284 30 discriminator 2
GAS LISTING /tmp/ccKdsjgl.s 			page 136


 5448 2748 13860400 		mv	a2,s1
 5449 274c 93050900 		mv	a1,s2
 5450 2750 13850900 		mv	a0,s3
 5451 2754 97000000 		call	_ZN20KObjectAllocatorTest14getBitOfObjectEPvP16KObjectAllocator
 5451      E7800000 
 5452              	.LVL748:
 284:src/kObjectAllocatorTest.cpp ****             || getBitOfObject(objArr[319], objAlloc) != 0)
 5453              		.loc 2 284 13 discriminator 2
 5454 275c 631E0508 		bnez	a0,.L345
 286:src/kObjectAllocatorTest.cpp ****         if (objAlloc->nextNonTakenByte != 40) { delete objAlloc; return false; }
 5455              		.loc 2 286 9 is_stmt 1
 286:src/kObjectAllocatorTest.cpp ****         if (objAlloc->nextNonTakenByte != 40) { delete objAlloc; return false; }
 5456              		.loc 2 286 23 is_stmt 0
 5457 2760 03B78403 		ld	a4,56(s1)
 286:src/kObjectAllocatorTest.cpp ****         if (objAlloc->nextNonTakenByte != 40) { delete objAlloc; return false; }
 5458              		.loc 2 286 9
 5459 2764 93078002 		li	a5,40
 5460 2768 6314F70A 		bne	a4,a5,.L379
 288:src/kObjectAllocatorTest.cpp ****         objAlloc->freeObject(objArr[1]);
 5461              		.loc 2 288 9 is_stmt 1
 288:src/kObjectAllocatorTest.cpp ****         objAlloc->freeObject(objArr[1]);
 5462              		.loc 2 288 29 is_stmt 0
 5463 276c 37FAFFFF 		li	s4,-4096
 5464 2770 930704FC 		addi	a5,s0,-64
 5465 2774 338A4701 		add	s4,a5,s4
 5466 2778 83358A60 		ld	a1,1544(s4)
 5467 277c 13850400 		mv	a0,s1
 5468 2780 97000000 		call	_ZN16KObjectAllocator10freeObjectEPv@plt
 5468      E7800000 
 5469              	.LVL749:
 289:src/kObjectAllocatorTest.cpp ****         objArr[1] = objAlloc->allocateNewObject();
 5470              		.loc 2 289 9 is_stmt 1
 289:src/kObjectAllocatorTest.cpp ****         objArr[1] = objAlloc->allocateNewObject();
 5471              		.loc 2 289 48 is_stmt 0
 5472 2788 13850400 		mv	a0,s1
 5473 278c 97000000 		call	_ZN16KObjectAllocator17allocateNewObjectEv@plt
 5473      E7800000 
 5474              	.LVL750:
 5475 2794 13090500 		mv	s2,a0
 289:src/kObjectAllocatorTest.cpp ****         objArr[1] = objAlloc->allocateNewObject();
 5476              		.loc 2 289 19
 5477 2798 2334AA60 		sd	a0,1544(s4)
 290:src/kObjectAllocatorTest.cpp ****         if (getByteOfObject(objArr[1], objAlloc) != 0
 5478              		.loc 2 290 9 is_stmt 1
 290:src/kObjectAllocatorTest.cpp ****         if (getByteOfObject(objArr[1], objAlloc) != 0
 5479              		.loc 2 290 28 is_stmt 0
 5480 279c 13860400 		mv	a2,s1
 5481 27a0 93050500 		mv	a1,a0
 5482 27a4 13850900 		mv	a0,s3
 5483 27a8 97000000 		call	_ZN20KObjectAllocatorTest15getByteOfObjectEPvP16KObjectAllocator
 5483      E7800000 
 5484              	.LVL751:
 291:src/kObjectAllocatorTest.cpp ****             || getBitOfObject(objArr[1], objAlloc) != 6)
 5485              		.loc 2 291 13
 5486 27b0 631C0506 		bnez	a0,.L350
 291:src/kObjectAllocatorTest.cpp ****             || getBitOfObject(objArr[1], objAlloc) != 6)
 5487              		.loc 2 291 30 discriminator 2
GAS LISTING /tmp/ccKdsjgl.s 			page 137


 5488 27b4 13860400 		mv	a2,s1
 5489 27b8 93050900 		mv	a1,s2
 5490 27bc 13850900 		mv	a0,s3
 5491 27c0 97000000 		call	_ZN20KObjectAllocatorTest14getBitOfObjectEPvP16KObjectAllocator
 5491      E7800000 
 5492              	.LVL752:
 291:src/kObjectAllocatorTest.cpp ****             || getBitOfObject(objArr[1], objAlloc) != 6)
 5493              		.loc 2 291 13 discriminator 2
 5494 27c8 93076000 		li	a5,6
 5495 27cc 631EF504 		bne	a0,a5,.L350
 293:src/kObjectAllocatorTest.cpp ****         if (objAlloc->nextNonTakenByte != 0) { delete objAlloc; return false; }
 5496              		.loc 2 293 9 is_stmt 1
 293:src/kObjectAllocatorTest.cpp ****         if (objAlloc->nextNonTakenByte != 0) { delete objAlloc; return false; }
 5497              		.loc 2 293 23 is_stmt 0
 5498 27d0 83B78403 		ld	a5,56(s1)
 293:src/kObjectAllocatorTest.cpp ****         if (objAlloc->nextNonTakenByte != 0) { delete objAlloc; return false; }
 5499              		.loc 2 293 9
 5500 27d4 63960706 		bnez	a5,.L380
 280:src/kObjectAllocatorTest.cpp ****     for (int i = 0; i < 3; ++i) {
 5501              		.loc 2 280 5 is_stmt 1 discriminator 2
 5502 27d8 9B8A1A00 		addiw	s5,s5,1
 5503              	.LVL753:
 5504 27dc 6FF05FF2 		j	.L341
 5505              	.L340:
 5506              	.LBE419:
 278:src/kObjectAllocatorTest.cpp ****     if (objAlloc->nextNonTakenByte != 6) { delete objAlloc; return false; }
 5507              		.loc 2 278 44 discriminator 1
 278:src/kObjectAllocatorTest.cpp ****     if (objAlloc->nextNonTakenByte != 6) { delete objAlloc; return false; }
 5508              		.loc 2 278 59 is_stmt 0 discriminator 1
 5509 27e0 63880400 		beqz	s1,.L343
 278:src/kObjectAllocatorTest.cpp ****     if (objAlloc->nextNonTakenByte != 6) { delete objAlloc; return false; }
 5510              		.loc 2 278 51 discriminator 2
 5511 27e4 13850400 		mv	a0,s1
 5512 27e8 97000000 		call	_ZN16KObjectAllocatordlEPv
 5512      E7800000 
 5513              	.LVL754:
 5514              	.L343:
 278:src/kObjectAllocatorTest.cpp ****     if (objAlloc->nextNonTakenByte != 6) { delete objAlloc; return false; }
 5515              		.loc 2 278 61 is_stmt 1 discriminator 3
 278:src/kObjectAllocatorTest.cpp ****     if (objAlloc->nextNonTakenByte != 6) { delete objAlloc; return false; }
 5516              		.loc 2 278 68 is_stmt 0 discriminator 3
 5517 27f0 13050000 		li	a0,0
 5518 27f4 6FF04FFD 		j	.L361
 5519              	.LVL755:
 5520              	.L345:
 5521              	.LBB420:
 285:src/kObjectAllocatorTest.cpp ****         { delete objAlloc; return false; }
 5522              		.loc 2 285 11 is_stmt 1 discriminator 4
 285:src/kObjectAllocatorTest.cpp ****         { delete objAlloc; return false; }
 5523              		.loc 2 285 26 is_stmt 0 discriminator 4
 5524 27f8 63880400 		beqz	s1,.L348
 285:src/kObjectAllocatorTest.cpp ****         { delete objAlloc; return false; }
 5525              		.loc 2 285 18 discriminator 1
 5526 27fc 13850400 		mv	a0,s1
 5527 2800 97000000 		call	_ZN16KObjectAllocatordlEPv
 5527      E7800000 
 5528              	.LVL756:
GAS LISTING /tmp/ccKdsjgl.s 			page 138


 5529              	.L348:
 285:src/kObjectAllocatorTest.cpp ****         { delete objAlloc; return false; }
 5530              		.loc 2 285 28 is_stmt 1 discriminator 2
 285:src/kObjectAllocatorTest.cpp ****         { delete objAlloc; return false; }
 5531              		.loc 2 285 35 is_stmt 0 discriminator 2
 5532 2808 13050000 		li	a0,0
 5533 280c 6FF0CFFB 		j	.L361
 5534              	.L379:
 286:src/kObjectAllocatorTest.cpp ****         if (objAlloc->nextNonTakenByte != 40) { delete objAlloc; return false; }
 5535              		.loc 2 286 49 is_stmt 1 discriminator 1
 286:src/kObjectAllocatorTest.cpp ****         if (objAlloc->nextNonTakenByte != 40) { delete objAlloc; return false; }
 5536              		.loc 2 286 64 is_stmt 0 discriminator 1
 5537 2810 63880400 		beqz	s1,.L349
 286:src/kObjectAllocatorTest.cpp ****         if (objAlloc->nextNonTakenByte != 40) { delete objAlloc; return false; }
 5538              		.loc 2 286 56 discriminator 2
 5539 2814 13850400 		mv	a0,s1
 5540 2818 97000000 		call	_ZN16KObjectAllocatordlEPv
 5540      E7800000 
 5541              	.LVL757:
 5542              	.L349:
 286:src/kObjectAllocatorTest.cpp ****         if (objAlloc->nextNonTakenByte != 40) { delete objAlloc; return false; }
 5543              		.loc 2 286 66 is_stmt 1 discriminator 3
 286:src/kObjectAllocatorTest.cpp ****         if (objAlloc->nextNonTakenByte != 40) { delete objAlloc; return false; }
 5544              		.loc 2 286 73 is_stmt 0 discriminator 3
 5545 2820 13050000 		li	a0,0
 5546 2824 6FF04FFA 		j	.L361
 5547              	.L350:
 292:src/kObjectAllocatorTest.cpp ****         { delete objAlloc; return false; }
 5548              		.loc 2 292 11 is_stmt 1 discriminator 4
 292:src/kObjectAllocatorTest.cpp ****         { delete objAlloc; return false; }
 5549              		.loc 2 292 26 is_stmt 0 discriminator 4
 5550 2828 63880400 		beqz	s1,.L353
 292:src/kObjectAllocatorTest.cpp ****         { delete objAlloc; return false; }
 5551              		.loc 2 292 18 discriminator 1
 5552 282c 13850400 		mv	a0,s1
 5553 2830 97000000 		call	_ZN16KObjectAllocatordlEPv
 5553      E7800000 
 5554              	.LVL758:
 5555              	.L353:
 292:src/kObjectAllocatorTest.cpp ****         { delete objAlloc; return false; }
 5556              		.loc 2 292 28 is_stmt 1 discriminator 2
 292:src/kObjectAllocatorTest.cpp ****         { delete objAlloc; return false; }
 5557              		.loc 2 292 35 is_stmt 0 discriminator 2
 5558 2838 13050000 		li	a0,0
 5559 283c 6FF0CFF8 		j	.L361
 5560              	.L380:
 293:src/kObjectAllocatorTest.cpp ****         if (objAlloc->nextNonTakenByte != 0) { delete objAlloc; return false; }
 5561              		.loc 2 293 48 is_stmt 1 discriminator 1
 293:src/kObjectAllocatorTest.cpp ****         if (objAlloc->nextNonTakenByte != 0) { delete objAlloc; return false; }
 5562              		.loc 2 293 63 is_stmt 0 discriminator 1
 5563 2840 63880400 		beqz	s1,.L354
 293:src/kObjectAllocatorTest.cpp ****         if (objAlloc->nextNonTakenByte != 0) { delete objAlloc; return false; }
 5564              		.loc 2 293 55 discriminator 2
 5565 2844 13850400 		mv	a0,s1
 5566 2848 97000000 		call	_ZN16KObjectAllocatordlEPv
 5566      E7800000 
 5567              	.LVL759:
GAS LISTING /tmp/ccKdsjgl.s 			page 139


 5568              	.L354:
 293:src/kObjectAllocatorTest.cpp ****         if (objAlloc->nextNonTakenByte != 0) { delete objAlloc; return false; }
 5569              		.loc 2 293 65 is_stmt 1 discriminator 3
 293:src/kObjectAllocatorTest.cpp ****         if (objAlloc->nextNonTakenByte != 0) { delete objAlloc; return false; }
 5570              		.loc 2 293 72 is_stmt 0 discriminator 3
 5571 2850 13050000 		li	a0,0
 5572 2854 6FF04FF7 		j	.L361
 5573              	.L344:
 5574              	.LBE420:
 295:src/kObjectAllocatorTest.cpp ****     delete objAlloc;
 5575              		.loc 2 295 5 is_stmt 1
 295:src/kObjectAllocatorTest.cpp ****     delete objAlloc;
 5576              		.loc 2 295 20 is_stmt 0
 5577 2858 638C0400 		beqz	s1,.L359
 295:src/kObjectAllocatorTest.cpp ****     delete objAlloc;
 5578              		.loc 2 295 12 discriminator 1
 5579 285c 13850400 		mv	a0,s1
 5580 2860 97000000 		call	_ZN16KObjectAllocatordlEPv
 5580      E7800000 
 5581              	.LVL760:
 5582              	.LEHE14:
 296:src/kObjectAllocatorTest.cpp ****     return true;
 5583              		.loc 2 296 12 discriminator 1
 5584 2868 13051000 		li	a0,1
 5585 286c 6FF0CFF5 		j	.L361
 5586              	.L359:
 296:src/kObjectAllocatorTest.cpp ****     return true;
 5587              		.loc 2 296 12
 5588 2870 13051000 		li	a0,1
 5589 2874 6FF04FF5 		j	.L361
 5590              	.LVL761:
 5591              	.L360:
 5592 2878 13090500 		mv	s2,a0
 5593              	.LVL762:
 220:src/kObjectAllocatorTest.cpp ****     KObjectAllocator* objAlloc = new KObjectAllocator(size, 5);
 5594              		.loc 2 220 62
 5595 287c 13850400 		mv	a0,s1
 5596 2880 97000000 		call	_ZN16KObjectAllocatordlEPv
 5596      E7800000 
 5597              	.LVL763:
 5598 2888 13050900 		mv	a0,s2
 5599              	.LEHB15:
 5600 288c 97000000 		call	_Unwind_Resume@plt
 5600      E7800000 
 5601              	.LVL764:
 5602              	.LEHE15:
 5603              		.cfi_endproc
 5604              	.LFE30:
 5605              		.section	.gcc_except_table
 5606              	.LLSDA30:
 5607 00a8 FF       		.byte	0xff
 5608 00a9 FF       		.byte	0xff
 5609 00aa 03       		.byte	0x3
 5610 00ab 34       		.byte	0x34
 5611 00ac 00000000 		.4byte	.LEHB12-.LFB30
 5612 00b0 00000000 		.4byte	.LEHE12-.LEHB12
 5613 00b4 00000000 		.4byte	0
GAS LISTING /tmp/ccKdsjgl.s 			page 140


 5614 00b8 00       		.byte	0
 5615 00b9 00000000 		.4byte	.LEHB13-.LFB30
 5616 00bd 00000000 		.4byte	.LEHE13-.LEHB13
 5617 00c1 00000000 		.4byte	.L360-.LFB30
 5618 00c5 00       		.byte	0
 5619 00c6 00000000 		.4byte	.LEHB14-.LFB30
 5620 00ca 00000000 		.4byte	.LEHE14-.LEHB14
 5621 00ce 00000000 		.4byte	0
 5622 00d2 00       		.byte	0
 5623 00d3 00000000 		.4byte	.LEHB15-.LFB30
 5624 00d7 00000000 		.4byte	.LEHE15-.LEHB15
 5625 00db 00000000 		.4byte	0
 5626 00df 00       		.byte	0
 5627              		.text
 5629              		.align	2
 5630              		.globl	_ZN20KObjectAllocatorTest4testEmm
 5632              	_ZN20KObjectAllocatorTest4testEmm:
 5633              	.LFB22:
  16:src/kObjectAllocatorTest.cpp **** bool KObjectAllocatorTest::test(size_t i, size_t size) {
 5634              		.loc 2 16 56 is_stmt 1
 5635              		.cfi_startproc
 5636              	.LVL765:
 5637 2894 130101FF 		addi	sp,sp,-16
 5638              		.cfi_def_cfa_offset 16
 5639 2898 23341100 		sd	ra,8(sp)
 5640 289c 23308100 		sd	s0,0(sp)
 5641              		.cfi_offset 1, -8
 5642              		.cfi_offset 8, -16
 5643 28a0 13040101 		addi	s0,sp,16
 5644              		.cfi_def_cfa 8, 0
 5645 28a4 93870500 		mv	a5,a1
 5646 28a8 93050600 		mv	a1,a2
 5647              	.LVL766:
  17:src/kObjectAllocatorTest.cpp ****     switch (i) {
 5648              		.loc 2 17 5
 5649 28ac 13072000 		li	a4,2
 5650 28b0 638EE704 		beq	a5,a4,.L382
 5651 28b4 6362F702 		bgtu	a5,a4,.L383
 5652 28b8 63840704 		beqz	a5,.L384
 5653 28bc 13071000 		li	a4,1
 5654 28c0 6398E700 		bne	a5,a4,.L389
  18:src/kObjectAllocatorTest.cpp ****         case 0: return test0(size); break;
 5655              		.loc 2 18 37
  19:src/kObjectAllocatorTest.cpp ****         case 1: return test1(size); break;
 5656              		.loc 2 19 9
  19:src/kObjectAllocatorTest.cpp ****         case 1: return test1(size); break;
 5657              		.loc 2 19 17
  19:src/kObjectAllocatorTest.cpp ****         case 1: return test1(size); break;
 5658              		.loc 2 19 29 is_stmt 0
 5659 28c4 97000000 		call	_ZN20KObjectAllocatorTest5test1Em
 5659      E7800000 
 5660              	.LVL767:
  19:src/kObjectAllocatorTest.cpp ****         case 1: return test1(size); break;
 5661              		.loc 2 19 34
 5662 28cc 6F004002 		j	.L386
 5663              	.LVL768:
 5664              	.L389:
GAS LISTING /tmp/ccKdsjgl.s 			page 141


  17:src/kObjectAllocatorTest.cpp ****     switch (i) {
 5665              		.loc 2 17 5
 5666 28d0 13050000 		li	a0,0
 5667              	.LVL769:
 5668 28d4 6F00C001 		j	.L386
 5669              	.LVL770:
 5670              	.L383:
 5671 28d8 13073000 		li	a4,3
 5672 28dc 6398E700 		bne	a5,a4,.L390
  20:src/kObjectAllocatorTest.cpp ****         case 2: return test2(size); break;
 5673              		.loc 2 20 37 is_stmt 1
  21:src/kObjectAllocatorTest.cpp ****         case 3: return test3(size); break;
 5674              		.loc 2 21 9
  21:src/kObjectAllocatorTest.cpp ****         case 3: return test3(size); break;
 5675              		.loc 2 21 17
  21:src/kObjectAllocatorTest.cpp ****         case 3: return test3(size); break;
 5676              		.loc 2 21 29 is_stmt 0
 5677 28e0 97000000 		call	_ZN20KObjectAllocatorTest5test3Em
 5677      E7800000 
 5678              	.LVL771:
  21:src/kObjectAllocatorTest.cpp ****         case 3: return test3(size); break;
 5679              		.loc 2 21 34
 5680 28e8 6F008000 		j	.L386
 5681              	.LVL772:
 5682              	.L390:
  17:src/kObjectAllocatorTest.cpp ****     switch (i) {
 5683              		.loc 2 17 5
 5684 28ec 13050000 		li	a0,0
 5685              	.LVL773:
 5686              	.L386:
  25:src/kObjectAllocatorTest.cpp **** }
 5687              		.loc 2 25 1
 5688 28f0 83308100 		ld	ra,8(sp)
 5689              		.cfi_remember_state
 5690              		.cfi_restore 1
 5691 28f4 03340100 		ld	s0,0(sp)
 5692              		.cfi_restore 8
 5693              		.cfi_def_cfa 2, 16
 5694 28f8 13010101 		addi	sp,sp,16
 5695              		.cfi_def_cfa_offset 0
 5696 28fc 67800000 		jr	ra
 5697              	.LVL774:
 5698              	.L384:
 5699              		.cfi_restore_state
  18:src/kObjectAllocatorTest.cpp ****         case 0: return test0(size); break;
 5700              		.loc 2 18 9 is_stmt 1
  18:src/kObjectAllocatorTest.cpp ****         case 0: return test0(size); break;
 5701              		.loc 2 18 17
  18:src/kObjectAllocatorTest.cpp ****         case 0: return test0(size); break;
 5702              		.loc 2 18 29 is_stmt 0
 5703 2900 97000000 		call	_ZN20KObjectAllocatorTest5test0Em
 5703      E7800000 
 5704              	.LVL775:
  18:src/kObjectAllocatorTest.cpp ****         case 0: return test0(size); break;
 5705              		.loc 2 18 34
 5706 2908 6FF09FFE 		j	.L386
 5707              	.LVL776:
GAS LISTING /tmp/ccKdsjgl.s 			page 142


 5708              	.L382:
  19:src/kObjectAllocatorTest.cpp ****         case 1: return test1(size); break;
 5709              		.loc 2 19 37 is_stmt 1
  20:src/kObjectAllocatorTest.cpp ****         case 2: return test2(size); break;
 5710              		.loc 2 20 9
  20:src/kObjectAllocatorTest.cpp ****         case 2: return test2(size); break;
 5711              		.loc 2 20 17
  20:src/kObjectAllocatorTest.cpp ****         case 2: return test2(size); break;
 5712              		.loc 2 20 29 is_stmt 0
 5713 290c 97000000 		call	_ZN20KObjectAllocatorTest5test2Em
 5713      E7800000 
 5714              	.LVL777:
  20:src/kObjectAllocatorTest.cpp ****         case 2: return test2(size); break;
 5715              		.loc 2 20 34
 5716 2914 6FF0DFFD 		j	.L386
 5717              		.cfi_endproc
 5718              	.LFE22:
 5720              		.section	.rodata.str1.8
 5721 0097 00       		.align	3
 5722              	.LC8:
 5723 0098 4661696C 		.string	"Failed KObjectAllocator test "
 5723      6564204B 
 5723      4F626A65 
 5723      6374416C 
 5723      6C6F6361 
 5724 00b6 0000     		.align	3
 5725              	.LC9:
 5726 00b8 50617373 		.string	"Passed "
 5726      65642000 
 5727              		.text
 5728              		.align	2
 5729              		.globl	_ZN20KObjectAllocatorTest8runTestsEv
 5731              	_ZN20KObjectAllocatorTest8runTestsEv:
 5732              	.LFB21:
   4:src/kObjectAllocatorTest.cpp **** bool KObjectAllocatorTest::runTests() {
 5733              		.loc 2 4 39 is_stmt 1
 5734              		.cfi_startproc
 5735              	.LVL778:
 5736 2918 130101FC 		addi	sp,sp,-64
 5737              		.cfi_def_cfa_offset 64
 5738 291c 233C1102 		sd	ra,56(sp)
 5739 2920 23388102 		sd	s0,48(sp)
 5740 2924 23349102 		sd	s1,40(sp)
 5741 2928 23302103 		sd	s2,32(sp)
 5742 292c 233C3101 		sd	s3,24(sp)
 5743 2930 23384101 		sd	s4,16(sp)
 5744 2934 23345101 		sd	s5,8(sp)
 5745 2938 23306101 		sd	s6,0(sp)
 5746              		.cfi_offset 1, -8
 5747              		.cfi_offset 8, -16
 5748              		.cfi_offset 9, -24
 5749              		.cfi_offset 18, -32
 5750              		.cfi_offset 19, -40
 5751              		.cfi_offset 20, -48
 5752              		.cfi_offset 21, -56
 5753              		.cfi_offset 22, -64
 5754 293c 13040104 		addi	s0,sp,64
GAS LISTING /tmp/ccKdsjgl.s 			page 143


 5755              		.cfi_def_cfa 8, 0
 5756 2940 93090500 		mv	s3,a0
   5:src/kObjectAllocatorTest.cpp ****     for (size_t size : sizes)
 5757              		.loc 2 5 5
 5758              	.LBB421:
   5:src/kObjectAllocatorTest.cpp ****     for (size_t size : sizes)
 5759              		.loc 2 5 24 is_stmt 0
 5760 2944 930A8500 		addi	s5,a0,8
 5761              	.LVL779:
 5762 2948 130B0504 		addi	s6,a0,64
 5763              	.LVL780:
 5764              	.L397:
   5:src/kObjectAllocatorTest.cpp ****     for (size_t size : sizes)
 5765              		.loc 2 5 24 is_stmt 1 discriminator 1
 5766 294c 63886A0D 		beq	s5,s6,.L398
 5767              	.LBB422:
   5:src/kObjectAllocatorTest.cpp ****     for (size_t size : sizes)
 5768              		.loc 2 5 17 is_stmt 0 discriminator 2
 5769 2950 03BA0A00 		ld	s4,0(s5)
 5770              	.LVL781:
   6:src/kObjectAllocatorTest.cpp ****     for (size_t i = 0; i < numberOfTests; ++i) {
 5771              		.loc 2 6 5 is_stmt 1 discriminator 2
 5772              	.LBB423:
   6:src/kObjectAllocatorTest.cpp ****     for (size_t i = 0; i < numberOfTests; ++i) {
 5773              		.loc 2 6 17 is_stmt 0 discriminator 2
 5774 2954 93040000 		li	s1,0
 5775 2958 6F000007 		j	.L396
 5776              	.LVL782:
 5777              	.L400:
   8:src/kObjectAllocatorTest.cpp ****             printString("Failed KObjectAllocator test ");
 5778              		.loc 2 8 13 is_stmt 1
   8:src/kObjectAllocatorTest.cpp ****             printString("Failed KObjectAllocator test ");
 5779              		.loc 2 8 24 is_stmt 0
 5780 295c 17050000 		lla	a0,.LC8
 5780      13050500 
 5781 2964 97000000 		call	_Z11printStringPKc@plt
 5781      E7800000 
 5782              	.LVL783:
   9:src/kObjectAllocatorTest.cpp ****             printInteger(i); printString("\n"); return false;
 5783              		.loc 2 9 13 is_stmt 1
   9:src/kObjectAllocatorTest.cpp ****             printInteger(i); printString("\n"); return false;
 5784              		.loc 2 9 25 is_stmt 0
 5785 296c 13850400 		mv	a0,s1
 5786 2970 97000000 		call	_Z12printIntegerm@plt
 5786      E7800000 
 5787              	.LVL784:
   9:src/kObjectAllocatorTest.cpp ****             printInteger(i); printString("\n"); return false;
 5788              		.loc 2 9 30 is_stmt 1
   9:src/kObjectAllocatorTest.cpp ****             printInteger(i); printString("\n"); return false;
 5789              		.loc 2 9 41 is_stmt 0
 5790 2978 17050000 		lla	a0,.LC3
 5790      13050500 
 5791 2980 97000000 		call	_Z11printStringPKc@plt
 5791      E7800000 
 5792              	.LVL785:
   9:src/kObjectAllocatorTest.cpp ****             printInteger(i); printString("\n"); return false;
 5793              		.loc 2 9 49 is_stmt 1
GAS LISTING /tmp/ccKdsjgl.s 			page 144


 5794              	.L392:
 5795              	.LBE423:
 5796              	.LBE422:
 5797              	.LBE421:
  14:src/kObjectAllocatorTest.cpp **** }
 5798              		.loc 2 14 1 is_stmt 0
 5799 2988 13050900 		mv	a0,s2
 5800 298c 83308103 		ld	ra,56(sp)
 5801              		.cfi_remember_state
 5802              		.cfi_restore 1
 5803 2990 03340103 		ld	s0,48(sp)
 5804              		.cfi_restore 8
 5805              		.cfi_def_cfa 2, 64
 5806 2994 83348102 		ld	s1,40(sp)
 5807              		.cfi_restore 9
 5808 2998 03390102 		ld	s2,32(sp)
 5809              		.cfi_restore 18
 5810 299c 83398101 		ld	s3,24(sp)
 5811              		.cfi_restore 19
 5812              	.LVL786:
 5813 29a0 033A0101 		ld	s4,16(sp)
 5814              		.cfi_restore 20
 5815 29a4 833A8100 		ld	s5,8(sp)
 5816              		.cfi_restore 21
 5817              	.LVL787:
 5818 29a8 033B0100 		ld	s6,0(sp)
 5819              		.cfi_restore 22
 5820              	.LVL788:
 5821 29ac 13010104 		addi	sp,sp,64
 5822              		.cfi_def_cfa_offset 0
 5823 29b0 67800000 		jr	ra
 5824              	.LVL789:
 5825              	.L401:
 5826              		.cfi_restore_state
 5827              	.LBB426:
 5828              	.LBB425:
 5829              	.LBB424:
  11:src/kObjectAllocatorTest.cpp ****         if (i != 0 && (i + 1) % 10 == 0) printString("\n");
 5830              		.loc 2 11 42 is_stmt 1 discriminator 2
  11:src/kObjectAllocatorTest.cpp ****         if (i != 0 && (i + 1) % 10 == 0) printString("\n");
 5831              		.loc 2 11 53 is_stmt 0 discriminator 2
 5832 29b4 17050000 		lla	a0,.LC3
 5832      13050500 
 5833 29bc 97000000 		call	_Z11printStringPKc@plt
 5833      E7800000 
 5834              	.LVL790:
 5835              	.L395:
   6:src/kObjectAllocatorTest.cpp ****     for (size_t i = 0; i < numberOfTests; ++i) {
 5836              		.loc 2 6 5 is_stmt 1 discriminator 2
 5837 29c4 93841400 		addi	s1,s1,1
 5838              	.LVL791:
 5839              	.L396:
   6:src/kObjectAllocatorTest.cpp ****     for (size_t i = 0; i < numberOfTests; ++i) {
 5840              		.loc 2 6 26 discriminator 1
   6:src/kObjectAllocatorTest.cpp ****     for (size_t i = 0; i < numberOfTests; ++i) {
 5841              		.loc 2 6 28 is_stmt 0 discriminator 1
 5842 29c8 83B70900 		ld	a5,0(s3)
GAS LISTING /tmp/ccKdsjgl.s 			page 145


   6:src/kObjectAllocatorTest.cpp ****     for (size_t i = 0; i < numberOfTests; ++i) {
 5843              		.loc 2 6 26 discriminator 1
 5844 29cc 63F4F404 		bleu	a5,s1,.L393
   7:src/kObjectAllocatorTest.cpp ****         if (!test(i, size)) {
 5845              		.loc 2 7 9 is_stmt 1
   7:src/kObjectAllocatorTest.cpp ****         if (!test(i, size)) {
 5846              		.loc 2 7 18 is_stmt 0
 5847 29d0 13060A00 		mv	a2,s4
 5848 29d4 93850400 		mv	a1,s1
 5849 29d8 13850900 		mv	a0,s3
 5850 29dc 97000000 		call	_ZN20KObjectAllocatorTest4testEmm
 5850      E7800000 
 5851              	.LVL792:
 5852 29e4 13090500 		mv	s2,a0
   7:src/kObjectAllocatorTest.cpp ****         if (!test(i, size)) {
 5853              		.loc 2 7 9
 5854 29e8 E30A05F6 		beqz	a0,.L400
  10:src/kObjectAllocatorTest.cpp ****         } else printString("Passed ");
 5855              		.loc 2 10 16 is_stmt 1
  10:src/kObjectAllocatorTest.cpp ****         } else printString("Passed ");
 5856              		.loc 2 10 27 is_stmt 0
 5857 29ec 17050000 		lla	a0,.LC9
 5857      13050500 
 5858 29f4 97000000 		call	_Z11printStringPKc@plt
 5858      E7800000 
 5859              	.LVL793:
  11:src/kObjectAllocatorTest.cpp ****         if (i != 0 && (i + 1) % 10 == 0) printString("\n");
 5860              		.loc 2 11 9 is_stmt 1
 5861 29fc E38404FC 		beqz	s1,.L395
  11:src/kObjectAllocatorTest.cpp ****         if (i != 0 && (i + 1) % 10 == 0) printString("\n");
 5862              		.loc 2 11 26 is_stmt 0 discriminator 1
 5863 2a00 93871400 		addi	a5,s1,1
  11:src/kObjectAllocatorTest.cpp ****         if (i != 0 && (i + 1) % 10 == 0) printString("\n");
 5864              		.loc 2 11 31 discriminator 1
 5865 2a04 1307A000 		li	a4,10
 5866 2a08 B3F7E702 		remu	a5,a5,a4
  11:src/kObjectAllocatorTest.cpp ****         if (i != 0 && (i + 1) % 10 == 0) printString("\n");
 5867              		.loc 2 11 20 discriminator 1
 5868 2a0c E39C07FA 		bnez	a5,.L395
 5869 2a10 6FF05FFA 		j	.L401
 5870              	.L393:
 5871              	.LBE424:
 5872              	.LBE425:
   5:src/kObjectAllocatorTest.cpp ****     for (size_t size : sizes)
 5873              		.loc 2 5 5 is_stmt 1 discriminator 3
 5874 2a14 938A8A00 		addi	s5,s5,8
 5875              	.LVL794:
 5876 2a18 6FF05FF3 		j	.L397
 5877              	.LVL795:
 5878              	.L398:
 5879              	.LBE426:
  13:src/kObjectAllocatorTest.cpp ****     return true;
 5880              		.loc 2 13 12 is_stmt 0
 5881 2a1c 13091000 		li	s2,1
 5882 2a20 6FF09FF6 		j	.L392
 5883              		.cfi_endproc
 5884              	.LFE21:
GAS LISTING /tmp/ccKdsjgl.s 			page 146


 5886              		.section	.rodata
 5887              		.align	3
 5888              		.set	.LANCHOR0,. + 0
 5889              	.LC0:
 5890 0000 01       		.byte	1
 5891 0001 01       		.byte	1
 5892 0002 01       		.byte	1
 5893 0003 01       		.byte	1
 5894 0004 00       		.byte	0
 5895 0005 01       		.byte	1
 5896 0006 01       		.byte	1
 5897 0007 00       		.byte	0
 5898 0008 01       		.byte	1
 5899 0009 01       		.byte	1
 5900 000a 00       		.byte	0
 5901 000b 00       		.byte	0
 5902 000c 00       		.byte	0
 5903 000d 00       		.byte	0
 5904 000e 00       		.byte	0
 5905 000f 00       		.byte	0
 5906              		.text
 5907              	.Letext0:
 5908              		.file 3 "src/../h/../lib/hw.h"
 5909              		.file 4 "src/../h/memoryAllocator.hpp"
 5910              		.file 5 "src/../h/kObjectAllocatorTest.hpp"
 5911              		.file 6 "src/../h/print.hpp"
 16048              		.align	3
 16051              	DW.ref.__gxx_personality_v0:
 16052 0000 00000000 		.dword	__gxx_personality_v0
 16052      00000000 
 16053              		.ident	"GCC: (Ubuntu 9.4.0-1ubuntu1~20.04) 9.4.0"
 16054              		.section	.note.GNU-stack,"",@progbits
GAS LISTING /tmp/ccKdsjgl.s 			page 147


DEFINED SYMBOLS
                            *ABS*:0000000000000000 kObjectAllocatorTest.cpp
     /tmp/ccKdsjgl.s:10     .text._ZN16KObjectAllocatordlEPv:0000000000000000 _ZN16KObjectAllocatordlEPv
     /tmp/ccKdsjgl.s:14     .text._ZN16KObjectAllocatordlEPv:0000000000000000 .L0 
     /tmp/ccKdsjgl.s:16     .text._ZN16KObjectAllocatordlEPv:0000000000000000 .L0 
     /tmp/ccKdsjgl.s:17     .text._ZN16KObjectAllocatordlEPv:0000000000000004 .L0 
     /tmp/ccKdsjgl.s:22     .text._ZN16KObjectAllocatordlEPv:0000000000000014 .L0 
     /tmp/ccKdsjgl.s:23     .text._ZN16KObjectAllocatordlEPv:0000000000000014 .L0 
     /tmp/ccKdsjgl.s:24     .text._ZN16KObjectAllocatordlEPv:0000000000000014 .L0 
     /tmp/ccKdsjgl.s:25     .text._ZN16KObjectAllocatordlEPv:0000000000000014 .L0 
     /tmp/ccKdsjgl.s:27     .text._ZN16KObjectAllocatordlEPv:0000000000000018 .L0 
     /tmp/ccKdsjgl.s:32     .text._ZN16KObjectAllocatordlEPv:000000000000001c .L0 
     /tmp/ccKdsjgl.s:33     .text._ZN16KObjectAllocatordlEPv:000000000000001c .L0 
     /tmp/ccKdsjgl.s:37     .text._ZN16KObjectAllocatordlEPv:0000000000000020 .L0 
     /tmp/ccKdsjgl.s:38     .text._ZN16KObjectAllocatordlEPv:0000000000000020 .L0 
     /tmp/ccKdsjgl.s:40     .text._ZN16KObjectAllocatordlEPv:0000000000000024 .L0 
     /tmp/ccKdsjgl.s:42     .text._ZN16KObjectAllocatordlEPv:0000000000000028 .L0 
     /tmp/ccKdsjgl.s:43     .text._ZN16KObjectAllocatordlEPv:0000000000000028 .L0 
     /tmp/ccKdsjgl.s:46     .text._ZN16KObjectAllocatordlEPv:0000000000000030 .L0 
     /tmp/ccKdsjgl.s:48     .text._ZN16KObjectAllocatordlEPv:0000000000000034 .L0 
     /tmp/ccKdsjgl.s:51     .text._ZN16KObjectAllocatordlEPv:000000000000003c .L0 
     /tmp/ccKdsjgl.s:55     .text._ZN16KObjectAllocatordlEPv:0000000000000048 .L0 
     /tmp/ccKdsjgl.s:61     .text._ZN16KObjectAllocatordlEPv:0000000000000050 .L0 
     /tmp/ccKdsjgl.s:62     .text._ZN16KObjectAllocatordlEPv:0000000000000050 .L0 
     /tmp/ccKdsjgl.s:68     .text._ZN16KObjectAllocatordlEPv:0000000000000064 .L0 
     /tmp/ccKdsjgl.s:69     .text._ZN16KObjectAllocatordlEPv:0000000000000064 .L0 
     /tmp/ccKdsjgl.s:75     .text._ZN16KObjectAllocatordlEPv:0000000000000078 .L0 
     /tmp/ccKdsjgl.s:76     .text._ZN16KObjectAllocatordlEPv:0000000000000078 .L0 
     /tmp/ccKdsjgl.s:82     .text._ZN16KObjectAllocatordlEPv:000000000000008c .L0 
     /tmp/ccKdsjgl.s:83     .text._ZN16KObjectAllocatordlEPv:0000000000000090 .L0 
     /tmp/ccKdsjgl.s:85     .text._ZN16KObjectAllocatordlEPv:0000000000000094 .L0 
     /tmp/ccKdsjgl.s:86     .text._ZN16KObjectAllocatordlEPv:0000000000000094 .L0 
     /tmp/ccKdsjgl.s:88     .text._ZN16KObjectAllocatordlEPv:0000000000000098 .L0 
     /tmp/ccKdsjgl.s:91     .text._ZN16KObjectAllocatordlEPv:000000000000009c .L0 
     /tmp/ccKdsjgl.s:94     .text._ZN16KObjectAllocatordlEPv:00000000000000a0 .L0 
     /tmp/ccKdsjgl.s:96     .text._ZN16KObjectAllocatordlEPv:00000000000000a4 .L0 
     /tmp/ccKdsjgl.s:107    .text:0000000000000000 _ZN20KObjectAllocatorTest15getValueOfBitAtEmmP16KObjectAllocator
     /tmp/ccKdsjgl.s:111    .text:0000000000000000 .L0 
     /tmp/ccKdsjgl.s:113    .text:0000000000000000 .L0 
     /tmp/ccKdsjgl.s:115    .text:0000000000000000 .L0 
     /tmp/ccKdsjgl.s:116    .text:0000000000000000 .L0 
     /tmp/ccKdsjgl.s:121    .text:0000000000000008 .L0 
     /tmp/ccKdsjgl.s:125    .text:000000000000000c .L0 
     /tmp/ccKdsjgl.s:126    .text:000000000000000c .L0 
     /tmp/ccKdsjgl.s:128    .text:0000000000000010 .L0 
     /tmp/ccKdsjgl.s:130    .text:0000000000000014 .L0 
     /tmp/ccKdsjgl.s:131    .text:0000000000000014 .L0 
     /tmp/ccKdsjgl.s:133    .text:0000000000000018 .L0 
     /tmp/ccKdsjgl.s:135    .text:000000000000001c .L0 
     /tmp/ccKdsjgl.s:137    .text:0000000000000020 .L0 
     /tmp/ccKdsjgl.s:139    .text:0000000000000024 .L0 
     /tmp/ccKdsjgl.s:141    .text:0000000000000028 .L0 
     /tmp/ccKdsjgl.s:143    .text:000000000000002c .L0 
     /tmp/ccKdsjgl.s:144    .text:000000000000002c .L0 
     /tmp/ccKdsjgl.s:146    .text:0000000000000030 .L0 
     /tmp/ccKdsjgl.s:151    .text:000000000000003c .L0 
     /tmp/ccKdsjgl.s:154    .text:0000000000000040 .L0 
GAS LISTING /tmp/ccKdsjgl.s 			page 148


     /tmp/ccKdsjgl.s:157    .text:0000000000000048 .L0 
     /tmp/ccKdsjgl.s:160    .text:000000000000004c .L0 
     /tmp/ccKdsjgl.s:163    .text:0000000000000050 .L0 
     /tmp/ccKdsjgl.s:167    .text:0000000000000054 .L0 
     /tmp/ccKdsjgl.s:168    .text:0000000000000058 .L0 
     /tmp/ccKdsjgl.s:171    .text:0000000000000060 .L0 
     /tmp/ccKdsjgl.s:172    .text:0000000000000060 .L0 
     /tmp/ccKdsjgl.s:174    .text:0000000000000064 .L0 
     /tmp/ccKdsjgl.s:176    .text:0000000000000064 .L0 
     /tmp/ccKdsjgl.s:177    .text:0000000000000064 .L0 
     /tmp/ccKdsjgl.s:181    .text:0000000000000074 .L0 
     /tmp/ccKdsjgl.s:182    .text:0000000000000074 .L0 
     /tmp/ccKdsjgl.s:184    .text:0000000000000078 .L0 
     /tmp/ccKdsjgl.s:185    .text:000000000000007c .L0 
     /tmp/ccKdsjgl.s:187    .text:0000000000000080 .L0 
     /tmp/ccKdsjgl.s:188    .text:0000000000000080 .L0 
     /tmp/ccKdsjgl.s:190    .text:0000000000000084 .L0 
     /tmp/ccKdsjgl.s:192    .text:0000000000000088 .L0 
     /tmp/ccKdsjgl.s:212    .text:0000000000000088 _ZN20KObjectAllocatorTest15getByteOfObjectEPvP16KObjectAllocator
     /tmp/ccKdsjgl.s:215    .text:0000000000000088 .L0 
     /tmp/ccKdsjgl.s:217    .text:0000000000000088 .L0 
     /tmp/ccKdsjgl.s:218    .text:000000000000008c .L0 
     /tmp/ccKdsjgl.s:224    .text:00000000000000a0 .L0 
     /tmp/ccKdsjgl.s:225    .text:00000000000000a0 .L0 
     /tmp/ccKdsjgl.s:226    .text:00000000000000a0 .L0 
     /tmp/ccKdsjgl.s:227    .text:00000000000000a0 .L0 
     /tmp/ccKdsjgl.s:228    .text:00000000000000a0 .L0 
     /tmp/ccKdsjgl.s:230    .text:00000000000000a4 .L0 
     /tmp/ccKdsjgl.s:235    .text:00000000000000a8 .L0 
     /tmp/ccKdsjgl.s:236    .text:00000000000000a8 .L0 
     /tmp/ccKdsjgl.s:241    .text:00000000000000b0 .L0 
     /tmp/ccKdsjgl.s:245    .text:00000000000000b4 .L0 
     /tmp/ccKdsjgl.s:246    .text:00000000000000b4 .L0 
     /tmp/ccKdsjgl.s:248    .text:00000000000000b8 .L0 
     /tmp/ccKdsjgl.s:251    .text:00000000000000bc .L0 
     /tmp/ccKdsjgl.s:252    .text:00000000000000bc .L0 
     /tmp/ccKdsjgl.s:254    .text:00000000000000c0 .L0 
     /tmp/ccKdsjgl.s:258    .text:00000000000000cc .L0 
     /tmp/ccKdsjgl.s:260    .text:00000000000000d0 .L0 
     /tmp/ccKdsjgl.s:261    .text:00000000000000d0 .L0 
     /tmp/ccKdsjgl.s:264    .text:00000000000000d4 .L0 
     /tmp/ccKdsjgl.s:265    .text:00000000000000d4 .L0 
     /tmp/ccKdsjgl.s:267    .text:00000000000000d8 .L0 
     /tmp/ccKdsjgl.s:270    .text:00000000000000dc .L0 
     /tmp/ccKdsjgl.s:273    .text:00000000000000e0 .L0 
     /tmp/ccKdsjgl.s:274    .text:00000000000000e0 .L0 
     /tmp/ccKdsjgl.s:276    .text:00000000000000e4 .L0 
     /tmp/ccKdsjgl.s:278    .text:00000000000000e8 .L0 
     /tmp/ccKdsjgl.s:279    .text:00000000000000e8 .L0 
     /tmp/ccKdsjgl.s:284    .text:00000000000000f8 .L0 
     /tmp/ccKdsjgl.s:285    .text:00000000000000f8 .L0 
     /tmp/ccKdsjgl.s:289    .text:0000000000000104 .L0 
     /tmp/ccKdsjgl.s:290    .text:0000000000000104 .L0 
     /tmp/ccKdsjgl.s:294    .text:0000000000000114 .L0 
     /tmp/ccKdsjgl.s:295    .text:0000000000000114 .L0 
     /tmp/ccKdsjgl.s:299    .text:0000000000000124 .L0 
     /tmp/ccKdsjgl.s:300    .text:0000000000000124 .L0 
GAS LISTING /tmp/ccKdsjgl.s 			page 149


     /tmp/ccKdsjgl.s:304    .text:0000000000000130 .L0 
     /tmp/ccKdsjgl.s:305    .text:0000000000000130 .L0 
     /tmp/ccKdsjgl.s:309    .text:0000000000000140 .L0 
     /tmp/ccKdsjgl.s:310    .text:0000000000000140 .L0 
     /tmp/ccKdsjgl.s:312    .text:0000000000000144 .L0 
     /tmp/ccKdsjgl.s:314    .text:0000000000000148 .L0 
     /tmp/ccKdsjgl.s:320    .text:000000000000014c .L0 
     /tmp/ccKdsjgl.s:321    .text:0000000000000150 .L0 
     /tmp/ccKdsjgl.s:322    .text:0000000000000150 .L0 
     /tmp/ccKdsjgl.s:324    .text:0000000000000154 .L0 
     /tmp/ccKdsjgl.s:325    .text:0000000000000154 .L0 
     /tmp/ccKdsjgl.s:327    .text:0000000000000158 .L0 
     /tmp/ccKdsjgl.s:329    .text:000000000000015c .L0 
     /tmp/ccKdsjgl.s:332    .text:0000000000000160 .L0 
     /tmp/ccKdsjgl.s:335    .text:0000000000000164 .L0 
     /tmp/ccKdsjgl.s:339    .text:0000000000000168 .L0 
     /tmp/ccKdsjgl.s:341    .text:0000000000000168 .L0 
     /tmp/ccKdsjgl.s:342    .text:0000000000000168 .L0 
     /tmp/ccKdsjgl.s:347    .text:0000000000000178 .L0 
     /tmp/ccKdsjgl.s:348    .text:0000000000000178 .L0 
     /tmp/ccKdsjgl.s:350    .text:0000000000000180 .L0 
     /tmp/ccKdsjgl.s:356    .text:0000000000000180 _ZN20KObjectAllocatorTest14getBitOfObjectEPvP16KObjectAllocator
     /tmp/ccKdsjgl.s:359    .text:0000000000000180 .L0 
     /tmp/ccKdsjgl.s:361    .text:0000000000000180 .L0 
     /tmp/ccKdsjgl.s:363    .text:0000000000000180 .L0 
     /tmp/ccKdsjgl.s:364    .text:0000000000000180 .L0 
     /tmp/ccKdsjgl.s:369    .text:0000000000000188 .L0 
     /tmp/ccKdsjgl.s:373    .text:000000000000018c .L0 
     /tmp/ccKdsjgl.s:374    .text:000000000000018c .L0 
     /tmp/ccKdsjgl.s:376    .text:0000000000000190 .L0 
     /tmp/ccKdsjgl.s:379    .text:0000000000000194 .L0 
     /tmp/ccKdsjgl.s:380    .text:0000000000000194 .L0 
     /tmp/ccKdsjgl.s:382    .text:0000000000000198 .L0 
     /tmp/ccKdsjgl.s:386    .text:00000000000001a4 .L0 
     /tmp/ccKdsjgl.s:388    .text:00000000000001a8 .L0 
     /tmp/ccKdsjgl.s:389    .text:00000000000001a8 .L0 
     /tmp/ccKdsjgl.s:392    .text:00000000000001ac .L0 
     /tmp/ccKdsjgl.s:393    .text:00000000000001ac .L0 
     /tmp/ccKdsjgl.s:395    .text:00000000000001b0 .L0 
     /tmp/ccKdsjgl.s:398    .text:00000000000001b4 .L0 
     /tmp/ccKdsjgl.s:401    .text:00000000000001b8 .L0 
     /tmp/ccKdsjgl.s:402    .text:00000000000001b8 .L0 
     /tmp/ccKdsjgl.s:404    .text:00000000000001bc .L0 
     /tmp/ccKdsjgl.s:406    .text:00000000000001c0 .L0 
     /tmp/ccKdsjgl.s:407    .text:00000000000001c0 .L0 
     /tmp/ccKdsjgl.s:410    .text:00000000000001c4 .L0 
     /tmp/ccKdsjgl.s:411    .text:00000000000001c4 .L0 
     /tmp/ccKdsjgl.s:418    .text:00000000000001cc .L0 
     /tmp/ccKdsjgl.s:422    .text:00000000000001d0 .L0 
     /tmp/ccKdsjgl.s:423    .text:00000000000001d4 .L0 
     /tmp/ccKdsjgl.s:426    .text:00000000000001dc .L0 
     /tmp/ccKdsjgl.s:427    .text:00000000000001dc .L0 
     /tmp/ccKdsjgl.s:429    .text:00000000000001e0 .L0 
     /tmp/ccKdsjgl.s:431    .text:00000000000001e0 .L0 
     /tmp/ccKdsjgl.s:432    .text:00000000000001e0 .L0 
     /tmp/ccKdsjgl.s:436    .text:00000000000001f0 .L0 
     /tmp/ccKdsjgl.s:437    .text:00000000000001f0 .L0 
GAS LISTING /tmp/ccKdsjgl.s 			page 150


     /tmp/ccKdsjgl.s:439    .text:00000000000001f4 .L0 
     /tmp/ccKdsjgl.s:440    .text:00000000000001f8 .L0 
     /tmp/ccKdsjgl.s:442    .text:00000000000001fc .L0 
     /tmp/ccKdsjgl.s:443    .text:00000000000001fc .L0 
     /tmp/ccKdsjgl.s:445    .text:0000000000000200 .L0 
     /tmp/ccKdsjgl.s:447    .text:0000000000000204 .L0 
     /tmp/ccKdsjgl.s:453    .text:0000000000000204 _ZN20KObjectAllocatorTest11getObjectAtEmmP16KObjectAllocator
     /tmp/ccKdsjgl.s:456    .text:0000000000000204 .L0 
     /tmp/ccKdsjgl.s:458    .text:0000000000000204 .L0 
     /tmp/ccKdsjgl.s:460    .text:0000000000000204 .L0 
     /tmp/ccKdsjgl.s:461    .text:0000000000000204 .L0 
     /tmp/ccKdsjgl.s:466    .text:000000000000020c .L0 
     /tmp/ccKdsjgl.s:470    .text:0000000000000210 .L0 
     /tmp/ccKdsjgl.s:471    .text:0000000000000210 .L0 
     /tmp/ccKdsjgl.s:473    .text:0000000000000214 .L0 
     /tmp/ccKdsjgl.s:475    .text:0000000000000218 .L0 
     /tmp/ccKdsjgl.s:476    .text:0000000000000218 .L0 
     /tmp/ccKdsjgl.s:478    .text:000000000000021c .L0 
     /tmp/ccKdsjgl.s:480    .text:0000000000000220 .L0 
     /tmp/ccKdsjgl.s:482    .text:0000000000000224 .L0 
     /tmp/ccKdsjgl.s:484    .text:0000000000000228 .L0 
     /tmp/ccKdsjgl.s:486    .text:000000000000022c .L0 
     /tmp/ccKdsjgl.s:488    .text:0000000000000230 .L0 
     /tmp/ccKdsjgl.s:489    .text:0000000000000230 .L0 
     /tmp/ccKdsjgl.s:491    .text:0000000000000234 .L0 
     /tmp/ccKdsjgl.s:496    .text:0000000000000240 .L0 
     /tmp/ccKdsjgl.s:499    .text:0000000000000244 .L0 
     /tmp/ccKdsjgl.s:501    .text:0000000000000248 .L0 
     /tmp/ccKdsjgl.s:505    .text:0000000000000250 .L0 
     /tmp/ccKdsjgl.s:507    .text:0000000000000254 .L0 
     /tmp/ccKdsjgl.s:509    .text:0000000000000258 .L0 
     /tmp/ccKdsjgl.s:512    .text:000000000000025c .L0 
     /tmp/ccKdsjgl.s:516    .text:0000000000000260 .L0 
     /tmp/ccKdsjgl.s:517    .text:0000000000000264 .L0 
     /tmp/ccKdsjgl.s:520    .text:000000000000026c .L0 
     /tmp/ccKdsjgl.s:521    .text:000000000000026c .L0 
     /tmp/ccKdsjgl.s:523    .text:0000000000000270 .L0 
     /tmp/ccKdsjgl.s:525    .text:0000000000000270 .L0 
     /tmp/ccKdsjgl.s:526    .text:0000000000000270 .L0 
     /tmp/ccKdsjgl.s:531    .text:0000000000000280 .L0 
     /tmp/ccKdsjgl.s:532    .text:0000000000000280 .L0 
     /tmp/ccKdsjgl.s:534    .text:0000000000000284 .L0 
     /tmp/ccKdsjgl.s:535    .text:0000000000000288 .L0 
     /tmp/ccKdsjgl.s:537    .text:000000000000028c .L0 
     /tmp/ccKdsjgl.s:538    .text:000000000000028c .L0 
     /tmp/ccKdsjgl.s:540    .text:0000000000000290 .L0 
     /tmp/ccKdsjgl.s:542    .text:0000000000000294 .L0 
     /tmp/ccKdsjgl.s:548    .text:0000000000000294 _ZN20KObjectAllocatorTest5test0Em
     /tmp/ccKdsjgl.s:551    .text:0000000000000294 .L0 
     /tmp/ccKdsjgl.s:16051  .data.rel.local.DW.ref.__gxx_personality_v0:0000000000000000 DW.ref.__gxx_personality_v0
     /tmp/ccKdsjgl.s:555    .text:0000000000000294 .L0 
     /tmp/ccKdsjgl.s:556    .text:0000000000000298 .L0 
     /tmp/ccKdsjgl.s:566    .text:00000000000002bc .L0 
     /tmp/ccKdsjgl.s:567    .text:00000000000002bc .L0 
     /tmp/ccKdsjgl.s:568    .text:00000000000002bc .L0 
     /tmp/ccKdsjgl.s:569    .text:00000000000002bc .L0 
     /tmp/ccKdsjgl.s:570    .text:00000000000002bc .L0 
GAS LISTING /tmp/ccKdsjgl.s 			page 151


     /tmp/ccKdsjgl.s:571    .text:00000000000002bc .L0 
     /tmp/ccKdsjgl.s:572    .text:00000000000002bc .L0 
     /tmp/ccKdsjgl.s:573    .text:00000000000002bc .L0 
     /tmp/ccKdsjgl.s:574    .text:00000000000002bc .L0 
     /tmp/ccKdsjgl.s:576    .text:00000000000002c0 .L0 
     /tmp/ccKdsjgl.s:583    .text:00000000000002c8 .L0 
     /tmp/ccKdsjgl.s:585    .text:00000000000002c8 .L0 
     /tmp/ccKdsjgl.s:586    .text:00000000000002c8 .L0 
     /tmp/ccKdsjgl.s:599    .text:00000000000002e0 .L0 
     /tmp/ccKdsjgl.s:609    .text:00000000000002fc .L0 
     /tmp/ccKdsjgl.s:610    .text:00000000000002fc .L0 
     /tmp/ccKdsjgl.s:613    .text:0000000000000304 .L0 
     /tmp/ccKdsjgl.s:615    .text:0000000000000308 .L0 
     /tmp/ccKdsjgl.s:619    .text:0000000000000314 .L0 
     /tmp/ccKdsjgl.s:621    .text:0000000000000318 .L0 
     /tmp/ccKdsjgl.s:622    .text:0000000000000318 .L0 
     /tmp/ccKdsjgl.s:625    .text:0000000000000320 .L0 
     /tmp/ccKdsjgl.s:627    .text:0000000000000324 .L0 
     /tmp/ccKdsjgl.s:631    .text:0000000000000330 .L0 
     /tmp/ccKdsjgl.s:633    .text:0000000000000334 .L0 
     /tmp/ccKdsjgl.s:634    .text:0000000000000334 .L0 
     /tmp/ccKdsjgl.s:636    .text:0000000000000338 .L0 
     /tmp/ccKdsjgl.s:638    .text:000000000000033c .L0 
     /tmp/ccKdsjgl.s:642    .text:0000000000000344 .L0 
     /tmp/ccKdsjgl.s:644    .text:0000000000000348 .L0 
     /tmp/ccKdsjgl.s:646    .text:000000000000034c .L0 
     /tmp/ccKdsjgl.s:648    .text:0000000000000350 .L0 
     /tmp/ccKdsjgl.s:649    .text:0000000000000350 .L0 
     /tmp/ccKdsjgl.s:651    .text:0000000000000354 .L0 
     /tmp/ccKdsjgl.s:653    .text:0000000000000358 .L0 
     /tmp/ccKdsjgl.s:654    .text:0000000000000358 .L0 
     /tmp/ccKdsjgl.s:659    .text:0000000000000364 .L0 
     /tmp/ccKdsjgl.s:663    .text:000000000000036c .L0 
     /tmp/ccKdsjgl.s:665    .text:0000000000000370 .L0 
     /tmp/ccKdsjgl.s:667    .text:0000000000000374 .L0 
     /tmp/ccKdsjgl.s:669    .text:0000000000000378 .L0 
     /tmp/ccKdsjgl.s:671    .text:000000000000037c .L0 
     /tmp/ccKdsjgl.s:676    .text:0000000000000388 .L0 
     /tmp/ccKdsjgl.s:678    .text:000000000000038c .L0 
     /tmp/ccKdsjgl.s:679    .text:000000000000038c .L0 
     /tmp/ccKdsjgl.s:681    .text:0000000000000390 .L0 
     /tmp/ccKdsjgl.s:683    .text:0000000000000394 .L0 
     /tmp/ccKdsjgl.s:685    .text:0000000000000398 .L0 
     /tmp/ccKdsjgl.s:687    .text:000000000000039c .L0 
     /tmp/ccKdsjgl.s:689    .text:00000000000003a0 .L0 
     /tmp/ccKdsjgl.s:693    .text:00000000000003a4 .L0 
     /tmp/ccKdsjgl.s:694    .text:00000000000003a4 .L0 
     /tmp/ccKdsjgl.s:698    .text:00000000000003a8 .L0 
     /tmp/ccKdsjgl.s:699    .text:00000000000003a8 .L0 
     /tmp/ccKdsjgl.s:701    .text:00000000000003ac .L0 
     /tmp/ccKdsjgl.s:703    .text:00000000000003b0 .L0 
     /tmp/ccKdsjgl.s:704    .text:00000000000003b0 .L0 
     /tmp/ccKdsjgl.s:706    .text:00000000000003b4 .L0 
     /tmp/ccKdsjgl.s:709    .text:00000000000003b8 .L0 
     /tmp/ccKdsjgl.s:711    .text:00000000000003bc .L0 
     /tmp/ccKdsjgl.s:713    .text:00000000000003c0 .L0 
     /tmp/ccKdsjgl.s:716    .text:00000000000003c4 .L0 
GAS LISTING /tmp/ccKdsjgl.s 			page 152


     /tmp/ccKdsjgl.s:726    .text:00000000000003c8 .L0 
     /tmp/ccKdsjgl.s:727    .text:00000000000003c8 .L0 
     /tmp/ccKdsjgl.s:728    .text:00000000000003c8 .L0 
     /tmp/ccKdsjgl.s:733    .text:00000000000003cc .L0 
     /tmp/ccKdsjgl.s:736    .text:00000000000003d4 .L0 
     /tmp/ccKdsjgl.s:737    .text:00000000000003d4 .L0 
     /tmp/ccKdsjgl.s:742    .text:00000000000003d8 .L0 
     /tmp/ccKdsjgl.s:749    .text:00000000000003e0 .L0 
     /tmp/ccKdsjgl.s:750    .text:00000000000003e0 .L0 
     /tmp/ccKdsjgl.s:753    .text:00000000000003e8 .L0 
     /tmp/ccKdsjgl.s:755    .text:00000000000003ec .L0 
     /tmp/ccKdsjgl.s:758    .text:00000000000003f4 .L0 
     /tmp/ccKdsjgl.s:762    .text:0000000000000400 .L0 
     /tmp/ccKdsjgl.s:766    .text:0000000000000404 .L0 
     /tmp/ccKdsjgl.s:767    .text:0000000000000404 .L0 
     /tmp/ccKdsjgl.s:769    .text:0000000000000408 .L0 
     /tmp/ccKdsjgl.s:772    .text:000000000000040c .L0 
     /tmp/ccKdsjgl.s:773    .text:000000000000040c .L0 
     /tmp/ccKdsjgl.s:779    .text:0000000000000420 .L0 
     /tmp/ccKdsjgl.s:780    .text:0000000000000420 .L0 
     /tmp/ccKdsjgl.s:786    .text:0000000000000434 .L0 
     /tmp/ccKdsjgl.s:787    .text:0000000000000434 .L0 
     /tmp/ccKdsjgl.s:796    .text:0000000000000448 .L0 
     /tmp/ccKdsjgl.s:797    .text:0000000000000448 .L0 
     /tmp/ccKdsjgl.s:800    .text:000000000000044c .L0 
     /tmp/ccKdsjgl.s:802    .text:0000000000000454 .L0 
     /tmp/ccKdsjgl.s:803    .text:0000000000000454 .L0 
     /tmp/ccKdsjgl.s:805    .text:0000000000000458 .L0 
     /tmp/ccKdsjgl.s:806    .text:0000000000000458 .L0 
     /tmp/ccKdsjgl.s:808    .text:000000000000045c .L0 
     /tmp/ccKdsjgl.s:811    .text:0000000000000460 .L0 
     /tmp/ccKdsjgl.s:813    .text:0000000000000464 .L0 
     /tmp/ccKdsjgl.s:816    .text:0000000000000468 .L0 
     /tmp/ccKdsjgl.s:818    .text:000000000000046c .L0 
     /tmp/ccKdsjgl.s:820    .text:0000000000000470 .L0 
     /tmp/ccKdsjgl.s:822    .text:0000000000000474 .L0 
     /tmp/ccKdsjgl.s:824    .text:0000000000000478 .L0 
     /tmp/ccKdsjgl.s:828    .text:000000000000047c .L0 
     /tmp/ccKdsjgl.s:832    .text:000000000000047c .L0 
     /tmp/ccKdsjgl.s:833    .text:000000000000047c .L0 
     /tmp/ccKdsjgl.s:834    .text:000000000000047c .L0 
     /tmp/ccKdsjgl.s:839    .text:0000000000000480 .L0 
     /tmp/ccKdsjgl.s:842    .text:0000000000000488 .L0 
     /tmp/ccKdsjgl.s:843    .text:0000000000000488 .L0 
     /tmp/ccKdsjgl.s:848    .text:000000000000048c .L0 
     /tmp/ccKdsjgl.s:854    .text:0000000000000494 .L0 
     /tmp/ccKdsjgl.s:855    .text:0000000000000494 .L0 
     /tmp/ccKdsjgl.s:858    .text:000000000000049c .L0 
     /tmp/ccKdsjgl.s:860    .text:00000000000004a0 .L0 
     /tmp/ccKdsjgl.s:863    .text:00000000000004a8 .L0 
     /tmp/ccKdsjgl.s:867    .text:00000000000004b4 .L0 
     /tmp/ccKdsjgl.s:871    .text:00000000000004b8 .L0 
     /tmp/ccKdsjgl.s:872    .text:00000000000004b8 .L0 
     /tmp/ccKdsjgl.s:874    .text:00000000000004bc .L0 
     /tmp/ccKdsjgl.s:877    .text:00000000000004c0 .L0 
     /tmp/ccKdsjgl.s:878    .text:00000000000004c0 .L0 
     /tmp/ccKdsjgl.s:884    .text:00000000000004d4 .L0 
GAS LISTING /tmp/ccKdsjgl.s 			page 153


     /tmp/ccKdsjgl.s:885    .text:00000000000004d4 .L0 
     /tmp/ccKdsjgl.s:891    .text:00000000000004e8 .L0 
     /tmp/ccKdsjgl.s:892    .text:00000000000004e8 .L0 
     /tmp/ccKdsjgl.s:901    .text:00000000000004fc .L0 
     /tmp/ccKdsjgl.s:902    .text:00000000000004fc .L0 
     /tmp/ccKdsjgl.s:909    .text:0000000000000504 .L0 
     /tmp/ccKdsjgl.s:910    .text:0000000000000504 .L0 
     /tmp/ccKdsjgl.s:911    .text:0000000000000504 .L0 
     /tmp/ccKdsjgl.s:916    .text:0000000000000508 .L0 
     /tmp/ccKdsjgl.s:918    .text:000000000000050c .L0 
     /tmp/ccKdsjgl.s:919    .text:000000000000050c .L0 
     /tmp/ccKdsjgl.s:924    .text:0000000000000510 .L0 
     /tmp/ccKdsjgl.s:928    .text:0000000000000514 .L0 
     /tmp/ccKdsjgl.s:929    .text:0000000000000514 .L0 
     /tmp/ccKdsjgl.s:931    .text:0000000000000518 .L0 
     /tmp/ccKdsjgl.s:933    .text:000000000000051c .L0 
     /tmp/ccKdsjgl.s:934    .text:000000000000051c .L0 
     /tmp/ccKdsjgl.s:937    .text:0000000000000524 .L0 
     /tmp/ccKdsjgl.s:939    .text:0000000000000528 .L0 
     /tmp/ccKdsjgl.s:942    .text:0000000000000530 .L0 
     /tmp/ccKdsjgl.s:946    .text:000000000000053c .L0 
     /tmp/ccKdsjgl.s:952    .text:0000000000000544 .L0 
     /tmp/ccKdsjgl.s:953    .text:0000000000000544 .L0 
     /tmp/ccKdsjgl.s:959    .text:0000000000000558 .L0 
     /tmp/ccKdsjgl.s:960    .text:0000000000000558 .L0 
     /tmp/ccKdsjgl.s:966    .text:000000000000056c .L0 
     /tmp/ccKdsjgl.s:967    .text:000000000000056c .L0 
     /tmp/ccKdsjgl.s:976    .text:0000000000000580 .L0 
     /tmp/ccKdsjgl.s:977    .text:0000000000000580 .L0 
     /tmp/ccKdsjgl.s:983    .text:0000000000000588 .L0 
     /tmp/ccKdsjgl.s:987    .text:000000000000058c .L0 
     /tmp/ccKdsjgl.s:990    .text:0000000000000594 .L0 
     /tmp/ccKdsjgl.s:991    .text:0000000000000594 .L0 
     /tmp/ccKdsjgl.s:994    .text:0000000000000598 .L0 
     /tmp/ccKdsjgl.s:998    .text:00000000000005a4 .L0 
     /tmp/ccKdsjgl.s:1003   .text:00000000000005b4 .L0 
     /tmp/ccKdsjgl.s:1005   .text:00000000000005b8 .L0 
     /tmp/ccKdsjgl.s:1011   .text:00000000000005bc .L0 
     /tmp/ccKdsjgl.s:1014   .text:00000000000005c0 .L0 
     /tmp/ccKdsjgl.s:1017   .text:00000000000005c4 .L0 
     /tmp/ccKdsjgl.s:1024   .text:00000000000005cc .L0 
     /tmp/ccKdsjgl.s:1025   .text:00000000000005cc .L0 
     /tmp/ccKdsjgl.s:1030   .text:00000000000005d0 .L0 
     /tmp/ccKdsjgl.s:1034   .text:00000000000005d4 .L0 
     /tmp/ccKdsjgl.s:1035   .text:00000000000005d4 .L0 
     /tmp/ccKdsjgl.s:1037   .text:00000000000005d8 .L0 
     /tmp/ccKdsjgl.s:1039   .text:00000000000005dc .L0 
     /tmp/ccKdsjgl.s:1040   .text:00000000000005dc .L0 
     /tmp/ccKdsjgl.s:1043   .text:00000000000005e4 .L0 
     /tmp/ccKdsjgl.s:1045   .text:00000000000005e8 .L0 
     /tmp/ccKdsjgl.s:1048   .text:00000000000005f0 .L0 
     /tmp/ccKdsjgl.s:1052   .text:00000000000005fc .L0 
     /tmp/ccKdsjgl.s:1058   .text:0000000000000604 .L0 
     /tmp/ccKdsjgl.s:1059   .text:0000000000000604 .L0 
     /tmp/ccKdsjgl.s:1065   .text:0000000000000618 .L0 
     /tmp/ccKdsjgl.s:1066   .text:0000000000000618 .L0 
     /tmp/ccKdsjgl.s:1072   .text:000000000000062c .L0 
GAS LISTING /tmp/ccKdsjgl.s 			page 154


     /tmp/ccKdsjgl.s:1073   .text:000000000000062c .L0 
     /tmp/ccKdsjgl.s:1082   .text:0000000000000640 .L0 
     /tmp/ccKdsjgl.s:1083   .text:0000000000000640 .L0 
     /tmp/ccKdsjgl.s:1088   .text:0000000000000648 .L0 
     /tmp/ccKdsjgl.s:1089   .text:0000000000000648 .L0 
     /tmp/ccKdsjgl.s:1094   .text:000000000000064c .L0 
     /tmp/ccKdsjgl.s:1098   .text:0000000000000650 .L0 
     /tmp/ccKdsjgl.s:1099   .text:0000000000000650 .L0 
     /tmp/ccKdsjgl.s:1101   .text:0000000000000654 .L0 
     /tmp/ccKdsjgl.s:1103   .text:0000000000000658 .L0 
     /tmp/ccKdsjgl.s:1104   .text:0000000000000658 .L0 
     /tmp/ccKdsjgl.s:1107   .text:0000000000000660 .L0 
     /tmp/ccKdsjgl.s:1109   .text:0000000000000664 .L0 
     /tmp/ccKdsjgl.s:1112   .text:000000000000066c .L0 
     /tmp/ccKdsjgl.s:1116   .text:0000000000000678 .L0 
     /tmp/ccKdsjgl.s:1122   .text:0000000000000680 .L0 
     /tmp/ccKdsjgl.s:1123   .text:0000000000000680 .L0 
     /tmp/ccKdsjgl.s:1129   .text:0000000000000694 .L0 
     /tmp/ccKdsjgl.s:1130   .text:0000000000000694 .L0 
     /tmp/ccKdsjgl.s:1136   .text:00000000000006a8 .L0 
     /tmp/ccKdsjgl.s:1137   .text:00000000000006a8 .L0 
     /tmp/ccKdsjgl.s:1146   .text:00000000000006bc .L0 
     /tmp/ccKdsjgl.s:1147   .text:00000000000006bc .L0 
     /tmp/ccKdsjgl.s:1152   .text:00000000000006c4 .L0 
     /tmp/ccKdsjgl.s:1153   .text:00000000000006c4 .L0 
     /tmp/ccKdsjgl.s:1158   .text:00000000000006c8 .L0 
     /tmp/ccKdsjgl.s:1164   .text:00000000000006d0 .L0 
     /tmp/ccKdsjgl.s:1165   .text:00000000000006d0 .L0 
     /tmp/ccKdsjgl.s:1168   .text:00000000000006d8 .L0 
     /tmp/ccKdsjgl.s:1170   .text:00000000000006dc .L0 
     /tmp/ccKdsjgl.s:1173   .text:00000000000006e4 .L0 
     /tmp/ccKdsjgl.s:1177   .text:00000000000006f0 .L0 
     /tmp/ccKdsjgl.s:1181   .text:00000000000006f4 .L0 
     /tmp/ccKdsjgl.s:1182   .text:00000000000006f4 .L0 
     /tmp/ccKdsjgl.s:1184   .text:00000000000006f8 .L0 
     /tmp/ccKdsjgl.s:1187   .text:00000000000006fc .L0 
     /tmp/ccKdsjgl.s:1188   .text:00000000000006fc .L0 
     /tmp/ccKdsjgl.s:1194   .text:0000000000000710 .L0 
     /tmp/ccKdsjgl.s:1195   .text:0000000000000710 .L0 
     /tmp/ccKdsjgl.s:1201   .text:0000000000000724 .L0 
     /tmp/ccKdsjgl.s:1202   .text:0000000000000724 .L0 
     /tmp/ccKdsjgl.s:1210   .text:0000000000000738 .L0 
     /tmp/ccKdsjgl.s:1211   .text:0000000000000738 .L0 
     /tmp/ccKdsjgl.s:1215   .text:000000000000073c .L0 
     /tmp/ccKdsjgl.s:1218   .text:0000000000000740 .L0 
     /tmp/ccKdsjgl.s:1219   .text:0000000000000740 .L0 
     /tmp/ccKdsjgl.s:1223   .text:0000000000000744 .L0 
     /tmp/ccKdsjgl.s:1227   .text:0000000000000748 .L0 
     /tmp/ccKdsjgl.s:1231   .text:000000000000074c .L0 
     /tmp/ccKdsjgl.s:1235   .text:0000000000000754 .L0 
     /tmp/ccKdsjgl.s:1236   .text:0000000000000754 .L0 
     /tmp/ccKdsjgl.s:1241   .text:0000000000000764 .L0 
     /tmp/ccKdsjgl.s:1248   .text:000000000000077c .L0 
     /tmp/ccKdsjgl.s:1250   .text:0000000000000780 .L0 
     /tmp/ccKdsjgl.s:1251   .text:0000000000000780 .L0 
     /tmp/ccKdsjgl.s:1259   .text:0000000000000798 .L0 
     /tmp/ccKdsjgl.s:1260   .text:0000000000000798 .L0 
GAS LISTING /tmp/ccKdsjgl.s 			page 155


     /tmp/ccKdsjgl.s:1267   .text:00000000000007ac .L0 
     /tmp/ccKdsjgl.s:1269   .text:00000000000007b0 .L0 
     /tmp/ccKdsjgl.s:1271   .text:00000000000007b4 .L0 
     /tmp/ccKdsjgl.s:1272   .text:00000000000007b4 .L0 
     /tmp/ccKdsjgl.s:1281   .text:00000000000007d0 .L0 
     /tmp/ccKdsjgl.s:1283   .text:00000000000007d4 .L0 
     /tmp/ccKdsjgl.s:1291   .text:00000000000007dc .L0 
     /tmp/ccKdsjgl.s:1296   .text:00000000000007e4 .L0 
     /tmp/ccKdsjgl.s:1297   .text:00000000000007e4 .L0 
     /tmp/ccKdsjgl.s:1302   .text:00000000000007e8 .L0 
     /tmp/ccKdsjgl.s:1306   .text:00000000000007ec .L0 
     /tmp/ccKdsjgl.s:1307   .text:00000000000007ec .L0 
     /tmp/ccKdsjgl.s:1309   .text:00000000000007f0 .L0 
     /tmp/ccKdsjgl.s:1311   .text:00000000000007f4 .L0 
     /tmp/ccKdsjgl.s:1312   .text:00000000000007f4 .L0 
     /tmp/ccKdsjgl.s:1315   .text:00000000000007fc .L0 
     /tmp/ccKdsjgl.s:1317   .text:0000000000000800 .L0 
     /tmp/ccKdsjgl.s:1320   .text:0000000000000808 .L0 
     /tmp/ccKdsjgl.s:1324   .text:0000000000000814 .L0 
     /tmp/ccKdsjgl.s:1330   .text:000000000000081c .L0 
     /tmp/ccKdsjgl.s:1331   .text:000000000000081c .L0 
     /tmp/ccKdsjgl.s:1337   .text:0000000000000830 .L0 
     /tmp/ccKdsjgl.s:1338   .text:0000000000000830 .L0 
     /tmp/ccKdsjgl.s:1344   .text:0000000000000844 .L0 
     /tmp/ccKdsjgl.s:1345   .text:0000000000000844 .L0 
     /tmp/ccKdsjgl.s:1354   .text:0000000000000858 .L0 
     /tmp/ccKdsjgl.s:1355   .text:0000000000000858 .L0 
     /tmp/ccKdsjgl.s:1361   .text:0000000000000860 .L0 
     /tmp/ccKdsjgl.s:1364   .text:0000000000000864 .L0 
     /tmp/ccKdsjgl.s:1365   .text:0000000000000864 .L0 
     /tmp/ccKdsjgl.s:1369   .text:0000000000000868 .L0 
     /tmp/ccKdsjgl.s:1372   .text:000000000000086c .L0 
     /tmp/ccKdsjgl.s:1376   .text:0000000000000870 .L0 
     /tmp/ccKdsjgl.s:1379   .text:0000000000000878 .L0 
     /tmp/ccKdsjgl.s:1380   .text:0000000000000878 .L0 
     /tmp/ccKdsjgl.s:1387   .text:0000000000000890 .L0 
     /tmp/ccKdsjgl.s:1389   .text:0000000000000894 .L0 
     /tmp/ccKdsjgl.s:1394   .text:000000000000089c .L0 
     /tmp/ccKdsjgl.s:1395   .text:000000000000089c .L0 
     /tmp/ccKdsjgl.s:1400   .text:00000000000008ac .L0 
     /tmp/ccKdsjgl.s:1401   .text:00000000000008ac .L0 
     /tmp/ccKdsjgl.s:1406   .text:00000000000008bc .L0 
     /tmp/ccKdsjgl.s:1407   .text:00000000000008bc .L0 
     /tmp/ccKdsjgl.s:1412   .text:00000000000008cc .L0 
     /tmp/ccKdsjgl.s:1413   .text:00000000000008cc .L0 
     /tmp/ccKdsjgl.s:1419   .text:00000000000008dc .L0 
     /tmp/ccKdsjgl.s:1420   .text:00000000000008dc .L0 
     /tmp/ccKdsjgl.s:1427   .text:00000000000008f4 .L0 
     /tmp/ccKdsjgl.s:1429   .text:00000000000008f8 .L0 
     /tmp/ccKdsjgl.s:1430   .text:00000000000008f8 .L0 
     /tmp/ccKdsjgl.s:1435   .text:00000000000008fc .L0 
     /tmp/ccKdsjgl.s:1440   .text:0000000000000904 .L0 
     /tmp/ccKdsjgl.s:1441   .text:0000000000000904 .L0 
     /tmp/ccKdsjgl.s:1444   .text:000000000000090c .L0 
     /tmp/ccKdsjgl.s:1446   .text:0000000000000910 .L0 
     /tmp/ccKdsjgl.s:1449   .text:0000000000000918 .L0 
     /tmp/ccKdsjgl.s:1453   .text:0000000000000924 .L0 
GAS LISTING /tmp/ccKdsjgl.s 			page 156


     /tmp/ccKdsjgl.s:1457   .text:0000000000000928 .L0 
     /tmp/ccKdsjgl.s:1458   .text:0000000000000928 .L0 
     /tmp/ccKdsjgl.s:1460   .text:000000000000092c .L0 
     /tmp/ccKdsjgl.s:1463   .text:0000000000000930 .L0 
     /tmp/ccKdsjgl.s:1464   .text:0000000000000930 .L0 
     /tmp/ccKdsjgl.s:1470   .text:0000000000000944 .L0 
     /tmp/ccKdsjgl.s:1471   .text:0000000000000944 .L0 
     /tmp/ccKdsjgl.s:1477   .text:0000000000000958 .L0 
     /tmp/ccKdsjgl.s:1478   .text:0000000000000958 .L0 
     /tmp/ccKdsjgl.s:1487   .text:000000000000096c .L0 
     /tmp/ccKdsjgl.s:1488   .text:000000000000096c .L0 
     /tmp/ccKdsjgl.s:1494   .text:0000000000000974 .L0 
     /tmp/ccKdsjgl.s:1495   .text:0000000000000974 .L0 
     /tmp/ccKdsjgl.s:1503   .text:000000000000098c .L0 
     /tmp/ccKdsjgl.s:1504   .text:000000000000098c .L0 
     /tmp/ccKdsjgl.s:1513   .text:00000000000009a4 .L0 
     /tmp/ccKdsjgl.s:1516   .text:00000000000009ac .L0 
     /tmp/ccKdsjgl.s:1520   .text:00000000000009b4 .L0 
     /tmp/ccKdsjgl.s:1521   .text:00000000000009b4 .L0 
     /tmp/ccKdsjgl.s:1526   .text:00000000000009b8 .L0 
     /tmp/ccKdsjgl.s:1531   .text:00000000000009c0 .L0 
     /tmp/ccKdsjgl.s:1532   .text:00000000000009c0 .L0 
     /tmp/ccKdsjgl.s:1535   .text:00000000000009c8 .L0 
     /tmp/ccKdsjgl.s:1537   .text:00000000000009cc .L0 
     /tmp/ccKdsjgl.s:1540   .text:00000000000009d4 .L0 
     /tmp/ccKdsjgl.s:1544   .text:00000000000009e0 .L0 
     /tmp/ccKdsjgl.s:1548   .text:00000000000009e4 .L0 
     /tmp/ccKdsjgl.s:1549   .text:00000000000009e4 .L0 
     /tmp/ccKdsjgl.s:1551   .text:00000000000009e8 .L0 
     /tmp/ccKdsjgl.s:1554   .text:00000000000009ec .L0 
     /tmp/ccKdsjgl.s:1555   .text:00000000000009ec .L0 
     /tmp/ccKdsjgl.s:1561   .text:0000000000000a00 .L0 
     /tmp/ccKdsjgl.s:1562   .text:0000000000000a00 .L0 
     /tmp/ccKdsjgl.s:1568   .text:0000000000000a14 .L0 
     /tmp/ccKdsjgl.s:1569   .text:0000000000000a14 .L0 
     /tmp/ccKdsjgl.s:1578   .text:0000000000000a28 .L0 
     /tmp/ccKdsjgl.s:1579   .text:0000000000000a28 .L0 
     /tmp/ccKdsjgl.s:1585   .text:0000000000000a30 .L0 
     /tmp/ccKdsjgl.s:1586   .text:0000000000000a30 .L0 
     /tmp/ccKdsjgl.s:1593   .text:0000000000000a48 .L0 
     /tmp/ccKdsjgl.s:1594   .text:0000000000000a48 .L0 
     /tmp/ccKdsjgl.s:1596   .text:0000000000000a48 .L0 
     /tmp/ccKdsjgl.s:1597   .text:0000000000000a48 .L0 
     /tmp/ccKdsjgl.s:1600   .text:0000000000000a4c .L0 
     /tmp/ccKdsjgl.s:1606   .text:0000000000000a54 .L0 
     /tmp/ccKdsjgl.s:1607   .text:0000000000000a54 .L0 
     /tmp/ccKdsjgl.s:1609   .text:0000000000000a58 .L0 
     /tmp/ccKdsjgl.s:1614   .text:0000000000000a64 .L0 
     /tmp/ccKdsjgl.s:1615   .text:0000000000000a64 .L0 
     /tmp/ccKdsjgl.s:1621   .text:0000000000000a6c .L0 
     /tmp/ccKdsjgl.s:1624   .text:0000000000000a70 .L0 
     /tmp/ccKdsjgl.s:1625   .text:0000000000000a70 .L0 
     /tmp/ccKdsjgl.s:1629   .text:0000000000000a74 .L0 
     /tmp/ccKdsjgl.s:1632   .text:0000000000000a78 .L0 
     /tmp/ccKdsjgl.s:1636   .text:0000000000000a7c .L0 
     /tmp/ccKdsjgl.s:1639   .text:0000000000000a84 .L0 
     /tmp/ccKdsjgl.s:1640   .text:0000000000000a84 .L0 
GAS LISTING /tmp/ccKdsjgl.s 			page 157


     /tmp/ccKdsjgl.s:1644   .text:0000000000000a90 .L0 
     /tmp/ccKdsjgl.s:1651   .text:0000000000000aa8 .L0 
     /tmp/ccKdsjgl.s:1653   .text:0000000000000aac .L0 
     /tmp/ccKdsjgl.s:1658   .text:0000000000000ab4 .L0 
     /tmp/ccKdsjgl.s:1659   .text:0000000000000ab4 .L0 
     /tmp/ccKdsjgl.s:1664   .text:0000000000000ab8 .L0 
     /tmp/ccKdsjgl.s:1670   .text:0000000000000ac0 .L0 
     /tmp/ccKdsjgl.s:1671   .text:0000000000000ac0 .L0 
     /tmp/ccKdsjgl.s:1674   .text:0000000000000ac8 .L0 
     /tmp/ccKdsjgl.s:1676   .text:0000000000000acc .L0 
     /tmp/ccKdsjgl.s:1679   .text:0000000000000ad4 .L0 
     /tmp/ccKdsjgl.s:1683   .text:0000000000000ae0 .L0 
     /tmp/ccKdsjgl.s:1687   .text:0000000000000ae4 .L0 
     /tmp/ccKdsjgl.s:1688   .text:0000000000000ae4 .L0 
     /tmp/ccKdsjgl.s:1690   .text:0000000000000ae8 .L0 
     /tmp/ccKdsjgl.s:1693   .text:0000000000000aec .L0 
     /tmp/ccKdsjgl.s:1694   .text:0000000000000aec .L0 
     /tmp/ccKdsjgl.s:1700   .text:0000000000000b00 .L0 
     /tmp/ccKdsjgl.s:1701   .text:0000000000000b00 .L0 
     /tmp/ccKdsjgl.s:1707   .text:0000000000000b14 .L0 
     /tmp/ccKdsjgl.s:1708   .text:0000000000000b14 .L0 
     /tmp/ccKdsjgl.s:1717   .text:0000000000000b28 .L0 
     /tmp/ccKdsjgl.s:1722   .text:0000000000000b2c .L0 
     /tmp/ccKdsjgl.s:1728   .text:0000000000000b30 .L0 
     /tmp/ccKdsjgl.s:1736   .text:0000000000000b3c .L0 
     /tmp/ccKdsjgl.s:1744   .text:0000000000000b54 .L0 
     /tmp/ccKdsjgl.s:1774   .text:0000000000000b54 _ZN20KObjectAllocatorTest5test1Em
     /tmp/ccKdsjgl.s:1777   .text:0000000000000b54 .L0 
     /tmp/ccKdsjgl.s:1781   .text:0000000000000b54 .L0 
     /tmp/ccKdsjgl.s:1782   .text:0000000000000b58 .L0 
     /tmp/ccKdsjgl.s:1790   .text:0000000000000b74 .L0 
     /tmp/ccKdsjgl.s:1791   .text:0000000000000b74 .L0 
     /tmp/ccKdsjgl.s:1792   .text:0000000000000b74 .L0 
     /tmp/ccKdsjgl.s:1793   .text:0000000000000b74 .L0 
     /tmp/ccKdsjgl.s:1794   .text:0000000000000b74 .L0 
     /tmp/ccKdsjgl.s:1795   .text:0000000000000b74 .L0 
     /tmp/ccKdsjgl.s:1796   .text:0000000000000b74 .L0 
     /tmp/ccKdsjgl.s:1798   .text:0000000000000b78 .L0 
     /tmp/ccKdsjgl.s:1806   .text:0000000000000b84 .L0 
     /tmp/ccKdsjgl.s:1808   .text:0000000000000b84 .L0 
     /tmp/ccKdsjgl.s:1809   .text:0000000000000b84 .L0 
     /tmp/ccKdsjgl.s:1823   .text:0000000000000b9c .L0 
     /tmp/ccKdsjgl.s:1833   .text:0000000000000bb8 .L0 
     /tmp/ccKdsjgl.s:1834   .text:0000000000000bb8 .L0 
     /tmp/ccKdsjgl.s:1837   .text:0000000000000bc0 .L0 
     /tmp/ccKdsjgl.s:1839   .text:0000000000000bc4 .L0 
     /tmp/ccKdsjgl.s:1843   .text:0000000000000bd0 .L0 
     /tmp/ccKdsjgl.s:1845   .text:0000000000000bd4 .L0 
     /tmp/ccKdsjgl.s:1846   .text:0000000000000bd4 .L0 
     /tmp/ccKdsjgl.s:1849   .text:0000000000000bdc .L0 
     /tmp/ccKdsjgl.s:1851   .text:0000000000000be0 .L0 
     /tmp/ccKdsjgl.s:1855   .text:0000000000000bec .L0 
     /tmp/ccKdsjgl.s:1857   .text:0000000000000bf0 .L0 
     /tmp/ccKdsjgl.s:1858   .text:0000000000000bf0 .L0 
     /tmp/ccKdsjgl.s:1860   .text:0000000000000bf4 .L0 
     /tmp/ccKdsjgl.s:1862   .text:0000000000000bf8 .L0 
     /tmp/ccKdsjgl.s:1866   .text:0000000000000c00 .L0 
GAS LISTING /tmp/ccKdsjgl.s 			page 158


     /tmp/ccKdsjgl.s:1868   .text:0000000000000c04 .L0 
     /tmp/ccKdsjgl.s:1870   .text:0000000000000c08 .L0 
     /tmp/ccKdsjgl.s:1872   .text:0000000000000c0c .L0 
     /tmp/ccKdsjgl.s:1873   .text:0000000000000c0c .L0 
     /tmp/ccKdsjgl.s:1875   .text:0000000000000c10 .L0 
     /tmp/ccKdsjgl.s:1877   .text:0000000000000c14 .L0 
     /tmp/ccKdsjgl.s:1878   .text:0000000000000c14 .L0 
     /tmp/ccKdsjgl.s:1883   .text:0000000000000c20 .L0 
     /tmp/ccKdsjgl.s:1887   .text:0000000000000c28 .L0 
     /tmp/ccKdsjgl.s:1889   .text:0000000000000c2c .L0 
     /tmp/ccKdsjgl.s:1891   .text:0000000000000c30 .L0 
     /tmp/ccKdsjgl.s:1893   .text:0000000000000c34 .L0 
     /tmp/ccKdsjgl.s:1895   .text:0000000000000c38 .L0 
     /tmp/ccKdsjgl.s:1900   .text:0000000000000c44 .L0 
     /tmp/ccKdsjgl.s:1902   .text:0000000000000c48 .L0 
     /tmp/ccKdsjgl.s:1903   .text:0000000000000c48 .L0 
     /tmp/ccKdsjgl.s:1905   .text:0000000000000c4c .L0 
     /tmp/ccKdsjgl.s:1907   .text:0000000000000c50 .L0 
     /tmp/ccKdsjgl.s:1909   .text:0000000000000c54 .L0 
     /tmp/ccKdsjgl.s:1911   .text:0000000000000c58 .L0 
     /tmp/ccKdsjgl.s:1913   .text:0000000000000c5c .L0 
     /tmp/ccKdsjgl.s:1917   .text:0000000000000c60 .L0 
     /tmp/ccKdsjgl.s:1918   .text:0000000000000c60 .L0 
     /tmp/ccKdsjgl.s:1922   .text:0000000000000c64 .L0 
     /tmp/ccKdsjgl.s:1923   .text:0000000000000c64 .L0 
     /tmp/ccKdsjgl.s:1925   .text:0000000000000c68 .L0 
     /tmp/ccKdsjgl.s:1927   .text:0000000000000c6c .L0 
     /tmp/ccKdsjgl.s:1928   .text:0000000000000c6c .L0 
     /tmp/ccKdsjgl.s:1930   .text:0000000000000c70 .L0 
     /tmp/ccKdsjgl.s:1933   .text:0000000000000c74 .L0 
     /tmp/ccKdsjgl.s:1935   .text:0000000000000c78 .L0 
     /tmp/ccKdsjgl.s:1937   .text:0000000000000c7c .L0 
     /tmp/ccKdsjgl.s:1940   .text:0000000000000c80 .L0 
     /tmp/ccKdsjgl.s:1951   .text:0000000000000c84 .L0 
     /tmp/ccKdsjgl.s:1952   .text:0000000000000c84 .L0 
     /tmp/ccKdsjgl.s:1953   .text:0000000000000c84 .L0 
     /tmp/ccKdsjgl.s:1958   .text:0000000000000c88 .L0 
     /tmp/ccKdsjgl.s:1961   .text:0000000000000c90 .L0 
     /tmp/ccKdsjgl.s:1962   .text:0000000000000c90 .L0 
     /tmp/ccKdsjgl.s:1967   .text:0000000000000c94 .L0 
     /tmp/ccKdsjgl.s:1971   .text:0000000000000c98 .L0 
     /tmp/ccKdsjgl.s:1972   .text:0000000000000c98 .L0 
     /tmp/ccKdsjgl.s:1974   .text:0000000000000c9c .L0 
     /tmp/ccKdsjgl.s:1977   .text:0000000000000ca0 .L0 
     /tmp/ccKdsjgl.s:1978   .text:0000000000000ca0 .L0 
     /tmp/ccKdsjgl.s:1981   .text:0000000000000ca8 .L0 
     /tmp/ccKdsjgl.s:1983   .text:0000000000000cac .L0 
     /tmp/ccKdsjgl.s:1986   .text:0000000000000cb4 .L0 
     /tmp/ccKdsjgl.s:1990   .text:0000000000000cc0 .L0 
     /tmp/ccKdsjgl.s:1996   .text:0000000000000cc8 .L0 
     /tmp/ccKdsjgl.s:1997   .text:0000000000000cc8 .L0 
     /tmp/ccKdsjgl.s:2003   .text:0000000000000cdc .L0 
     /tmp/ccKdsjgl.s:2004   .text:0000000000000cdc .L0 
     /tmp/ccKdsjgl.s:2010   .text:0000000000000cf0 .L0 
     /tmp/ccKdsjgl.s:2011   .text:0000000000000cf0 .L0 
     /tmp/ccKdsjgl.s:2020   .text:0000000000000d04 .L0 
     /tmp/ccKdsjgl.s:2021   .text:0000000000000d04 .L0 
GAS LISTING /tmp/ccKdsjgl.s 			page 159


     /tmp/ccKdsjgl.s:2024   .text:0000000000000d08 .L0 
     /tmp/ccKdsjgl.s:2025   .text:0000000000000d0c .L0 
     /tmp/ccKdsjgl.s:2026   .text:0000000000000d0c .L0 
     /tmp/ccKdsjgl.s:2028   .text:0000000000000d10 .L0 
     /tmp/ccKdsjgl.s:2030   .text:0000000000000d14 .L0 
     /tmp/ccKdsjgl.s:2032   .text:0000000000000d18 .L0 
     /tmp/ccKdsjgl.s:2035   .text:0000000000000d1c .L0 
     /tmp/ccKdsjgl.s:2037   .text:0000000000000d20 .L0 
     /tmp/ccKdsjgl.s:2040   .text:0000000000000d24 .L0 
     /tmp/ccKdsjgl.s:2042   .text:0000000000000d28 .L0 
     /tmp/ccKdsjgl.s:2044   .text:0000000000000d2c .L0 
     /tmp/ccKdsjgl.s:2048   .text:0000000000000d30 .L0 
     /tmp/ccKdsjgl.s:2052   .text:0000000000000d30 .L0 
     /tmp/ccKdsjgl.s:2053   .text:0000000000000d30 .L0 
     /tmp/ccKdsjgl.s:2054   .text:0000000000000d30 .L0 
     /tmp/ccKdsjgl.s:2059   .text:0000000000000d34 .L0 
     /tmp/ccKdsjgl.s:2062   .text:0000000000000d3c .L0 
     /tmp/ccKdsjgl.s:2063   .text:0000000000000d3c .L0 
     /tmp/ccKdsjgl.s:2068   .text:0000000000000d40 .L0 
     /tmp/ccKdsjgl.s:2072   .text:0000000000000d44 .L0 
     /tmp/ccKdsjgl.s:2073   .text:0000000000000d44 .L0 
     /tmp/ccKdsjgl.s:2075   .text:0000000000000d48 .L0 
     /tmp/ccKdsjgl.s:2077   .text:0000000000000d4c .L0 
     /tmp/ccKdsjgl.s:2078   .text:0000000000000d4c .L0 
     /tmp/ccKdsjgl.s:2081   .text:0000000000000d54 .L0 
     /tmp/ccKdsjgl.s:2083   .text:0000000000000d58 .L0 
     /tmp/ccKdsjgl.s:2086   .text:0000000000000d60 .L0 
     /tmp/ccKdsjgl.s:2090   .text:0000000000000d6c .L0 
     /tmp/ccKdsjgl.s:2096   .text:0000000000000d74 .L0 
     /tmp/ccKdsjgl.s:2097   .text:0000000000000d74 .L0 
     /tmp/ccKdsjgl.s:2103   .text:0000000000000d88 .L0 
     /tmp/ccKdsjgl.s:2104   .text:0000000000000d88 .L0 
     /tmp/ccKdsjgl.s:2110   .text:0000000000000d9c .L0 
     /tmp/ccKdsjgl.s:2111   .text:0000000000000d9c .L0 
     /tmp/ccKdsjgl.s:2120   .text:0000000000000db0 .L0 
     /tmp/ccKdsjgl.s:2121   .text:0000000000000db0 .L0 
     /tmp/ccKdsjgl.s:2128   .text:0000000000000db8 .L0 
     /tmp/ccKdsjgl.s:2129   .text:0000000000000db8 .L0 
     /tmp/ccKdsjgl.s:2130   .text:0000000000000db8 .L0 
     /tmp/ccKdsjgl.s:2135   .text:0000000000000dbc .L0 
     /tmp/ccKdsjgl.s:2137   .text:0000000000000dc0 .L0 
     /tmp/ccKdsjgl.s:2138   .text:0000000000000dc0 .L0 
     /tmp/ccKdsjgl.s:2143   .text:0000000000000dc4 .L0 
     /tmp/ccKdsjgl.s:2147   .text:0000000000000dc8 .L0 
     /tmp/ccKdsjgl.s:2148   .text:0000000000000dc8 .L0 
     /tmp/ccKdsjgl.s:2150   .text:0000000000000dcc .L0 
     /tmp/ccKdsjgl.s:2152   .text:0000000000000dd0 .L0 
     /tmp/ccKdsjgl.s:2153   .text:0000000000000dd0 .L0 
     /tmp/ccKdsjgl.s:2156   .text:0000000000000dd8 .L0 
     /tmp/ccKdsjgl.s:2158   .text:0000000000000ddc .L0 
     /tmp/ccKdsjgl.s:2161   .text:0000000000000de4 .L0 
     /tmp/ccKdsjgl.s:2165   .text:0000000000000df0 .L0 
     /tmp/ccKdsjgl.s:2171   .text:0000000000000df8 .L0 
     /tmp/ccKdsjgl.s:2172   .text:0000000000000df8 .L0 
     /tmp/ccKdsjgl.s:2178   .text:0000000000000e0c .L0 
     /tmp/ccKdsjgl.s:2179   .text:0000000000000e0c .L0 
     /tmp/ccKdsjgl.s:2185   .text:0000000000000e20 .L0 
GAS LISTING /tmp/ccKdsjgl.s 			page 160


     /tmp/ccKdsjgl.s:2186   .text:0000000000000e20 .L0 
     /tmp/ccKdsjgl.s:2195   .text:0000000000000e34 .L0 
     /tmp/ccKdsjgl.s:2196   .text:0000000000000e34 .L0 
     /tmp/ccKdsjgl.s:2202   .text:0000000000000e3c .L0 
     /tmp/ccKdsjgl.s:2206   .text:0000000000000e40 .L0 
     /tmp/ccKdsjgl.s:2209   .text:0000000000000e48 .L0 
     /tmp/ccKdsjgl.s:2210   .text:0000000000000e48 .L0 
     /tmp/ccKdsjgl.s:2213   .text:0000000000000e4c .L0 
     /tmp/ccKdsjgl.s:2217   .text:0000000000000e58 .L0 
     /tmp/ccKdsjgl.s:2224   .text:0000000000000e70 .L0 
     /tmp/ccKdsjgl.s:2226   .text:0000000000000e74 .L0 
     /tmp/ccKdsjgl.s:2231   .text:0000000000000e78 .L0 
     /tmp/ccKdsjgl.s:2232   .text:0000000000000e78 .L0 
     /tmp/ccKdsjgl.s:2243   .text:0000000000000e9c .L0 
     /tmp/ccKdsjgl.s:2247   .text:0000000000000ea4 .L0 
     /tmp/ccKdsjgl.s:2248   .text:0000000000000ea4 .L0 
     /tmp/ccKdsjgl.s:2253   .text:0000000000000ea8 .L0 
     /tmp/ccKdsjgl.s:2257   .text:0000000000000eac .L0 
     /tmp/ccKdsjgl.s:2258   .text:0000000000000eac .L0 
     /tmp/ccKdsjgl.s:2260   .text:0000000000000eb0 .L0 
     /tmp/ccKdsjgl.s:2262   .text:0000000000000eb4 .L0 
     /tmp/ccKdsjgl.s:2263   .text:0000000000000eb4 .L0 
     /tmp/ccKdsjgl.s:2266   .text:0000000000000ebc .L0 
     /tmp/ccKdsjgl.s:2268   .text:0000000000000ec0 .L0 
     /tmp/ccKdsjgl.s:2271   .text:0000000000000ec8 .L0 
     /tmp/ccKdsjgl.s:2275   .text:0000000000000ed4 .L0 
     /tmp/ccKdsjgl.s:2284   .text:0000000000000edc .L0 
     /tmp/ccKdsjgl.s:2291   .text:0000000000000ef4 .L0 
     /tmp/ccKdsjgl.s:2293   .text:0000000000000ef8 .L0 
     /tmp/ccKdsjgl.s:2294   .text:0000000000000ef8 .L0 
     /tmp/ccKdsjgl.s:2296   .text:0000000000000efc .L0 
     /tmp/ccKdsjgl.s:2300   .text:0000000000000f04 .L0 
     /tmp/ccKdsjgl.s:2304   .text:0000000000000f08 .L0 
     /tmp/ccKdsjgl.s:2307   .text:0000000000000f10 .L0 
     /tmp/ccKdsjgl.s:2308   .text:0000000000000f10 .L0 
     /tmp/ccKdsjgl.s:2311   .text:0000000000000f14 .L0 
     /tmp/ccKdsjgl.s:2315   .text:0000000000000f20 .L0 
     /tmp/ccKdsjgl.s:2322   .text:0000000000000f38 .L0 
     /tmp/ccKdsjgl.s:2324   .text:0000000000000f3c .L0 
     /tmp/ccKdsjgl.s:2331   .text:0000000000000f40 .L0 
     /tmp/ccKdsjgl.s:2332   .text:0000000000000f40 .L0 
     /tmp/ccKdsjgl.s:2338   .text:0000000000000f54 .L0 
     /tmp/ccKdsjgl.s:2339   .text:0000000000000f54 .L0 
     /tmp/ccKdsjgl.s:2345   .text:0000000000000f68 .L0 
     /tmp/ccKdsjgl.s:2346   .text:0000000000000f68 .L0 
     /tmp/ccKdsjgl.s:2355   .text:0000000000000f7c .L0 
     /tmp/ccKdsjgl.s:2356   .text:0000000000000f7c .L0 
     /tmp/ccKdsjgl.s:2360   .text:0000000000000f84 .L0 
     /tmp/ccKdsjgl.s:2361   .text:0000000000000f84 .L0 
     /tmp/ccKdsjgl.s:2369   .text:0000000000000f8c .L0 
     /tmp/ccKdsjgl.s:2370   .text:0000000000000f8c .L0 
     /tmp/ccKdsjgl.s:2373   .text:0000000000000f94 .L0 
     /tmp/ccKdsjgl.s:2375   .text:0000000000000f98 .L0 
     /tmp/ccKdsjgl.s:2378   .text:0000000000000fa0 .L0 
     /tmp/ccKdsjgl.s:2382   .text:0000000000000fac .L0 
     /tmp/ccKdsjgl.s:2386   .text:0000000000000fb0 .L0 
     /tmp/ccKdsjgl.s:2387   .text:0000000000000fb0 .L0 
GAS LISTING /tmp/ccKdsjgl.s 			page 161


     /tmp/ccKdsjgl.s:2389   .text:0000000000000fb4 .L0 
     /tmp/ccKdsjgl.s:2392   .text:0000000000000fb8 .L0 
     /tmp/ccKdsjgl.s:2393   .text:0000000000000fb8 .L0 
     /tmp/ccKdsjgl.s:2399   .text:0000000000000fcc .L0 
     /tmp/ccKdsjgl.s:2400   .text:0000000000000fcc .L0 
     /tmp/ccKdsjgl.s:2406   .text:0000000000000fe0 .L0 
     /tmp/ccKdsjgl.s:2407   .text:0000000000000fe0 .L0 
     /tmp/ccKdsjgl.s:2416   .text:0000000000000ff4 .L0 
     /tmp/ccKdsjgl.s:2417   .text:0000000000000ff4 .L0 
     /tmp/ccKdsjgl.s:2422   .text:0000000000000ffc .L0 
     /tmp/ccKdsjgl.s:2423   .text:0000000000000ffc .L0 
     /tmp/ccKdsjgl.s:2425   .text:0000000000001000 .L0 
     /tmp/ccKdsjgl.s:2428   .text:0000000000001008 .L0 
     /tmp/ccKdsjgl.s:2429   .text:0000000000001008 .L0 
     /tmp/ccKdsjgl.s:2436   .text:000000000000100c .L0 
     /tmp/ccKdsjgl.s:2437   .text:000000000000100c .L0 
     /tmp/ccKdsjgl.s:2439   .text:0000000000001010 .L0 
     /tmp/ccKdsjgl.s:2441   .text:0000000000001014 .L0 
     /tmp/ccKdsjgl.s:2442   .text:0000000000001014 .L0 
     /tmp/ccKdsjgl.s:2445   .text:000000000000101c .L0 
     /tmp/ccKdsjgl.s:2447   .text:0000000000001020 .L0 
     /tmp/ccKdsjgl.s:2450   .text:0000000000001028 .L0 
     /tmp/ccKdsjgl.s:2454   .text:0000000000001034 .L0 
     /tmp/ccKdsjgl.s:2460   .text:000000000000103c .L0 
     /tmp/ccKdsjgl.s:2461   .text:000000000000103c .L0 
     /tmp/ccKdsjgl.s:2467   .text:0000000000001050 .L0 
     /tmp/ccKdsjgl.s:2468   .text:0000000000001050 .L0 
     /tmp/ccKdsjgl.s:2474   .text:0000000000001064 .L0 
     /tmp/ccKdsjgl.s:2475   .text:0000000000001064 .L0 
     /tmp/ccKdsjgl.s:2484   .text:0000000000001078 .L0 
     /tmp/ccKdsjgl.s:2485   .text:0000000000001078 .L0 
     /tmp/ccKdsjgl.s:2489   .text:0000000000001080 .L0 
     /tmp/ccKdsjgl.s:2490   .text:0000000000001080 .L0 
     /tmp/ccKdsjgl.s:2498   .text:000000000000109c .L0 
     /tmp/ccKdsjgl.s:2499   .text:000000000000109c .L0 
     /tmp/ccKdsjgl.s:2505   .text:00000000000010ac .L0 
     /tmp/ccKdsjgl.s:2506   .text:00000000000010ac .L0 
     /tmp/ccKdsjgl.s:2512   .text:00000000000010c0 .L0 
     /tmp/ccKdsjgl.s:2516   .text:00000000000010c8 .L0 
     /tmp/ccKdsjgl.s:2517   .text:00000000000010c8 .L0 
     /tmp/ccKdsjgl.s:2524   .text:00000000000010cc .L0 
     /tmp/ccKdsjgl.s:2525   .text:00000000000010cc .L0 
     /tmp/ccKdsjgl.s:2527   .text:00000000000010d0 .L0 
     /tmp/ccKdsjgl.s:2529   .text:00000000000010d4 .L0 
     /tmp/ccKdsjgl.s:2530   .text:00000000000010d4 .L0 
     /tmp/ccKdsjgl.s:2533   .text:00000000000010dc .L0 
     /tmp/ccKdsjgl.s:2535   .text:00000000000010e0 .L0 
     /tmp/ccKdsjgl.s:2538   .text:00000000000010e8 .L0 
     /tmp/ccKdsjgl.s:2542   .text:00000000000010f4 .L0 
     /tmp/ccKdsjgl.s:2551   .text:00000000000010fc .L0 
     /tmp/ccKdsjgl.s:2557   .text:0000000000001110 .L0 
     /tmp/ccKdsjgl.s:2560   .text:0000000000001118 .L0 
     /tmp/ccKdsjgl.s:2561   .text:0000000000001118 .L0 
     /tmp/ccKdsjgl.s:2563   .text:000000000000111c .L0 
     /tmp/ccKdsjgl.s:2565   .text:0000000000001120 .L0 
     /tmp/ccKdsjgl.s:2566   .text:0000000000001120 .L0 
     /tmp/ccKdsjgl.s:2568   .text:0000000000001124 .L0 
GAS LISTING /tmp/ccKdsjgl.s 			page 162


     /tmp/ccKdsjgl.s:2573   .text:0000000000001130 .L0 
     /tmp/ccKdsjgl.s:2574   .text:0000000000001130 .L0 
     /tmp/ccKdsjgl.s:2581   .text:0000000000001138 .L0 
     /tmp/ccKdsjgl.s:2582   .text:0000000000001138 .L0 
     /tmp/ccKdsjgl.s:2588   .text:000000000000114c .L0 
     /tmp/ccKdsjgl.s:2589   .text:000000000000114c .L0 
     /tmp/ccKdsjgl.s:2595   .text:0000000000001160 .L0 
     /tmp/ccKdsjgl.s:2596   .text:0000000000001160 .L0 
     /tmp/ccKdsjgl.s:2605   .text:0000000000001174 .L0 
     /tmp/ccKdsjgl.s:2606   .text:0000000000001174 .L0 
     /tmp/ccKdsjgl.s:2610   .text:000000000000117c .L0 
     /tmp/ccKdsjgl.s:2611   .text:000000000000117c .L0 
     /tmp/ccKdsjgl.s:2619   .text:0000000000001198 .L0 
     /tmp/ccKdsjgl.s:2620   .text:0000000000001198 .L0 
     /tmp/ccKdsjgl.s:2625   .text:00000000000011a8 .L0 
     /tmp/ccKdsjgl.s:2626   .text:00000000000011a8 .L0 
     /tmp/ccKdsjgl.s:2631   .text:00000000000011b8 .L0 
     /tmp/ccKdsjgl.s:2632   .text:00000000000011b8 .L0 
     /tmp/ccKdsjgl.s:2637   .text:00000000000011c8 .L0 
     /tmp/ccKdsjgl.s:2638   .text:00000000000011c8 .L0 
     /tmp/ccKdsjgl.s:2644   .text:00000000000011dc .L0 
     /tmp/ccKdsjgl.s:2648   .text:00000000000011e4 .L0 
     /tmp/ccKdsjgl.s:2649   .text:00000000000011e4 .L0 
     /tmp/ccKdsjgl.s:2651   .text:00000000000011e8 .L0 
     /tmp/ccKdsjgl.s:2656   .text:00000000000011f4 .L0 
     /tmp/ccKdsjgl.s:2657   .text:00000000000011f4 .L0 
     /tmp/ccKdsjgl.s:2661   .text:00000000000011fc .L0 
     /tmp/ccKdsjgl.s:2667   .text:0000000000001210 .L0 
     /tmp/ccKdsjgl.s:2670   .text:0000000000001218 .L0 
     /tmp/ccKdsjgl.s:2671   .text:0000000000001218 .L0 
     /tmp/ccKdsjgl.s:2673   .text:000000000000121c .L0 
     /tmp/ccKdsjgl.s:2676   .text:0000000000001224 .L0 
     /tmp/ccKdsjgl.s:2677   .text:0000000000001224 .L0 
     /tmp/ccKdsjgl.s:2679   .text:0000000000001228 .L0 
     /tmp/ccKdsjgl.s:2684   .text:0000000000001234 .L0 
     /tmp/ccKdsjgl.s:2685   .text:0000000000001234 .L0 
     /tmp/ccKdsjgl.s:2689   .text:000000000000123c .L0 
     /tmp/ccKdsjgl.s:2690   .text:000000000000123c .L0 
     /tmp/ccKdsjgl.s:2698   .text:0000000000001258 .L0 
     /tmp/ccKdsjgl.s:2699   .text:0000000000001258 .L0 
     /tmp/ccKdsjgl.s:2704   .text:0000000000001268 .L0 
     /tmp/ccKdsjgl.s:2705   .text:0000000000001268 .L0 
     /tmp/ccKdsjgl.s:2711   .text:000000000000127c .L0 
     /tmp/ccKdsjgl.s:2715   .text:0000000000001284 .L0 
     /tmp/ccKdsjgl.s:2716   .text:0000000000001284 .L0 
     /tmp/ccKdsjgl.s:2718   .text:0000000000001288 .L0 
     /tmp/ccKdsjgl.s:2723   .text:0000000000001294 .L0 
     /tmp/ccKdsjgl.s:2724   .text:0000000000001294 .L0 
     /tmp/ccKdsjgl.s:2728   .text:000000000000129c .L0 
     /tmp/ccKdsjgl.s:2734   .text:00000000000012b0 .L0 
     /tmp/ccKdsjgl.s:2737   .text:00000000000012b8 .L0 
     /tmp/ccKdsjgl.s:2738   .text:00000000000012b8 .L0 
     /tmp/ccKdsjgl.s:2740   .text:00000000000012bc .L0 
     /tmp/ccKdsjgl.s:2743   .text:00000000000012c4 .L0 
     /tmp/ccKdsjgl.s:2744   .text:00000000000012c4 .L0 
     /tmp/ccKdsjgl.s:2746   .text:00000000000012c8 .L0 
     /tmp/ccKdsjgl.s:2751   .text:00000000000012d4 .L0 
GAS LISTING /tmp/ccKdsjgl.s 			page 163


     /tmp/ccKdsjgl.s:2752   .text:00000000000012d4 .L0 
     /tmp/ccKdsjgl.s:2756   .text:00000000000012dc .L0 
     /tmp/ccKdsjgl.s:2757   .text:00000000000012dc .L0 
     /tmp/ccKdsjgl.s:2762   .text:00000000000012ec .L0 
     /tmp/ccKdsjgl.s:2763   .text:00000000000012ec .L0 
     /tmp/ccKdsjgl.s:2769   .text:0000000000001300 .L0 
     /tmp/ccKdsjgl.s:2773   .text:0000000000001308 .L0 
     /tmp/ccKdsjgl.s:2774   .text:0000000000001308 .L0 
     /tmp/ccKdsjgl.s:2776   .text:000000000000130c .L0 
     /tmp/ccKdsjgl.s:2779   .text:0000000000001314 .L0 
     /tmp/ccKdsjgl.s:2780   .text:0000000000001314 .L0 
     /tmp/ccKdsjgl.s:2782   .text:0000000000001318 .L0 
     /tmp/ccKdsjgl.s:2787   .text:0000000000001324 .L0 
     /tmp/ccKdsjgl.s:2788   .text:0000000000001324 .L0 
     /tmp/ccKdsjgl.s:2792   .text:000000000000132c .L0 
     /tmp/ccKdsjgl.s:2798   .text:0000000000001340 .L0 
     /tmp/ccKdsjgl.s:2802   .text:0000000000001348 .L0 
     /tmp/ccKdsjgl.s:2803   .text:0000000000001348 .L0 
     /tmp/ccKdsjgl.s:2808   .text:0000000000001358 .L0 
     /tmp/ccKdsjgl.s:2809   .text:0000000000001358 .L0 
     /tmp/ccKdsjgl.s:2815   .text:000000000000136c .L0 
     /tmp/ccKdsjgl.s:2819   .text:0000000000001374 .L0 
     /tmp/ccKdsjgl.s:2820   .text:0000000000001374 .L0 
     /tmp/ccKdsjgl.s:2822   .text:0000000000001378 .L0 
     /tmp/ccKdsjgl.s:2827   .text:0000000000001384 .L0 
     /tmp/ccKdsjgl.s:2828   .text:0000000000001384 .L0 
     /tmp/ccKdsjgl.s:2832   .text:000000000000138c .L0 
     /tmp/ccKdsjgl.s:2838   .text:00000000000013a0 .L0 
     /tmp/ccKdsjgl.s:2841   .text:00000000000013a8 .L0 
     /tmp/ccKdsjgl.s:2842   .text:00000000000013a8 .L0 
     /tmp/ccKdsjgl.s:2844   .text:00000000000013ac .L0 
     /tmp/ccKdsjgl.s:2848   .text:00000000000013b4 .L0 
     /tmp/ccKdsjgl.s:2852   .text:00000000000013b8 .L0 
     /tmp/ccKdsjgl.s:2855   .text:00000000000013c0 .L0 
     /tmp/ccKdsjgl.s:2856   .text:00000000000013c0 .L0 
     /tmp/ccKdsjgl.s:2861   .text:00000000000013d0 .L0 
     /tmp/ccKdsjgl.s:2862   .text:00000000000013d0 .L0 
     /tmp/ccKdsjgl.s:2867   .text:00000000000013e0 .L0 
     /tmp/ccKdsjgl.s:2869   .text:00000000000013e4 .L0 
     /tmp/ccKdsjgl.s:2870   .text:00000000000013e4 .L0 
     /tmp/ccKdsjgl.s:2876   .text:00000000000013f8 .L0 
     /tmp/ccKdsjgl.s:2879   .text:0000000000001400 .L0 
     /tmp/ccKdsjgl.s:2885   .text:0000000000001414 .L0 
     /tmp/ccKdsjgl.s:2887   .text:0000000000001418 .L0 
     /tmp/ccKdsjgl.s:2888   .text:0000000000001418 .L0 
     /tmp/ccKdsjgl.s:2890   .text:000000000000141c .L0 
     /tmp/ccKdsjgl.s:2893   .text:0000000000001424 .L0 
     /tmp/ccKdsjgl.s:2894   .text:0000000000001424 .L0 
     /tmp/ccKdsjgl.s:2902   .text:0000000000001440 .L0 
     /tmp/ccKdsjgl.s:2903   .text:0000000000001440 .L0 
     /tmp/ccKdsjgl.s:2908   .text:0000000000001450 .L0 
     /tmp/ccKdsjgl.s:2910   .text:0000000000001454 .L0 
     /tmp/ccKdsjgl.s:2911   .text:0000000000001454 .L0 
     /tmp/ccKdsjgl.s:2917   .text:0000000000001468 .L0 
     /tmp/ccKdsjgl.s:2919   .text:000000000000146c .L0 
     /tmp/ccKdsjgl.s:2925   .text:0000000000001480 .L0 
     /tmp/ccKdsjgl.s:2928   .text:0000000000001488 .L0 
GAS LISTING /tmp/ccKdsjgl.s 			page 164


     /tmp/ccKdsjgl.s:2929   .text:0000000000001488 .L0 
     /tmp/ccKdsjgl.s:2931   .text:000000000000148c .L0 
     /tmp/ccKdsjgl.s:2933   .text:0000000000001490 .L0 
     /tmp/ccKdsjgl.s:2939   .text:0000000000001498 .L0 
     /tmp/ccKdsjgl.s:2940   .text:0000000000001498 .L0 
     /tmp/ccKdsjgl.s:2942   .text:000000000000149c .L0 
     /tmp/ccKdsjgl.s:2947   .text:00000000000014a8 .L0 
     /tmp/ccKdsjgl.s:2948   .text:00000000000014a8 .L0 
     /tmp/ccKdsjgl.s:2954   .text:00000000000014b0 .L0 
     /tmp/ccKdsjgl.s:2955   .text:00000000000014b0 .L0 
     /tmp/ccKdsjgl.s:2957   .text:00000000000014b4 .L0 
     /tmp/ccKdsjgl.s:2962   .text:00000000000014c0 .L0 
     /tmp/ccKdsjgl.s:2963   .text:00000000000014c0 .L0 
     /tmp/ccKdsjgl.s:2967   .text:00000000000014c8 .L0 
     /tmp/ccKdsjgl.s:2968   .text:00000000000014c8 .L0 
     /tmp/ccKdsjgl.s:2970   .text:00000000000014cc .L0 
     /tmp/ccKdsjgl.s:2975   .text:00000000000014d8 .L0 
     /tmp/ccKdsjgl.s:2976   .text:00000000000014d8 .L0 
     /tmp/ccKdsjgl.s:2980   .text:00000000000014e0 .L0 
     /tmp/ccKdsjgl.s:2981   .text:00000000000014e0 .L0 
     /tmp/ccKdsjgl.s:2983   .text:00000000000014e4 .L0 
     /tmp/ccKdsjgl.s:2988   .text:00000000000014f0 .L0 
     /tmp/ccKdsjgl.s:2989   .text:00000000000014f0 .L0 
     /tmp/ccKdsjgl.s:2993   .text:00000000000014f8 .L0 
     /tmp/ccKdsjgl.s:2994   .text:00000000000014f8 .L0 
     /tmp/ccKdsjgl.s:2996   .text:00000000000014fc .L0 
     /tmp/ccKdsjgl.s:3001   .text:0000000000001508 .L0 
     /tmp/ccKdsjgl.s:3002   .text:0000000000001508 .L0 
     /tmp/ccKdsjgl.s:3007   .text:0000000000001510 .L0 
     /tmp/ccKdsjgl.s:3008   .text:0000000000001510 .L0 
     /tmp/ccKdsjgl.s:3010   .text:0000000000001514 .L0 
     /tmp/ccKdsjgl.s:3015   .text:0000000000001520 .L0 
     /tmp/ccKdsjgl.s:3019   .text:0000000000001528 .L0 
     /tmp/ccKdsjgl.s:3026   .text:0000000000001534 .L0 
     /tmp/ccKdsjgl.s:3034   .text:000000000000154c .L0 
     /tmp/ccKdsjgl.s:3063   .text:000000000000154c _ZN20KObjectAllocatorTest5test2Em
     /tmp/ccKdsjgl.s:3066   .text:000000000000154c .L0 
     /tmp/ccKdsjgl.s:3070   .text:000000000000154c .L0 
     /tmp/ccKdsjgl.s:3071   .text:0000000000001550 .L0 
     /tmp/ccKdsjgl.s:3082   .text:0000000000001578 .L0 
     /tmp/ccKdsjgl.s:3083   .text:0000000000001578 .L0 
     /tmp/ccKdsjgl.s:3084   .text:0000000000001578 .L0 
     /tmp/ccKdsjgl.s:3085   .text:0000000000001578 .L0 
     /tmp/ccKdsjgl.s:3086   .text:0000000000001578 .L0 
     /tmp/ccKdsjgl.s:3087   .text:0000000000001578 .L0 
     /tmp/ccKdsjgl.s:3088   .text:0000000000001578 .L0 
     /tmp/ccKdsjgl.s:3089   .text:0000000000001578 .L0 
     /tmp/ccKdsjgl.s:3090   .text:0000000000001578 .L0 
     /tmp/ccKdsjgl.s:3091   .text:0000000000001578 .L0 
     /tmp/ccKdsjgl.s:3093   .text:000000000000157c .L0 
     /tmp/ccKdsjgl.s:3100   .text:0000000000001584 .L0 
     /tmp/ccKdsjgl.s:3102   .text:0000000000001584 .L0 
     /tmp/ccKdsjgl.s:3103   .text:0000000000001584 .L0 
     /tmp/ccKdsjgl.s:3116   .text:000000000000159c .L0 
     /tmp/ccKdsjgl.s:3126   .text:00000000000015b8 .L0 
     /tmp/ccKdsjgl.s:3127   .text:00000000000015b8 .L0 
     /tmp/ccKdsjgl.s:3130   .text:00000000000015c0 .L0 
GAS LISTING /tmp/ccKdsjgl.s 			page 165


     /tmp/ccKdsjgl.s:3132   .text:00000000000015c4 .L0 
     /tmp/ccKdsjgl.s:3136   .text:00000000000015d0 .L0 
     /tmp/ccKdsjgl.s:3138   .text:00000000000015d4 .L0 
     /tmp/ccKdsjgl.s:3139   .text:00000000000015d4 .L0 
     /tmp/ccKdsjgl.s:3142   .text:00000000000015dc .L0 
     /tmp/ccKdsjgl.s:3144   .text:00000000000015e0 .L0 
     /tmp/ccKdsjgl.s:3148   .text:00000000000015ec .L0 
     /tmp/ccKdsjgl.s:3150   .text:00000000000015f0 .L0 
     /tmp/ccKdsjgl.s:3151   .text:00000000000015f0 .L0 
     /tmp/ccKdsjgl.s:3153   .text:00000000000015f4 .L0 
     /tmp/ccKdsjgl.s:3155   .text:00000000000015f8 .L0 
     /tmp/ccKdsjgl.s:3159   .text:0000000000001600 .L0 
     /tmp/ccKdsjgl.s:3161   .text:0000000000001604 .L0 
     /tmp/ccKdsjgl.s:3163   .text:0000000000001608 .L0 
     /tmp/ccKdsjgl.s:3165   .text:000000000000160c .L0 
     /tmp/ccKdsjgl.s:3166   .text:000000000000160c .L0 
     /tmp/ccKdsjgl.s:3168   .text:0000000000001610 .L0 
     /tmp/ccKdsjgl.s:3170   .text:0000000000001614 .L0 
     /tmp/ccKdsjgl.s:3171   .text:0000000000001614 .L0 
     /tmp/ccKdsjgl.s:3176   .text:0000000000001620 .L0 
     /tmp/ccKdsjgl.s:3180   .text:0000000000001628 .L0 
     /tmp/ccKdsjgl.s:3182   .text:000000000000162c .L0 
     /tmp/ccKdsjgl.s:3184   .text:0000000000001630 .L0 
     /tmp/ccKdsjgl.s:3186   .text:0000000000001634 .L0 
     /tmp/ccKdsjgl.s:3188   .text:0000000000001638 .L0 
     /tmp/ccKdsjgl.s:3193   .text:0000000000001644 .L0 
     /tmp/ccKdsjgl.s:3195   .text:0000000000001648 .L0 
     /tmp/ccKdsjgl.s:3196   .text:0000000000001648 .L0 
     /tmp/ccKdsjgl.s:3198   .text:000000000000164c .L0 
     /tmp/ccKdsjgl.s:3200   .text:0000000000001650 .L0 
     /tmp/ccKdsjgl.s:3202   .text:0000000000001654 .L0 
     /tmp/ccKdsjgl.s:3204   .text:0000000000001658 .L0 
     /tmp/ccKdsjgl.s:3206   .text:000000000000165c .L0 
     /tmp/ccKdsjgl.s:3210   .text:0000000000001660 .L0 
     /tmp/ccKdsjgl.s:3211   .text:0000000000001660 .L0 
     /tmp/ccKdsjgl.s:3215   .text:0000000000001664 .L0 
     /tmp/ccKdsjgl.s:3216   .text:0000000000001664 .L0 
     /tmp/ccKdsjgl.s:3218   .text:0000000000001668 .L0 
     /tmp/ccKdsjgl.s:3220   .text:000000000000166c .L0 
     /tmp/ccKdsjgl.s:3221   .text:000000000000166c .L0 
     /tmp/ccKdsjgl.s:3223   .text:0000000000001670 .L0 
     /tmp/ccKdsjgl.s:3226   .text:0000000000001674 .L0 
     /tmp/ccKdsjgl.s:3228   .text:0000000000001678 .L0 
     /tmp/ccKdsjgl.s:3230   .text:000000000000167c .L0 
     /tmp/ccKdsjgl.s:3233   .text:0000000000001680 .L0 
     /tmp/ccKdsjgl.s:3243   .text:0000000000001684 .L0 
     /tmp/ccKdsjgl.s:3244   .text:0000000000001684 .L0 
     /tmp/ccKdsjgl.s:3245   .text:0000000000001684 .L0 
     /tmp/ccKdsjgl.s:3250   .text:0000000000001688 .L0 
     /tmp/ccKdsjgl.s:3253   .text:0000000000001690 .L0 
     /tmp/ccKdsjgl.s:3254   .text:0000000000001690 .L0 
     /tmp/ccKdsjgl.s:3259   .text:0000000000001694 .L0 
     /tmp/ccKdsjgl.s:3266   .text:000000000000169c .L0 
     /tmp/ccKdsjgl.s:3267   .text:000000000000169c .L0 
     /tmp/ccKdsjgl.s:3270   .text:00000000000016a4 .L0 
     /tmp/ccKdsjgl.s:3272   .text:00000000000016a8 .L0 
     /tmp/ccKdsjgl.s:3275   .text:00000000000016b0 .L0 
GAS LISTING /tmp/ccKdsjgl.s 			page 166


     /tmp/ccKdsjgl.s:3279   .text:00000000000016bc .L0 
     /tmp/ccKdsjgl.s:3283   .text:00000000000016c0 .L0 
     /tmp/ccKdsjgl.s:3284   .text:00000000000016c0 .L0 
     /tmp/ccKdsjgl.s:3286   .text:00000000000016c4 .L0 
     /tmp/ccKdsjgl.s:3289   .text:00000000000016c8 .L0 
     /tmp/ccKdsjgl.s:3290   .text:00000000000016c8 .L0 
     /tmp/ccKdsjgl.s:3296   .text:00000000000016dc .L0 
     /tmp/ccKdsjgl.s:3297   .text:00000000000016dc .L0 
     /tmp/ccKdsjgl.s:3303   .text:00000000000016f0 .L0 
     /tmp/ccKdsjgl.s:3304   .text:00000000000016f0 .L0 
     /tmp/ccKdsjgl.s:3313   .text:0000000000001704 .L0 
     /tmp/ccKdsjgl.s:3314   .text:0000000000001704 .L0 
     /tmp/ccKdsjgl.s:3317   .text:0000000000001708 .L0 
     /tmp/ccKdsjgl.s:3319   .text:0000000000001710 .L0 
     /tmp/ccKdsjgl.s:3320   .text:0000000000001710 .L0 
     /tmp/ccKdsjgl.s:3322   .text:0000000000001714 .L0 
     /tmp/ccKdsjgl.s:3323   .text:0000000000001714 .L0 
     /tmp/ccKdsjgl.s:3325   .text:0000000000001718 .L0 
     /tmp/ccKdsjgl.s:3328   .text:000000000000171c .L0 
     /tmp/ccKdsjgl.s:3330   .text:0000000000001720 .L0 
     /tmp/ccKdsjgl.s:3333   .text:0000000000001724 .L0 
     /tmp/ccKdsjgl.s:3335   .text:0000000000001728 .L0 
     /tmp/ccKdsjgl.s:3337   .text:000000000000172c .L0 
     /tmp/ccKdsjgl.s:3339   .text:0000000000001730 .L0 
     /tmp/ccKdsjgl.s:3341   .text:0000000000001734 .L0 
     /tmp/ccKdsjgl.s:3343   .text:0000000000001738 .L0 
     /tmp/ccKdsjgl.s:3347   .text:000000000000173c .L0 
     /tmp/ccKdsjgl.s:3351   .text:000000000000173c .L0 
     /tmp/ccKdsjgl.s:3352   .text:000000000000173c .L0 
     /tmp/ccKdsjgl.s:3353   .text:000000000000173c .L0 
     /tmp/ccKdsjgl.s:3358   .text:0000000000001740 .L0 
     /tmp/ccKdsjgl.s:3361   .text:0000000000001748 .L0 
     /tmp/ccKdsjgl.s:3362   .text:0000000000001748 .L0 
     /tmp/ccKdsjgl.s:3367   .text:000000000000174c .L0 
     /tmp/ccKdsjgl.s:3373   .text:0000000000001754 .L0 
     /tmp/ccKdsjgl.s:3374   .text:0000000000001754 .L0 
     /tmp/ccKdsjgl.s:3377   .text:000000000000175c .L0 
     /tmp/ccKdsjgl.s:3379   .text:0000000000001760 .L0 
     /tmp/ccKdsjgl.s:3382   .text:0000000000001768 .L0 
     /tmp/ccKdsjgl.s:3386   .text:0000000000001774 .L0 
     /tmp/ccKdsjgl.s:3390   .text:0000000000001778 .L0 
     /tmp/ccKdsjgl.s:3391   .text:0000000000001778 .L0 
     /tmp/ccKdsjgl.s:3393   .text:000000000000177c .L0 
     /tmp/ccKdsjgl.s:3396   .text:0000000000001780 .L0 
     /tmp/ccKdsjgl.s:3397   .text:0000000000001780 .L0 
     /tmp/ccKdsjgl.s:3403   .text:0000000000001794 .L0 
     /tmp/ccKdsjgl.s:3404   .text:0000000000001794 .L0 
     /tmp/ccKdsjgl.s:3410   .text:00000000000017a8 .L0 
     /tmp/ccKdsjgl.s:3411   .text:00000000000017a8 .L0 
     /tmp/ccKdsjgl.s:3420   .text:00000000000017bc .L0 
     /tmp/ccKdsjgl.s:3421   .text:00000000000017bc .L0 
     /tmp/ccKdsjgl.s:3428   .text:00000000000017c4 .L0 
     /tmp/ccKdsjgl.s:3429   .text:00000000000017c4 .L0 
     /tmp/ccKdsjgl.s:3430   .text:00000000000017c4 .L0 
     /tmp/ccKdsjgl.s:3435   .text:00000000000017c8 .L0 
     /tmp/ccKdsjgl.s:3437   .text:00000000000017cc .L0 
     /tmp/ccKdsjgl.s:3438   .text:00000000000017cc .L0 
GAS LISTING /tmp/ccKdsjgl.s 			page 167


     /tmp/ccKdsjgl.s:3443   .text:00000000000017d0 .L0 
     /tmp/ccKdsjgl.s:3447   .text:00000000000017d4 .L0 
     /tmp/ccKdsjgl.s:3448   .text:00000000000017d4 .L0 
     /tmp/ccKdsjgl.s:3450   .text:00000000000017d8 .L0 
     /tmp/ccKdsjgl.s:3452   .text:00000000000017dc .L0 
     /tmp/ccKdsjgl.s:3453   .text:00000000000017dc .L0 
     /tmp/ccKdsjgl.s:3456   .text:00000000000017e4 .L0 
     /tmp/ccKdsjgl.s:3458   .text:00000000000017e8 .L0 
     /tmp/ccKdsjgl.s:3461   .text:00000000000017f0 .L0 
     /tmp/ccKdsjgl.s:3465   .text:00000000000017fc .L0 
     /tmp/ccKdsjgl.s:3471   .text:0000000000001804 .L0 
     /tmp/ccKdsjgl.s:3472   .text:0000000000001804 .L0 
     /tmp/ccKdsjgl.s:3478   .text:0000000000001818 .L0 
     /tmp/ccKdsjgl.s:3479   .text:0000000000001818 .L0 
     /tmp/ccKdsjgl.s:3485   .text:000000000000182c .L0 
     /tmp/ccKdsjgl.s:3486   .text:000000000000182c .L0 
     /tmp/ccKdsjgl.s:3495   .text:0000000000001840 .L0 
     /tmp/ccKdsjgl.s:3496   .text:0000000000001840 .L0 
     /tmp/ccKdsjgl.s:3502   .text:0000000000001848 .L0 
     /tmp/ccKdsjgl.s:3506   .text:000000000000184c .L0 
     /tmp/ccKdsjgl.s:3509   .text:0000000000001854 .L0 
     /tmp/ccKdsjgl.s:3510   .text:0000000000001854 .L0 
     /tmp/ccKdsjgl.s:3513   .text:0000000000001858 .L0 
     /tmp/ccKdsjgl.s:3517   .text:0000000000001864 .L0 
     /tmp/ccKdsjgl.s:3522   .text:0000000000001874 .L0 
     /tmp/ccKdsjgl.s:3524   .text:0000000000001878 .L0 
     /tmp/ccKdsjgl.s:3530   .text:000000000000187c .L0 
     /tmp/ccKdsjgl.s:3533   .text:0000000000001880 .L0 
     /tmp/ccKdsjgl.s:3536   .text:0000000000001884 .L0 
     /tmp/ccKdsjgl.s:3543   .text:000000000000188c .L0 
     /tmp/ccKdsjgl.s:3544   .text:000000000000188c .L0 
     /tmp/ccKdsjgl.s:3549   .text:0000000000001890 .L0 
     /tmp/ccKdsjgl.s:3553   .text:0000000000001894 .L0 
     /tmp/ccKdsjgl.s:3554   .text:0000000000001894 .L0 
     /tmp/ccKdsjgl.s:3556   .text:0000000000001898 .L0 
     /tmp/ccKdsjgl.s:3558   .text:000000000000189c .L0 
     /tmp/ccKdsjgl.s:3559   .text:000000000000189c .L0 
     /tmp/ccKdsjgl.s:3562   .text:00000000000018a4 .L0 
     /tmp/ccKdsjgl.s:3564   .text:00000000000018a8 .L0 
     /tmp/ccKdsjgl.s:3567   .text:00000000000018b0 .L0 
     /tmp/ccKdsjgl.s:3571   .text:00000000000018bc .L0 
     /tmp/ccKdsjgl.s:3577   .text:00000000000018c4 .L0 
     /tmp/ccKdsjgl.s:3578   .text:00000000000018c4 .L0 
     /tmp/ccKdsjgl.s:3584   .text:00000000000018d8 .L0 
     /tmp/ccKdsjgl.s:3585   .text:00000000000018d8 .L0 
     /tmp/ccKdsjgl.s:3591   .text:00000000000018ec .L0 
     /tmp/ccKdsjgl.s:3592   .text:00000000000018ec .L0 
     /tmp/ccKdsjgl.s:3601   .text:0000000000001900 .L0 
     /tmp/ccKdsjgl.s:3602   .text:0000000000001900 .L0 
     /tmp/ccKdsjgl.s:3607   .text:0000000000001908 .L0 
     /tmp/ccKdsjgl.s:3608   .text:0000000000001908 .L0 
     /tmp/ccKdsjgl.s:3613   .text:000000000000190c .L0 
     /tmp/ccKdsjgl.s:3617   .text:0000000000001910 .L0 
     /tmp/ccKdsjgl.s:3618   .text:0000000000001910 .L0 
     /tmp/ccKdsjgl.s:3620   .text:0000000000001914 .L0 
     /tmp/ccKdsjgl.s:3622   .text:0000000000001918 .L0 
     /tmp/ccKdsjgl.s:3623   .text:0000000000001918 .L0 
GAS LISTING /tmp/ccKdsjgl.s 			page 168


     /tmp/ccKdsjgl.s:3626   .text:0000000000001920 .L0 
     /tmp/ccKdsjgl.s:3628   .text:0000000000001924 .L0 
     /tmp/ccKdsjgl.s:3631   .text:000000000000192c .L0 
     /tmp/ccKdsjgl.s:3635   .text:0000000000001938 .L0 
     /tmp/ccKdsjgl.s:3641   .text:0000000000001940 .L0 
     /tmp/ccKdsjgl.s:3642   .text:0000000000001940 .L0 
     /tmp/ccKdsjgl.s:3648   .text:0000000000001954 .L0 
     /tmp/ccKdsjgl.s:3649   .text:0000000000001954 .L0 
     /tmp/ccKdsjgl.s:3655   .text:0000000000001968 .L0 
     /tmp/ccKdsjgl.s:3656   .text:0000000000001968 .L0 
     /tmp/ccKdsjgl.s:3665   .text:000000000000197c .L0 
     /tmp/ccKdsjgl.s:3666   .text:000000000000197c .L0 
     /tmp/ccKdsjgl.s:3671   .text:0000000000001984 .L0 
     /tmp/ccKdsjgl.s:3672   .text:0000000000001984 .L0 
     /tmp/ccKdsjgl.s:3677   .text:0000000000001988 .L0 
     /tmp/ccKdsjgl.s:3683   .text:0000000000001990 .L0 
     /tmp/ccKdsjgl.s:3684   .text:0000000000001990 .L0 
     /tmp/ccKdsjgl.s:3687   .text:0000000000001998 .L0 
     /tmp/ccKdsjgl.s:3689   .text:000000000000199c .L0 
     /tmp/ccKdsjgl.s:3692   .text:00000000000019a4 .L0 
     /tmp/ccKdsjgl.s:3696   .text:00000000000019b0 .L0 
     /tmp/ccKdsjgl.s:3700   .text:00000000000019b4 .L0 
     /tmp/ccKdsjgl.s:3701   .text:00000000000019b4 .L0 
     /tmp/ccKdsjgl.s:3703   .text:00000000000019b8 .L0 
     /tmp/ccKdsjgl.s:3706   .text:00000000000019bc .L0 
     /tmp/ccKdsjgl.s:3707   .text:00000000000019bc .L0 
     /tmp/ccKdsjgl.s:3713   .text:00000000000019d0 .L0 
     /tmp/ccKdsjgl.s:3714   .text:00000000000019d0 .L0 
     /tmp/ccKdsjgl.s:3720   .text:00000000000019e4 .L0 
     /tmp/ccKdsjgl.s:3721   .text:00000000000019e4 .L0 
     /tmp/ccKdsjgl.s:3729   .text:00000000000019f8 .L0 
     /tmp/ccKdsjgl.s:3730   .text:00000000000019f8 .L0 
     /tmp/ccKdsjgl.s:3734   .text:00000000000019fc .L0 
     /tmp/ccKdsjgl.s:3737   .text:0000000000001a00 .L0 
     /tmp/ccKdsjgl.s:3738   .text:0000000000001a00 .L0 
     /tmp/ccKdsjgl.s:3742   .text:0000000000001a04 .L0 
     /tmp/ccKdsjgl.s:3746   .text:0000000000001a08 .L0 
     /tmp/ccKdsjgl.s:3750   .text:0000000000001a0c .L0 
     /tmp/ccKdsjgl.s:3754   .text:0000000000001a14 .L0 
     /tmp/ccKdsjgl.s:3755   .text:0000000000001a14 .L0 
     /tmp/ccKdsjgl.s:3760   .text:0000000000001a24 .L0 
     /tmp/ccKdsjgl.s:3767   .text:0000000000001a3c .L0 
     /tmp/ccKdsjgl.s:3769   .text:0000000000001a40 .L0 
     /tmp/ccKdsjgl.s:3770   .text:0000000000001a40 .L0 
     /tmp/ccKdsjgl.s:3778   .text:0000000000001a58 .L0 
     /tmp/ccKdsjgl.s:3779   .text:0000000000001a58 .L0 
     /tmp/ccKdsjgl.s:3786   .text:0000000000001a6c .L0 
     /tmp/ccKdsjgl.s:3788   .text:0000000000001a70 .L0 
     /tmp/ccKdsjgl.s:3790   .text:0000000000001a74 .L0 
     /tmp/ccKdsjgl.s:3791   .text:0000000000001a74 .L0 
     /tmp/ccKdsjgl.s:3800   .text:0000000000001a90 .L0 
     /tmp/ccKdsjgl.s:3802   .text:0000000000001a94 .L0 
     /tmp/ccKdsjgl.s:3810   .text:0000000000001a9c .L0 
     /tmp/ccKdsjgl.s:3815   .text:0000000000001aa4 .L0 
     /tmp/ccKdsjgl.s:3816   .text:0000000000001aa4 .L0 
     /tmp/ccKdsjgl.s:3821   .text:0000000000001aa8 .L0 
     /tmp/ccKdsjgl.s:3825   .text:0000000000001aac .L0 
GAS LISTING /tmp/ccKdsjgl.s 			page 169


     /tmp/ccKdsjgl.s:3826   .text:0000000000001aac .L0 
     /tmp/ccKdsjgl.s:3828   .text:0000000000001ab0 .L0 
     /tmp/ccKdsjgl.s:3830   .text:0000000000001ab4 .L0 
     /tmp/ccKdsjgl.s:3831   .text:0000000000001ab4 .L0 
     /tmp/ccKdsjgl.s:3834   .text:0000000000001abc .L0 
     /tmp/ccKdsjgl.s:3836   .text:0000000000001ac0 .L0 
     /tmp/ccKdsjgl.s:3839   .text:0000000000001ac8 .L0 
     /tmp/ccKdsjgl.s:3843   .text:0000000000001ad4 .L0 
     /tmp/ccKdsjgl.s:3849   .text:0000000000001adc .L0 
     /tmp/ccKdsjgl.s:3850   .text:0000000000001adc .L0 
     /tmp/ccKdsjgl.s:3856   .text:0000000000001af0 .L0 
     /tmp/ccKdsjgl.s:3857   .text:0000000000001af0 .L0 
     /tmp/ccKdsjgl.s:3863   .text:0000000000001b04 .L0 
     /tmp/ccKdsjgl.s:3864   .text:0000000000001b04 .L0 
     /tmp/ccKdsjgl.s:3873   .text:0000000000001b18 .L0 
     /tmp/ccKdsjgl.s:3874   .text:0000000000001b18 .L0 
     /tmp/ccKdsjgl.s:3880   .text:0000000000001b20 .L0 
     /tmp/ccKdsjgl.s:3883   .text:0000000000001b24 .L0 
     /tmp/ccKdsjgl.s:3884   .text:0000000000001b24 .L0 
     /tmp/ccKdsjgl.s:3888   .text:0000000000001b28 .L0 
     /tmp/ccKdsjgl.s:3891   .text:0000000000001b2c .L0 
     /tmp/ccKdsjgl.s:3895   .text:0000000000001b30 .L0 
     /tmp/ccKdsjgl.s:3898   .text:0000000000001b38 .L0 
     /tmp/ccKdsjgl.s:3899   .text:0000000000001b38 .L0 
     /tmp/ccKdsjgl.s:3906   .text:0000000000001b50 .L0 
     /tmp/ccKdsjgl.s:3908   .text:0000000000001b54 .L0 
     /tmp/ccKdsjgl.s:3913   .text:0000000000001b5c .L0 
     /tmp/ccKdsjgl.s:3914   .text:0000000000001b5c .L0 
     /tmp/ccKdsjgl.s:3919   .text:0000000000001b6c .L0 
     /tmp/ccKdsjgl.s:3920   .text:0000000000001b6c .L0 
     /tmp/ccKdsjgl.s:3925   .text:0000000000001b7c .L0 
     /tmp/ccKdsjgl.s:3926   .text:0000000000001b7c .L0 
     /tmp/ccKdsjgl.s:3931   .text:0000000000001b8c .L0 
     /tmp/ccKdsjgl.s:3932   .text:0000000000001b8c .L0 
     /tmp/ccKdsjgl.s:3938   .text:0000000000001b9c .L0 
     /tmp/ccKdsjgl.s:3939   .text:0000000000001b9c .L0 
     /tmp/ccKdsjgl.s:3946   .text:0000000000001bb4 .L0 
     /tmp/ccKdsjgl.s:3948   .text:0000000000001bb8 .L0 
     /tmp/ccKdsjgl.s:3949   .text:0000000000001bb8 .L0 
     /tmp/ccKdsjgl.s:3954   .text:0000000000001bbc .L0 
     /tmp/ccKdsjgl.s:3959   .text:0000000000001bc4 .L0 
     /tmp/ccKdsjgl.s:3960   .text:0000000000001bc4 .L0 
     /tmp/ccKdsjgl.s:3963   .text:0000000000001bcc .L0 
     /tmp/ccKdsjgl.s:3965   .text:0000000000001bd0 .L0 
     /tmp/ccKdsjgl.s:3968   .text:0000000000001bd8 .L0 
     /tmp/ccKdsjgl.s:3972   .text:0000000000001be4 .L0 
     /tmp/ccKdsjgl.s:3976   .text:0000000000001be8 .L0 
     /tmp/ccKdsjgl.s:3977   .text:0000000000001be8 .L0 
     /tmp/ccKdsjgl.s:3979   .text:0000000000001bec .L0 
     /tmp/ccKdsjgl.s:3982   .text:0000000000001bf0 .L0 
     /tmp/ccKdsjgl.s:3983   .text:0000000000001bf0 .L0 
     /tmp/ccKdsjgl.s:3989   .text:0000000000001c04 .L0 
     /tmp/ccKdsjgl.s:3990   .text:0000000000001c04 .L0 
     /tmp/ccKdsjgl.s:3996   .text:0000000000001c18 .L0 
     /tmp/ccKdsjgl.s:3997   .text:0000000000001c18 .L0 
     /tmp/ccKdsjgl.s:4006   .text:0000000000001c2c .L0 
     /tmp/ccKdsjgl.s:4007   .text:0000000000001c2c .L0 
GAS LISTING /tmp/ccKdsjgl.s 			page 170


     /tmp/ccKdsjgl.s:4013   .text:0000000000001c34 .L0 
     /tmp/ccKdsjgl.s:4014   .text:0000000000001c34 .L0 
     /tmp/ccKdsjgl.s:4022   .text:0000000000001c4c .L0 
     /tmp/ccKdsjgl.s:4023   .text:0000000000001c4c .L0 
     /tmp/ccKdsjgl.s:4032   .text:0000000000001c64 .L0 
     /tmp/ccKdsjgl.s:4035   .text:0000000000001c6c .L0 
     /tmp/ccKdsjgl.s:4039   .text:0000000000001c74 .L0 
     /tmp/ccKdsjgl.s:4040   .text:0000000000001c74 .L0 
     /tmp/ccKdsjgl.s:4045   .text:0000000000001c78 .L0 
     /tmp/ccKdsjgl.s:4050   .text:0000000000001c80 .L0 
     /tmp/ccKdsjgl.s:4051   .text:0000000000001c80 .L0 
     /tmp/ccKdsjgl.s:4054   .text:0000000000001c88 .L0 
     /tmp/ccKdsjgl.s:4056   .text:0000000000001c8c .L0 
     /tmp/ccKdsjgl.s:4059   .text:0000000000001c94 .L0 
     /tmp/ccKdsjgl.s:4063   .text:0000000000001ca0 .L0 
     /tmp/ccKdsjgl.s:4067   .text:0000000000001ca4 .L0 
     /tmp/ccKdsjgl.s:4068   .text:0000000000001ca4 .L0 
     /tmp/ccKdsjgl.s:4070   .text:0000000000001ca8 .L0 
     /tmp/ccKdsjgl.s:4073   .text:0000000000001cac .L0 
     /tmp/ccKdsjgl.s:4074   .text:0000000000001cac .L0 
     /tmp/ccKdsjgl.s:4080   .text:0000000000001cc0 .L0 
     /tmp/ccKdsjgl.s:4081   .text:0000000000001cc0 .L0 
     /tmp/ccKdsjgl.s:4087   .text:0000000000001cd4 .L0 
     /tmp/ccKdsjgl.s:4088   .text:0000000000001cd4 .L0 
     /tmp/ccKdsjgl.s:4097   .text:0000000000001ce8 .L0 
     /tmp/ccKdsjgl.s:4098   .text:0000000000001ce8 .L0 
     /tmp/ccKdsjgl.s:4104   .text:0000000000001cf0 .L0 
     /tmp/ccKdsjgl.s:4105   .text:0000000000001cf0 .L0 
     /tmp/ccKdsjgl.s:4112   .text:0000000000001d08 .L0 
     /tmp/ccKdsjgl.s:4113   .text:0000000000001d08 .L0 
     /tmp/ccKdsjgl.s:4115   .text:0000000000001d08 .L0 
     /tmp/ccKdsjgl.s:4116   .text:0000000000001d08 .L0 
     /tmp/ccKdsjgl.s:4119   .text:0000000000001d0c .L0 
     /tmp/ccKdsjgl.s:4125   .text:0000000000001d14 .L0 
     /tmp/ccKdsjgl.s:4126   .text:0000000000001d14 .L0 
     /tmp/ccKdsjgl.s:4128   .text:0000000000001d18 .L0 
     /tmp/ccKdsjgl.s:4133   .text:0000000000001d24 .L0 
     /tmp/ccKdsjgl.s:4134   .text:0000000000001d24 .L0 
     /tmp/ccKdsjgl.s:4140   .text:0000000000001d2c .L0 
     /tmp/ccKdsjgl.s:4143   .text:0000000000001d30 .L0 
     /tmp/ccKdsjgl.s:4144   .text:0000000000001d30 .L0 
     /tmp/ccKdsjgl.s:4148   .text:0000000000001d34 .L0 
     /tmp/ccKdsjgl.s:4151   .text:0000000000001d38 .L0 
     /tmp/ccKdsjgl.s:4155   .text:0000000000001d3c .L0 
     /tmp/ccKdsjgl.s:4158   .text:0000000000001d44 .L0 
     /tmp/ccKdsjgl.s:4159   .text:0000000000001d44 .L0 
     /tmp/ccKdsjgl.s:4163   .text:0000000000001d50 .L0 
     /tmp/ccKdsjgl.s:4170   .text:0000000000001d68 .L0 
     /tmp/ccKdsjgl.s:4172   .text:0000000000001d6c .L0 
     /tmp/ccKdsjgl.s:4177   .text:0000000000001d74 .L0 
     /tmp/ccKdsjgl.s:4178   .text:0000000000001d74 .L0 
     /tmp/ccKdsjgl.s:4183   .text:0000000000001d78 .L0 
     /tmp/ccKdsjgl.s:4189   .text:0000000000001d80 .L0 
     /tmp/ccKdsjgl.s:4190   .text:0000000000001d80 .L0 
     /tmp/ccKdsjgl.s:4193   .text:0000000000001d88 .L0 
     /tmp/ccKdsjgl.s:4195   .text:0000000000001d8c .L0 
     /tmp/ccKdsjgl.s:4198   .text:0000000000001d94 .L0 
GAS LISTING /tmp/ccKdsjgl.s 			page 171


     /tmp/ccKdsjgl.s:4202   .text:0000000000001da0 .L0 
     /tmp/ccKdsjgl.s:4206   .text:0000000000001da4 .L0 
     /tmp/ccKdsjgl.s:4207   .text:0000000000001da4 .L0 
     /tmp/ccKdsjgl.s:4209   .text:0000000000001da8 .L0 
     /tmp/ccKdsjgl.s:4212   .text:0000000000001dac .L0 
     /tmp/ccKdsjgl.s:4213   .text:0000000000001dac .L0 
     /tmp/ccKdsjgl.s:4219   .text:0000000000001dc0 .L0 
     /tmp/ccKdsjgl.s:4220   .text:0000000000001dc0 .L0 
     /tmp/ccKdsjgl.s:4226   .text:0000000000001dd4 .L0 
     /tmp/ccKdsjgl.s:4227   .text:0000000000001dd4 .L0 
     /tmp/ccKdsjgl.s:4236   .text:0000000000001de8 .L0 
     /tmp/ccKdsjgl.s:4241   .text:0000000000001dec .L0 
     /tmp/ccKdsjgl.s:4247   .text:0000000000001df0 .L0 
     /tmp/ccKdsjgl.s:4255   .text:0000000000001dfc .L0 
     /tmp/ccKdsjgl.s:4263   .text:0000000000001e14 .L0 
     /tmp/ccKdsjgl.s:4300   .text:0000000000001e14 _ZN20KObjectAllocatorTest5test3Em
     /tmp/ccKdsjgl.s:4303   .text:0000000000001e14 .L0 
     /tmp/ccKdsjgl.s:4307   .text:0000000000001e14 .L0 
     /tmp/ccKdsjgl.s:4308   .text:0000000000001e18 .L0 
     /tmp/ccKdsjgl.s:4316   .text:0000000000001e34 .L0 
     /tmp/ccKdsjgl.s:4317   .text:0000000000001e34 .L0 
     /tmp/ccKdsjgl.s:4318   .text:0000000000001e34 .L0 
     /tmp/ccKdsjgl.s:4319   .text:0000000000001e34 .L0 
     /tmp/ccKdsjgl.s:4320   .text:0000000000001e34 .L0 
     /tmp/ccKdsjgl.s:4321   .text:0000000000001e34 .L0 
     /tmp/ccKdsjgl.s:4322   .text:0000000000001e34 .L0 
     /tmp/ccKdsjgl.s:4324   .text:0000000000001e38 .L0 
     /tmp/ccKdsjgl.s:4332   .text:0000000000001e44 .L0 
     /tmp/ccKdsjgl.s:4334   .text:0000000000001e44 .L0 
     /tmp/ccKdsjgl.s:4335   .text:0000000000001e44 .L0 
     /tmp/ccKdsjgl.s:4348   .text:0000000000001e5c .L0 
     /tmp/ccKdsjgl.s:4358   .text:0000000000001e78 .L0 
     /tmp/ccKdsjgl.s:4359   .text:0000000000001e78 .L0 
     /tmp/ccKdsjgl.s:4362   .text:0000000000001e80 .L0 
     /tmp/ccKdsjgl.s:4364   .text:0000000000001e84 .L0 
     /tmp/ccKdsjgl.s:4368   .text:0000000000001e90 .L0 
     /tmp/ccKdsjgl.s:4370   .text:0000000000001e94 .L0 
     /tmp/ccKdsjgl.s:4371   .text:0000000000001e94 .L0 
     /tmp/ccKdsjgl.s:4374   .text:0000000000001e9c .L0 
     /tmp/ccKdsjgl.s:4376   .text:0000000000001ea0 .L0 
     /tmp/ccKdsjgl.s:4380   .text:0000000000001eac .L0 
     /tmp/ccKdsjgl.s:4382   .text:0000000000001eb0 .L0 
     /tmp/ccKdsjgl.s:4383   .text:0000000000001eb0 .L0 
     /tmp/ccKdsjgl.s:4385   .text:0000000000001eb4 .L0 
     /tmp/ccKdsjgl.s:4387   .text:0000000000001eb8 .L0 
     /tmp/ccKdsjgl.s:4391   .text:0000000000001ec0 .L0 
     /tmp/ccKdsjgl.s:4393   .text:0000000000001ec4 .L0 
     /tmp/ccKdsjgl.s:4395   .text:0000000000001ec8 .L0 
     /tmp/ccKdsjgl.s:4397   .text:0000000000001ecc .L0 
     /tmp/ccKdsjgl.s:4398   .text:0000000000001ecc .L0 
     /tmp/ccKdsjgl.s:4400   .text:0000000000001ed0 .L0 
     /tmp/ccKdsjgl.s:4402   .text:0000000000001ed4 .L0 
     /tmp/ccKdsjgl.s:4403   .text:0000000000001ed4 .L0 
     /tmp/ccKdsjgl.s:4408   .text:0000000000001ee0 .L0 
     /tmp/ccKdsjgl.s:4412   .text:0000000000001ee8 .L0 
     /tmp/ccKdsjgl.s:4414   .text:0000000000001eec .L0 
     /tmp/ccKdsjgl.s:4416   .text:0000000000001ef0 .L0 
GAS LISTING /tmp/ccKdsjgl.s 			page 172


     /tmp/ccKdsjgl.s:4418   .text:0000000000001ef4 .L0 
     /tmp/ccKdsjgl.s:4420   .text:0000000000001ef8 .L0 
     /tmp/ccKdsjgl.s:4425   .text:0000000000001f04 .L0 
     /tmp/ccKdsjgl.s:4427   .text:0000000000001f08 .L0 
     /tmp/ccKdsjgl.s:4428   .text:0000000000001f08 .L0 
     /tmp/ccKdsjgl.s:4430   .text:0000000000001f0c .L0 
     /tmp/ccKdsjgl.s:4432   .text:0000000000001f10 .L0 
     /tmp/ccKdsjgl.s:4434   .text:0000000000001f14 .L0 
     /tmp/ccKdsjgl.s:4436   .text:0000000000001f18 .L0 
     /tmp/ccKdsjgl.s:4438   .text:0000000000001f1c .L0 
     /tmp/ccKdsjgl.s:4442   .text:0000000000001f20 .L0 
     /tmp/ccKdsjgl.s:4443   .text:0000000000001f20 .L0 
     /tmp/ccKdsjgl.s:4447   .text:0000000000001f24 .L0 
     /tmp/ccKdsjgl.s:4448   .text:0000000000001f24 .L0 
     /tmp/ccKdsjgl.s:4450   .text:0000000000001f28 .L0 
     /tmp/ccKdsjgl.s:4452   .text:0000000000001f2c .L0 
     /tmp/ccKdsjgl.s:4453   .text:0000000000001f2c .L0 
     /tmp/ccKdsjgl.s:4455   .text:0000000000001f30 .L0 
     /tmp/ccKdsjgl.s:4458   .text:0000000000001f34 .L0 
     /tmp/ccKdsjgl.s:4460   .text:0000000000001f38 .L0 
     /tmp/ccKdsjgl.s:4462   .text:0000000000001f3c .L0 
     /tmp/ccKdsjgl.s:4465   .text:0000000000001f40 .L0 
     /tmp/ccKdsjgl.s:4475   .text:0000000000001f44 .L0 
     /tmp/ccKdsjgl.s:4476   .text:0000000000001f44 .L0 
     /tmp/ccKdsjgl.s:4477   .text:0000000000001f44 .L0 
     /tmp/ccKdsjgl.s:4482   .text:0000000000001f48 .L0 
     /tmp/ccKdsjgl.s:4485   .text:0000000000001f50 .L0 
     /tmp/ccKdsjgl.s:4486   .text:0000000000001f50 .L0 
     /tmp/ccKdsjgl.s:4491   .text:0000000000001f54 .L0 
     /tmp/ccKdsjgl.s:4495   .text:0000000000001f58 .L0 
     /tmp/ccKdsjgl.s:4496   .text:0000000000001f58 .L0 
     /tmp/ccKdsjgl.s:4498   .text:0000000000001f5c .L0 
     /tmp/ccKdsjgl.s:4501   .text:0000000000001f60 .L0 
     /tmp/ccKdsjgl.s:4502   .text:0000000000001f60 .L0 
     /tmp/ccKdsjgl.s:4505   .text:0000000000001f68 .L0 
     /tmp/ccKdsjgl.s:4507   .text:0000000000001f6c .L0 
     /tmp/ccKdsjgl.s:4510   .text:0000000000001f74 .L0 
     /tmp/ccKdsjgl.s:4514   .text:0000000000001f80 .L0 
     /tmp/ccKdsjgl.s:4520   .text:0000000000001f88 .L0 
     /tmp/ccKdsjgl.s:4521   .text:0000000000001f88 .L0 
     /tmp/ccKdsjgl.s:4527   .text:0000000000001f9c .L0 
     /tmp/ccKdsjgl.s:4528   .text:0000000000001f9c .L0 
     /tmp/ccKdsjgl.s:4534   .text:0000000000001fb0 .L0 
     /tmp/ccKdsjgl.s:4535   .text:0000000000001fb0 .L0 
     /tmp/ccKdsjgl.s:4544   .text:0000000000001fc4 .L0 
     /tmp/ccKdsjgl.s:4545   .text:0000000000001fc4 .L0 
     /tmp/ccKdsjgl.s:4548   .text:0000000000001fc8 .L0 
     /tmp/ccKdsjgl.s:4549   .text:0000000000001fcc .L0 
     /tmp/ccKdsjgl.s:4550   .text:0000000000001fcc .L0 
     /tmp/ccKdsjgl.s:4552   .text:0000000000001fd0 .L0 
     /tmp/ccKdsjgl.s:4554   .text:0000000000001fd4 .L0 
     /tmp/ccKdsjgl.s:4556   .text:0000000000001fd8 .L0 
     /tmp/ccKdsjgl.s:4559   .text:0000000000001fdc .L0 
     /tmp/ccKdsjgl.s:4561   .text:0000000000001fe0 .L0 
     /tmp/ccKdsjgl.s:4564   .text:0000000000001fe4 .L0 
     /tmp/ccKdsjgl.s:4566   .text:0000000000001fe8 .L0 
     /tmp/ccKdsjgl.s:4568   .text:0000000000001fec .L0 
GAS LISTING /tmp/ccKdsjgl.s 			page 173


     /tmp/ccKdsjgl.s:4572   .text:0000000000001ff0 .L0 
     /tmp/ccKdsjgl.s:4576   .text:0000000000001ff0 .L0 
     /tmp/ccKdsjgl.s:4577   .text:0000000000001ff0 .L0 
     /tmp/ccKdsjgl.s:4578   .text:0000000000001ff0 .L0 
     /tmp/ccKdsjgl.s:4583   .text:0000000000001ff4 .L0 
     /tmp/ccKdsjgl.s:4586   .text:0000000000001ffc .L0 
     /tmp/ccKdsjgl.s:4587   .text:0000000000001ffc .L0 
     /tmp/ccKdsjgl.s:4592   .text:0000000000002000 .L0 
     /tmp/ccKdsjgl.s:4596   .text:0000000000002004 .L0 
     /tmp/ccKdsjgl.s:4597   .text:0000000000002004 .L0 
     /tmp/ccKdsjgl.s:4599   .text:0000000000002008 .L0 
     /tmp/ccKdsjgl.s:4601   .text:000000000000200c .L0 
     /tmp/ccKdsjgl.s:4602   .text:000000000000200c .L0 
     /tmp/ccKdsjgl.s:4605   .text:0000000000002014 .L0 
     /tmp/ccKdsjgl.s:4607   .text:0000000000002018 .L0 
     /tmp/ccKdsjgl.s:4610   .text:0000000000002020 .L0 
     /tmp/ccKdsjgl.s:4614   .text:000000000000202c .L0 
     /tmp/ccKdsjgl.s:4620   .text:0000000000002034 .L0 
     /tmp/ccKdsjgl.s:4621   .text:0000000000002034 .L0 
     /tmp/ccKdsjgl.s:4627   .text:0000000000002048 .L0 
     /tmp/ccKdsjgl.s:4628   .text:0000000000002048 .L0 
     /tmp/ccKdsjgl.s:4634   .text:000000000000205c .L0 
     /tmp/ccKdsjgl.s:4635   .text:000000000000205c .L0 
     /tmp/ccKdsjgl.s:4644   .text:0000000000002070 .L0 
     /tmp/ccKdsjgl.s:4645   .text:0000000000002070 .L0 
     /tmp/ccKdsjgl.s:4652   .text:0000000000002078 .L0 
     /tmp/ccKdsjgl.s:4653   .text:0000000000002078 .L0 
     /tmp/ccKdsjgl.s:4654   .text:0000000000002078 .L0 
     /tmp/ccKdsjgl.s:4659   .text:000000000000207c .L0 
     /tmp/ccKdsjgl.s:4661   .text:0000000000002080 .L0 
     /tmp/ccKdsjgl.s:4662   .text:0000000000002080 .L0 
     /tmp/ccKdsjgl.s:4667   .text:0000000000002084 .L0 
     /tmp/ccKdsjgl.s:4671   .text:0000000000002088 .L0 
     /tmp/ccKdsjgl.s:4672   .text:0000000000002088 .L0 
     /tmp/ccKdsjgl.s:4674   .text:000000000000208c .L0 
     /tmp/ccKdsjgl.s:4676   .text:0000000000002090 .L0 
     /tmp/ccKdsjgl.s:4677   .text:0000000000002090 .L0 
     /tmp/ccKdsjgl.s:4680   .text:0000000000002098 .L0 
     /tmp/ccKdsjgl.s:4682   .text:000000000000209c .L0 
     /tmp/ccKdsjgl.s:4685   .text:00000000000020a4 .L0 
     /tmp/ccKdsjgl.s:4689   .text:00000000000020b0 .L0 
     /tmp/ccKdsjgl.s:4695   .text:00000000000020b8 .L0 
     /tmp/ccKdsjgl.s:4696   .text:00000000000020b8 .L0 
     /tmp/ccKdsjgl.s:4702   .text:00000000000020cc .L0 
     /tmp/ccKdsjgl.s:4703   .text:00000000000020cc .L0 
     /tmp/ccKdsjgl.s:4709   .text:00000000000020e0 .L0 
     /tmp/ccKdsjgl.s:4710   .text:00000000000020e0 .L0 
     /tmp/ccKdsjgl.s:4719   .text:00000000000020f4 .L0 
     /tmp/ccKdsjgl.s:4720   .text:00000000000020f4 .L0 
     /tmp/ccKdsjgl.s:4726   .text:00000000000020fc .L0 
     /tmp/ccKdsjgl.s:4730   .text:0000000000002100 .L0 
     /tmp/ccKdsjgl.s:4733   .text:0000000000002108 .L0 
     /tmp/ccKdsjgl.s:4734   .text:0000000000002108 .L0 
     /tmp/ccKdsjgl.s:4737   .text:000000000000210c .L0 
     /tmp/ccKdsjgl.s:4741   .text:0000000000002118 .L0 
     /tmp/ccKdsjgl.s:4748   .text:0000000000002130 .L0 
     /tmp/ccKdsjgl.s:4750   .text:0000000000002134 .L0 
GAS LISTING /tmp/ccKdsjgl.s 			page 174


     /tmp/ccKdsjgl.s:4755   .text:0000000000002138 .L0 
     /tmp/ccKdsjgl.s:4756   .text:0000000000002138 .L0 
     /tmp/ccKdsjgl.s:4767   .text:000000000000215c .L0 
     /tmp/ccKdsjgl.s:4771   .text:0000000000002164 .L0 
     /tmp/ccKdsjgl.s:4772   .text:0000000000002164 .L0 
     /tmp/ccKdsjgl.s:4777   .text:0000000000002168 .L0 
     /tmp/ccKdsjgl.s:4781   .text:000000000000216c .L0 
     /tmp/ccKdsjgl.s:4782   .text:000000000000216c .L0 
     /tmp/ccKdsjgl.s:4784   .text:0000000000002170 .L0 
     /tmp/ccKdsjgl.s:4786   .text:0000000000002174 .L0 
     /tmp/ccKdsjgl.s:4787   .text:0000000000002174 .L0 
     /tmp/ccKdsjgl.s:4790   .text:000000000000217c .L0 
     /tmp/ccKdsjgl.s:4792   .text:0000000000002180 .L0 
     /tmp/ccKdsjgl.s:4795   .text:0000000000002188 .L0 
     /tmp/ccKdsjgl.s:4799   .text:0000000000002194 .L0 
     /tmp/ccKdsjgl.s:4808   .text:000000000000219c .L0 
     /tmp/ccKdsjgl.s:4815   .text:00000000000021b4 .L0 
     /tmp/ccKdsjgl.s:4817   .text:00000000000021b8 .L0 
     /tmp/ccKdsjgl.s:4818   .text:00000000000021b8 .L0 
     /tmp/ccKdsjgl.s:4820   .text:00000000000021bc .L0 
     /tmp/ccKdsjgl.s:4824   .text:00000000000021c4 .L0 
     /tmp/ccKdsjgl.s:4828   .text:00000000000021c8 .L0 
     /tmp/ccKdsjgl.s:4831   .text:00000000000021d0 .L0 
     /tmp/ccKdsjgl.s:4832   .text:00000000000021d0 .L0 
     /tmp/ccKdsjgl.s:4835   .text:00000000000021d4 .L0 
     /tmp/ccKdsjgl.s:4839   .text:00000000000021e0 .L0 
     /tmp/ccKdsjgl.s:4846   .text:00000000000021f8 .L0 
     /tmp/ccKdsjgl.s:4848   .text:00000000000021fc .L0 
     /tmp/ccKdsjgl.s:4855   .text:0000000000002200 .L0 
     /tmp/ccKdsjgl.s:4856   .text:0000000000002200 .L0 
     /tmp/ccKdsjgl.s:4862   .text:0000000000002214 .L0 
     /tmp/ccKdsjgl.s:4863   .text:0000000000002214 .L0 
     /tmp/ccKdsjgl.s:4869   .text:0000000000002228 .L0 
     /tmp/ccKdsjgl.s:4870   .text:0000000000002228 .L0 
     /tmp/ccKdsjgl.s:4879   .text:000000000000223c .L0 
     /tmp/ccKdsjgl.s:4880   .text:000000000000223c .L0 
     /tmp/ccKdsjgl.s:4884   .text:0000000000002244 .L0 
     /tmp/ccKdsjgl.s:4885   .text:0000000000002244 .L0 
     /tmp/ccKdsjgl.s:4893   .text:000000000000224c .L0 
     /tmp/ccKdsjgl.s:4894   .text:000000000000224c .L0 
     /tmp/ccKdsjgl.s:4897   .text:0000000000002254 .L0 
     /tmp/ccKdsjgl.s:4899   .text:0000000000002258 .L0 
     /tmp/ccKdsjgl.s:4902   .text:0000000000002260 .L0 
     /tmp/ccKdsjgl.s:4906   .text:000000000000226c .L0 
     /tmp/ccKdsjgl.s:4910   .text:0000000000002270 .L0 
     /tmp/ccKdsjgl.s:4911   .text:0000000000002270 .L0 
     /tmp/ccKdsjgl.s:4913   .text:0000000000002274 .L0 
     /tmp/ccKdsjgl.s:4916   .text:0000000000002278 .L0 
     /tmp/ccKdsjgl.s:4917   .text:0000000000002278 .L0 
     /tmp/ccKdsjgl.s:4923   .text:000000000000228c .L0 
     /tmp/ccKdsjgl.s:4924   .text:000000000000228c .L0 
     /tmp/ccKdsjgl.s:4930   .text:00000000000022a0 .L0 
     /tmp/ccKdsjgl.s:4931   .text:00000000000022a0 .L0 
     /tmp/ccKdsjgl.s:4940   .text:00000000000022b4 .L0 
     /tmp/ccKdsjgl.s:4941   .text:00000000000022b4 .L0 
     /tmp/ccKdsjgl.s:4946   .text:00000000000022bc .L0 
     /tmp/ccKdsjgl.s:4947   .text:00000000000022bc .L0 
GAS LISTING /tmp/ccKdsjgl.s 			page 175


     /tmp/ccKdsjgl.s:4949   .text:00000000000022c0 .L0 
     /tmp/ccKdsjgl.s:4952   .text:00000000000022c8 .L0 
     /tmp/ccKdsjgl.s:4953   .text:00000000000022c8 .L0 
     /tmp/ccKdsjgl.s:4960   .text:00000000000022cc .L0 
     /tmp/ccKdsjgl.s:4961   .text:00000000000022cc .L0 
     /tmp/ccKdsjgl.s:4963   .text:00000000000022d0 .L0 
     /tmp/ccKdsjgl.s:4965   .text:00000000000022d4 .L0 
     /tmp/ccKdsjgl.s:4966   .text:00000000000022d4 .L0 
     /tmp/ccKdsjgl.s:4969   .text:00000000000022dc .L0 
     /tmp/ccKdsjgl.s:4971   .text:00000000000022e0 .L0 
     /tmp/ccKdsjgl.s:4974   .text:00000000000022e8 .L0 
     /tmp/ccKdsjgl.s:4978   .text:00000000000022f4 .L0 
     /tmp/ccKdsjgl.s:4984   .text:00000000000022fc .L0 
     /tmp/ccKdsjgl.s:4985   .text:00000000000022fc .L0 
     /tmp/ccKdsjgl.s:4991   .text:0000000000002310 .L0 
     /tmp/ccKdsjgl.s:4992   .text:0000000000002310 .L0 
     /tmp/ccKdsjgl.s:4998   .text:0000000000002324 .L0 
     /tmp/ccKdsjgl.s:4999   .text:0000000000002324 .L0 
     /tmp/ccKdsjgl.s:5008   .text:0000000000002338 .L0 
     /tmp/ccKdsjgl.s:5009   .text:0000000000002338 .L0 
     /tmp/ccKdsjgl.s:5013   .text:0000000000002340 .L0 
     /tmp/ccKdsjgl.s:5014   .text:0000000000002340 .L0 
     /tmp/ccKdsjgl.s:5018   .text:0000000000002350 .L0 
     /tmp/ccKdsjgl.s:5019   .text:0000000000002350 .L0 
     /tmp/ccKdsjgl.s:5027   .text:000000000000236c .L0 
     /tmp/ccKdsjgl.s:5028   .text:000000000000236c .L0 
     /tmp/ccKdsjgl.s:5034   .text:000000000000237c .L0 
     /tmp/ccKdsjgl.s:5035   .text:000000000000237c .L0 
     /tmp/ccKdsjgl.s:5039   .text:000000000000238c .L0 
     /tmp/ccKdsjgl.s:5040   .text:000000000000238c .L0 
     /tmp/ccKdsjgl.s:5046   .text:00000000000023a0 .L0 
     /tmp/ccKdsjgl.s:5049   .text:00000000000023a8 .L0 
     /tmp/ccKdsjgl.s:5050   .text:00000000000023a8 .L0 
     /tmp/ccKdsjgl.s:5054   .text:00000000000023b8 .L0 
     /tmp/ccKdsjgl.s:5055   .text:00000000000023b8 .L0 
     /tmp/ccKdsjgl.s:5061   .text:00000000000023cc .L0 
     /tmp/ccKdsjgl.s:5064   .text:00000000000023d4 .L0 
     /tmp/ccKdsjgl.s:5065   .text:00000000000023d4 .L0 
     /tmp/ccKdsjgl.s:5069   .text:00000000000023e4 .L0 
     /tmp/ccKdsjgl.s:5070   .text:00000000000023e4 .L0 
     /tmp/ccKdsjgl.s:5076   .text:00000000000023f8 .L0 
     /tmp/ccKdsjgl.s:5080   .text:0000000000002400 .L0 
     /tmp/ccKdsjgl.s:5081   .text:0000000000002400 .L0 
     /tmp/ccKdsjgl.s:5088   .text:0000000000002404 .L0 
     /tmp/ccKdsjgl.s:5089   .text:0000000000002404 .L0 
     /tmp/ccKdsjgl.s:5091   .text:0000000000002408 .L0 
     /tmp/ccKdsjgl.s:5093   .text:000000000000240c .L0 
     /tmp/ccKdsjgl.s:5094   .text:000000000000240c .L0 
     /tmp/ccKdsjgl.s:5097   .text:0000000000002414 .L0 
     /tmp/ccKdsjgl.s:5099   .text:0000000000002418 .L0 
     /tmp/ccKdsjgl.s:5102   .text:0000000000002420 .L0 
     /tmp/ccKdsjgl.s:5106   .text:000000000000242c .L0 
     /tmp/ccKdsjgl.s:5115   .text:0000000000002434 .L0 
     /tmp/ccKdsjgl.s:5121   .text:0000000000002448 .L0 
     /tmp/ccKdsjgl.s:5124   .text:0000000000002450 .L0 
     /tmp/ccKdsjgl.s:5125   .text:0000000000002450 .L0 
     /tmp/ccKdsjgl.s:5127   .text:0000000000002454 .L0 
GAS LISTING /tmp/ccKdsjgl.s 			page 176


     /tmp/ccKdsjgl.s:5129   .text:0000000000002458 .L0 
     /tmp/ccKdsjgl.s:5130   .text:0000000000002458 .L0 
     /tmp/ccKdsjgl.s:5132   .text:000000000000245c .L0 
     /tmp/ccKdsjgl.s:5137   .text:0000000000002468 .L0 
     /tmp/ccKdsjgl.s:5138   .text:0000000000002468 .L0 
     /tmp/ccKdsjgl.s:5145   .text:0000000000002470 .L0 
     /tmp/ccKdsjgl.s:5146   .text:0000000000002470 .L0 
     /tmp/ccKdsjgl.s:5152   .text:0000000000002484 .L0 
     /tmp/ccKdsjgl.s:5153   .text:0000000000002484 .L0 
     /tmp/ccKdsjgl.s:5159   .text:0000000000002498 .L0 
     /tmp/ccKdsjgl.s:5160   .text:0000000000002498 .L0 
     /tmp/ccKdsjgl.s:5169   .text:00000000000024ac .L0 
     /tmp/ccKdsjgl.s:5170   .text:00000000000024ac .L0 
     /tmp/ccKdsjgl.s:5174   .text:00000000000024b4 .L0 
     /tmp/ccKdsjgl.s:5175   .text:00000000000024b4 .L0 
     /tmp/ccKdsjgl.s:5179   .text:00000000000024c4 .L0 
     /tmp/ccKdsjgl.s:5180   .text:00000000000024c4 .L0 
     /tmp/ccKdsjgl.s:5188   .text:00000000000024e0 .L0 
     /tmp/ccKdsjgl.s:5189   .text:00000000000024e0 .L0 
     /tmp/ccKdsjgl.s:5194   .text:00000000000024f0 .L0 
     /tmp/ccKdsjgl.s:5195   .text:00000000000024f0 .L0 
     /tmp/ccKdsjgl.s:5200   .text:0000000000002500 .L0 
     /tmp/ccKdsjgl.s:5201   .text:0000000000002500 .L0 
     /tmp/ccKdsjgl.s:5206   .text:0000000000002510 .L0 
     /tmp/ccKdsjgl.s:5207   .text:0000000000002510 .L0 
     /tmp/ccKdsjgl.s:5213   .text:0000000000002524 .L0 
     /tmp/ccKdsjgl.s:5217   .text:000000000000252c .L0 
     /tmp/ccKdsjgl.s:5218   .text:000000000000252c .L0 
     /tmp/ccKdsjgl.s:5220   .text:0000000000002530 .L0 
     /tmp/ccKdsjgl.s:5225   .text:000000000000253c .L0 
     /tmp/ccKdsjgl.s:5226   .text:000000000000253c .L0 
     /tmp/ccKdsjgl.s:5230   .text:0000000000002544 .L0 
     /tmp/ccKdsjgl.s:5236   .text:0000000000002558 .L0 
     /tmp/ccKdsjgl.s:5239   .text:0000000000002560 .L0 
     /tmp/ccKdsjgl.s:5240   .text:0000000000002560 .L0 
     /tmp/ccKdsjgl.s:5242   .text:0000000000002564 .L0 
     /tmp/ccKdsjgl.s:5245   .text:000000000000256c .L0 
     /tmp/ccKdsjgl.s:5246   .text:000000000000256c .L0 
     /tmp/ccKdsjgl.s:5248   .text:0000000000002570 .L0 
     /tmp/ccKdsjgl.s:5253   .text:000000000000257c .L0 
     /tmp/ccKdsjgl.s:5254   .text:000000000000257c .L0 
     /tmp/ccKdsjgl.s:5258   .text:0000000000002584 .L0 
     /tmp/ccKdsjgl.s:5259   .text:0000000000002584 .L0 
     /tmp/ccKdsjgl.s:5267   .text:00000000000025a0 .L0 
     /tmp/ccKdsjgl.s:5268   .text:00000000000025a0 .L0 
     /tmp/ccKdsjgl.s:5273   .text:00000000000025b0 .L0 
     /tmp/ccKdsjgl.s:5274   .text:00000000000025b0 .L0 
     /tmp/ccKdsjgl.s:5280   .text:00000000000025c4 .L0 
     /tmp/ccKdsjgl.s:5284   .text:00000000000025cc .L0 
     /tmp/ccKdsjgl.s:5285   .text:00000000000025cc .L0 
     /tmp/ccKdsjgl.s:5287   .text:00000000000025d0 .L0 
     /tmp/ccKdsjgl.s:5292   .text:00000000000025dc .L0 
     /tmp/ccKdsjgl.s:5293   .text:00000000000025dc .L0 
     /tmp/ccKdsjgl.s:5297   .text:00000000000025e4 .L0 
     /tmp/ccKdsjgl.s:5303   .text:00000000000025f8 .L0 
     /tmp/ccKdsjgl.s:5306   .text:0000000000002600 .L0 
     /tmp/ccKdsjgl.s:5307   .text:0000000000002600 .L0 
GAS LISTING /tmp/ccKdsjgl.s 			page 177


     /tmp/ccKdsjgl.s:5309   .text:0000000000002604 .L0 
     /tmp/ccKdsjgl.s:5312   .text:000000000000260c .L0 
     /tmp/ccKdsjgl.s:5313   .text:000000000000260c .L0 
     /tmp/ccKdsjgl.s:5315   .text:0000000000002610 .L0 
     /tmp/ccKdsjgl.s:5320   .text:000000000000261c .L0 
     /tmp/ccKdsjgl.s:5321   .text:000000000000261c .L0 
     /tmp/ccKdsjgl.s:5325   .text:0000000000002624 .L0 
     /tmp/ccKdsjgl.s:5326   .text:0000000000002624 .L0 
     /tmp/ccKdsjgl.s:5331   .text:0000000000002634 .L0 
     /tmp/ccKdsjgl.s:5332   .text:0000000000002634 .L0 
     /tmp/ccKdsjgl.s:5338   .text:0000000000002648 .L0 
     /tmp/ccKdsjgl.s:5342   .text:0000000000002650 .L0 
     /tmp/ccKdsjgl.s:5343   .text:0000000000002650 .L0 
     /tmp/ccKdsjgl.s:5345   .text:0000000000002654 .L0 
     /tmp/ccKdsjgl.s:5348   .text:000000000000265c .L0 
     /tmp/ccKdsjgl.s:5349   .text:000000000000265c .L0 
     /tmp/ccKdsjgl.s:5351   .text:0000000000002660 .L0 
     /tmp/ccKdsjgl.s:5356   .text:000000000000266c .L0 
     /tmp/ccKdsjgl.s:5357   .text:000000000000266c .L0 
     /tmp/ccKdsjgl.s:5361   .text:0000000000002674 .L0 
     /tmp/ccKdsjgl.s:5367   .text:0000000000002688 .L0 
     /tmp/ccKdsjgl.s:5371   .text:0000000000002690 .L0 
     /tmp/ccKdsjgl.s:5372   .text:0000000000002690 .L0 
     /tmp/ccKdsjgl.s:5377   .text:00000000000026a0 .L0 
     /tmp/ccKdsjgl.s:5378   .text:00000000000026a0 .L0 
     /tmp/ccKdsjgl.s:5384   .text:00000000000026b4 .L0 
     /tmp/ccKdsjgl.s:5388   .text:00000000000026bc .L0 
     /tmp/ccKdsjgl.s:5389   .text:00000000000026bc .L0 
     /tmp/ccKdsjgl.s:5391   .text:00000000000026c0 .L0 
     /tmp/ccKdsjgl.s:5396   .text:00000000000026cc .L0 
     /tmp/ccKdsjgl.s:5397   .text:00000000000026cc .L0 
     /tmp/ccKdsjgl.s:5401   .text:00000000000026d4 .L0 
     /tmp/ccKdsjgl.s:5407   .text:00000000000026e8 .L0 
     /tmp/ccKdsjgl.s:5410   .text:00000000000026f0 .L0 
     /tmp/ccKdsjgl.s:5411   .text:00000000000026f0 .L0 
     /tmp/ccKdsjgl.s:5413   .text:00000000000026f4 .L0 
     /tmp/ccKdsjgl.s:5417   .text:00000000000026fc .L0 
     /tmp/ccKdsjgl.s:5421   .text:0000000000002700 .L0 
     /tmp/ccKdsjgl.s:5424   .text:0000000000002708 .L0 
     /tmp/ccKdsjgl.s:5425   .text:0000000000002708 .L0 
     /tmp/ccKdsjgl.s:5430   .text:0000000000002718 .L0 
     /tmp/ccKdsjgl.s:5431   .text:0000000000002718 .L0 
     /tmp/ccKdsjgl.s:5436   .text:0000000000002728 .L0 
     /tmp/ccKdsjgl.s:5438   .text:000000000000272c .L0 
     /tmp/ccKdsjgl.s:5439   .text:000000000000272c .L0 
     /tmp/ccKdsjgl.s:5445   .text:0000000000002740 .L0 
     /tmp/ccKdsjgl.s:5448   .text:0000000000002748 .L0 
     /tmp/ccKdsjgl.s:5454   .text:000000000000275c .L0 
     /tmp/ccKdsjgl.s:5456   .text:0000000000002760 .L0 
     /tmp/ccKdsjgl.s:5457   .text:0000000000002760 .L0 
     /tmp/ccKdsjgl.s:5459   .text:0000000000002764 .L0 
     /tmp/ccKdsjgl.s:5462   .text:000000000000276c .L0 
     /tmp/ccKdsjgl.s:5463   .text:000000000000276c .L0 
     /tmp/ccKdsjgl.s:5471   .text:0000000000002788 .L0 
     /tmp/ccKdsjgl.s:5472   .text:0000000000002788 .L0 
     /tmp/ccKdsjgl.s:5477   .text:0000000000002798 .L0 
     /tmp/ccKdsjgl.s:5479   .text:000000000000279c .L0 
GAS LISTING /tmp/ccKdsjgl.s 			page 178


     /tmp/ccKdsjgl.s:5480   .text:000000000000279c .L0 
     /tmp/ccKdsjgl.s:5486   .text:00000000000027b0 .L0 
     /tmp/ccKdsjgl.s:5488   .text:00000000000027b4 .L0 
     /tmp/ccKdsjgl.s:5494   .text:00000000000027c8 .L0 
     /tmp/ccKdsjgl.s:5497   .text:00000000000027d0 .L0 
     /tmp/ccKdsjgl.s:5498   .text:00000000000027d0 .L0 
     /tmp/ccKdsjgl.s:5500   .text:00000000000027d4 .L0 
     /tmp/ccKdsjgl.s:5502   .text:00000000000027d8 .L0 
     /tmp/ccKdsjgl.s:5508   .text:00000000000027e0 .L0 
     /tmp/ccKdsjgl.s:5509   .text:00000000000027e0 .L0 
     /tmp/ccKdsjgl.s:5511   .text:00000000000027e4 .L0 
     /tmp/ccKdsjgl.s:5516   .text:00000000000027f0 .L0 
     /tmp/ccKdsjgl.s:5517   .text:00000000000027f0 .L0 
     /tmp/ccKdsjgl.s:5523   .text:00000000000027f8 .L0 
     /tmp/ccKdsjgl.s:5524   .text:00000000000027f8 .L0 
     /tmp/ccKdsjgl.s:5526   .text:00000000000027fc .L0 
     /tmp/ccKdsjgl.s:5531   .text:0000000000002808 .L0 
     /tmp/ccKdsjgl.s:5532   .text:0000000000002808 .L0 
     /tmp/ccKdsjgl.s:5536   .text:0000000000002810 .L0 
     /tmp/ccKdsjgl.s:5537   .text:0000000000002810 .L0 
     /tmp/ccKdsjgl.s:5539   .text:0000000000002814 .L0 
     /tmp/ccKdsjgl.s:5544   .text:0000000000002820 .L0 
     /tmp/ccKdsjgl.s:5545   .text:0000000000002820 .L0 
     /tmp/ccKdsjgl.s:5549   .text:0000000000002828 .L0 
     /tmp/ccKdsjgl.s:5550   .text:0000000000002828 .L0 
     /tmp/ccKdsjgl.s:5552   .text:000000000000282c .L0 
     /tmp/ccKdsjgl.s:5557   .text:0000000000002838 .L0 
     /tmp/ccKdsjgl.s:5558   .text:0000000000002838 .L0 
     /tmp/ccKdsjgl.s:5562   .text:0000000000002840 .L0 
     /tmp/ccKdsjgl.s:5563   .text:0000000000002840 .L0 
     /tmp/ccKdsjgl.s:5565   .text:0000000000002844 .L0 
     /tmp/ccKdsjgl.s:5570   .text:0000000000002850 .L0 
     /tmp/ccKdsjgl.s:5571   .text:0000000000002850 .L0 
     /tmp/ccKdsjgl.s:5576   .text:0000000000002858 .L0 
     /tmp/ccKdsjgl.s:5577   .text:0000000000002858 .L0 
     /tmp/ccKdsjgl.s:5579   .text:000000000000285c .L0 
     /tmp/ccKdsjgl.s:5584   .text:0000000000002868 .L0 
     /tmp/ccKdsjgl.s:5588   .text:0000000000002870 .L0 
     /tmp/ccKdsjgl.s:5595   .text:000000000000287c .L0 
     /tmp/ccKdsjgl.s:5603   .text:0000000000002894 .L0 
     /tmp/ccKdsjgl.s:5632   .text:0000000000002894 _ZN20KObjectAllocatorTest4testEmm
     /tmp/ccKdsjgl.s:5635   .text:0000000000002894 .L0 
     /tmp/ccKdsjgl.s:5637   .text:0000000000002894 .L0 
     /tmp/ccKdsjgl.s:5638   .text:0000000000002898 .L0 
     /tmp/ccKdsjgl.s:5641   .text:00000000000028a0 .L0 
     /tmp/ccKdsjgl.s:5642   .text:00000000000028a0 .L0 
     /tmp/ccKdsjgl.s:5644   .text:00000000000028a4 .L0 
     /tmp/ccKdsjgl.s:5649   .text:00000000000028ac .L0 
     /tmp/ccKdsjgl.s:5656   .text:00000000000028c4 .L0 
     /tmp/ccKdsjgl.s:5657   .text:00000000000028c4 .L0 
     /tmp/ccKdsjgl.s:5658   .text:00000000000028c4 .L0 
     /tmp/ccKdsjgl.s:5659   .text:00000000000028c4 .L0 
     /tmp/ccKdsjgl.s:5662   .text:00000000000028cc .L0 
     /tmp/ccKdsjgl.s:5666   .text:00000000000028d0 .L0 
     /tmp/ccKdsjgl.s:5674   .text:00000000000028e0 .L0 
     /tmp/ccKdsjgl.s:5675   .text:00000000000028e0 .L0 
     /tmp/ccKdsjgl.s:5676   .text:00000000000028e0 .L0 
GAS LISTING /tmp/ccKdsjgl.s 			page 179


     /tmp/ccKdsjgl.s:5677   .text:00000000000028e0 .L0 
     /tmp/ccKdsjgl.s:5680   .text:00000000000028e8 .L0 
     /tmp/ccKdsjgl.s:5684   .text:00000000000028ec .L0 
     /tmp/ccKdsjgl.s:5688   .text:00000000000028f0 .L0 
     /tmp/ccKdsjgl.s:5689   .text:00000000000028f4 .L0 
     /tmp/ccKdsjgl.s:5690   .text:00000000000028f4 .L0 
     /tmp/ccKdsjgl.s:5692   .text:00000000000028f8 .L0 
     /tmp/ccKdsjgl.s:5693   .text:00000000000028f8 .L0 
     /tmp/ccKdsjgl.s:5695   .text:00000000000028fc .L0 
     /tmp/ccKdsjgl.s:5699   .text:0000000000002900 .L0 
     /tmp/ccKdsjgl.s:5701   .text:0000000000002900 .L0 
     /tmp/ccKdsjgl.s:5702   .text:0000000000002900 .L0 
     /tmp/ccKdsjgl.s:5703   .text:0000000000002900 .L0 
     /tmp/ccKdsjgl.s:5706   .text:0000000000002908 .L0 
     /tmp/ccKdsjgl.s:5710   .text:000000000000290c .L0 
     /tmp/ccKdsjgl.s:5711   .text:000000000000290c .L0 
     /tmp/ccKdsjgl.s:5712   .text:000000000000290c .L0 
     /tmp/ccKdsjgl.s:5713   .text:000000000000290c .L0 
     /tmp/ccKdsjgl.s:5716   .text:0000000000002914 .L0 
     /tmp/ccKdsjgl.s:5717   .text:0000000000002918 .L0 
     /tmp/ccKdsjgl.s:5731   .text:0000000000002918 _ZN20KObjectAllocatorTest8runTestsEv
     /tmp/ccKdsjgl.s:5734   .text:0000000000002918 .L0 
     /tmp/ccKdsjgl.s:5736   .text:0000000000002918 .L0 
     /tmp/ccKdsjgl.s:5737   .text:000000000000291c .L0 
     /tmp/ccKdsjgl.s:5746   .text:000000000000293c .L0 
     /tmp/ccKdsjgl.s:5747   .text:000000000000293c .L0 
     /tmp/ccKdsjgl.s:5748   .text:000000000000293c .L0 
     /tmp/ccKdsjgl.s:5749   .text:000000000000293c .L0 
     /tmp/ccKdsjgl.s:5750   .text:000000000000293c .L0 
     /tmp/ccKdsjgl.s:5751   .text:000000000000293c .L0 
     /tmp/ccKdsjgl.s:5752   .text:000000000000293c .L0 
     /tmp/ccKdsjgl.s:5753   .text:000000000000293c .L0 
     /tmp/ccKdsjgl.s:5755   .text:0000000000002940 .L0 
     /tmp/ccKdsjgl.s:5759   .text:0000000000002944 .L0 
     /tmp/ccKdsjgl.s:5760   .text:0000000000002944 .L0 
     /tmp/ccKdsjgl.s:5766   .text:000000000000294c .L0 
     /tmp/ccKdsjgl.s:5769   .text:0000000000002950 .L0 
     /tmp/ccKdsjgl.s:5773   .text:0000000000002954 .L0 
     /tmp/ccKdsjgl.s:5774   .text:0000000000002954 .L0 
     /tmp/ccKdsjgl.s:5779   .text:000000000000295c .L0 
     /tmp/ccKdsjgl.s:5780   .text:000000000000295c .L0 
     /tmp/ccKdsjgl.s:5784   .text:000000000000296c .L0 
     /tmp/ccKdsjgl.s:5785   .text:000000000000296c .L0 
     /tmp/ccKdsjgl.s:5789   .text:0000000000002978 .L0 
     /tmp/ccKdsjgl.s:5790   .text:0000000000002978 .L0 
     /tmp/ccKdsjgl.s:5798   .text:0000000000002988 .L0 
     /tmp/ccKdsjgl.s:5799   .text:0000000000002988 .L0 
     /tmp/ccKdsjgl.s:5801   .text:0000000000002990 .L0 
     /tmp/ccKdsjgl.s:5802   .text:0000000000002990 .L0 
     /tmp/ccKdsjgl.s:5804   .text:0000000000002994 .L0 
     /tmp/ccKdsjgl.s:5805   .text:0000000000002994 .L0 
     /tmp/ccKdsjgl.s:5807   .text:0000000000002998 .L0 
     /tmp/ccKdsjgl.s:5809   .text:000000000000299c .L0 
     /tmp/ccKdsjgl.s:5811   .text:00000000000029a0 .L0 
     /tmp/ccKdsjgl.s:5814   .text:00000000000029a4 .L0 
     /tmp/ccKdsjgl.s:5816   .text:00000000000029a8 .L0 
     /tmp/ccKdsjgl.s:5819   .text:00000000000029ac .L0 
GAS LISTING /tmp/ccKdsjgl.s 			page 180


     /tmp/ccKdsjgl.s:5822   .text:00000000000029b0 .L0 
     /tmp/ccKdsjgl.s:5826   .text:00000000000029b4 .L0 
     /tmp/ccKdsjgl.s:5831   .text:00000000000029b4 .L0 
     /tmp/ccKdsjgl.s:5832   .text:00000000000029b4 .L0 
     /tmp/ccKdsjgl.s:5837   .text:00000000000029c4 .L0 
     /tmp/ccKdsjgl.s:5841   .text:00000000000029c8 .L0 
     /tmp/ccKdsjgl.s:5842   .text:00000000000029c8 .L0 
     /tmp/ccKdsjgl.s:5844   .text:00000000000029cc .L0 
     /tmp/ccKdsjgl.s:5846   .text:00000000000029d0 .L0 
     /tmp/ccKdsjgl.s:5847   .text:00000000000029d0 .L0 
     /tmp/ccKdsjgl.s:5854   .text:00000000000029e8 .L0 
     /tmp/ccKdsjgl.s:5856   .text:00000000000029ec .L0 
     /tmp/ccKdsjgl.s:5857   .text:00000000000029ec .L0 
     /tmp/ccKdsjgl.s:5861   .text:00000000000029fc .L0 
     /tmp/ccKdsjgl.s:5863   .text:0000000000002a00 .L0 
     /tmp/ccKdsjgl.s:5865   .text:0000000000002a04 .L0 
     /tmp/ccKdsjgl.s:5868   .text:0000000000002a0c .L0 
     /tmp/ccKdsjgl.s:5874   .text:0000000000002a14 .L0 
     /tmp/ccKdsjgl.s:5881   .text:0000000000002a1c .L0 
     /tmp/ccKdsjgl.s:5883   .text:0000000000002a24 .L0 
     /tmp/ccKdsjgl.s:5888   .rodata:0000000000000000 .LANCHOR0
     /tmp/ccKdsjgl.s:99     .text._ZN16KObjectAllocatordlEPv:00000000000000a4 .L0 
     /tmp/ccKdsjgl.s:5912   .text:0000000000002a24 .L0 
     /tmp/ccKdsjgl.s:101    .rodata.str1.8:0000000000000000 .LC1
     /tmp/ccKdsjgl.s:177    .text:0000000000000064 .L0 
     /tmp/ccKdsjgl.s:197    .rodata.str1.8:0000000000000028 .LC2
     /tmp/ccKdsjgl.s:279    .text:00000000000000e8 .L0 
     /tmp/ccKdsjgl.s:200    .rodata.str1.8:0000000000000030 .LC3
     /tmp/ccKdsjgl.s:290    .text:0000000000000104 .L0 
     /tmp/ccKdsjgl.s:203    .rodata.str1.8:0000000000000038 .LC4
     /tmp/ccKdsjgl.s:295    .text:0000000000000114 .L0 
     /tmp/ccKdsjgl.s:305    .text:0000000000000130 .L0 
     /tmp/ccKdsjgl.s:206    .rodata.str1.8:0000000000000048 .LC5
     /tmp/ccKdsjgl.s:342    .text:0000000000000168 .L0 
     /tmp/ccKdsjgl.s:432    .text:00000000000001e0 .L0 
     /tmp/ccKdsjgl.s:526    .text:0000000000000270 .L0 
     /tmp/ccKdsjgl.s:1586   .text:0000000000000a30 .L0 
     /tmp/ccKdsjgl.s:4105   .text:0000000000001cf0 .L0 
     /tmp/ccKdsjgl.s:4291   .rodata.str1.8:0000000000000080 .LC6
     /tmp/ccKdsjgl.s:5014   .text:0000000000002340 .L0 
     /tmp/ccKdsjgl.s:5035   .text:000000000000237c .L0 
     /tmp/ccKdsjgl.s:5050   .text:00000000000023a8 .L0 
     /tmp/ccKdsjgl.s:5065   .text:00000000000023d4 .L0 
     /tmp/ccKdsjgl.s:4294   .rodata.str1.8:0000000000000090 .LC7
     /tmp/ccKdsjgl.s:5175   .text:00000000000024b4 .L0 
     /tmp/ccKdsjgl.s:5722   .rodata.str1.8:0000000000000098 .LC8
     /tmp/ccKdsjgl.s:5780   .text:000000000000295c .L0 
     /tmp/ccKdsjgl.s:5790   .text:0000000000002978 .L0 
     /tmp/ccKdsjgl.s:5832   .text:00000000000029b4 .L0 
     /tmp/ccKdsjgl.s:5725   .rodata.str1.8:00000000000000b8 .LC9
     /tmp/ccKdsjgl.s:5857   .text:00000000000029ec .L0 
     /tmp/ccKdsjgl.s:123    .text:000000000000000c .L9
     /tmp/ccKdsjgl.s:165    .text:0000000000000054 .L6
     /tmp/ccKdsjgl.s:119    .text:0000000000000008 .L7
     /tmp/ccKdsjgl.s:243    .text:00000000000000b4 .L17
     /tmp/ccKdsjgl.s:338    .text:0000000000000168 .L14
     /tmp/ccKdsjgl.s:239    .text:00000000000000b0 .L15
GAS LISTING /tmp/ccKdsjgl.s 			page 181


     /tmp/ccKdsjgl.s:316    .text:000000000000014c .L13
     /tmp/ccKdsjgl.s:371    .text:000000000000018c .L23
     /tmp/ccKdsjgl.s:420    .text:00000000000001d0 .L20
     /tmp/ccKdsjgl.s:367    .text:0000000000000188 .L21
     /tmp/ccKdsjgl.s:468    .text:0000000000000210 .L31
     /tmp/ccKdsjgl.s:514    .text:0000000000000260 .L28
     /tmp/ccKdsjgl.s:464    .text:000000000000020c .L29
     /tmp/ccKdsjgl.s:657    .text:0000000000000364 .L91
     /tmp/ccKdsjgl.s:661    .text:000000000000036c .L99
     /tmp/ccKdsjgl.s:640    .text:0000000000000344 .L36
     /tmp/ccKdsjgl.s:717    .text:00000000000003c8 .L37
     /tmp/ccKdsjgl.s:696    .text:00000000000003a8 .L38
     /tmp/ccKdsjgl.s:827    .text:000000000000047c .L39
     /tmp/ccKdsjgl.s:792    .text:0000000000000448 .L40
     /tmp/ccKdsjgl.s:764    .text:0000000000000404 .L42
     /tmp/ccKdsjgl.s:746    .text:00000000000003e0 .L100
     /tmp/ccKdsjgl.s:905    .text:0000000000000504 .L44
     /tmp/ccKdsjgl.s:897    .text:00000000000004fc .L45
     /tmp/ccKdsjgl.s:869    .text:00000000000004b8 .L47
     /tmp/ccKdsjgl.s:852    .text:0000000000000494 .L101
     /tmp/ccKdsjgl.s:798    .text:000000000000044c .L97
     /tmp/ccKdsjgl.s:980    .text:0000000000000588 .L92
     /tmp/ccKdsjgl.s:972    .text:0000000000000580 .L49
     /tmp/ccKdsjgl.s:949    .text:0000000000000544 .L50
     /tmp/ccKdsjgl.s:926    .text:0000000000000514 .L51
     /tmp/ccKdsjgl.s:1007   .text:00000000000005bc .L93
     /tmp/ccKdsjgl.s:985    .text:000000000000058c .L48
     /tmp/ccKdsjgl.s:1229   .text:000000000000074c .L52
     /tmp/ccKdsjgl.s:1078   .text:0000000000000640 .L55
     /tmp/ccKdsjgl.s:1055   .text:0000000000000604 .L56
     /tmp/ccKdsjgl.s:1032   .text:00000000000005d4 .L57
     /tmp/ccKdsjgl.s:1142   .text:00000000000006bc .L60
     /tmp/ccKdsjgl.s:1119   .text:0000000000000680 .L61
     /tmp/ccKdsjgl.s:1096   .text:0000000000000650 .L62
     /tmp/ccKdsjgl.s:1179   .text:00000000000006f4 .L66
     /tmp/ccKdsjgl.s:1162   .text:00000000000006d0 .L102
     /tmp/ccKdsjgl.s:1286   .text:00000000000007dc .L94
     /tmp/ccKdsjgl.s:1020   .text:00000000000005cc .L103
     /tmp/ccKdsjgl.s:1086   .text:0000000000000648 .L58
     /tmp/ccKdsjgl.s:1150   .text:00000000000006c4 .L104
     /tmp/ccKdsjgl.s:1221   .text:0000000000000744 .L67
     /tmp/ccKdsjgl.s:1213   .text:000000000000073c .L105
     /tmp/ccKdsjgl.s:1374   .text:0000000000000870 .L53
     /tmp/ccKdsjgl.s:1350   .text:0000000000000858 .L70
     /tmp/ccKdsjgl.s:1327   .text:000000000000081c .L71
     /tmp/ccKdsjgl.s:1304   .text:00000000000007ec .L72
     /tmp/ccKdsjgl.s:1391   .text:000000000000089c .L68
     /tmp/ccKdsjgl.s:1294   .text:00000000000007e4 .L106
     /tmp/ccKdsjgl.s:1367   .text:0000000000000868 .L73
     /tmp/ccKdsjgl.s:1359   .text:0000000000000860 .L107
     /tmp/ccKdsjgl.s:1492   .text:0000000000000974 .L74
     /tmp/ccKdsjgl.s:1483   .text:000000000000096c .L75
     /tmp/ccKdsjgl.s:1455   .text:0000000000000928 .L77
     /tmp/ccKdsjgl.s:1438   .text:0000000000000904 .L108
     /tmp/ccKdsjgl.s:1518   .text:00000000000009b4 .L78
     /tmp/ccKdsjgl.s:1583   .text:0000000000000a30 .L79
     /tmp/ccKdsjgl.s:1574   .text:0000000000000a28 .L80
GAS LISTING /tmp/ccKdsjgl.s 			page 182


     /tmp/ccKdsjgl.s:1546   .text:00000000000009e4 .L82
     /tmp/ccKdsjgl.s:1529   .text:00000000000009c0 .L109
     /tmp/ccKdsjgl.s:1634   .text:0000000000000a7c .L87
     /tmp/ccKdsjgl.s:1612   .text:0000000000000a64 .L85
     /tmp/ccKdsjgl.s:1655   .text:0000000000000ab4 .L83
     /tmp/ccKdsjgl.s:1603   .text:0000000000000a54 .L110
     /tmp/ccKdsjgl.s:1627   .text:0000000000000a74 .L86
     /tmp/ccKdsjgl.s:1619   .text:0000000000000a6c .L111
     /tmp/ccKdsjgl.s:1724   .text:0000000000000b30 .L95
     /tmp/ccKdsjgl.s:1685   .text:0000000000000ae4 .L89
     /tmp/ccKdsjgl.s:1668   .text:0000000000000ac0 .L112
     /tmp/ccKdsjgl.s:1881   .text:0000000000000c20 .L183
     /tmp/ccKdsjgl.s:1885   .text:0000000000000c28 .L195
     /tmp/ccKdsjgl.s:1864   .text:0000000000000c00 .L114
     /tmp/ccKdsjgl.s:1941   .text:0000000000000c84 .L115
     /tmp/ccKdsjgl.s:1920   .text:0000000000000c64 .L116
     /tmp/ccKdsjgl.s:2047   .text:0000000000000d30 .L117
     /tmp/ccKdsjgl.s:2016   .text:0000000000000d04 .L118
     /tmp/ccKdsjgl.s:1993   .text:0000000000000cc8 .L119
     /tmp/ccKdsjgl.s:1969   .text:0000000000000c98 .L120
     /tmp/ccKdsjgl.s:2124   .text:0000000000000db8 .L122
     /tmp/ccKdsjgl.s:2116   .text:0000000000000db0 .L123
     /tmp/ccKdsjgl.s:2093   .text:0000000000000d74 .L124
     /tmp/ccKdsjgl.s:2070   .text:0000000000000d44 .L125
     /tmp/ccKdsjgl.s:2022   .text:0000000000000d08 .L188
     /tmp/ccKdsjgl.s:2199   .text:0000000000000e3c .L184
     /tmp/ccKdsjgl.s:2191   .text:0000000000000e34 .L127
     /tmp/ccKdsjgl.s:2168   .text:0000000000000df8 .L128
     /tmp/ccKdsjgl.s:2145   .text:0000000000000dc8 .L129
     /tmp/ccKdsjgl.s:2228   .text:0000000000000e78 .L130
     /tmp/ccKdsjgl.s:2204   .text:0000000000000e40 .L126
     /tmp/ccKdsjgl.s:2279   .text:0000000000000edc .L196
     /tmp/ccKdsjgl.s:2351   .text:0000000000000f7c .L134
     /tmp/ccKdsjgl.s:2326   .text:0000000000000f40 .L137
     /tmp/ccKdsjgl.s:2254   .text:0000000000000eac .L133
     /tmp/ccKdsjgl.s:2245   .text:0000000000000ea4 .L131
     /tmp/ccKdsjgl.s:2358   .text:0000000000000f84 .L135
     /tmp/ccKdsjgl.s:2420   .text:0000000000000ffc .L141
     /tmp/ccKdsjgl.s:2301   .text:0000000000000f08 .L136
     /tmp/ccKdsjgl.s:2384   .text:0000000000000fb0 .L140
     /tmp/ccKdsjgl.s:2412   .text:0000000000000ff4 .L138
     /tmp/ccKdsjgl.s:2364   .text:0000000000000f8c .L197
     /tmp/ccKdsjgl.s:2487   .text:0000000000001080 .L142
     /tmp/ccKdsjgl.s:2480   .text:0000000000001078 .L143
     /tmp/ccKdsjgl.s:2457   .text:000000000000103c .L144
     /tmp/ccKdsjgl.s:2430   .text:000000000000100c .L145
     /tmp/ccKdsjgl.s:2546   .text:00000000000010fc .L198
     /tmp/ccKdsjgl.s:2601   .text:0000000000001174 .L149
     /tmp/ccKdsjgl.s:2577   .text:0000000000001138 .L150
     /tmp/ccKdsjgl.s:2518   .text:00000000000010cc .L151
     /tmp/ccKdsjgl.s:2514   .text:00000000000010c8 .L146
     /tmp/ccKdsjgl.s:2608   .text:000000000000117c .L199
     /tmp/ccKdsjgl.s:2571   .text:0000000000001130 .L152
     /tmp/ccKdsjgl.s:2659   .text:00000000000011fc .L200
     /tmp/ccKdsjgl.s:2654   .text:00000000000011f4 .L156
     /tmp/ccKdsjgl.s:2646   .text:00000000000011e4 .L153
     /tmp/ccKdsjgl.s:2687   .text:000000000000123c .L201
GAS LISTING /tmp/ccKdsjgl.s 			page 183


     /tmp/ccKdsjgl.s:2682   .text:0000000000001234 .L157
     /tmp/ccKdsjgl.s:2726   .text:000000000000129c .L202
     /tmp/ccKdsjgl.s:2721   .text:0000000000001294 .L161
     /tmp/ccKdsjgl.s:2713   .text:0000000000001284 .L158
     /tmp/ccKdsjgl.s:2754   .text:00000000000012dc .L203
     /tmp/ccKdsjgl.s:2749   .text:00000000000012d4 .L162
     /tmp/ccKdsjgl.s:2790   .text:000000000000132c .L204
     /tmp/ccKdsjgl.s:2800   .text:0000000000001348 .L164
     /tmp/ccKdsjgl.s:2785   .text:0000000000001324 .L165
     /tmp/ccKdsjgl.s:2771   .text:0000000000001308 .L163
     /tmp/ccKdsjgl.s:2830   .text:000000000000138c .L205
     /tmp/ccKdsjgl.s:2825   .text:0000000000001384 .L169
     /tmp/ccKdsjgl.s:2817   .text:0000000000001374 .L166
     /tmp/ccKdsjgl.s:2936   .text:0000000000001498 .L167
     /tmp/ccKdsjgl.s:3004   .text:0000000000001510 .L171
     /tmp/ccKdsjgl.s:2951   .text:00000000000014b0 .L172
     /tmp/ccKdsjgl.s:2965   .text:00000000000014c8 .L206
     /tmp/ccKdsjgl.s:2978   .text:00000000000014e0 .L177
     /tmp/ccKdsjgl.s:2991   .text:00000000000014f8 .L207
     /tmp/ccKdsjgl.s:2849   .text:00000000000013b8 .L168
     /tmp/ccKdsjgl.s:2945   .text:00000000000014a8 .L170
     /tmp/ccKdsjgl.s:2960   .text:00000000000014c0 .L175
     /tmp/ccKdsjgl.s:2973   .text:00000000000014d8 .L176
     /tmp/ccKdsjgl.s:2986   .text:00000000000014f0 .L180
     /tmp/ccKdsjgl.s:2999   .text:0000000000001508 .L181
     /tmp/ccKdsjgl.s:3017   .text:0000000000001528 .L186
     /tmp/ccKdsjgl.s:3174   .text:0000000000001620 .L264
     /tmp/ccKdsjgl.s:3178   .text:0000000000001628 .L272
     /tmp/ccKdsjgl.s:3157   .text:0000000000001600 .L209
     /tmp/ccKdsjgl.s:3234   .text:0000000000001684 .L210
     /tmp/ccKdsjgl.s:3213   .text:0000000000001664 .L211
     /tmp/ccKdsjgl.s:3346   .text:000000000000173c .L212
     /tmp/ccKdsjgl.s:3309   .text:0000000000001704 .L213
     /tmp/ccKdsjgl.s:3281   .text:00000000000016c0 .L215
     /tmp/ccKdsjgl.s:3263   .text:000000000000169c .L273
     /tmp/ccKdsjgl.s:3424   .text:00000000000017c4 .L217
     /tmp/ccKdsjgl.s:3416   .text:00000000000017bc .L218
     /tmp/ccKdsjgl.s:3388   .text:0000000000001778 .L220
     /tmp/ccKdsjgl.s:3371   .text:0000000000001754 .L274
     /tmp/ccKdsjgl.s:3315   .text:0000000000001708 .L270
     /tmp/ccKdsjgl.s:3499   .text:0000000000001848 .L265
     /tmp/ccKdsjgl.s:3491   .text:0000000000001840 .L222
     /tmp/ccKdsjgl.s:3468   .text:0000000000001804 .L223
     /tmp/ccKdsjgl.s:3445   .text:00000000000017d4 .L224
     /tmp/ccKdsjgl.s:3526   .text:000000000000187c .L266
     /tmp/ccKdsjgl.s:3504   .text:000000000000184c .L221
     /tmp/ccKdsjgl.s:3748   .text:0000000000001a0c .L225
     /tmp/ccKdsjgl.s:3597   .text:0000000000001900 .L228
     /tmp/ccKdsjgl.s:3574   .text:00000000000018c4 .L229
     /tmp/ccKdsjgl.s:3551   .text:0000000000001894 .L230
     /tmp/ccKdsjgl.s:3661   .text:000000000000197c .L233
     /tmp/ccKdsjgl.s:3638   .text:0000000000001940 .L234
     /tmp/ccKdsjgl.s:3615   .text:0000000000001910 .L235
     /tmp/ccKdsjgl.s:3698   .text:00000000000019b4 .L239
     /tmp/ccKdsjgl.s:3681   .text:0000000000001990 .L275
     /tmp/ccKdsjgl.s:3805   .text:0000000000001a9c .L267
     /tmp/ccKdsjgl.s:3539   .text:000000000000188c .L276
GAS LISTING /tmp/ccKdsjgl.s 			page 184


     /tmp/ccKdsjgl.s:3605   .text:0000000000001908 .L231
     /tmp/ccKdsjgl.s:3669   .text:0000000000001984 .L277
     /tmp/ccKdsjgl.s:3740   .text:0000000000001a04 .L240
     /tmp/ccKdsjgl.s:3732   .text:00000000000019fc .L278
     /tmp/ccKdsjgl.s:3893   .text:0000000000001b30 .L226
     /tmp/ccKdsjgl.s:3869   .text:0000000000001b18 .L243
     /tmp/ccKdsjgl.s:3846   .text:0000000000001adc .L244
     /tmp/ccKdsjgl.s:3823   .text:0000000000001aac .L245
     /tmp/ccKdsjgl.s:3910   .text:0000000000001b5c .L241
     /tmp/ccKdsjgl.s:3813   .text:0000000000001aa4 .L279
     /tmp/ccKdsjgl.s:3886   .text:0000000000001b28 .L246
     /tmp/ccKdsjgl.s:3878   .text:0000000000001b20 .L280
     /tmp/ccKdsjgl.s:4011   .text:0000000000001c34 .L247
     /tmp/ccKdsjgl.s:4002   .text:0000000000001c2c .L248
     /tmp/ccKdsjgl.s:3974   .text:0000000000001be8 .L250
     /tmp/ccKdsjgl.s:3957   .text:0000000000001bc4 .L281
     /tmp/ccKdsjgl.s:4037   .text:0000000000001c74 .L251
     /tmp/ccKdsjgl.s:4102   .text:0000000000001cf0 .L252
     /tmp/ccKdsjgl.s:4093   .text:0000000000001ce8 .L253
     /tmp/ccKdsjgl.s:4065   .text:0000000000001ca4 .L255
     /tmp/ccKdsjgl.s:4048   .text:0000000000001c80 .L282
     /tmp/ccKdsjgl.s:4153   .text:0000000000001d3c .L260
     /tmp/ccKdsjgl.s:4131   .text:0000000000001d24 .L258
     /tmp/ccKdsjgl.s:4174   .text:0000000000001d74 .L256
     /tmp/ccKdsjgl.s:4122   .text:0000000000001d14 .L283
     /tmp/ccKdsjgl.s:4146   .text:0000000000001d34 .L259
     /tmp/ccKdsjgl.s:4138   .text:0000000000001d2c .L284
     /tmp/ccKdsjgl.s:4243   .text:0000000000001df0 .L268
     /tmp/ccKdsjgl.s:4204   .text:0000000000001da4 .L262
     /tmp/ccKdsjgl.s:4187   .text:0000000000001d80 .L285
     /tmp/ccKdsjgl.s:4406   .text:0000000000001ee0 .L356
     /tmp/ccKdsjgl.s:4410   .text:0000000000001ee8 .L368
     /tmp/ccKdsjgl.s:4389   .text:0000000000001ec0 .L287
     /tmp/ccKdsjgl.s:4466   .text:0000000000001f44 .L288
     /tmp/ccKdsjgl.s:4445   .text:0000000000001f24 .L289
     /tmp/ccKdsjgl.s:4571   .text:0000000000001ff0 .L290
     /tmp/ccKdsjgl.s:4540   .text:0000000000001fc4 .L291
     /tmp/ccKdsjgl.s:4517   .text:0000000000001f88 .L292
     /tmp/ccKdsjgl.s:4493   .text:0000000000001f58 .L293
     /tmp/ccKdsjgl.s:4648   .text:0000000000002078 .L295
     /tmp/ccKdsjgl.s:4640   .text:0000000000002070 .L296
     /tmp/ccKdsjgl.s:4617   .text:0000000000002034 .L297
     /tmp/ccKdsjgl.s:4594   .text:0000000000002004 .L298
     /tmp/ccKdsjgl.s:4546   .text:0000000000001fc8 .L361
     /tmp/ccKdsjgl.s:4723   .text:00000000000020fc .L357
     /tmp/ccKdsjgl.s:4715   .text:00000000000020f4 .L300
     /tmp/ccKdsjgl.s:4692   .text:00000000000020b8 .L301
     /tmp/ccKdsjgl.s:4669   .text:0000000000002088 .L302
     /tmp/ccKdsjgl.s:4752   .text:0000000000002138 .L303
     /tmp/ccKdsjgl.s:4728   .text:0000000000002100 .L299
     /tmp/ccKdsjgl.s:4803   .text:000000000000219c .L369
     /tmp/ccKdsjgl.s:4875   .text:000000000000223c .L307
     /tmp/ccKdsjgl.s:4850   .text:0000000000002200 .L310
     /tmp/ccKdsjgl.s:4778   .text:000000000000216c .L306
     /tmp/ccKdsjgl.s:4769   .text:0000000000002164 .L304
     /tmp/ccKdsjgl.s:4882   .text:0000000000002244 .L308
     /tmp/ccKdsjgl.s:4944   .text:00000000000022bc .L314
GAS LISTING /tmp/ccKdsjgl.s 			page 185


     /tmp/ccKdsjgl.s:4825   .text:00000000000021c8 .L309
     /tmp/ccKdsjgl.s:4908   .text:0000000000002270 .L313
     /tmp/ccKdsjgl.s:4936   .text:00000000000022b4 .L311
     /tmp/ccKdsjgl.s:4888   .text:000000000000224c .L370
     /tmp/ccKdsjgl.s:5011   .text:0000000000002340 .L315
     /tmp/ccKdsjgl.s:5004   .text:0000000000002338 .L316
     /tmp/ccKdsjgl.s:4981   .text:00000000000022fc .L317
     /tmp/ccKdsjgl.s:4954   .text:00000000000022cc .L318
     /tmp/ccKdsjgl.s:5110   .text:0000000000002434 .L371
     /tmp/ccKdsjgl.s:5165   .text:00000000000024ac .L322
     /tmp/ccKdsjgl.s:5141   .text:0000000000002470 .L323
     /tmp/ccKdsjgl.s:5082   .text:0000000000002404 .L324
     /tmp/ccKdsjgl.s:5078   .text:0000000000002400 .L319
     /tmp/ccKdsjgl.s:5172   .text:00000000000024b4 .L372
     /tmp/ccKdsjgl.s:5135   .text:0000000000002468 .L325
     /tmp/ccKdsjgl.s:5228   .text:0000000000002544 .L373
     /tmp/ccKdsjgl.s:5223   .text:000000000000253c .L329
     /tmp/ccKdsjgl.s:5215   .text:000000000000252c .L326
     /tmp/ccKdsjgl.s:5256   .text:0000000000002584 .L374
     /tmp/ccKdsjgl.s:5251   .text:000000000000257c .L330
     /tmp/ccKdsjgl.s:5295   .text:00000000000025e4 .L375
     /tmp/ccKdsjgl.s:5290   .text:00000000000025dc .L334
     /tmp/ccKdsjgl.s:5282   .text:00000000000025cc .L331
     /tmp/ccKdsjgl.s:5323   .text:0000000000002624 .L376
     /tmp/ccKdsjgl.s:5318   .text:000000000000261c .L335
     /tmp/ccKdsjgl.s:5359   .text:0000000000002674 .L377
     /tmp/ccKdsjgl.s:5369   .text:0000000000002690 .L337
     /tmp/ccKdsjgl.s:5354   .text:000000000000266c .L338
     /tmp/ccKdsjgl.s:5340   .text:0000000000002650 .L336
     /tmp/ccKdsjgl.s:5399   .text:00000000000026d4 .L378
     /tmp/ccKdsjgl.s:5394   .text:00000000000026cc .L342
     /tmp/ccKdsjgl.s:5386   .text:00000000000026bc .L339
     /tmp/ccKdsjgl.s:5505   .text:00000000000027e0 .L340
     /tmp/ccKdsjgl.s:5573   .text:0000000000002858 .L344
     /tmp/ccKdsjgl.s:5520   .text:00000000000027f8 .L345
     /tmp/ccKdsjgl.s:5534   .text:0000000000002810 .L379
     /tmp/ccKdsjgl.s:5547   .text:0000000000002828 .L350
     /tmp/ccKdsjgl.s:5560   .text:0000000000002840 .L380
     /tmp/ccKdsjgl.s:5418   .text:0000000000002700 .L341
     /tmp/ccKdsjgl.s:5514   .text:00000000000027f0 .L343
     /tmp/ccKdsjgl.s:5529   .text:0000000000002808 .L348
     /tmp/ccKdsjgl.s:5542   .text:0000000000002820 .L349
     /tmp/ccKdsjgl.s:5555   .text:0000000000002838 .L353
     /tmp/ccKdsjgl.s:5568   .text:0000000000002850 .L354
     /tmp/ccKdsjgl.s:5586   .text:0000000000002870 .L359
     /tmp/ccKdsjgl.s:5708   .text:000000000000290c .L382
     /tmp/ccKdsjgl.s:5670   .text:00000000000028d8 .L383
     /tmp/ccKdsjgl.s:5698   .text:0000000000002900 .L384
     /tmp/ccKdsjgl.s:5664   .text:00000000000028d0 .L389
     /tmp/ccKdsjgl.s:5686   .text:00000000000028f0 .L386
     /tmp/ccKdsjgl.s:5682   .text:00000000000028ec .L390
     /tmp/ccKdsjgl.s:5878   .text:0000000000002a1c .L398
     /tmp/ccKdsjgl.s:5839   .text:00000000000029c8 .L396
     /tmp/ccKdsjgl.s:5870   .text:0000000000002a14 .L393
     /tmp/ccKdsjgl.s:5777   .text:000000000000295c .L400
     /tmp/ccKdsjgl.s:5835   .text:00000000000029c4 .L395
     /tmp/ccKdsjgl.s:5825   .text:00000000000029b4 .L401
GAS LISTING /tmp/ccKdsjgl.s 			page 186


     /tmp/ccKdsjgl.s:5764   .text:000000000000294c .L397
     /tmp/ccKdsjgl.s:5794   .text:0000000000002988 .L392
     /tmp/ccKdsjgl.s:58     .text._ZN16KObjectAllocatordlEPv:0000000000000050 .L2
     /tmp/ccKdsjgl.s:35     .text._ZN16KObjectAllocatordlEPv:0000000000000020 .L3
     /tmp/ccKdsjgl.s:584    .text:00000000000002c8 .LEHB0
     /tmp/ccKdsjgl.s:549    .text:0000000000000294 .LFB27
     /tmp/ccKdsjgl.s:591    .text:00000000000002dc .LEHE0
     /tmp/ccKdsjgl.s:608    .text:00000000000002fc .LEHB1
     /tmp/ccKdsjgl.s:674    .text:0000000000000388 .LEHE1
     /tmp/ccKdsjgl.s:1732   .text:0000000000000b38 .L96
     /tmp/ccKdsjgl.s:748    .text:00000000000003e0 .LEHB2
     /tmp/ccKdsjgl.s:1713   .text:0000000000000b28 .LEHE2
     /tmp/ccKdsjgl.s:1740   .text:0000000000000b4c .LEHB3
     /tmp/ccKdsjgl.s:1743   .text:0000000000000b54 .LEHE3
     /tmp/ccKdsjgl.s:1807   .text:0000000000000b84 .LEHB4
     /tmp/ccKdsjgl.s:1775   .text:0000000000000b54 .LFB28
     /tmp/ccKdsjgl.s:1814   .text:0000000000000b98 .LEHE4
     /tmp/ccKdsjgl.s:1832   .text:0000000000000bb8 .LEHB5
     /tmp/ccKdsjgl.s:1898   .text:0000000000000c44 .LEHE5
     /tmp/ccKdsjgl.s:3022   .text:0000000000001530 .L187
     /tmp/ccKdsjgl.s:1976   .text:0000000000000ca0 .LEHB6
     /tmp/ccKdsjgl.s:3013   .text:0000000000001520 .LEHE6
     /tmp/ccKdsjgl.s:3030   .text:0000000000001544 .LEHB7
     /tmp/ccKdsjgl.s:3033   .text:000000000000154c .LEHE7
     /tmp/ccKdsjgl.s:3101   .text:0000000000001584 .LEHB8
     /tmp/ccKdsjgl.s:3064   .text:000000000000154c .LFB29
     /tmp/ccKdsjgl.s:3108   .text:0000000000001598 .LEHE8
     /tmp/ccKdsjgl.s:3125   .text:00000000000015b8 .LEHB9
     /tmp/ccKdsjgl.s:3191   .text:0000000000001644 .LEHE9
     /tmp/ccKdsjgl.s:4251   .text:0000000000001df8 .L269
     /tmp/ccKdsjgl.s:3265   .text:000000000000169c .LEHB10
     /tmp/ccKdsjgl.s:4232   .text:0000000000001de8 .LEHE10
     /tmp/ccKdsjgl.s:4259   .text:0000000000001e0c .LEHB11
     /tmp/ccKdsjgl.s:4262   .text:0000000000001e14 .LEHE11
     /tmp/ccKdsjgl.s:4333   .text:0000000000001e44 .LEHB12
     /tmp/ccKdsjgl.s:4301   .text:0000000000001e14 .LFB30
     /tmp/ccKdsjgl.s:4340   .text:0000000000001e58 .LEHE12
     /tmp/ccKdsjgl.s:4357   .text:0000000000001e78 .LEHB13
     /tmp/ccKdsjgl.s:4423   .text:0000000000001f04 .LEHE13
     /tmp/ccKdsjgl.s:5591   .text:0000000000002878 .L360
     /tmp/ccKdsjgl.s:4500   .text:0000000000001f60 .LEHB14
     /tmp/ccKdsjgl.s:5582   .text:0000000000002868 .LEHE14
     /tmp/ccKdsjgl.s:5599   .text:000000000000288c .LEHB15
     /tmp/ccKdsjgl.s:5602   .text:0000000000002894 .LEHE15
     /tmp/ccKdsjgl.s:12366  .debug_abbrev:0000000000000000 .Ldebug_abbrev0
     /tmp/ccKdsjgl.s:15997  .debug_str:0000000000000a24 .LASF132
     /tmp/ccKdsjgl.s:15947  .debug_str:00000000000007ba .LASF133
     /tmp/ccKdsjgl.s:15951  .debug_str:00000000000007e9 .LASF134
     /tmp/ccKdsjgl.s:15659  .debug_ranges:0000000000000000 .Ldebug_ranges0
     /tmp/ccKdsjgl.s:15763  .debug_line:0000000000000000 .Ldebug_line0
     /tmp/ccKdsjgl.s:15977  .debug_str:0000000000000984 .LASF0
     /tmp/ccKdsjgl.s:15911  .debug_str:0000000000000631 .LASF1
     /tmp/ccKdsjgl.s:15929  .debug_str:00000000000006e8 .LASF2
     /tmp/ccKdsjgl.s:15895  .debug_str:0000000000000572 .LASF3
     /tmp/ccKdsjgl.s:15827  .debug_str:000000000000028b .LASF4
     /tmp/ccKdsjgl.s:15865  .debug_str:000000000000046a .LASF5
     /tmp/ccKdsjgl.s:15787  .debug_str:00000000000000e7 .LASF6
GAS LISTING /tmp/ccKdsjgl.s 			page 187


     /tmp/ccKdsjgl.s:15933  .debug_str:0000000000000701 .LASF7
     /tmp/ccKdsjgl.s:15909  .debug_str:000000000000061e .LASF8
     /tmp/ccKdsjgl.s:16015  .debug_str:0000000000000b86 .LASF9
     /tmp/ccKdsjgl.s:15847  .debug_str:0000000000000315 .LASF10
     /tmp/ccKdsjgl.s:15945  .debug_str:00000000000007ab .LASF11
     /tmp/ccKdsjgl.s:16003  .debug_str:0000000000000b3b .LASF12
     /tmp/ccKdsjgl.s:15789  .debug_str:00000000000000ee .LASF13
     /tmp/ccKdsjgl.s:15771  .debug_str:0000000000000055 .LASF14
     /tmp/ccKdsjgl.s:15807  .debug_str:00000000000001ab .LASF15
     /tmp/ccKdsjgl.s:15967  .debug_str:000000000000090f .LASF16
     /tmp/ccKdsjgl.s:15823  .debug_str:000000000000026d .LASF17
     /tmp/ccKdsjgl.s:15891  .debug_str:0000000000000540 .LASF50
     /tmp/ccKdsjgl.s:15949  .debug_str:00000000000007d7 .LASF135
     /tmp/ccKdsjgl.s:15885  .debug_str:0000000000000512 .LASF18
     /tmp/ccKdsjgl.s:16039  .debug_str:0000000000000cbf .LASF19
     /tmp/ccKdsjgl.s:15919  .debug_str:0000000000000689 .LASF136
     /tmp/ccKdsjgl.s:16001  .debug_str:0000000000000b1b .LASF137
     /tmp/ccKdsjgl.s:16013  .debug_str:0000000000000b6f .LASF36
     /tmp/ccKdsjgl.s:15809  .debug_str:00000000000001b7 .LASF38
     /tmp/ccKdsjgl.s:15985  .debug_str:00000000000009ca .LASF24
     /tmp/ccKdsjgl.s:15937  .debug_str:0000000000000724 .LASF26
     /tmp/ccKdsjgl.s:16007  .debug_str:0000000000000b50 .LASF20
     /tmp/ccKdsjgl.s:15963  .debug_str:00000000000008c0 .LASF22
     /tmp/ccKdsjgl.s:16021  .debug_str:0000000000000bc5 .LASF21
     /tmp/ccKdsjgl.s:15779  .debug_str:000000000000008e .LASF23
     /tmp/ccKdsjgl.s:15969  .debug_str:0000000000000925 .LASF25
     /tmp/ccKdsjgl.s:15959  .debug_str:0000000000000849 .LASF27
     /tmp/ccKdsjgl.s:15797  .debug_str:0000000000000161 .LASF28
     /tmp/ccKdsjgl.s:15813  .debug_str:000000000000020c .LASF29
     /tmp/ccKdsjgl.s:15877  .debug_str:00000000000004d4 .LASF30
     /tmp/ccKdsjgl.s:16017  .debug_str:0000000000000b96 .LASF31
     /tmp/ccKdsjgl.s:15889  .debug_str:0000000000000532 .LASF32
     /tmp/ccKdsjgl.s:15811  .debug_str:00000000000001e6 .LASF33
     /tmp/ccKdsjgl.s:16023  .debug_str:0000000000000bcf .LASF34
     /tmp/ccKdsjgl.s:15859  .debug_str:00000000000003dd .LASF35
     /tmp/ccKdsjgl.s:15839  .debug_str:00000000000002d0 .LASF37
     /tmp/ccKdsjgl.s:15867  .debug_str:0000000000000471 .LASF39
     /tmp/ccKdsjgl.s:15783  .debug_str:00000000000000c0 .LASF40
     /tmp/ccKdsjgl.s:16027  .debug_str:0000000000000c1f .LASF41
     /tmp/ccKdsjgl.s:15983  .debug_str:00000000000009b4 .LASF42
     /tmp/ccKdsjgl.s:15991  .debug_str:00000000000009fe .LASF43
     /tmp/ccKdsjgl.s:15953  .debug_str:000000000000081c .LASF44
     /tmp/ccKdsjgl.s:15943  .debug_str:000000000000078b .LASF45
     /tmp/ccKdsjgl.s:16019  .debug_str:0000000000000bbb .LASF46
     /tmp/ccKdsjgl.s:15873  .debug_str:00000000000004c2 .LASF47
     /tmp/ccKdsjgl.s:16037  .debug_str:0000000000000cb3 .LASF48
     /tmp/ccKdsjgl.s:15769  .debug_str:0000000000000046 .LASF49
     /tmp/ccKdsjgl.s:15849  .debug_str:0000000000000323 .LASF51
     /tmp/ccKdsjgl.s:15795  .debug_str:0000000000000147 .LASF52
     /tmp/ccKdsjgl.s:15793  .debug_str:000000000000012c .LASF53
     /tmp/ccKdsjgl.s:15799  .debug_str:0000000000000179 .LASF54
     /tmp/ccKdsjgl.s:15901  .debug_str:00000000000005b0 .LASF55
     /tmp/ccKdsjgl.s:15987  .debug_str:00000000000009dc .LASF88
     /tmp/ccKdsjgl.s:15765  .debug_str:0000000000000000 .LASF89
     /tmp/ccKdsjgl.s:15857  .debug_str:00000000000003c9 .LASF56
     /tmp/ccKdsjgl.s:16031  .debug_str:0000000000000c43 .LASF57
     /tmp/ccKdsjgl.s:15815  .debug_str:000000000000023c .LASF58
GAS LISTING /tmp/ccKdsjgl.s 			page 188


     /tmp/ccKdsjgl.s:15905  .debug_str:00000000000005d5 .LASF59
     /tmp/ccKdsjgl.s:15957  .debug_str:000000000000082f .LASF60
     /tmp/ccKdsjgl.s:15999  .debug_str:0000000000000ae8 .LASF61
     /tmp/ccKdsjgl.s:15973  .debug_str:000000000000095f .LASF62
     /tmp/ccKdsjgl.s:15941  .debug_str:000000000000075f .LASF63
     /tmp/ccKdsjgl.s:15981  .debug_str:000000000000099f .LASF64
     /tmp/ccKdsjgl.s:15791  .debug_str:00000000000000fe .LASF65
     /tmp/ccKdsjgl.s:15915  .debug_str:0000000000000650 .LASF66
     /tmp/ccKdsjgl.s:16033  .debug_str:0000000000000c70 .LASF67
     /tmp/ccKdsjgl.s:15975  .debug_str:0000000000000972 .LASF68
     /tmp/ccKdsjgl.s:15767  .debug_str:000000000000001b .LASF69
     /tmp/ccKdsjgl.s:15995  .debug_str:0000000000000a19 .LASF70
     /tmp/ccKdsjgl.s:15833  .debug_str:00000000000002a0 .LASF71
     /tmp/ccKdsjgl.s:15879  .debug_str:00000000000004e1 .LASF72
     /tmp/ccKdsjgl.s:15853  .debug_str:0000000000000371 .LASF73
     /tmp/ccKdsjgl.s:15927  .debug_str:00000000000006d5 .LASF74
     /tmp/ccKdsjgl.s:15965  .debug_str:00000000000008e3 .LASF75
     /tmp/ccKdsjgl.s:15887  .debug_str:000000000000051b .LASF76
     /tmp/ccKdsjgl.s:15935  .debug_str:0000000000000714 .LASF77
     /tmp/ccKdsjgl.s:15913  .debug_str:000000000000063e .LASF78
     /tmp/ccKdsjgl.s:15871  .debug_str:00000000000004b7 .LASF79
     /tmp/ccKdsjgl.s:16011  .debug_str:0000000000000b61 .LASF80
     /tmp/ccKdsjgl.s:15903  .debug_str:00000000000005ca .LASF81
     /tmp/ccKdsjgl.s:16041  .debug_str:0000000000000cc4 .LASF82
     /tmp/ccKdsjgl.s:15939  .debug_str:000000000000074e .LASF83
     /tmp/ccKdsjgl.s:15837  .debug_str:00000000000002cb .LASF84
     /tmp/ccKdsjgl.s:15921  .debug_str:0000000000000692 .LASF85
     /tmp/ccKdsjgl.s:15925  .debug_str:00000000000006b7 .LASF86
     /tmp/ccKdsjgl.s:15897  .debug_str:0000000000000580 .LASF87
     /tmp/ccKdsjgl.s:15869  .debug_str:0000000000000498 .LASF90
     /tmp/ccKdsjgl.s:15831  .debug_str:0000000000000297 .LASF91
     /tmp/ccKdsjgl.s:15861  .debug_str:0000000000000404 .LASF92
     /tmp/ccKdsjgl.s:15923  .debug_str:00000000000006a7 .LASF93
     /tmp/ccKdsjgl.s:16025  .debug_str:0000000000000bde .LASF94
     /tmp/ccKdsjgl.s:15781  .debug_str:00000000000000b0 .LASF95
     /tmp/ccKdsjgl.s:15863  .debug_str:0000000000000429 .LASF96
     /tmp/ccKdsjgl.s:15883  .debug_str:0000000000000503 .LASF97
     /tmp/ccKdsjgl.s:15961  .debug_str:0000000000000880 .LASF98
     /tmp/ccKdsjgl.s:16043  .debug_str:0000000000000cd8 .LASF99
     /tmp/ccKdsjgl.s:15851  .debug_str:0000000000000334 .LASF100
     /tmp/ccKdsjgl.s:15829  .debug_str:0000000000000291 .LASF101
     /tmp/ccKdsjgl.s:15907  .debug_str:00000000000005fc .LASF102
     /tmp/ccKdsjgl.s:16005  .debug_str:0000000000000b4a .LASF103
     /tmp/ccKdsjgl.s:15917  .debug_str:0000000000000667 .LASF104
     /tmp/ccKdsjgl.s:16009  .debug_str:0000000000000b5b .LASF105
     /tmp/ccKdsjgl.s:15893  .debug_str:0000000000000550 .LASF106
     /tmp/ccKdsjgl.s:15835  .debug_str:00000000000002c5 .LASF107
     /tmp/ccKdsjgl.s:15855  .debug_str:00000000000003a7 .LASF108
     /tmp/ccKdsjgl.s:15805  .debug_str:00000000000001a6 .LASF109
     /tmp/ccKdsjgl.s:15841  .debug_str:00000000000002df .LASF110
     /tmp/ccKdsjgl.s:15773  .debug_str:0000000000000065 .LASF111
     /tmp/ccKdsjgl.s:15817  .debug_str:000000000000024a .LASF112
     /tmp/ccKdsjgl.s:5604   .text:0000000000002894 .LFE30
     /tmp/ccKdsjgl.s:15821  .debug_str:0000000000000268 .LASF115
     /tmp/ccKdsjgl.s:13342  .debug_loc:0000000000000000 .LLST106
     /tmp/ccKdsjgl.s:15993  .debug_str:0000000000000a14 .LASF116
     /tmp/ccKdsjgl.s:13364  .debug_loc:000000000000005f .LLST107
GAS LISTING /tmp/ccKdsjgl.s 			page 189


     /tmp/ccKdsjgl.s:15979  .debug_str:0000000000000996 .LASF113
     /tmp/ccKdsjgl.s:13426  .debug_loc:000000000000014f .LLST108
     /tmp/ccKdsjgl.s:15845  .debug_str:000000000000030e .LASF114
     /tmp/ccKdsjgl.s:4724   .text:00000000000020fc .LBB401
     /tmp/ccKdsjgl.s:4753   .text:0000000000002138 .LBE401
     /tmp/ccKdsjgl.s:13437  .debug_loc:0000000000000185 .LLST120
     /tmp/ccKdsjgl.s:4739   .text:0000000000002118 .LVL654
     /tmp/ccKdsjgl.s:4822   .text:00000000000021c4 .LBB406
     /tmp/ccKdsjgl.s:4851   .text:0000000000002200 .LBE406
     /tmp/ccKdsjgl.s:13452  .debug_loc:00000000000001ce .LLST122
     /tmp/ccKdsjgl.s:4837   .text:00000000000021e0 .LVL666
     /tmp/ccKdsjgl.s:13467  .debug_loc:0000000000000217 .LLST126
     /tmp/ccKdsjgl.s:5428   .text:0000000000002718 .LVL745
     /tmp/ccKdsjgl.s:5433   .text:0000000000002724 .LVL746
     /tmp/ccKdsjgl.s:5443   .text:0000000000002740 .LVL747
     /tmp/ccKdsjgl.s:5452   .text:000000000000275c .LVL748
     /tmp/ccKdsjgl.s:5469   .text:0000000000002788 .LVL749
     /tmp/ccKdsjgl.s:5474   .text:0000000000002794 .LVL750
     /tmp/ccKdsjgl.s:5484   .text:00000000000027b0 .LVL751
     /tmp/ccKdsjgl.s:5492   .text:00000000000027c8 .LVL752
     /tmp/ccKdsjgl.s:5528   .text:0000000000002808 .LVL756
     /tmp/ccKdsjgl.s:5541   .text:0000000000002820 .LVL757
     /tmp/ccKdsjgl.s:5554   .text:0000000000002838 .LVL758
     /tmp/ccKdsjgl.s:5567   .text:0000000000002850 .LVL759
     /tmp/ccKdsjgl.s:4330   .text:0000000000001e44 .LBB380
     /tmp/ccKdsjgl.s:4344   .text:0000000000001e5c .LBE380
     /tmp/ccKdsjgl.s:13478  .debug_loc:000000000000024d .LLST109
     /tmp/ccKdsjgl.s:4336   .text:0000000000001e4c .LVL600
     /tmp/ccKdsjgl.s:4339   .text:0000000000001e58 .LVL601
     /tmp/ccKdsjgl.s:4345   .text:0000000000001e5c .LBB382
     /tmp/ccKdsjgl.s:4471   .text:0000000000001f44 .LBE382
     /tmp/ccKdsjgl.s:13487  .debug_loc:0000000000000272 .LLST110
     /tmp/ccKdsjgl.s:13500  .debug_loc:00000000000002aa .LLST111
     /tmp/ccKdsjgl.s:13518  .debug_loc:00000000000002f6 .LLST112
     /tmp/ccKdsjgl.s:4441   .text:0000000000001f20 .LBB385
     /tmp/ccKdsjgl.s:4468   .text:0000000000001f44 .LBE385
     /tmp/ccKdsjgl.s:13529  .debug_loc:000000000000032c .LLST113
     /tmp/ccKdsjgl.s:4360   .text:0000000000001e80 .LVL603
     /tmp/ccKdsjgl.s:4366   .text:0000000000001e90 .LVL604
     /tmp/ccKdsjgl.s:4372   .text:0000000000001e9c .LVL605
     /tmp/ccKdsjgl.s:4378   .text:0000000000001eac .LVL606
     /tmp/ccKdsjgl.s:4404   .text:0000000000001edc .LVL607
     /tmp/ccKdsjgl.s:4422   .text:0000000000001f04 .LVL608
     /tmp/ccKdsjgl.s:4473   .text:0000000000001f44 .LBB386
     /tmp/ccKdsjgl.s:4480   .text:0000000000001f48 .LBE386
     /tmp/ccKdsjgl.s:13551  .debug_loc:000000000000038b .LLST114
     /tmp/ccKdsjgl.s:4487   .text:0000000000001f54 .LBB388
     /tmp/ccKdsjgl.s:4542   .text:0000000000001fc4 .LBE388
     /tmp/ccKdsjgl.s:4489   .text:0000000000001f54 .LBB390
     /tmp/ccKdsjgl.s:4518   .text:0000000000001f88 .LBE390
     /tmp/ccKdsjgl.s:13558  .debug_loc:00000000000003ae .LLST115
     /tmp/ccKdsjgl.s:4503   .text:0000000000001f68 .LVL616
     /tmp/ccKdsjgl.s:4512   .text:0000000000001f80 .LVL617
     /tmp/ccKdsjgl.s:4522   .text:0000000000001f90 .LVL619
     /tmp/ccKdsjgl.s:4525   .text:0000000000001f9c .LVL620
     /tmp/ccKdsjgl.s:4529   .text:0000000000001fa4 .LVL621
     /tmp/ccKdsjgl.s:4532   .text:0000000000001fb0 .LVL622
GAS LISTING /tmp/ccKdsjgl.s 			page 190


     /tmp/ccKdsjgl.s:4536   .text:0000000000001fb8 .LVL623
     /tmp/ccKdsjgl.s:4539   .text:0000000000001fc4 .LVL624
     /tmp/ccKdsjgl.s:4574   .text:0000000000001ff0 .LBB391
     /tmp/ccKdsjgl.s:4581   .text:0000000000001ff4 .LBE391
     /tmp/ccKdsjgl.s:13565  .debug_loc:00000000000003d1 .LLST116
     /tmp/ccKdsjgl.s:4588   .text:0000000000002000 .LBB393
     /tmp/ccKdsjgl.s:4642   .text:0000000000002070 .LBE393
     /tmp/ccKdsjgl.s:4590   .text:0000000000002000 .LBB395
     /tmp/ccKdsjgl.s:4618   .text:0000000000002034 .LBE395
     /tmp/ccKdsjgl.s:13572  .debug_loc:00000000000003f4 .LLST117
     /tmp/ccKdsjgl.s:4603   .text:0000000000002014 .LVL630
     /tmp/ccKdsjgl.s:4612   .text:000000000000202c .LVL631
     /tmp/ccKdsjgl.s:4622   .text:000000000000203c .LVL633
     /tmp/ccKdsjgl.s:4625   .text:0000000000002048 .LVL634
     /tmp/ccKdsjgl.s:4629   .text:0000000000002050 .LVL635
     /tmp/ccKdsjgl.s:4632   .text:000000000000205c .LVL636
     /tmp/ccKdsjgl.s:4636   .text:0000000000002064 .LVL637
     /tmp/ccKdsjgl.s:4639   .text:0000000000002070 .LVL638
     /tmp/ccKdsjgl.s:4650   .text:0000000000002078 .LBB396
     /tmp/ccKdsjgl.s:4657   .text:000000000000207c .LBE396
     /tmp/ccKdsjgl.s:13579  .debug_loc:0000000000000417 .LLST118
     /tmp/ccKdsjgl.s:4663   .text:0000000000002084 .LBB398
     /tmp/ccKdsjgl.s:4717   .text:00000000000020f4 .LBE398
     /tmp/ccKdsjgl.s:4665   .text:0000000000002084 .LBB400
     /tmp/ccKdsjgl.s:4693   .text:00000000000020b8 .LBE400
     /tmp/ccKdsjgl.s:13586  .debug_loc:000000000000043a .LLST119
     /tmp/ccKdsjgl.s:4678   .text:0000000000002098 .LVL642
     /tmp/ccKdsjgl.s:4687   .text:00000000000020b0 .LVL643
     /tmp/ccKdsjgl.s:4697   .text:00000000000020c0 .LVL645
     /tmp/ccKdsjgl.s:4700   .text:00000000000020cc .LVL646
     /tmp/ccKdsjgl.s:4704   .text:00000000000020d4 .LVL647
     /tmp/ccKdsjgl.s:4707   .text:00000000000020e0 .LVL648
     /tmp/ccKdsjgl.s:4711   .text:00000000000020e8 .LVL649
     /tmp/ccKdsjgl.s:4714   .text:00000000000020f4 .LVL650
     /tmp/ccKdsjgl.s:4773   .text:0000000000002168 .LBB402
     /tmp/ccKdsjgl.s:4775   .text:0000000000002168 .LBB404
     /tmp/ccKdsjgl.s:4804   .text:000000000000219c .LBE404
     /tmp/ccKdsjgl.s:13593  .debug_loc:000000000000045d .LLST121
     /tmp/ccKdsjgl.s:4788   .text:000000000000217c .LVL659
     /tmp/ccKdsjgl.s:4797   .text:0000000000002194 .LVL660
     /tmp/ccKdsjgl.s:4857   .text:0000000000002208 .LVL668
     /tmp/ccKdsjgl.s:4860   .text:0000000000002214 .LVL669
     /tmp/ccKdsjgl.s:4864   .text:000000000000221c .LVL670
     /tmp/ccKdsjgl.s:4867   .text:0000000000002228 .LVL671
     /tmp/ccKdsjgl.s:4871   .text:0000000000002230 .LVL672
     /tmp/ccKdsjgl.s:4874   .text:000000000000223c .LVL673
     /tmp/ccKdsjgl.s:4889   .text:000000000000224c .LBB408
     /tmp/ccKdsjgl.s:4938   .text:00000000000022b4 .LBE408
     /tmp/ccKdsjgl.s:4891   .text:000000000000224c .LBB410
     /tmp/ccKdsjgl.s:4914   .text:0000000000002278 .LBE410
     /tmp/ccKdsjgl.s:13604  .debug_loc:0000000000000493 .LLST123
     /tmp/ccKdsjgl.s:4895   .text:0000000000002254 .LVL675
     /tmp/ccKdsjgl.s:4904   .text:000000000000226c .LVL676
     /tmp/ccKdsjgl.s:4918   .text:0000000000002280 .LVL678
     /tmp/ccKdsjgl.s:4921   .text:000000000000228c .LVL679
     /tmp/ccKdsjgl.s:4925   .text:0000000000002294 .LVL680
     /tmp/ccKdsjgl.s:4928   .text:00000000000022a0 .LVL681
GAS LISTING /tmp/ccKdsjgl.s 			page 191


     /tmp/ccKdsjgl.s:4932   .text:00000000000022a8 .LVL682
     /tmp/ccKdsjgl.s:4935   .text:00000000000022b4 .LVL683
     /tmp/ccKdsjgl.s:4956   .text:00000000000022cc .LBB411
     /tmp/ccKdsjgl.s:5006   .text:0000000000002338 .LBE411
     /tmp/ccKdsjgl.s:4958   .text:00000000000022cc .LBB413
     /tmp/ccKdsjgl.s:4982   .text:00000000000022fc .LBE413
     /tmp/ccKdsjgl.s:13611  .debug_loc:00000000000004b6 .LLST124
     /tmp/ccKdsjgl.s:4967   .text:00000000000022dc .LVL686
     /tmp/ccKdsjgl.s:4976   .text:00000000000022f4 .LVL687
     /tmp/ccKdsjgl.s:4986   .text:0000000000002304 .LVL689
     /tmp/ccKdsjgl.s:4989   .text:0000000000002310 .LVL690
     /tmp/ccKdsjgl.s:4993   .text:0000000000002318 .LVL691
     /tmp/ccKdsjgl.s:4996   .text:0000000000002324 .LVL692
     /tmp/ccKdsjgl.s:5000   .text:000000000000232c .LVL693
     /tmp/ccKdsjgl.s:5003   .text:0000000000002338 .LVL694
     /tmp/ccKdsjgl.s:5084   .text:0000000000002404 .LBB414
     /tmp/ccKdsjgl.s:5086   .text:0000000000002404 .LBB416
     /tmp/ccKdsjgl.s:5111   .text:0000000000002434 .LBE416
     /tmp/ccKdsjgl.s:13618  .debug_loc:00000000000004d9 .LLST125
     /tmp/ccKdsjgl.s:5095   .text:0000000000002414 .LVL708
     /tmp/ccKdsjgl.s:5104   .text:000000000000242c .LVL709
     /tmp/ccKdsjgl.s:5147   .text:0000000000002478 .LVL715
     /tmp/ccKdsjgl.s:5150   .text:0000000000002484 .LVL716
     /tmp/ccKdsjgl.s:5154   .text:000000000000248c .LVL717
     /tmp/ccKdsjgl.s:5157   .text:0000000000002498 .LVL718
     /tmp/ccKdsjgl.s:5161   .text:00000000000024a0 .LVL719
     /tmp/ccKdsjgl.s:5164   .text:00000000000024ac .LVL720
     /tmp/ccKdsjgl.s:4765   .text:000000000000215c .LVL657
     /tmp/ccKdsjgl.s:4812   .text:00000000000021b0 .LVL663
     /tmp/ccKdsjgl.s:5016   .text:0000000000002350 .LVL695
     /tmp/ccKdsjgl.s:5025   .text:000000000000236c .LVL696
     /tmp/ccKdsjgl.s:5030   .text:0000000000002378 .LVL697
     /tmp/ccKdsjgl.s:5037   .text:000000000000238c .LVL699
     /tmp/ccKdsjgl.s:5044   .text:00000000000023a0 .LVL700
     /tmp/ccKdsjgl.s:5047   .text:00000000000023a8 .LVL701
     /tmp/ccKdsjgl.s:5052   .text:00000000000023b8 .LVL702
     /tmp/ccKdsjgl.s:5059   .text:00000000000023cc .LVL703
     /tmp/ccKdsjgl.s:5062   .text:00000000000023d4 .LVL704
     /tmp/ccKdsjgl.s:5067   .text:00000000000023e4 .LVL705
     /tmp/ccKdsjgl.s:5074   .text:00000000000023f8 .LVL706
     /tmp/ccKdsjgl.s:5119   .text:0000000000002448 .LVL712
     /tmp/ccKdsjgl.s:5134   .text:0000000000002468 .LVL713
     /tmp/ccKdsjgl.s:5177   .text:00000000000024c4 .LVL721
     /tmp/ccKdsjgl.s:5186   .text:00000000000024e0 .LVL722
     /tmp/ccKdsjgl.s:5192   .text:00000000000024f0 .LVL723
     /tmp/ccKdsjgl.s:5198   .text:0000000000002500 .LVL724
     /tmp/ccKdsjgl.s:5203   .text:000000000000250c .LVL725
     /tmp/ccKdsjgl.s:5211   .text:0000000000002524 .LVL726
     /tmp/ccKdsjgl.s:5222   .text:000000000000253c .LVL727
     /tmp/ccKdsjgl.s:5234   .text:0000000000002558 .LVL728
     /tmp/ccKdsjgl.s:5250   .text:000000000000257c .LVL729
     /tmp/ccKdsjgl.s:5265   .text:00000000000025a0 .LVL730
     /tmp/ccKdsjgl.s:5270   .text:00000000000025ac .LVL731
     /tmp/ccKdsjgl.s:5278   .text:00000000000025c4 .LVL732
     /tmp/ccKdsjgl.s:5289   .text:00000000000025dc .LVL733
     /tmp/ccKdsjgl.s:5301   .text:00000000000025f8 .LVL734
     /tmp/ccKdsjgl.s:5317   .text:000000000000261c .LVL735
GAS LISTING /tmp/ccKdsjgl.s 			page 192


     /tmp/ccKdsjgl.s:5328   .text:0000000000002630 .LVL736
     /tmp/ccKdsjgl.s:5336   .text:0000000000002648 .LVL737
     /tmp/ccKdsjgl.s:5353   .text:000000000000266c .LVL738
     /tmp/ccKdsjgl.s:5365   .text:0000000000002688 .LVL739
     /tmp/ccKdsjgl.s:5374   .text:000000000000269c .LVL740
     /tmp/ccKdsjgl.s:5382   .text:00000000000026b4 .LVL741
     /tmp/ccKdsjgl.s:5393   .text:00000000000026cc .LVL742
     /tmp/ccKdsjgl.s:5405   .text:00000000000026e8 .LVL743
     /tmp/ccKdsjgl.s:5513   .text:00000000000027f0 .LVL754
     /tmp/ccKdsjgl.s:5581   .text:0000000000002868 .LVL760
     /tmp/ccKdsjgl.s:5597   .text:0000000000002888 .LVL763
     /tmp/ccKdsjgl.s:5601   .text:0000000000002894 .LVL764
     /tmp/ccKdsjgl.s:4264   .text:0000000000001e14 .LFE29
     /tmp/ccKdsjgl.s:13629  .debug_loc:000000000000050f .LLST77
     /tmp/ccKdsjgl.s:13651  .debug_loc:000000000000056e .LLST78
     /tmp/ccKdsjgl.s:13713  .debug_loc:000000000000065e .LLST79
     /tmp/ccKdsjgl.s:15881  .debug_str:00000000000004fe .LASF117
     /tmp/ccKdsjgl.s:13724  .debug_loc:0000000000000694 .LLST80
     /tmp/ccKdsjgl.s:13752  .debug_loc:0000000000000717 .LLST81
     /tmp/ccKdsjgl.s:15989  .debug_str:00000000000009ec .LASF118
     /tmp/ccKdsjgl.s:3500   .text:0000000000001848 .LBB312
     /tmp/ccKdsjgl.s:3527   .text:000000000000187c .LBE312
     /tmp/ccKdsjgl.s:13823  .debug_loc:000000000000085b .LLST93
     /tmp/ccKdsjgl.s:3515   .text:0000000000001864 .LVL467
     /tmp/ccKdsjgl.s:13838  .debug_loc:00000000000008a4 .LLST94
     /tmp/ccKdsjgl.s:15825  .debug_str:0000000000000283 .LASF119
     /tmp/ccKdsjgl.s:13845  .debug_loc:00000000000008c7 .LLST95
     /tmp/ccKdsjgl.s:15875  .debug_str:00000000000004cd .LASF120
     /tmp/ccKdsjgl.s:13860  .debug_loc:0000000000000910 .LLST96
     /tmp/ccKdsjgl.s:3545   .text:0000000000001890 .LBB315
     /tmp/ccKdsjgl.s:3599   .text:0000000000001900 .LBE315
     /tmp/ccKdsjgl.s:3547   .text:0000000000001890 .LBB317
     /tmp/ccKdsjgl.s:3575   .text:00000000000018c4 .LBE317
     /tmp/ccKdsjgl.s:13871  .debug_loc:0000000000000946 .LLST97
     /tmp/ccKdsjgl.s:3560   .text:00000000000018a4 .LVL472
     /tmp/ccKdsjgl.s:3569   .text:00000000000018bc .LVL473
     /tmp/ccKdsjgl.s:3579   .text:00000000000018cc .LVL475
     /tmp/ccKdsjgl.s:3582   .text:00000000000018d8 .LVL476
     /tmp/ccKdsjgl.s:3586   .text:00000000000018e0 .LVL477
     /tmp/ccKdsjgl.s:3589   .text:00000000000018ec .LVL478
     /tmp/ccKdsjgl.s:3593   .text:00000000000018f4 .LVL479
     /tmp/ccKdsjgl.s:3596   .text:0000000000001900 .LVL480
     /tmp/ccKdsjgl.s:3609   .text:000000000000190c .LBB318
     /tmp/ccKdsjgl.s:3663   .text:000000000000197c .LBE318
     /tmp/ccKdsjgl.s:3611   .text:000000000000190c .LBB320
     /tmp/ccKdsjgl.s:3639   .text:0000000000001940 .LBE320
     /tmp/ccKdsjgl.s:13878  .debug_loc:0000000000000969 .LLST98
     /tmp/ccKdsjgl.s:3624   .text:0000000000001920 .LVL483
     /tmp/ccKdsjgl.s:3633   .text:0000000000001938 .LVL484
     /tmp/ccKdsjgl.s:3643   .text:0000000000001948 .LVL486
     /tmp/ccKdsjgl.s:3646   .text:0000000000001954 .LVL487
     /tmp/ccKdsjgl.s:3650   .text:000000000000195c .LVL488
     /tmp/ccKdsjgl.s:3653   .text:0000000000001968 .LVL489
     /tmp/ccKdsjgl.s:3657   .text:0000000000001970 .LVL490
     /tmp/ccKdsjgl.s:3660   .text:000000000000197c .LVL491
     /tmp/ccKdsjgl.s:3673   .text:0000000000001988 .LBB321
     /tmp/ccKdsjgl.s:3727   .text:00000000000019f8 .LBE321
GAS LISTING /tmp/ccKdsjgl.s 			page 193


     /tmp/ccKdsjgl.s:3675   .text:0000000000001988 .LBB323
     /tmp/ccKdsjgl.s:3704   .text:00000000000019bc .LBE323
     /tmp/ccKdsjgl.s:13885  .debug_loc:000000000000098c .LLST99
     /tmp/ccKdsjgl.s:3685   .text:0000000000001998 .LVL495
     /tmp/ccKdsjgl.s:3694   .text:00000000000019b0 .LVL496
     /tmp/ccKdsjgl.s:3708   .text:00000000000019c4 .LVL498
     /tmp/ccKdsjgl.s:3711   .text:00000000000019d0 .LVL499
     /tmp/ccKdsjgl.s:3715   .text:00000000000019d8 .LVL500
     /tmp/ccKdsjgl.s:3718   .text:00000000000019e4 .LVL501
     /tmp/ccKdsjgl.s:3722   .text:00000000000019ec .LVL502
     /tmp/ccKdsjgl.s:3725   .text:00000000000019f8 .LVL503
     /tmp/ccKdsjgl.s:3765   .text:0000000000001a3c .LVL509
     /tmp/ccKdsjgl.s:3774   .text:0000000000001a54 .LVL510
     /tmp/ccKdsjgl.s:3784   .text:0000000000001a6c .LVL513
     /tmp/ccKdsjgl.s:3797   .text:0000000000001a8c .LVL515
     /tmp/ccKdsjgl.s:3808   .text:0000000000001a9c .LBB326
     /tmp/ccKdsjgl.s:3911   .text:0000000000001b5c .LBE326
     /tmp/ccKdsjgl.s:13892  .debug_loc:00000000000009af .LLST100
     /tmp/ccKdsjgl.s:3817   .text:0000000000001aa8 .LBB327
     /tmp/ccKdsjgl.s:3871   .text:0000000000001b18 .LBE327
     /tmp/ccKdsjgl.s:3819   .text:0000000000001aa8 .LBB329
     /tmp/ccKdsjgl.s:3847   .text:0000000000001adc .LBE329
     /tmp/ccKdsjgl.s:13907  .debug_loc:00000000000009f8 .LLST101
     /tmp/ccKdsjgl.s:3832   .text:0000000000001abc .LVL519
     /tmp/ccKdsjgl.s:3841   .text:0000000000001ad4 .LVL520
     /tmp/ccKdsjgl.s:3851   .text:0000000000001ae4 .LVL522
     /tmp/ccKdsjgl.s:3854   .text:0000000000001af0 .LVL523
     /tmp/ccKdsjgl.s:3858   .text:0000000000001af8 .LVL524
     /tmp/ccKdsjgl.s:3861   .text:0000000000001b04 .LVL525
     /tmp/ccKdsjgl.s:3865   .text:0000000000001b0c .LVL526
     /tmp/ccKdsjgl.s:3868   .text:0000000000001b18 .LVL527
     /tmp/ccKdsjgl.s:3904   .text:0000000000001b50 .LVL534
     /tmp/ccKdsjgl.s:13914  .debug_loc:0000000000000a1b .LLST104
     /tmp/ccKdsjgl.s:4130   .text:0000000000001d24 .LVL572
     /tmp/ccKdsjgl.s:4168   .text:0000000000001d68 .LVL579
     /tmp/ccKdsjgl.s:3098   .text:0000000000001584 .LBB291
     /tmp/ccKdsjgl.s:3112   .text:000000000000159c .LBE291
     /tmp/ccKdsjgl.s:13934  .debug_loc:0000000000000a78 .LLST82
     /tmp/ccKdsjgl.s:3104   .text:000000000000158c .LVL411
     /tmp/ccKdsjgl.s:3107   .text:0000000000001598 .LVL412
     /tmp/ccKdsjgl.s:3113   .text:000000000000159c .LBB293
     /tmp/ccKdsjgl.s:3239   .text:0000000000001684 .LBE293
     /tmp/ccKdsjgl.s:13943  .debug_loc:0000000000000a9d .LLST83
     /tmp/ccKdsjgl.s:13956  .debug_loc:0000000000000ad5 .LLST84
     /tmp/ccKdsjgl.s:13974  .debug_loc:0000000000000b21 .LLST85
     /tmp/ccKdsjgl.s:3209   .text:0000000000001660 .LBB296
     /tmp/ccKdsjgl.s:3236   .text:0000000000001684 .LBE296
     /tmp/ccKdsjgl.s:13985  .debug_loc:0000000000000b57 .LLST86
     /tmp/ccKdsjgl.s:3128   .text:00000000000015c0 .LVL414
     /tmp/ccKdsjgl.s:3134   .text:00000000000015d0 .LVL415
     /tmp/ccKdsjgl.s:3140   .text:00000000000015dc .LVL416
     /tmp/ccKdsjgl.s:3146   .text:00000000000015ec .LVL417
     /tmp/ccKdsjgl.s:3172   .text:000000000000161c .LVL418
     /tmp/ccKdsjgl.s:3190   .text:0000000000001644 .LVL419
     /tmp/ccKdsjgl.s:3241   .text:0000000000001684 .LBB297
     /tmp/ccKdsjgl.s:3248   .text:0000000000001688 .LBE297
     /tmp/ccKdsjgl.s:14007  .debug_loc:0000000000000bb6 .LLST87
GAS LISTING /tmp/ccKdsjgl.s 			page 194


     /tmp/ccKdsjgl.s:3255   .text:0000000000001694 .LBB299
     /tmp/ccKdsjgl.s:3311   .text:0000000000001704 .LBE299
     /tmp/ccKdsjgl.s:3257   .text:0000000000001694 .LBB301
     /tmp/ccKdsjgl.s:3287   .text:00000000000016c8 .LBE301
     /tmp/ccKdsjgl.s:14014  .debug_loc:0000000000000bd9 .LLST88
     /tmp/ccKdsjgl.s:3268   .text:00000000000016a4 .LVL428
     /tmp/ccKdsjgl.s:3277   .text:00000000000016bc .LVL429
     /tmp/ccKdsjgl.s:3291   .text:00000000000016d0 .LVL431
     /tmp/ccKdsjgl.s:3294   .text:00000000000016dc .LVL432
     /tmp/ccKdsjgl.s:3298   .text:00000000000016e4 .LVL433
     /tmp/ccKdsjgl.s:3301   .text:00000000000016f0 .LVL434
     /tmp/ccKdsjgl.s:3305   .text:00000000000016f8 .LVL435
     /tmp/ccKdsjgl.s:3308   .text:0000000000001704 .LVL436
     /tmp/ccKdsjgl.s:3349   .text:000000000000173c .LBB302
     /tmp/ccKdsjgl.s:3356   .text:0000000000001740 .LBE302
     /tmp/ccKdsjgl.s:14021  .debug_loc:0000000000000bfc .LLST89
     /tmp/ccKdsjgl.s:3363   .text:000000000000174c .LBB304
     /tmp/ccKdsjgl.s:3418   .text:00000000000017bc .LBE304
     /tmp/ccKdsjgl.s:3365   .text:000000000000174c .LBB306
     /tmp/ccKdsjgl.s:3394   .text:0000000000001780 .LBE306
     /tmp/ccKdsjgl.s:14028  .debug_loc:0000000000000c1f .LLST90
     /tmp/ccKdsjgl.s:3375   .text:000000000000175c .LVL443
     /tmp/ccKdsjgl.s:3384   .text:0000000000001774 .LVL444
     /tmp/ccKdsjgl.s:3398   .text:0000000000001788 .LVL446
     /tmp/ccKdsjgl.s:3401   .text:0000000000001794 .LVL447
     /tmp/ccKdsjgl.s:3405   .text:000000000000179c .LVL448
     /tmp/ccKdsjgl.s:3408   .text:00000000000017a8 .LVL449
     /tmp/ccKdsjgl.s:3412   .text:00000000000017b0 .LVL450
     /tmp/ccKdsjgl.s:3415   .text:00000000000017bc .LVL451
     /tmp/ccKdsjgl.s:3426   .text:00000000000017c4 .LBB307
     /tmp/ccKdsjgl.s:3433   .text:00000000000017c8 .LBE307
     /tmp/ccKdsjgl.s:14035  .debug_loc:0000000000000c42 .LLST91
     /tmp/ccKdsjgl.s:3439   .text:00000000000017d0 .LBB309
     /tmp/ccKdsjgl.s:3493   .text:0000000000001840 .LBE309
     /tmp/ccKdsjgl.s:3441   .text:00000000000017d0 .LBB311
     /tmp/ccKdsjgl.s:3469   .text:0000000000001804 .LBE311
     /tmp/ccKdsjgl.s:14042  .debug_loc:0000000000000c65 .LLST92
     /tmp/ccKdsjgl.s:3454   .text:00000000000017e4 .LVL455
     /tmp/ccKdsjgl.s:3463   .text:00000000000017fc .LVL456
     /tmp/ccKdsjgl.s:3473   .text:000000000000180c .LVL458
     /tmp/ccKdsjgl.s:3476   .text:0000000000001818 .LVL459
     /tmp/ccKdsjgl.s:3480   .text:0000000000001820 .LVL460
     /tmp/ccKdsjgl.s:3483   .text:000000000000182c .LVL461
     /tmp/ccKdsjgl.s:3487   .text:0000000000001834 .LVL462
     /tmp/ccKdsjgl.s:3490   .text:0000000000001840 .LVL463
     /tmp/ccKdsjgl.s:3950   .text:0000000000001bbc .LBB330
     /tmp/ccKdsjgl.s:4004   .text:0000000000001c2c .LBE330
     /tmp/ccKdsjgl.s:3952   .text:0000000000001bbc .LBB332
     /tmp/ccKdsjgl.s:3980   .text:0000000000001bf0 .LBE332
     /tmp/ccKdsjgl.s:14049  .debug_loc:0000000000000c88 .LLST102
     /tmp/ccKdsjgl.s:3961   .text:0000000000001bcc .LVL542
     /tmp/ccKdsjgl.s:3970   .text:0000000000001be4 .LVL543
     /tmp/ccKdsjgl.s:3984   .text:0000000000001bf8 .LVL545
     /tmp/ccKdsjgl.s:3987   .text:0000000000001c04 .LVL546
     /tmp/ccKdsjgl.s:3991   .text:0000000000001c0c .LVL547
     /tmp/ccKdsjgl.s:3994   .text:0000000000001c18 .LVL548
     /tmp/ccKdsjgl.s:3998   .text:0000000000001c20 .LVL549
GAS LISTING /tmp/ccKdsjgl.s 			page 195


     /tmp/ccKdsjgl.s:4001   .text:0000000000001c2c .LVL550
     /tmp/ccKdsjgl.s:4041   .text:0000000000001c78 .LBB333
     /tmp/ccKdsjgl.s:4095   .text:0000000000001ce8 .LBE333
     /tmp/ccKdsjgl.s:4043   .text:0000000000001c78 .LBB335
     /tmp/ccKdsjgl.s:4071   .text:0000000000001cac .LBE335
     /tmp/ccKdsjgl.s:14056  .debug_loc:0000000000000cab .LLST103
     /tmp/ccKdsjgl.s:4052   .text:0000000000001c88 .LVL559
     /tmp/ccKdsjgl.s:4061   .text:0000000000001ca0 .LVL560
     /tmp/ccKdsjgl.s:4075   .text:0000000000001cb4 .LVL562
     /tmp/ccKdsjgl.s:4078   .text:0000000000001cc0 .LVL563
     /tmp/ccKdsjgl.s:4082   .text:0000000000001cc8 .LVL564
     /tmp/ccKdsjgl.s:4085   .text:0000000000001cd4 .LVL565
     /tmp/ccKdsjgl.s:4089   .text:0000000000001cdc .LVL566
     /tmp/ccKdsjgl.s:4092   .text:0000000000001ce8 .LVL567
     /tmp/ccKdsjgl.s:4179   .text:0000000000001d78 .LBB338
     /tmp/ccKdsjgl.s:4181   .text:0000000000001d78 .LBB340
     /tmp/ccKdsjgl.s:4210   .text:0000000000001dac .LBE340
     /tmp/ccKdsjgl.s:14063  .debug_loc:0000000000000cce .LLST105
     /tmp/ccKdsjgl.s:4191   .text:0000000000001d88 .LVL582
     /tmp/ccKdsjgl.s:4200   .text:0000000000001da0 .LVL583
     /tmp/ccKdsjgl.s:4214   .text:0000000000001db4 .LVL585
     /tmp/ccKdsjgl.s:4217   .text:0000000000001dc0 .LVL586
     /tmp/ccKdsjgl.s:4221   .text:0000000000001dc8 .LVL587
     /tmp/ccKdsjgl.s:4224   .text:0000000000001dd4 .LVL588
     /tmp/ccKdsjgl.s:4228   .text:0000000000001ddc .LVL589
     /tmp/ccKdsjgl.s:4231   .text:0000000000001de8 .LVL590
     /tmp/ccKdsjgl.s:3917   .text:0000000000001b6c .LVL535
     /tmp/ccKdsjgl.s:3923   .text:0000000000001b7c .LVL536
     /tmp/ccKdsjgl.s:3929   .text:0000000000001b8c .LVL537
     /tmp/ccKdsjgl.s:3934   .text:0000000000001b98 .LVL538
     /tmp/ccKdsjgl.s:3944   .text:0000000000001bb4 .LVL540
     /tmp/ccKdsjgl.s:4018   .text:0000000000001c48 .LVL553
     /tmp/ccKdsjgl.s:4028   .text:0000000000001c60 .LVL556
     /tmp/ccKdsjgl.s:4257   .text:0000000000001e08 .LVL596
     /tmp/ccKdsjgl.s:4261   .text:0000000000001e14 .LVL597
     /tmp/ccKdsjgl.s:3035   .text:000000000000154c .LFE28
     /tmp/ccKdsjgl.s:14070  .debug_loc:0000000000000cf1 .LLST54
     /tmp/ccKdsjgl.s:14092  .debug_loc:0000000000000d50 .LLST55
     /tmp/ccKdsjgl.s:14154  .debug_loc:0000000000000e40 .LLST56
     /tmp/ccKdsjgl.s:2200   .text:0000000000000e3c .LBB223
     /tmp/ccKdsjgl.s:2229   .text:0000000000000e78 .LBE223
     /tmp/ccKdsjgl.s:14165  .debug_loc:0000000000000e76 .LLST70
     /tmp/ccKdsjgl.s:2215   .text:0000000000000e58 .LVL307
     /tmp/ccKdsjgl.s:2298   .text:0000000000000f04 .LBB228
     /tmp/ccKdsjgl.s:2327   .text:0000000000000f40 .LBE228
     /tmp/ccKdsjgl.s:14180  .debug_loc:0000000000000ebf .LLST72
     /tmp/ccKdsjgl.s:2313   .text:0000000000000f20 .LVL319
     /tmp/ccKdsjgl.s:14195  .debug_loc:0000000000000f08 .LLST76
     /tmp/ccKdsjgl.s:2859   .text:00000000000013d0 .LVL389
     /tmp/ccKdsjgl.s:2864   .text:00000000000013dc .LVL390
     /tmp/ccKdsjgl.s:2874   .text:00000000000013f8 .LVL391
     /tmp/ccKdsjgl.s:2883   .text:0000000000001414 .LVL392
     /tmp/ccKdsjgl.s:2900   .text:0000000000001440 .LVL393
     /tmp/ccKdsjgl.s:2905   .text:000000000000144c .LVL394
     /tmp/ccKdsjgl.s:2915   .text:0000000000001468 .LVL395
     /tmp/ccKdsjgl.s:2923   .text:0000000000001480 .LVL396
     /tmp/ccKdsjgl.s:2959   .text:00000000000014c0 .LVL400
GAS LISTING /tmp/ccKdsjgl.s 			page 196


     /tmp/ccKdsjgl.s:2972   .text:00000000000014d8 .LVL401
     /tmp/ccKdsjgl.s:2985   .text:00000000000014f0 .LVL402
     /tmp/ccKdsjgl.s:2998   .text:0000000000001508 .LVL403
     /tmp/ccKdsjgl.s:1804   .text:0000000000000b84 .LBB201
     /tmp/ccKdsjgl.s:1818   .text:0000000000000b9c .LBE201
     /tmp/ccKdsjgl.s:14206  .debug_loc:0000000000000f3e .LLST57
     /tmp/ccKdsjgl.s:1810   .text:0000000000000b8c .LVL253
     /tmp/ccKdsjgl.s:1813   .text:0000000000000b98 .LVL254
     /tmp/ccKdsjgl.s:1819   .text:0000000000000b9c .LBB203
     /tmp/ccKdsjgl.s:1947   .text:0000000000000c84 .LBE203
     /tmp/ccKdsjgl.s:14215  .debug_loc:0000000000000f63 .LLST58
     /tmp/ccKdsjgl.s:14233  .debug_loc:0000000000000faf .LLST59
     /tmp/ccKdsjgl.s:1820   .text:0000000000000b9c .LBB204
     /tmp/ccKdsjgl.s:1946   .text:0000000000000c84 .LBE204
     /tmp/ccKdsjgl.s:14244  .debug_loc:0000000000000fe5 .LLST60
     /tmp/ccKdsjgl.s:14259  .debug_loc:0000000000001021 .LLST61
     /tmp/ccKdsjgl.s:1916   .text:0000000000000c60 .LBB207
     /tmp/ccKdsjgl.s:1943   .text:0000000000000c84 .LBE207
     /tmp/ccKdsjgl.s:14277  .debug_loc:000000000000106d .LLST63
     /tmp/ccKdsjgl.s:1835   .text:0000000000000bc0 .LVL256
     /tmp/ccKdsjgl.s:1841   .text:0000000000000bd0 .LVL257
     /tmp/ccKdsjgl.s:1847   .text:0000000000000bdc .LVL258
     /tmp/ccKdsjgl.s:1853   .text:0000000000000bec .LVL259
     /tmp/ccKdsjgl.s:1879   .text:0000000000000c1c .LVL260
     /tmp/ccKdsjgl.s:1897   .text:0000000000000c44 .LVL261
     /tmp/ccKdsjgl.s:1949   .text:0000000000000c84 .LBB208
     /tmp/ccKdsjgl.s:1956   .text:0000000000000c88 .LBE208
     /tmp/ccKdsjgl.s:14299  .debug_loc:00000000000010cc .LLST64
     /tmp/ccKdsjgl.s:1963   .text:0000000000000c94 .LBB210
     /tmp/ccKdsjgl.s:2018   .text:0000000000000d04 .LBE210
     /tmp/ccKdsjgl.s:1965   .text:0000000000000c94 .LBB212
     /tmp/ccKdsjgl.s:1994   .text:0000000000000cc8 .LBE212
     /tmp/ccKdsjgl.s:14306  .debug_loc:00000000000010ef .LLST65
     /tmp/ccKdsjgl.s:1979   .text:0000000000000ca8 .LVL269
     /tmp/ccKdsjgl.s:1988   .text:0000000000000cc0 .LVL270
     /tmp/ccKdsjgl.s:1998   .text:0000000000000cd0 .LVL272
     /tmp/ccKdsjgl.s:2001   .text:0000000000000cdc .LVL273
     /tmp/ccKdsjgl.s:2005   .text:0000000000000ce4 .LVL274
     /tmp/ccKdsjgl.s:2008   .text:0000000000000cf0 .LVL275
     /tmp/ccKdsjgl.s:2012   .text:0000000000000cf8 .LVL276
     /tmp/ccKdsjgl.s:2015   .text:0000000000000d04 .LVL277
     /tmp/ccKdsjgl.s:2050   .text:0000000000000d30 .LBB213
     /tmp/ccKdsjgl.s:2057   .text:0000000000000d34 .LBE213
     /tmp/ccKdsjgl.s:14313  .debug_loc:0000000000001112 .LLST66
     /tmp/ccKdsjgl.s:2064   .text:0000000000000d40 .LBB215
     /tmp/ccKdsjgl.s:2118   .text:0000000000000db0 .LBE215
     /tmp/ccKdsjgl.s:2066   .text:0000000000000d40 .LBB217
     /tmp/ccKdsjgl.s:2094   .text:0000000000000d74 .LBE217
     /tmp/ccKdsjgl.s:14320  .debug_loc:0000000000001135 .LLST67
     /tmp/ccKdsjgl.s:2079   .text:0000000000000d54 .LVL283
     /tmp/ccKdsjgl.s:2088   .text:0000000000000d6c .LVL284
     /tmp/ccKdsjgl.s:2098   .text:0000000000000d7c .LVL286
     /tmp/ccKdsjgl.s:2101   .text:0000000000000d88 .LVL287
     /tmp/ccKdsjgl.s:2105   .text:0000000000000d90 .LVL288
     /tmp/ccKdsjgl.s:2108   .text:0000000000000d9c .LVL289
     /tmp/ccKdsjgl.s:2112   .text:0000000000000da4 .LVL290
     /tmp/ccKdsjgl.s:2115   .text:0000000000000db0 .LVL291
GAS LISTING /tmp/ccKdsjgl.s 			page 197


     /tmp/ccKdsjgl.s:2126   .text:0000000000000db8 .LBB218
     /tmp/ccKdsjgl.s:2133   .text:0000000000000dbc .LBE218
     /tmp/ccKdsjgl.s:14327  .debug_loc:0000000000001158 .LLST68
     /tmp/ccKdsjgl.s:2139   .text:0000000000000dc4 .LBB220
     /tmp/ccKdsjgl.s:2193   .text:0000000000000e34 .LBE220
     /tmp/ccKdsjgl.s:2141   .text:0000000000000dc4 .LBB222
     /tmp/ccKdsjgl.s:2169   .text:0000000000000df8 .LBE222
     /tmp/ccKdsjgl.s:14334  .debug_loc:000000000000117b .LLST69
     /tmp/ccKdsjgl.s:2154   .text:0000000000000dd8 .LVL295
     /tmp/ccKdsjgl.s:2163   .text:0000000000000df0 .LVL296
     /tmp/ccKdsjgl.s:2173   .text:0000000000000e00 .LVL298
     /tmp/ccKdsjgl.s:2176   .text:0000000000000e0c .LVL299
     /tmp/ccKdsjgl.s:2180   .text:0000000000000e14 .LVL300
     /tmp/ccKdsjgl.s:2183   .text:0000000000000e20 .LVL301
     /tmp/ccKdsjgl.s:2187   .text:0000000000000e28 .LVL302
     /tmp/ccKdsjgl.s:2190   .text:0000000000000e34 .LVL303
     /tmp/ccKdsjgl.s:2249   .text:0000000000000ea8 .LBB224
     /tmp/ccKdsjgl.s:2251   .text:0000000000000ea8 .LBB226
     /tmp/ccKdsjgl.s:2280   .text:0000000000000edc .LBE226
     /tmp/ccKdsjgl.s:14341  .debug_loc:000000000000119e .LLST71
     /tmp/ccKdsjgl.s:2264   .text:0000000000000ebc .LVL312
     /tmp/ccKdsjgl.s:2273   .text:0000000000000ed4 .LVL313
     /tmp/ccKdsjgl.s:2333   .text:0000000000000f48 .LVL321
     /tmp/ccKdsjgl.s:2336   .text:0000000000000f54 .LVL322
     /tmp/ccKdsjgl.s:2340   .text:0000000000000f5c .LVL323
     /tmp/ccKdsjgl.s:2343   .text:0000000000000f68 .LVL324
     /tmp/ccKdsjgl.s:2347   .text:0000000000000f70 .LVL325
     /tmp/ccKdsjgl.s:2350   .text:0000000000000f7c .LVL326
     /tmp/ccKdsjgl.s:2365   .text:0000000000000f8c .LBB230
     /tmp/ccKdsjgl.s:2414   .text:0000000000000ff4 .LBE230
     /tmp/ccKdsjgl.s:2367   .text:0000000000000f8c .LBB232
     /tmp/ccKdsjgl.s:2390   .text:0000000000000fb8 .LBE232
     /tmp/ccKdsjgl.s:14352  .debug_loc:00000000000011d4 .LLST73
     /tmp/ccKdsjgl.s:2371   .text:0000000000000f94 .LVL328
     /tmp/ccKdsjgl.s:2380   .text:0000000000000fac .LVL329
     /tmp/ccKdsjgl.s:2394   .text:0000000000000fc0 .LVL331
     /tmp/ccKdsjgl.s:2397   .text:0000000000000fcc .LVL332
     /tmp/ccKdsjgl.s:2401   .text:0000000000000fd4 .LVL333
     /tmp/ccKdsjgl.s:2404   .text:0000000000000fe0 .LVL334
     /tmp/ccKdsjgl.s:2408   .text:0000000000000fe8 .LVL335
     /tmp/ccKdsjgl.s:2411   .text:0000000000000ff4 .LVL336
     /tmp/ccKdsjgl.s:2432   .text:000000000000100c .LBB233
     /tmp/ccKdsjgl.s:2482   .text:0000000000001078 .LBE233
     /tmp/ccKdsjgl.s:2434   .text:000000000000100c .LBB235
     /tmp/ccKdsjgl.s:2458   .text:000000000000103c .LBE235
     /tmp/ccKdsjgl.s:14359  .debug_loc:00000000000011f7 .LLST74
     /tmp/ccKdsjgl.s:2443   .text:000000000000101c .LVL339
     /tmp/ccKdsjgl.s:2452   .text:0000000000001034 .LVL340
     /tmp/ccKdsjgl.s:2462   .text:0000000000001044 .LVL342
     /tmp/ccKdsjgl.s:2465   .text:0000000000001050 .LVL343
     /tmp/ccKdsjgl.s:2469   .text:0000000000001058 .LVL344
     /tmp/ccKdsjgl.s:2472   .text:0000000000001064 .LVL345
     /tmp/ccKdsjgl.s:2476   .text:000000000000106c .LVL346
     /tmp/ccKdsjgl.s:2479   .text:0000000000001078 .LVL347
     /tmp/ccKdsjgl.s:2520   .text:00000000000010cc .LBB236
     /tmp/ccKdsjgl.s:2522   .text:00000000000010cc .LBB238
     /tmp/ccKdsjgl.s:2547   .text:00000000000010fc .LBE238
GAS LISTING /tmp/ccKdsjgl.s 			page 198


     /tmp/ccKdsjgl.s:14366  .debug_loc:000000000000121a .LLST75
     /tmp/ccKdsjgl.s:2531   .text:00000000000010dc .LVL353
     /tmp/ccKdsjgl.s:2540   .text:00000000000010f4 .LVL354
     /tmp/ccKdsjgl.s:2583   .text:0000000000001140 .LVL360
     /tmp/ccKdsjgl.s:2586   .text:000000000000114c .LVL361
     /tmp/ccKdsjgl.s:2590   .text:0000000000001154 .LVL362
     /tmp/ccKdsjgl.s:2593   .text:0000000000001160 .LVL363
     /tmp/ccKdsjgl.s:2597   .text:0000000000001168 .LVL364
     /tmp/ccKdsjgl.s:2600   .text:0000000000001174 .LVL365
     /tmp/ccKdsjgl.s:2241   .text:0000000000000e9c .LVL310
     /tmp/ccKdsjgl.s:2288   .text:0000000000000ef0 .LVL316
     /tmp/ccKdsjgl.s:2496   .text:000000000000109c .LVL348
     /tmp/ccKdsjgl.s:2501   .text:00000000000010a8 .LVL349
     /tmp/ccKdsjgl.s:2510   .text:00000000000010c0 .LVL351
     /tmp/ccKdsjgl.s:2555   .text:0000000000001110 .LVL357
     /tmp/ccKdsjgl.s:2570   .text:0000000000001130 .LVL358
     /tmp/ccKdsjgl.s:2617   .text:0000000000001198 .LVL366
     /tmp/ccKdsjgl.s:2623   .text:00000000000011a8 .LVL367
     /tmp/ccKdsjgl.s:2629   .text:00000000000011b8 .LVL368
     /tmp/ccKdsjgl.s:2634   .text:00000000000011c4 .LVL369
     /tmp/ccKdsjgl.s:2642   .text:00000000000011dc .LVL370
     /tmp/ccKdsjgl.s:2653   .text:00000000000011f4 .LVL371
     /tmp/ccKdsjgl.s:2665   .text:0000000000001210 .LVL372
     /tmp/ccKdsjgl.s:2681   .text:0000000000001234 .LVL373
     /tmp/ccKdsjgl.s:2696   .text:0000000000001258 .LVL374
     /tmp/ccKdsjgl.s:2701   .text:0000000000001264 .LVL375
     /tmp/ccKdsjgl.s:2709   .text:000000000000127c .LVL376
     /tmp/ccKdsjgl.s:2720   .text:0000000000001294 .LVL377
     /tmp/ccKdsjgl.s:2732   .text:00000000000012b0 .LVL378
     /tmp/ccKdsjgl.s:2748   .text:00000000000012d4 .LVL379
     /tmp/ccKdsjgl.s:2759   .text:00000000000012e8 .LVL380
     /tmp/ccKdsjgl.s:2767   .text:0000000000001300 .LVL381
     /tmp/ccKdsjgl.s:2784   .text:0000000000001324 .LVL382
     /tmp/ccKdsjgl.s:2796   .text:0000000000001340 .LVL383
     /tmp/ccKdsjgl.s:2805   .text:0000000000001354 .LVL384
     /tmp/ccKdsjgl.s:2813   .text:000000000000136c .LVL385
     /tmp/ccKdsjgl.s:2824   .text:0000000000001384 .LVL386
     /tmp/ccKdsjgl.s:2836   .text:00000000000013a0 .LVL387
     /tmp/ccKdsjgl.s:2944   .text:00000000000014a8 .LVL398
     /tmp/ccKdsjgl.s:3012   .text:0000000000001520 .LVL404
     /tmp/ccKdsjgl.s:3028   .text:0000000000001540 .LVL407
     /tmp/ccKdsjgl.s:3032   .text:000000000000154c .LVL408
     /tmp/ccKdsjgl.s:1745   .text:0000000000000b54 .LFE27
     /tmp/ccKdsjgl.s:14377  .debug_loc:0000000000001250 .LLST25
     /tmp/ccKdsjgl.s:14399  .debug_loc:00000000000012af .LLST26
     /tmp/ccKdsjgl.s:14461  .debug_loc:000000000000139f .LLST27
     /tmp/ccKdsjgl.s:14472  .debug_loc:00000000000013d5 .LLST28
     /tmp/ccKdsjgl.s:14500  .debug_loc:0000000000001458 .LLST29
     /tmp/ccKdsjgl.s:981    .text:0000000000000588 .LBB130
     /tmp/ccKdsjgl.s:1008   .text:00000000000005bc .LBE130
     /tmp/ccKdsjgl.s:14571  .debug_loc:000000000000159c .LLST41
     /tmp/ccKdsjgl.s:996    .text:00000000000005a4 .LVL120
     /tmp/ccKdsjgl.s:14586  .debug_loc:00000000000015e5 .LLST42
     /tmp/ccKdsjgl.s:14593  .debug_loc:0000000000001608 .LLST43
     /tmp/ccKdsjgl.s:14608  .debug_loc:0000000000001651 .LLST44
     /tmp/ccKdsjgl.s:1026   .text:00000000000005d0 .LBB133
     /tmp/ccKdsjgl.s:1080   .text:0000000000000640 .LBE133
GAS LISTING /tmp/ccKdsjgl.s 			page 199


     /tmp/ccKdsjgl.s:1028   .text:00000000000005d0 .LBB135
     /tmp/ccKdsjgl.s:1056   .text:0000000000000604 .LBE135
     /tmp/ccKdsjgl.s:14619  .debug_loc:0000000000001687 .LLST45
     /tmp/ccKdsjgl.s:1041   .text:00000000000005e4 .LVL125
     /tmp/ccKdsjgl.s:1050   .text:00000000000005fc .LVL126
     /tmp/ccKdsjgl.s:1060   .text:000000000000060c .LVL128
     /tmp/ccKdsjgl.s:1063   .text:0000000000000618 .LVL129
     /tmp/ccKdsjgl.s:1067   .text:0000000000000620 .LVL130
     /tmp/ccKdsjgl.s:1070   .text:000000000000062c .LVL131
     /tmp/ccKdsjgl.s:1074   .text:0000000000000634 .LVL132
     /tmp/ccKdsjgl.s:1077   .text:0000000000000640 .LVL133
     /tmp/ccKdsjgl.s:1090   .text:000000000000064c .LBB136
     /tmp/ccKdsjgl.s:1144   .text:00000000000006bc .LBE136
     /tmp/ccKdsjgl.s:1092   .text:000000000000064c .LBB138
     /tmp/ccKdsjgl.s:1120   .text:0000000000000680 .LBE138
     /tmp/ccKdsjgl.s:14626  .debug_loc:00000000000016aa .LLST46
     /tmp/ccKdsjgl.s:1105   .text:0000000000000660 .LVL136
     /tmp/ccKdsjgl.s:1114   .text:0000000000000678 .LVL137
     /tmp/ccKdsjgl.s:1124   .text:0000000000000688 .LVL139
     /tmp/ccKdsjgl.s:1127   .text:0000000000000694 .LVL140
     /tmp/ccKdsjgl.s:1131   .text:000000000000069c .LVL141
     /tmp/ccKdsjgl.s:1134   .text:00000000000006a8 .LVL142
     /tmp/ccKdsjgl.s:1138   .text:00000000000006b0 .LVL143
     /tmp/ccKdsjgl.s:1141   .text:00000000000006bc .LVL144
     /tmp/ccKdsjgl.s:1154   .text:00000000000006c8 .LBB139
     /tmp/ccKdsjgl.s:1208   .text:0000000000000738 .LBE139
     /tmp/ccKdsjgl.s:1156   .text:00000000000006c8 .LBB141
     /tmp/ccKdsjgl.s:1185   .text:00000000000006fc .LBE141
     /tmp/ccKdsjgl.s:14633  .debug_loc:00000000000016cd .LLST47
     /tmp/ccKdsjgl.s:1166   .text:00000000000006d8 .LVL148
     /tmp/ccKdsjgl.s:1175   .text:00000000000006f0 .LVL149
     /tmp/ccKdsjgl.s:1189   .text:0000000000000704 .LVL151
     /tmp/ccKdsjgl.s:1192   .text:0000000000000710 .LVL152
     /tmp/ccKdsjgl.s:1196   .text:0000000000000718 .LVL153
     /tmp/ccKdsjgl.s:1199   .text:0000000000000724 .LVL154
     /tmp/ccKdsjgl.s:1203   .text:000000000000072c .LVL155
     /tmp/ccKdsjgl.s:1206   .text:0000000000000738 .LVL156
     /tmp/ccKdsjgl.s:1246   .text:000000000000077c .LVL162
     /tmp/ccKdsjgl.s:1255   .text:0000000000000794 .LVL163
     /tmp/ccKdsjgl.s:1265   .text:00000000000007ac .LVL166
     /tmp/ccKdsjgl.s:1278   .text:00000000000007cc .LVL168
     /tmp/ccKdsjgl.s:1289   .text:00000000000007dc .LBB144
     /tmp/ccKdsjgl.s:1392   .text:000000000000089c .LBE144
     /tmp/ccKdsjgl.s:14640  .debug_loc:00000000000016f0 .LLST48
     /tmp/ccKdsjgl.s:1298   .text:00000000000007e8 .LBB145
     /tmp/ccKdsjgl.s:1352   .text:0000000000000858 .LBE145
     /tmp/ccKdsjgl.s:1300   .text:00000000000007e8 .LBB147
     /tmp/ccKdsjgl.s:1328   .text:000000000000081c .LBE147
     /tmp/ccKdsjgl.s:14655  .debug_loc:0000000000001739 .LLST49
     /tmp/ccKdsjgl.s:1313   .text:00000000000007fc .LVL172
     /tmp/ccKdsjgl.s:1322   .text:0000000000000814 .LVL173
     /tmp/ccKdsjgl.s:1332   .text:0000000000000824 .LVL175
     /tmp/ccKdsjgl.s:1335   .text:0000000000000830 .LVL176
     /tmp/ccKdsjgl.s:1339   .text:0000000000000838 .LVL177
     /tmp/ccKdsjgl.s:1342   .text:0000000000000844 .LVL178
     /tmp/ccKdsjgl.s:1346   .text:000000000000084c .LVL179
     /tmp/ccKdsjgl.s:1349   .text:0000000000000858 .LVL180
GAS LISTING /tmp/ccKdsjgl.s 			page 200


     /tmp/ccKdsjgl.s:1385   .text:0000000000000890 .LVL187
     /tmp/ccKdsjgl.s:14662  .debug_loc:000000000000175c .LLST52
     /tmp/ccKdsjgl.s:1611   .text:0000000000000a64 .LVL225
     /tmp/ccKdsjgl.s:1649   .text:0000000000000aa8 .LVL232
     /tmp/ccKdsjgl.s:581    .text:00000000000002c8 .LBB109
     /tmp/ccKdsjgl.s:595    .text:00000000000002e0 .LBE109
     /tmp/ccKdsjgl.s:14682  .debug_loc:00000000000017b9 .LLST30
     /tmp/ccKdsjgl.s:587    .text:00000000000002d0 .LVL64
     /tmp/ccKdsjgl.s:590    .text:00000000000002dc .LVL65
     /tmp/ccKdsjgl.s:596    .text:00000000000002e0 .LBB111
     /tmp/ccKdsjgl.s:722    .text:00000000000003c8 .LBE111
     /tmp/ccKdsjgl.s:14691  .debug_loc:00000000000017de .LLST31
     /tmp/ccKdsjgl.s:14704  .debug_loc:0000000000001816 .LLST32
     /tmp/ccKdsjgl.s:14722  .debug_loc:0000000000001862 .LLST33
     /tmp/ccKdsjgl.s:692    .text:00000000000003a4 .LBB114
     /tmp/ccKdsjgl.s:719    .text:00000000000003c8 .LBE114
     /tmp/ccKdsjgl.s:14733  .debug_loc:0000000000001898 .LLST34
     /tmp/ccKdsjgl.s:611    .text:0000000000000304 .LVL67
     /tmp/ccKdsjgl.s:617    .text:0000000000000314 .LVL68
     /tmp/ccKdsjgl.s:623    .text:0000000000000320 .LVL69
     /tmp/ccKdsjgl.s:629    .text:0000000000000330 .LVL70
     /tmp/ccKdsjgl.s:655    .text:0000000000000360 .LVL71
     /tmp/ccKdsjgl.s:673    .text:0000000000000388 .LVL72
     /tmp/ccKdsjgl.s:724    .text:00000000000003c8 .LBB115
     /tmp/ccKdsjgl.s:731    .text:00000000000003cc .LBE115
     /tmp/ccKdsjgl.s:14755  .debug_loc:00000000000018f7 .LLST35
     /tmp/ccKdsjgl.s:738    .text:00000000000003d8 .LBB117
     /tmp/ccKdsjgl.s:794    .text:0000000000000448 .LBE117
     /tmp/ccKdsjgl.s:740    .text:00000000000003d8 .LBB119
     /tmp/ccKdsjgl.s:770    .text:000000000000040c .LBE119
     /tmp/ccKdsjgl.s:14762  .debug_loc:000000000000191a .LLST36
     /tmp/ccKdsjgl.s:751    .text:00000000000003e8 .LVL81
     /tmp/ccKdsjgl.s:760    .text:0000000000000400 .LVL82
     /tmp/ccKdsjgl.s:774    .text:0000000000000414 .LVL84
     /tmp/ccKdsjgl.s:777    .text:0000000000000420 .LVL85
     /tmp/ccKdsjgl.s:781    .text:0000000000000428 .LVL86
     /tmp/ccKdsjgl.s:784    .text:0000000000000434 .LVL87
     /tmp/ccKdsjgl.s:788    .text:000000000000043c .LVL88
     /tmp/ccKdsjgl.s:791    .text:0000000000000448 .LVL89
     /tmp/ccKdsjgl.s:830    .text:000000000000047c .LBB120
     /tmp/ccKdsjgl.s:837    .text:0000000000000480 .LBE120
     /tmp/ccKdsjgl.s:14769  .debug_loc:000000000000193d .LLST37
     /tmp/ccKdsjgl.s:844    .text:000000000000048c .LBB122
     /tmp/ccKdsjgl.s:899    .text:00000000000004fc .LBE122
     /tmp/ccKdsjgl.s:846    .text:000000000000048c .LBB124
     /tmp/ccKdsjgl.s:875    .text:00000000000004c0 .LBE124
     /tmp/ccKdsjgl.s:14776  .debug_loc:0000000000001960 .LLST38
     /tmp/ccKdsjgl.s:856    .text:000000000000049c .LVL96
     /tmp/ccKdsjgl.s:865    .text:00000000000004b4 .LVL97
     /tmp/ccKdsjgl.s:879    .text:00000000000004c8 .LVL99
     /tmp/ccKdsjgl.s:882    .text:00000000000004d4 .LVL100
     /tmp/ccKdsjgl.s:886    .text:00000000000004dc .LVL101
     /tmp/ccKdsjgl.s:889    .text:00000000000004e8 .LVL102
     /tmp/ccKdsjgl.s:893    .text:00000000000004f0 .LVL103
     /tmp/ccKdsjgl.s:896    .text:00000000000004fc .LVL104
     /tmp/ccKdsjgl.s:907    .text:0000000000000504 .LBB125
     /tmp/ccKdsjgl.s:914    .text:0000000000000508 .LBE125
GAS LISTING /tmp/ccKdsjgl.s 			page 201


     /tmp/ccKdsjgl.s:14783  .debug_loc:0000000000001983 .LLST39
     /tmp/ccKdsjgl.s:920    .text:0000000000000510 .LBB127
     /tmp/ccKdsjgl.s:974    .text:0000000000000580 .LBE127
     /tmp/ccKdsjgl.s:922    .text:0000000000000510 .LBB129
     /tmp/ccKdsjgl.s:950    .text:0000000000000544 .LBE129
     /tmp/ccKdsjgl.s:14790  .debug_loc:00000000000019a6 .LLST40
     /tmp/ccKdsjgl.s:935    .text:0000000000000524 .LVL108
     /tmp/ccKdsjgl.s:944    .text:000000000000053c .LVL109
     /tmp/ccKdsjgl.s:954    .text:000000000000054c .LVL111
     /tmp/ccKdsjgl.s:957    .text:0000000000000558 .LVL112
     /tmp/ccKdsjgl.s:961    .text:0000000000000560 .LVL113
     /tmp/ccKdsjgl.s:964    .text:000000000000056c .LVL114
     /tmp/ccKdsjgl.s:968    .text:0000000000000574 .LVL115
     /tmp/ccKdsjgl.s:971    .text:0000000000000580 .LVL116
     /tmp/ccKdsjgl.s:1431   .text:00000000000008fc .LBB148
     /tmp/ccKdsjgl.s:1485   .text:000000000000096c .LBE148
     /tmp/ccKdsjgl.s:1433   .text:00000000000008fc .LBB150
     /tmp/ccKdsjgl.s:1461   .text:0000000000000930 .LBE150
     /tmp/ccKdsjgl.s:14797  .debug_loc:00000000000019c9 .LLST50
     /tmp/ccKdsjgl.s:1442   .text:000000000000090c .LVL195
     /tmp/ccKdsjgl.s:1451   .text:0000000000000924 .LVL196
     /tmp/ccKdsjgl.s:1465   .text:0000000000000938 .LVL198
     /tmp/ccKdsjgl.s:1468   .text:0000000000000944 .LVL199
     /tmp/ccKdsjgl.s:1472   .text:000000000000094c .LVL200
     /tmp/ccKdsjgl.s:1475   .text:0000000000000958 .LVL201
     /tmp/ccKdsjgl.s:1479   .text:0000000000000960 .LVL202
     /tmp/ccKdsjgl.s:1482   .text:000000000000096c .LVL203
     /tmp/ccKdsjgl.s:1522   .text:00000000000009b8 .LBB151
     /tmp/ccKdsjgl.s:1576   .text:0000000000000a28 .LBE151
     /tmp/ccKdsjgl.s:1524   .text:00000000000009b8 .LBB153
     /tmp/ccKdsjgl.s:1552   .text:00000000000009ec .LBE153
     /tmp/ccKdsjgl.s:14804  .debug_loc:00000000000019ec .LLST51
     /tmp/ccKdsjgl.s:1533   .text:00000000000009c8 .LVL212
     /tmp/ccKdsjgl.s:1542   .text:00000000000009e0 .LVL213
     /tmp/ccKdsjgl.s:1556   .text:00000000000009f4 .LVL215
     /tmp/ccKdsjgl.s:1559   .text:0000000000000a00 .LVL216
     /tmp/ccKdsjgl.s:1563   .text:0000000000000a08 .LVL217
     /tmp/ccKdsjgl.s:1566   .text:0000000000000a14 .LVL218
     /tmp/ccKdsjgl.s:1570   .text:0000000000000a1c .LVL219
     /tmp/ccKdsjgl.s:1573   .text:0000000000000a28 .LVL220
     /tmp/ccKdsjgl.s:1660   .text:0000000000000ab8 .LBB156
     /tmp/ccKdsjgl.s:1662   .text:0000000000000ab8 .LBB158
     /tmp/ccKdsjgl.s:1691   .text:0000000000000aec .LBE158
     /tmp/ccKdsjgl.s:14811  .debug_loc:0000000000001a0f .LLST53
     /tmp/ccKdsjgl.s:1672   .text:0000000000000ac8 .LVL235
     /tmp/ccKdsjgl.s:1681   .text:0000000000000ae0 .LVL236
     /tmp/ccKdsjgl.s:1695   .text:0000000000000af4 .LVL238
     /tmp/ccKdsjgl.s:1698   .text:0000000000000b00 .LVL239
     /tmp/ccKdsjgl.s:1702   .text:0000000000000b08 .LVL240
     /tmp/ccKdsjgl.s:1705   .text:0000000000000b14 .LVL241
     /tmp/ccKdsjgl.s:1709   .text:0000000000000b1c .LVL242
     /tmp/ccKdsjgl.s:1712   .text:0000000000000b28 .LVL243
     /tmp/ccKdsjgl.s:1398   .text:00000000000008ac .LVL188
     /tmp/ccKdsjgl.s:1404   .text:00000000000008bc .LVL189
     /tmp/ccKdsjgl.s:1410   .text:00000000000008cc .LVL190
     /tmp/ccKdsjgl.s:1415   .text:00000000000008d8 .LVL191
     /tmp/ccKdsjgl.s:1425   .text:00000000000008f4 .LVL193
GAS LISTING /tmp/ccKdsjgl.s 			page 202


     /tmp/ccKdsjgl.s:1499   .text:0000000000000988 .LVL206
     /tmp/ccKdsjgl.s:1509   .text:00000000000009a0 .LVL209
     /tmp/ccKdsjgl.s:1738   .text:0000000000000b48 .LVL249
     /tmp/ccKdsjgl.s:1742   .text:0000000000000b54 .LVL250
     /tmp/ccKdsjgl.s:454    .text:0000000000000204 .LFB26
     /tmp/ccKdsjgl.s:543    .text:0000000000000294 .LFE26
     /tmp/ccKdsjgl.s:14818  .debug_loc:0000000000001a32 .LLST20
     /tmp/ccKdsjgl.s:14843  .debug_loc:0000000000001a94 .LLST21
     /tmp/ccKdsjgl.s:14868  .debug_loc:0000000000001af6 .LLST22
     /tmp/ccKdsjgl.s:14882  .debug_loc:0000000000001b2f .LLST23
     /tmp/ccKdsjgl.s:459    .text:0000000000000204 .LBB60
     /tmp/ccKdsjgl.s:510    .text:000000000000025c .LBE60
     /tmp/ccKdsjgl.s:14896  .debug_loc:0000000000001b68 .LLST24
     /tmp/ccKdsjgl.s:529    .text:0000000000000280 .LVL61
     /tmp/ccKdsjgl.s:357    .text:0000000000000180 .LFB25
     /tmp/ccKdsjgl.s:448    .text:0000000000000204 .LFE25
     /tmp/ccKdsjgl.s:14918  .debug_loc:0000000000001bc7 .LLST13
     /tmp/ccKdsjgl.s:14932  .debug_loc:0000000000001c00 .LLST14
     /tmp/ccKdsjgl.s:14946  .debug_loc:0000000000001c39 .LLST15
     /tmp/ccKdsjgl.s:362    .text:0000000000000180 .LBB58
     /tmp/ccKdsjgl.s:416    .text:00000000000001cc .LBE58
     /tmp/ccKdsjgl.s:14960  .debug_loc:0000000000001c72 .LLST16
     /tmp/ccKdsjgl.s:377    .text:0000000000000194 .LBB59
     /tmp/ccKdsjgl.s:415    .text:00000000000001cc .LBE59
     /tmp/ccKdsjgl.s:15931  .debug_str:00000000000006fb .LASF121
     /tmp/ccKdsjgl.s:14972  .debug_loc:0000000000001ca9 .LLST17
     /tmp/ccKdsjgl.s:15009  .debug_loc:0000000000001d08 .LLST18
     /tmp/ccKdsjgl.s:15016  .debug_loc:0000000000001d2b .LLST19
     /tmp/ccKdsjgl.s:434    .text:00000000000001f0 .LVL52
     /tmp/ccKdsjgl.s:213    .text:0000000000000088 .LFB24
     /tmp/ccKdsjgl.s:351    .text:0000000000000180 .LFE24
     /tmp/ccKdsjgl.s:15085  .debug_loc:0000000000001daa .LLST7
     /tmp/ccKdsjgl.s:15110  .debug_loc:0000000000001e0c .LLST8
     /tmp/ccKdsjgl.s:15135  .debug_loc:0000000000001e6e .LLST9
     /tmp/ccKdsjgl.s:234    .text:00000000000000a8 .LBB56
     /tmp/ccKdsjgl.s:318    .text:000000000000014c .LBE56
     /tmp/ccKdsjgl.s:15161  .debug_loc:0000000000001ee0 .LLST10
     /tmp/ccKdsjgl.s:249    .text:00000000000000bc .LBB57
     /tmp/ccKdsjgl.s:317    .text:000000000000014c .LBE57
     /tmp/ccKdsjgl.s:15177  .debug_loc:0000000000001f2a .LLST11
     /tmp/ccKdsjgl.s:15198  .debug_loc:0000000000001f6a .LLST12
     /tmp/ccKdsjgl.s:282    .text:00000000000000f8 .LVL30
     /tmp/ccKdsjgl.s:287    .text:0000000000000104 .LVL31
     /tmp/ccKdsjgl.s:292    .text:0000000000000114 .LVL32
     /tmp/ccKdsjgl.s:297    .text:0000000000000124 .LVL33
     /tmp/ccKdsjgl.s:302    .text:0000000000000130 .LVL34
     /tmp/ccKdsjgl.s:307    .text:0000000000000140 .LVL35
     /tmp/ccKdsjgl.s:345    .text:0000000000000178 .LVL41
     /tmp/ccKdsjgl.s:108    .text:0000000000000000 .LFB23
     /tmp/ccKdsjgl.s:193    .text:0000000000000088 .LFE23
     /tmp/ccKdsjgl.s:15205  .debug_loc:0000000000001f8d .LLST2
     /tmp/ccKdsjgl.s:15219  .debug_loc:0000000000001fc6 .LLST3
     /tmp/ccKdsjgl.s:15244  .debug_loc:0000000000002028 .LLST4
     /tmp/ccKdsjgl.s:15269  .debug_loc:000000000000208a .LLST5
     /tmp/ccKdsjgl.s:114    .text:0000000000000000 .LBB55
     /tmp/ccKdsjgl.s:161    .text:0000000000000050 .LBE55
     /tmp/ccKdsjgl.s:15283  .debug_loc:00000000000020c3 .LLST6
GAS LISTING /tmp/ccKdsjgl.s 			page 203


     /tmp/ccKdsjgl.s:179    .text:0000000000000074 .LVL21
     /tmp/ccKdsjgl.s:5633   .text:0000000000002894 .LFB22
     /tmp/ccKdsjgl.s:5718   .text:0000000000002918 .LFE22
     /tmp/ccKdsjgl.s:15305  .debug_loc:0000000000002122 .LLST127
     /tmp/ccKdsjgl.s:15374  .debug_loc:0000000000002228 .LLST128
     /tmp/ccKdsjgl.s:15436  .debug_loc:0000000000002318 .LLST129
     /tmp/ccKdsjgl.s:5660   .text:00000000000028cc .LVL767
     /tmp/ccKdsjgl.s:5678   .text:00000000000028e8 .LVL771
     /tmp/ccKdsjgl.s:5704   .text:0000000000002908 .LVL775
     /tmp/ccKdsjgl.s:5714   .text:0000000000002914 .LVL777
     /tmp/ccKdsjgl.s:5732   .text:0000000000002918 .LFB21
     /tmp/ccKdsjgl.s:5884   .text:0000000000002a24 .LFE21
     /tmp/ccKdsjgl.s:15494  .debug_loc:00000000000023f5 .LLST130
     /tmp/ccKdsjgl.s:15522  .debug_loc:0000000000002469 .LLST131
     /tmp/ccKdsjgl.s:16029  .debug_str:0000000000000c37 .LASF122
     /tmp/ccKdsjgl.s:15533  .debug_loc:000000000000249f .LLST132
     /tmp/ccKdsjgl.s:15801  .debug_str:0000000000000186 .LASF123
     /tmp/ccKdsjgl.s:15567  .debug_loc:0000000000002519 .LLST133
     /tmp/ccKdsjgl.s:15955  .debug_str:0000000000000825 .LASF124
     /tmp/ccKdsjgl.s:15578  .debug_loc:000000000000254f .LLST134
     /tmp/ccKdsjgl.s:15598  .debug_loc:000000000000259d .LLST135
     /tmp/ccKdsjgl.s:5782   .text:000000000000296c .LVL783
     /tmp/ccKdsjgl.s:5787   .text:0000000000002978 .LVL784
     /tmp/ccKdsjgl.s:5792   .text:0000000000002988 .LVL785
     /tmp/ccKdsjgl.s:5834   .text:00000000000029c4 .LVL790
     /tmp/ccKdsjgl.s:5851   .text:00000000000029e4 .LVL792
     /tmp/ccKdsjgl.s:5859   .text:00000000000029fc .LVL793
     /tmp/ccKdsjgl.s:44     .text._ZN16KObjectAllocatordlEPv:0000000000000030 .LVL3
     /tmp/ccKdsjgl.s:53     .text._ZN16KObjectAllocatordlEPv:0000000000000048 .LVL4
     /tmp/ccKdsjgl.s:15803  .debug_str:0000000000000192 .LASF125
     /tmp/ccKdsjgl.s:15971  .debug_str:0000000000000944 .LASF126
     /tmp/ccKdsjgl.s:15785  .debug_str:00000000000000cd .LASF127
     /tmp/ccKdsjgl.s:11     .text._ZN16KObjectAllocatordlEPv:0000000000000000 .LFB10
     /tmp/ccKdsjgl.s:97     .text._ZN16KObjectAllocatordlEPv:00000000000000a4 .LFE10
     /tmp/ccKdsjgl.s:15614  .debug_loc:00000000000025e7 .LLST0
     /tmp/ccKdsjgl.s:31     .text._ZN16KObjectAllocatordlEPv:000000000000001c .LBB54
     /tmp/ccKdsjgl.s:59     .text._ZN16KObjectAllocatordlEPv:0000000000000050 .LBE54
     /tmp/ccKdsjgl.s:15632  .debug_loc:0000000000002633 .LLST1
     /tmp/ccKdsjgl.s:63     .text._ZN16KObjectAllocatordlEPv:0000000000000058 .LVL6
     /tmp/ccKdsjgl.s:66     .text._ZN16KObjectAllocatordlEPv:0000000000000064 .LVL7
     /tmp/ccKdsjgl.s:70     .text._ZN16KObjectAllocatordlEPv:000000000000006c .LVL8
     /tmp/ccKdsjgl.s:73     .text._ZN16KObjectAllocatordlEPv:0000000000000078 .LVL9
     /tmp/ccKdsjgl.s:77     .text._ZN16KObjectAllocatordlEPv:0000000000000080 .LVL10
     /tmp/ccKdsjgl.s:80     .text._ZN16KObjectAllocatordlEPv:000000000000008c .LVL11
     /tmp/ccKdsjgl.s:16035  .debug_str:0000000000000ca0 .LASF128
     /tmp/ccKdsjgl.s:15775  .debug_str:0000000000000073 .LASF130
     /tmp/ccKdsjgl.s:15899  .debug_str:000000000000059e .LASF129
     /tmp/ccKdsjgl.s:15843  .debug_str:0000000000000301 .LASF131
     /tmp/ccKdsjgl.s:15777  .debug_str:000000000000007f .LASF138
     /tmp/ccKdsjgl.s:15819  .debug_str:0000000000000250 .LASF139
     /tmp/ccKdsjgl.s:4306   .text:0000000000001e14 .LVL598
     /tmp/ccKdsjgl.s:4562   .text:0000000000001fe0 .LVL626
     /tmp/ccKdsjgl.s:4570   .text:0000000000001ff0 .LVL627
     /tmp/ccKdsjgl.s:4492   .text:0000000000001f58 .LVL615
     /tmp/ccKdsjgl.s:4593   .text:0000000000002004 .LVL629
     /tmp/ccKdsjgl.s:4647   .text:0000000000002078 .LVL639
     /tmp/ccKdsjgl.s:4668   .text:0000000000002088 .LVL641
GAS LISTING /tmp/ccKdsjgl.s 			page 204


     /tmp/ccKdsjgl.s:4722   .text:00000000000020fc .LVL651
     /tmp/ccKdsjgl.s:4727   .text:0000000000002100 .LVL652
     /tmp/ccKdsjgl.s:5590   .text:0000000000002878 .LVL761
     /tmp/ccKdsjgl.s:5593   .text:000000000000287c .LVL762
     /tmp/ccKdsjgl.s:4467   .text:0000000000001f44 .LVL613
     /tmp/ccKdsjgl.s:4557   .text:0000000000001fd8 .LVL625
     /tmp/ccKdsjgl.s:4735   .text:000000000000210c .LVL653
     /tmp/ccKdsjgl.s:4751   .text:0000000000002138 .LVL655
     /tmp/ccKdsjgl.s:4760   .text:0000000000002148 .LVL656
     /tmp/ccKdsjgl.s:4826   .text:00000000000021c8 .LVL664
     /tmp/ccKdsjgl.s:4833   .text:00000000000021d4 .LVL665
     /tmp/ccKdsjgl.s:4849   .text:0000000000002200 .LVL667
     /tmp/ccKdsjgl.s:4943   .text:00000000000022bc .LVL684
     /tmp/ccKdsjgl.s:5032   .text:000000000000237c .LVL698
     /tmp/ccKdsjgl.s:5419   .text:0000000000002700 .LVL744
     /tmp/ccKdsjgl.s:5503   .text:00000000000027dc .LVL753
     /tmp/ccKdsjgl.s:5519   .text:00000000000027f8 .LVL755
     /tmp/ccKdsjgl.s:4329   .text:0000000000001e44 .LVL599
     /tmp/ccKdsjgl.s:4342   .text:0000000000001e5c .LVL602
     /tmp/ccKdsjgl.s:4440   .text:0000000000001f20 .LVL609
     /tmp/ccKdsjgl.s:4444   .text:0000000000001f24 .LVL610
     /tmp/ccKdsjgl.s:4456   .text:0000000000001f34 .LVL611
     /tmp/ccKdsjgl.s:4463   .text:0000000000001f40 .LVL612
     /tmp/ccKdsjgl.s:4478   .text:0000000000001f48 .LVL614
     /tmp/ccKdsjgl.s:4579   .text:0000000000001ff4 .LVL628
     /tmp/ccKdsjgl.s:4655   .text:000000000000207c .LVL640
     /tmp/ccKdsjgl.s:4779   .text:000000000000216c .LVL658
     /tmp/ccKdsjgl.s:4802   .text:000000000000219c .LVL662
     /tmp/ccKdsjgl.s:4887   .text:000000000000224c .LVL674
     /tmp/ccKdsjgl.s:4955   .text:00000000000022cc .LVL685
     /tmp/ccKdsjgl.s:5083   .text:0000000000002404 .LVL707
     /tmp/ccKdsjgl.s:5109   .text:0000000000002434 .LVL711
     /tmp/ccKdsjgl.s:5140   .text:0000000000002470 .LVL714
     /tmp/ccKdsjgl.s:3069   .text:000000000000154c .LVL409
     /tmp/ccKdsjgl.s:3331   .text:0000000000001720 .LVL438
     /tmp/ccKdsjgl.s:3345   .text:000000000000173c .LVL439
     /tmp/ccKdsjgl.s:3260   .text:0000000000001698 .LVL426
     /tmp/ccKdsjgl.s:3368   .text:0000000000001750 .LVL441
     /tmp/ccKdsjgl.s:3423   .text:00000000000017c4 .LVL452
     /tmp/ccKdsjgl.s:3444   .text:00000000000017d4 .LVL454
     /tmp/ccKdsjgl.s:3498   .text:0000000000001848 .LVL464
     /tmp/ccKdsjgl.s:3503   .text:000000000000184c .LVL465
     /tmp/ccKdsjgl.s:4250   .text:0000000000001df8 .LVL594
     /tmp/ccKdsjgl.s:4253   .text:0000000000001dfc .LVL595
     /tmp/ccKdsjgl.s:3235   .text:0000000000001684 .LVL424
     /tmp/ccKdsjgl.s:3326   .text:0000000000001718 .LVL437
     /tmp/ccKdsjgl.s:3538   .text:000000000000188c .LVL470
     /tmp/ccKdsjgl.s:4020   .text:0000000000001c4c .LVL554
     /tmp/ccKdsjgl.s:4026   .text:0000000000001c58 .LVL555
     /tmp/ccKdsjgl.s:4099   .text:0000000000001cec .LVL568
     /tmp/ccKdsjgl.s:4101   .text:0000000000001cf0 .LVL569
     /tmp/ccKdsjgl.s:4111   .text:0000000000001d08 .LVL570
     /tmp/ccKdsjgl.s:4121   .text:0000000000001d14 .LVL571
     /tmp/ccKdsjgl.s:3550   .text:0000000000001894 .LVL471
     /tmp/ccKdsjgl.s:3604   .text:0000000000001908 .LVL481
     /tmp/ccKdsjgl.s:3614   .text:0000000000001910 .LVL482
     /tmp/ccKdsjgl.s:3668   .text:0000000000001984 .LVL492
GAS LISTING /tmp/ccKdsjgl.s 			page 205


     /tmp/ccKdsjgl.s:3678   .text:000000000000198c .LVL493
     /tmp/ccKdsjgl.s:3731   .text:00000000000019fc .LVL504
     /tmp/ccKdsjgl.s:3735   .text:0000000000001a00 .LVL505
     /tmp/ccKdsjgl.s:3739   .text:0000000000001a04 .LVL506
     /tmp/ccKdsjgl.s:3822   .text:0000000000001aac .LVL518
     /tmp/ccKdsjgl.s:3877   .text:0000000000001b20 .LVL529
     /tmp/ccKdsjgl.s:3881   .text:0000000000001b24 .LVL530
     /tmp/ccKdsjgl.s:3885   .text:0000000000001b28 .LVL531
     /tmp/ccKdsjgl.s:3936   .text:0000000000001b9c .LVL539
     /tmp/ccKdsjgl.s:4030   .text:0000000000001c64 .LVL557
     /tmp/ccKdsjgl.s:4047   .text:0000000000001c80 .LVL558
     /tmp/ccKdsjgl.s:4141   .text:0000000000001d30 .LVL575
     /tmp/ccKdsjgl.s:4145   .text:0000000000001d34 .LVL576
     /tmp/ccKdsjgl.s:4184   .text:0000000000001d7c .LVL580
     /tmp/ccKdsjgl.s:4242   .text:0000000000001df0 .LVL592
     /tmp/ccKdsjgl.s:3511   .text:0000000000001858 .LVL466
     /tmp/ccKdsjgl.s:3525   .text:000000000000187c .LVL468
     /tmp/ccKdsjgl.s:3534   .text:0000000000001884 .LVL469
     /tmp/ccKdsjgl.s:3747   .text:0000000000001a0c .LVL508
     /tmp/ccKdsjgl.s:3776   .text:0000000000001a58 .LVL511
     /tmp/ccKdsjgl.s:3782   .text:0000000000001a64 .LVL512
     /tmp/ccKdsjgl.s:3804   .text:0000000000001a9c .LVL516
     /tmp/ccKdsjgl.s:3795   .text:0000000000001a84 .LVL514
     /tmp/ccKdsjgl.s:3680   .text:0000000000001990 .LVL494
     /tmp/ccKdsjgl.s:3812   .text:0000000000001aa4 .LVL517
     /tmp/ccKdsjgl.s:3875   .text:0000000000001b1c .LVL528
     /tmp/ccKdsjgl.s:4008   .text:0000000000001c30 .LVL551
     /tmp/ccKdsjgl.s:4010   .text:0000000000001c34 .LVL552
     /tmp/ccKdsjgl.s:4135   .text:0000000000001d28 .LVL573
     /tmp/ccKdsjgl.s:4137   .text:0000000000001d2c .LVL574
     /tmp/ccKdsjgl.s:4237   .text:0000000000001dec .LVL591
     /tmp/ccKdsjgl.s:4248   .text:0000000000001df4 .LVL593
     /tmp/ccKdsjgl.s:3097   .text:0000000000001584 .LVL410
     /tmp/ccKdsjgl.s:3110   .text:000000000000159c .LVL413
     /tmp/ccKdsjgl.s:3208   .text:0000000000001660 .LVL420
     /tmp/ccKdsjgl.s:3212   .text:0000000000001664 .LVL421
     /tmp/ccKdsjgl.s:3224   .text:0000000000001674 .LVL422
     /tmp/ccKdsjgl.s:3231   .text:0000000000001680 .LVL423
     /tmp/ccKdsjgl.s:3246   .text:0000000000001688 .LVL425
     /tmp/ccKdsjgl.s:3262   .text:000000000000169c .LVL427
     /tmp/ccKdsjgl.s:3354   .text:0000000000001740 .LVL440
     /tmp/ccKdsjgl.s:3370   .text:0000000000001754 .LVL442
     /tmp/ccKdsjgl.s:3431   .text:00000000000017c8 .LVL453
     /tmp/ccKdsjgl.s:3956   .text:0000000000001bc4 .LVL541
     /tmp/ccKdsjgl.s:4186   .text:0000000000001d80 .LVL581
     /tmp/ccKdsjgl.s:1780   .text:0000000000000b54 .LVL251
     /tmp/ccKdsjgl.s:2038   .text:0000000000000d20 .LVL279
     /tmp/ccKdsjgl.s:2046   .text:0000000000000d30 .LVL280
     /tmp/ccKdsjgl.s:1968   .text:0000000000000c98 .LVL268
     /tmp/ccKdsjgl.s:2069   .text:0000000000000d44 .LVL282
     /tmp/ccKdsjgl.s:2123   .text:0000000000000db8 .LVL292
     /tmp/ccKdsjgl.s:2144   .text:0000000000000dc8 .LVL294
     /tmp/ccKdsjgl.s:2198   .text:0000000000000e3c .LVL304
     /tmp/ccKdsjgl.s:2203   .text:0000000000000e40 .LVL305
     /tmp/ccKdsjgl.s:3021   .text:0000000000001530 .LVL405
     /tmp/ccKdsjgl.s:3024   .text:0000000000001534 .LVL406
     /tmp/ccKdsjgl.s:1942   .text:0000000000000c84 .LVL266
GAS LISTING /tmp/ccKdsjgl.s 			page 206


     /tmp/ccKdsjgl.s:2033   .text:0000000000000d18 .LVL278
     /tmp/ccKdsjgl.s:2211   .text:0000000000000e4c .LVL306
     /tmp/ccKdsjgl.s:2227   .text:0000000000000e78 .LVL308
     /tmp/ccKdsjgl.s:2236   .text:0000000000000e88 .LVL309
     /tmp/ccKdsjgl.s:2302   .text:0000000000000f08 .LVL317
     /tmp/ccKdsjgl.s:2309   .text:0000000000000f14 .LVL318
     /tmp/ccKdsjgl.s:2325   .text:0000000000000f40 .LVL320
     /tmp/ccKdsjgl.s:2419   .text:0000000000000ffc .LVL337
     /tmp/ccKdsjgl.s:2503   .text:00000000000010ac .LVL350
     /tmp/ccKdsjgl.s:2850   .text:00000000000013b8 .LVL388
     /tmp/ccKdsjgl.s:2934   .text:0000000000001494 .LVL397
     /tmp/ccKdsjgl.s:2950   .text:00000000000014b0 .LVL399
     /tmp/ccKdsjgl.s:1803   .text:0000000000000b84 .LVL252
     /tmp/ccKdsjgl.s:1816   .text:0000000000000b9c .LVL255
     /tmp/ccKdsjgl.s:1915   .text:0000000000000c60 .LVL262
     /tmp/ccKdsjgl.s:1919   .text:0000000000000c64 .LVL263
     /tmp/ccKdsjgl.s:1931   .text:0000000000000c74 .LVL264
     /tmp/ccKdsjgl.s:1938   .text:0000000000000c80 .LVL265
     /tmp/ccKdsjgl.s:1954   .text:0000000000000c88 .LVL267
     /tmp/ccKdsjgl.s:2055   .text:0000000000000d34 .LVL281
     /tmp/ccKdsjgl.s:2131   .text:0000000000000dbc .LVL293
     /tmp/ccKdsjgl.s:2255   .text:0000000000000eac .LVL311
     /tmp/ccKdsjgl.s:2278   .text:0000000000000edc .LVL315
     /tmp/ccKdsjgl.s:2363   .text:0000000000000f8c .LVL327
     /tmp/ccKdsjgl.s:2431   .text:000000000000100c .LVL338
     /tmp/ccKdsjgl.s:2519   .text:00000000000010cc .LVL352
     /tmp/ccKdsjgl.s:2545   .text:00000000000010fc .LVL356
     /tmp/ccKdsjgl.s:2576   .text:0000000000001138 .LVL359
     /tmp/ccKdsjgl.s:554    .text:0000000000000294 .LVL62
     /tmp/ccKdsjgl.s:814    .text:0000000000000464 .LVL91
     /tmp/ccKdsjgl.s:826    .text:000000000000047c .LVL92
     /tmp/ccKdsjgl.s:743    .text:00000000000003dc .LVL79
     /tmp/ccKdsjgl.s:849    .text:0000000000000490 .LVL94
     /tmp/ccKdsjgl.s:904    .text:0000000000000504 .LVL105
     /tmp/ccKdsjgl.s:925    .text:0000000000000514 .LVL107
     /tmp/ccKdsjgl.s:979    .text:0000000000000588 .LVL117
     /tmp/ccKdsjgl.s:984    .text:000000000000058c .LVL118
     /tmp/ccKdsjgl.s:1731   .text:0000000000000b38 .LVL247
     /tmp/ccKdsjgl.s:1734   .text:0000000000000b3c .LVL248
     /tmp/ccKdsjgl.s:718    .text:00000000000003c8 .LVL77
     /tmp/ccKdsjgl.s:809    .text:000000000000045c .LVL90
     /tmp/ccKdsjgl.s:1019   .text:00000000000005cc .LVL123
     /tmp/ccKdsjgl.s:1501   .text:000000000000098c .LVL207
     /tmp/ccKdsjgl.s:1507   .text:0000000000000998 .LVL208
     /tmp/ccKdsjgl.s:1580   .text:0000000000000a2c .LVL221
     /tmp/ccKdsjgl.s:1582   .text:0000000000000a30 .LVL222
     /tmp/ccKdsjgl.s:1592   .text:0000000000000a48 .LVL223
     /tmp/ccKdsjgl.s:1602   .text:0000000000000a54 .LVL224
     /tmp/ccKdsjgl.s:1031   .text:00000000000005d4 .LVL124
     /tmp/ccKdsjgl.s:1085   .text:0000000000000648 .LVL134
     /tmp/ccKdsjgl.s:1095   .text:0000000000000650 .LVL135
     /tmp/ccKdsjgl.s:1149   .text:00000000000006c4 .LVL145
     /tmp/ccKdsjgl.s:1159   .text:00000000000006cc .LVL146
     /tmp/ccKdsjgl.s:1212   .text:000000000000073c .LVL157
     /tmp/ccKdsjgl.s:1216   .text:0000000000000740 .LVL158
     /tmp/ccKdsjgl.s:1220   .text:0000000000000744 .LVL159
     /tmp/ccKdsjgl.s:1303   .text:00000000000007ec .LVL171
GAS LISTING /tmp/ccKdsjgl.s 			page 207


     /tmp/ccKdsjgl.s:1358   .text:0000000000000860 .LVL182
     /tmp/ccKdsjgl.s:1362   .text:0000000000000864 .LVL183
     /tmp/ccKdsjgl.s:1366   .text:0000000000000868 .LVL184
     /tmp/ccKdsjgl.s:1417   .text:00000000000008dc .LVL192
     /tmp/ccKdsjgl.s:1511   .text:00000000000009a4 .LVL210
     /tmp/ccKdsjgl.s:1528   .text:00000000000009c0 .LVL211
     /tmp/ccKdsjgl.s:1622   .text:0000000000000a70 .LVL228
     /tmp/ccKdsjgl.s:1626   .text:0000000000000a74 .LVL229
     /tmp/ccKdsjgl.s:1665   .text:0000000000000abc .LVL233
     /tmp/ccKdsjgl.s:1723   .text:0000000000000b30 .LVL245
     /tmp/ccKdsjgl.s:992    .text:0000000000000598 .LVL119
     /tmp/ccKdsjgl.s:1006   .text:00000000000005bc .LVL121
     /tmp/ccKdsjgl.s:1015   .text:00000000000005c4 .LVL122
     /tmp/ccKdsjgl.s:1228   .text:000000000000074c .LVL161
     /tmp/ccKdsjgl.s:1257   .text:0000000000000798 .LVL164
     /tmp/ccKdsjgl.s:1263   .text:00000000000007a4 .LVL165
     /tmp/ccKdsjgl.s:1285   .text:00000000000007dc .LVL169
     /tmp/ccKdsjgl.s:1276   .text:00000000000007c4 .LVL167
     /tmp/ccKdsjgl.s:1161   .text:00000000000006d0 .LVL147
     /tmp/ccKdsjgl.s:1293   .text:00000000000007e4 .LVL170
     /tmp/ccKdsjgl.s:1356   .text:000000000000085c .LVL181
     /tmp/ccKdsjgl.s:1489   .text:0000000000000970 .LVL204
     /tmp/ccKdsjgl.s:1491   .text:0000000000000974 .LVL205
     /tmp/ccKdsjgl.s:1616   .text:0000000000000a68 .LVL226
     /tmp/ccKdsjgl.s:1618   .text:0000000000000a6c .LVL227
     /tmp/ccKdsjgl.s:1718   .text:0000000000000b2c .LVL244
     /tmp/ccKdsjgl.s:1729   .text:0000000000000b34 .LVL246
     /tmp/ccKdsjgl.s:580    .text:00000000000002c8 .LVL63
     /tmp/ccKdsjgl.s:593    .text:00000000000002e0 .LVL66
     /tmp/ccKdsjgl.s:691    .text:00000000000003a4 .LVL73
     /tmp/ccKdsjgl.s:695    .text:00000000000003a8 .LVL74
     /tmp/ccKdsjgl.s:707    .text:00000000000003b8 .LVL75
     /tmp/ccKdsjgl.s:714    .text:00000000000003c4 .LVL76
     /tmp/ccKdsjgl.s:729    .text:00000000000003cc .LVL78
     /tmp/ccKdsjgl.s:745    .text:00000000000003e0 .LVL80
     /tmp/ccKdsjgl.s:835    .text:0000000000000480 .LVL93
     /tmp/ccKdsjgl.s:851    .text:0000000000000494 .LVL95
     /tmp/ccKdsjgl.s:912    .text:0000000000000508 .LVL106
     /tmp/ccKdsjgl.s:1437   .text:0000000000000904 .LVL194
     /tmp/ccKdsjgl.s:1667   .text:0000000000000ac0 .LVL234
     /tmp/ccKdsjgl.s:457    .text:0000000000000204 .LVL53
     /tmp/ccKdsjgl.s:502    .text:000000000000024c .LVL58
     /tmp/ccKdsjgl.s:513    .text:0000000000000260 .LVL59
     /tmp/ccKdsjgl.s:527    .text:0000000000000278 .LVL60
     /tmp/ccKdsjgl.s:497    .text:0000000000000244 .LVL57
     /tmp/ccKdsjgl.s:463    .text:000000000000020c .LVL54
     /tmp/ccKdsjgl.s:492    .text:0000000000000238 .LVL56
     /tmp/ccKdsjgl.s:360    .text:0000000000000180 .LVL42
     /tmp/ccKdsjgl.s:366    .text:0000000000000188 .LVL43
     /tmp/ccKdsjgl.s:390    .text:00000000000001ac .LVL45
     /tmp/ccKdsjgl.s:396    .text:00000000000001b4 .LVL46
     /tmp/ccKdsjgl.s:399    .text:00000000000001b8 .LVL47
     /tmp/ccKdsjgl.s:419    .text:00000000000001d0 .LVL51
     /tmp/ccKdsjgl.s:408    .text:00000000000001c4 .LVL48
     /tmp/ccKdsjgl.s:412    .text:00000000000001c8 .LVL49
     /tmp/ccKdsjgl.s:414    .text:00000000000001cc .LVL50
     /tmp/ccKdsjgl.s:216    .text:0000000000000088 .LVL22
GAS LISTING /tmp/ccKdsjgl.s 			page 208


     /tmp/ccKdsjgl.s:280    .text:00000000000000f0 .LVL29
     /tmp/ccKdsjgl.s:337    .text:0000000000000168 .LVL39
     /tmp/ccKdsjgl.s:343    .text:0000000000000170 .LVL40
     /tmp/ccKdsjgl.s:330    .text:000000000000015c .LVL37
     /tmp/ccKdsjgl.s:233    .text:00000000000000a8 .LVL23
     /tmp/ccKdsjgl.s:238    .text:00000000000000b0 .LVL24
     /tmp/ccKdsjgl.s:333    .text:0000000000000160 .LVL38
     /tmp/ccKdsjgl.s:262    .text:00000000000000d4 .LVL26
     /tmp/ccKdsjgl.s:268    .text:00000000000000dc .LVL27
     /tmp/ccKdsjgl.s:271    .text:00000000000000e0 .LVL28
     /tmp/ccKdsjgl.s:315    .text:000000000000014c .LVL36
     /tmp/ccKdsjgl.s:112    .text:0000000000000000 .LVL14
     /tmp/ccKdsjgl.s:118    .text:0000000000000008 .LVL15
     /tmp/ccKdsjgl.s:152    .text:0000000000000040 .LVL18
     /tmp/ccKdsjgl.s:164    .text:0000000000000054 .LVL20
     /tmp/ccKdsjgl.s:158    .text:000000000000004c .LVL19
     /tmp/ccKdsjgl.s:147    .text:0000000000000034 .LVL17
     /tmp/ccKdsjgl.s:5636   .text:0000000000002894 .LVL765
     /tmp/ccKdsjgl.s:5663   .text:00000000000028d0 .LVL768
     /tmp/ccKdsjgl.s:5667   .text:00000000000028d4 .LVL769
     /tmp/ccKdsjgl.s:5669   .text:00000000000028d8 .LVL770
     /tmp/ccKdsjgl.s:5681   .text:00000000000028ec .LVL772
     /tmp/ccKdsjgl.s:5685   .text:00000000000028f0 .LVL773
     /tmp/ccKdsjgl.s:5697   .text:0000000000002900 .LVL774
     /tmp/ccKdsjgl.s:5707   .text:000000000000290c .LVL776
     /tmp/ccKdsjgl.s:5647   .text:00000000000028ac .LVL766
     /tmp/ccKdsjgl.s:5735   .text:0000000000002918 .LVL778
     /tmp/ccKdsjgl.s:5763   .text:000000000000294c .LVL780
     /tmp/ccKdsjgl.s:5812   .text:00000000000029a0 .LVL786
     /tmp/ccKdsjgl.s:5820   .text:00000000000029ac .LVL788
     /tmp/ccKdsjgl.s:5824   .text:00000000000029b4 .LVL789
     /tmp/ccKdsjgl.s:5770   .text:0000000000002954 .LVL781
     /tmp/ccKdsjgl.s:5877   .text:0000000000002a1c .LVL795
     /tmp/ccKdsjgl.s:5761   .text:0000000000002948 .LVL779
     /tmp/ccKdsjgl.s:5817   .text:00000000000029a8 .LVL787
     /tmp/ccKdsjgl.s:5776   .text:000000000000295c .LVL782
     /tmp/ccKdsjgl.s:15     .text._ZN16KObjectAllocatordlEPv:0000000000000000 .LVL0
     /tmp/ccKdsjgl.s:34     .text._ZN16KObjectAllocatordlEPv:0000000000000020 .LVL2
     /tmp/ccKdsjgl.s:92     .text._ZN16KObjectAllocatordlEPv:000000000000009c .LVL13
     /tmp/ccKdsjgl.s:30     .text._ZN16KObjectAllocatordlEPv:000000000000001c .LVL1
     /tmp/ccKdsjgl.s:89     .text._ZN16KObjectAllocatordlEPv:0000000000000098 .LVL12
     /tmp/ccKdsjgl.s:5913   .debug_info:0000000000000000 .Ldebug_info0
     /tmp/ccKdsjgl.s:5      .text:0000000000000000 .Ltext0
     /tmp/ccKdsjgl.s:5907   .text:0000000000002a24 .Letext0
     /tmp/ccKdsjgl.s:1009   .text:00000000000005bc .LBB131
     /tmp/ccKdsjgl.s:1012   .text:00000000000005c0 .LBE131
     /tmp/ccKdsjgl.s:1021   .text:00000000000005cc .LBB143
     /tmp/ccKdsjgl.s:1288   .text:00000000000007dc .LBE143
     /tmp/ccKdsjgl.s:1022   .text:00000000000005cc .LBB132
     /tmp/ccKdsjgl.s:1225   .text:0000000000000748 .LBE132
     /tmp/ccKdsjgl.s:1233   .text:0000000000000754 .LBB142
     /tmp/ccKdsjgl.s:1287   .text:00000000000007dc .LBE142
     /tmp/ccKdsjgl.s:1595   .text:0000000000000a48 .LBB154
     /tmp/ccKdsjgl.s:1598   .text:0000000000000a4c .LBE154
     /tmp/ccKdsjgl.s:1604   .text:0000000000000a54 .LBB155
     /tmp/ccKdsjgl.s:1656   .text:0000000000000ab4 .LBE155
     /tmp/ccKdsjgl.s:1715   .text:0000000000000b28 .LBE156
GAS LISTING /tmp/ccKdsjgl.s 			page 209


     /tmp/ccKdsjgl.s:1719   .text:0000000000000b2c .LBB160
     /tmp/ccKdsjgl.s:1726   .text:0000000000000b30 .LBE160
     /tmp/ccKdsjgl.s:2282   .text:0000000000000edc .LBE224
     /tmp/ccKdsjgl.s:2328   .text:0000000000000f40 .LBB229
     /tmp/ccKdsjgl.s:2353   .text:0000000000000f7c .LBE229
     /tmp/ccKdsjgl.s:2549   .text:00000000000010fc .LBE236
     /tmp/ccKdsjgl.s:2578   .text:0000000000001138 .LBB240
     /tmp/ccKdsjgl.s:2603   .text:0000000000001174 .LBE240
     /tmp/ccKdsjgl.s:2846   .text:00000000000013b4 .LBB241
     /tmp/ccKdsjgl.s:2937   .text:0000000000001498 .LBE241
     /tmp/ccKdsjgl.s:2952   .text:00000000000014b0 .LBB242
     /tmp/ccKdsjgl.s:3005   .text:0000000000001510 .LBE242
     /tmp/ccKdsjgl.s:3528   .text:000000000000187c .LBB313
     /tmp/ccKdsjgl.s:3531   .text:0000000000001880 .LBE313
     /tmp/ccKdsjgl.s:3540   .text:000000000000188c .LBB325
     /tmp/ccKdsjgl.s:3807   .text:0000000000001a9c .LBE325
     /tmp/ccKdsjgl.s:3541   .text:000000000000188c .LBB314
     /tmp/ccKdsjgl.s:3744   .text:0000000000001a08 .LBE314
     /tmp/ccKdsjgl.s:3752   .text:0000000000001a14 .LBB324
     /tmp/ccKdsjgl.s:3806   .text:0000000000001a9c .LBE324
     /tmp/ccKdsjgl.s:4114   .text:0000000000001d08 .LBB336
     /tmp/ccKdsjgl.s:4117   .text:0000000000001d0c .LBE336
     /tmp/ccKdsjgl.s:4123   .text:0000000000001d14 .LBB337
     /tmp/ccKdsjgl.s:4175   .text:0000000000001d74 .LBE337
     /tmp/ccKdsjgl.s:4234   .text:0000000000001de8 .LBE338
     /tmp/ccKdsjgl.s:4238   .text:0000000000001dec .LBB342
     /tmp/ccKdsjgl.s:4245   .text:0000000000001df0 .LBE342
     /tmp/ccKdsjgl.s:4806   .text:000000000000219c .LBE402
     /tmp/ccKdsjgl.s:4852   .text:0000000000002200 .LBB407
     /tmp/ccKdsjgl.s:4877   .text:000000000000223c .LBE407
     /tmp/ccKdsjgl.s:5113   .text:0000000000002434 .LBE414
     /tmp/ccKdsjgl.s:5142   .text:0000000000002470 .LBB418
     /tmp/ccKdsjgl.s:5167   .text:00000000000024ac .LBE418
     /tmp/ccKdsjgl.s:5415   .text:00000000000026fc .LBB419
     /tmp/ccKdsjgl.s:5506   .text:00000000000027e0 .LBE419
     /tmp/ccKdsjgl.s:5521   .text:00000000000027f8 .LBB420
     /tmp/ccKdsjgl.s:5574   .text:0000000000002858 .LBE420
     /tmp/ccKdsjgl.s:5758   .text:0000000000002944 .LBB421
     /tmp/ccKdsjgl.s:5797   .text:0000000000002988 .LBE421
     /tmp/ccKdsjgl.s:5827   .text:00000000000029b4 .LBB426
     /tmp/ccKdsjgl.s:5879   .text:0000000000002a1c .LBE426
     /tmp/ccKdsjgl.s:5772   .text:0000000000002954 .LBB423
     /tmp/ccKdsjgl.s:5795   .text:0000000000002988 .LBE423
     /tmp/ccKdsjgl.s:5829   .text:00000000000029b4 .LBB424
     /tmp/ccKdsjgl.s:5871   .text:0000000000002a14 .LBE424
     /tmp/ccKdsjgl.s:1748   .gcc_except_table:0000000000000000 .LLSDA27
     /tmp/ccKdsjgl.s:3037   .gcc_except_table:0000000000000038 .LLSDA28
     /tmp/ccKdsjgl.s:4266   .gcc_except_table:0000000000000070 .LLSDA29
     /tmp/ccKdsjgl.s:5606   .gcc_except_table:00000000000000a8 .LLSDA30

UNDEFINED SYMBOLS
_ZN15MemoryAllocator8instanceEv
_ZN15MemoryAllocator9kmem_freeEPv
_Z11printStringPKc
_Z12printIntegerm
_ZN15MemoryAllocator10kmem_allocEm
_ZN16KObjectAllocator17allocateNewObjectEv
GAS LISTING /tmp/ccKdsjgl.s 			page 210


_ZN16KObjectAllocator10freeObjectEPv
_Unwind_Resume
__gxx_personality_v0
