GAS LISTING /tmp/cciR7THS.s 			page 1


   1              		.file	"kObjectAllocatorTest.cpp"
   2              		.option pic
   3              		.option norelax
   4              		.text
   5              	.Ltext0:
   6              		.section	.text._ZN16KObjectAllocatordlEPv,"axG",@progbits,_ZN16KObjectAllocatordlEPv,comdat
   7              		.align	2
   8              		.weak	_ZN16KObjectAllocatordlEPv
  10              	_ZN16KObjectAllocatordlEPv:
  11              	.LFB10:
  12              		.file 1 "src/../h/kObjectAllocator.hpp"
   1:src/../h/kObjectAllocator.hpp **** #ifndef KOBJECTALLOCATOR_HPP
   2:src/../h/kObjectAllocator.hpp **** #define KOBJECTALLOCATOR_HPP
   3:src/../h/kObjectAllocator.hpp **** 
   4:src/../h/kObjectAllocator.hpp **** #include "../h/memoryAllocator.hpp"
   5:src/../h/kObjectAllocator.hpp **** 
   6:src/../h/kObjectAllocator.hpp **** class KObjectAllocatorTest;
   7:src/../h/kObjectAllocator.hpp **** 
   8:src/../h/kObjectAllocator.hpp **** /*          ^
   9:src/../h/kObjectAllocator.hpp ****  *          |
  10:src/../h/kObjectAllocator.hpp ****  *          |
  11:src/../h/kObjectAllocator.hpp ****  *          |
  12:src/../h/kObjectAllocator.hpp ****  * DELETE THIS CLASS DECLARATION
  13:src/../h/kObjectAllocator.hpp ****  */
  14:src/../h/kObjectAllocator.hpp **** 
  15:src/../h/kObjectAllocator.hpp **** 
  16:src/../h/kObjectAllocator.hpp **** class KObjectAllocator {
  17:src/../h/kObjectAllocator.hpp **** public:
  18:src/../h/kObjectAllocator.hpp **** 
  19:src/../h/kObjectAllocator.hpp ****     /*
  20:src/../h/kObjectAllocator.hpp ****      *
  21:src/../h/kObjectAllocator.hpp ****      *
  22:src/../h/kObjectAllocator.hpp ****      *
  23:src/../h/kObjectAllocator.hpp ****      *
  24:src/../h/kObjectAllocator.hpp ****      *
  25:src/../h/kObjectAllocator.hpp ****      *
  26:src/../h/kObjectAllocator.hpp ****      *                      #####################################
  27:src/../h/kObjectAllocator.hpp ****      *                      #####################################
  28:src/../h/kObjectAllocator.hpp ****      *                      #####################################
  29:src/../h/kObjectAllocator.hpp ****      *                     ### NE SMEJU SE PREDATI TESTOVI !!! ###
  30:src/../h/kObjectAllocator.hpp ****      *                      #####################################
  31:src/../h/kObjectAllocator.hpp ****      *                      #####################################
  32:src/../h/kObjectAllocator.hpp ****      *                      #####################################
  33:src/../h/kObjectAllocator.hpp ****      *
  34:src/../h/kObjectAllocator.hpp ****      *
  35:src/../h/kObjectAllocator.hpp ****      *
  36:src/../h/kObjectAllocator.hpp ****      *
  37:src/../h/kObjectAllocator.hpp ****      *
  38:src/../h/kObjectAllocator.hpp ****      *
  39:src/../h/kObjectAllocator.hpp ****      */
  40:src/../h/kObjectAllocator.hpp ****     friend KObjectAllocatorTest;
  41:src/../h/kObjectAllocator.hpp **** 
  42:src/../h/kObjectAllocator.hpp ****     /*                         ^
  43:src/../h/kObjectAllocator.hpp ****      *                         |
  44:src/../h/kObjectAllocator.hpp ****      *      DELETE THIS FRIEND |
  45:src/../h/kObjectAllocator.hpp ****      *
  46:src/../h/kObjectAllocator.hpp ****      */
GAS LISTING /tmp/cciR7THS.s 			page 2


  47:src/../h/kObjectAllocator.hpp **** 
  48:src/../h/kObjectAllocator.hpp **** 
  49:src/../h/kObjectAllocator.hpp ****     KObjectAllocator(size_t objectSize) : KObjectAllocator(objectSize, 320) {}
  50:src/../h/kObjectAllocator.hpp ****     KObjectAllocator(size_t objectSize, size_t initialObjectNumber)
  51:src/../h/kObjectAllocator.hpp ****             : initialNumberOfObjects(initialObjectNumber), numberOfObjects(initialObjectNumber),  o
  52:src/../h/kObjectAllocator.hpp ****         bitVectors = (uint8**) MemoryAllocator::instance()->kmem_alloc(numberOfAllocations * sizeof
  53:src/../h/kObjectAllocator.hpp ****         objectVectors = (uint8**) MemoryAllocator::instance()->kmem_alloc(numberOfAllocations * siz
  54:src/../h/kObjectAllocator.hpp ****         initialNumberOfObjects = numberOfObjects = numberOfObjects / 8 * 8 + 8 * (numberOfObjects /
  55:src/../h/kObjectAllocator.hpp ****         // one bit for each object which indicates whether memory
  56:src/../h/kObjectAllocator.hpp ****         // corresponding to that object is allocated or free
  57:src/../h/kObjectAllocator.hpp ****         memorySizeForBits = numberOfObjects / 8;
  58:src/../h/kObjectAllocator.hpp ****         bitVectors[0] = (uint8*) MemoryAllocator::instance()->kmem_alloc(
  59:src/../h/kObjectAllocator.hpp ****                 memorySizeForBits + initialNumberOfObjects * objectSize
  60:src/../h/kObjectAllocator.hpp ****         );
  61:src/../h/kObjectAllocator.hpp ****         objectVectors[0] = bitVectors[0] + memorySizeForBits;   // start of memory for objects
  62:src/../h/kObjectAllocator.hpp ****         for (size_t i = 0; i < memorySizeForBits; bitVectors[0][i++] = 0);
  63:src/../h/kObjectAllocator.hpp ****     }
  64:src/../h/kObjectAllocator.hpp ****     void* operator new(size_t size) {
  65:src/../h/kObjectAllocator.hpp ****         return MemoryAllocator::instance()->kmem_alloc(size);
  66:src/../h/kObjectAllocator.hpp ****     }
  67:src/../h/kObjectAllocator.hpp ****     void operator delete(void* p) {
  13              		.loc 1 67 10
  14              		.cfi_startproc
  15              	.LVL0:
  16 0000 130101FE 		addi	sp,sp,-32
  17              		.cfi_def_cfa_offset 32
  18 0004 233C1100 		sd	ra,24(sp)
  19 0008 23388100 		sd	s0,16(sp)
  20 000c 23349100 		sd	s1,8(sp)
  21 0010 23302101 		sd	s2,0(sp)
  22              		.cfi_offset 1, -8
  23              		.cfi_offset 8, -16
  24              		.cfi_offset 9, -24
  25              		.cfi_offset 18, -32
  26 0014 13040102 		addi	s0,sp,32
  27              		.cfi_def_cfa 8, 0
  28 0018 13090500 		mv	s2,a0
  68:src/../h/kObjectAllocator.hpp ****         for (size_t i = 0; i < ((KObjectAllocator*) p)->numberOfAllocations; ++i)
  29              		.loc 1 68 9
  30              	.LVL1:
  31              	.LBB54:
  32              		.loc 1 68 21 is_stmt 0
  33 001c 93040000 		li	s1,0
  34              	.LVL2:
  35              	.L3:
  36              		.loc 1 68 30 is_stmt 1 discriminator 3
  37              		.loc 1 68 57 is_stmt 0 discriminator 3
  38 0020 83370903 		ld	a5,48(s2)
  39              		.loc 1 68 30 discriminator 3
  40 0024 63F6F402 		bleu	a5,s1,.L2
  69:src/../h/kObjectAllocator.hpp ****             MemoryAllocator::instance()->kmem_free(((KObjectAllocator*) p)->bitVectors[i]);
  41              		.loc 1 69 13 is_stmt 1 discriminator 2
  42              		.loc 1 69 51 is_stmt 0 discriminator 2
  43 0028 97000000 		call	_ZN15MemoryAllocator8instanceEv@plt
  43      E7800000 
  44              	.LVL3:
  45              		.loc 1 69 77 discriminator 2
GAS LISTING /tmp/cciR7THS.s 			page 3


  46 0030 83378902 		ld	a5,40(s2)
  47              		.loc 1 69 89 discriminator 2
  48 0034 13973400 		slli	a4,s1,3
  49 0038 B387E700 		add	a5,a5,a4
  50              		.loc 1 69 51 discriminator 2
  51 003c 83B50700 		ld	a1,0(a5)
  52 0040 97000000 		call	_ZN15MemoryAllocator9kmem_freeEPv@plt
  52      E7800000 
  53              	.LVL4:
  68:src/../h/kObjectAllocator.hpp ****         for (size_t i = 0; i < ((KObjectAllocator*) p)->numberOfAllocations; ++i)
  54              		.loc 1 68 9 is_stmt 1 discriminator 2
  55 0048 93841400 		addi	s1,s1,1
  56              	.LVL5:
  57 004c 6FF05FFD 		j	.L3
  58              	.L2:
  59              	.LBE54:
  70:src/../h/kObjectAllocator.hpp ****         MemoryAllocator::instance()->kmem_free(((KObjectAllocator*) p)->bitVectors);
  60              		.loc 1 70 9
  61              		.loc 1 70 47 is_stmt 0
  62 0050 97000000 		call	_ZN15MemoryAllocator8instanceEv@plt
  62      E7800000 
  63              	.LVL6:
  64 0058 83358902 		ld	a1,40(s2)
  65 005c 97000000 		call	_ZN15MemoryAllocator9kmem_freeEPv@plt
  65      E7800000 
  66              	.LVL7:
  71:src/../h/kObjectAllocator.hpp ****         MemoryAllocator::instance()->kmem_free(((KObjectAllocator*) p)->objectVectors);
  67              		.loc 1 71 9 is_stmt 1
  68              		.loc 1 71 47 is_stmt 0
  69 0064 97000000 		call	_ZN15MemoryAllocator8instanceEv@plt
  69      E7800000 
  70              	.LVL8:
  71 006c 83350902 		ld	a1,32(s2)
  72 0070 97000000 		call	_ZN15MemoryAllocator9kmem_freeEPv@plt
  72      E7800000 
  73              	.LVL9:
  72:src/../h/kObjectAllocator.hpp ****         MemoryAllocator::instance()->kmem_free(p);
  74              		.loc 1 72 9 is_stmt 1
  75              		.loc 1 72 47 is_stmt 0
  76 0078 97000000 		call	_ZN15MemoryAllocator8instanceEv@plt
  76      E7800000 
  77              	.LVL10:
  78 0080 93050900 		mv	a1,s2
  79 0084 97000000 		call	_ZN15MemoryAllocator9kmem_freeEPv@plt
  79      E7800000 
  80              	.LVL11:
  73:src/../h/kObjectAllocator.hpp ****     }
  81              		.loc 1 73 5
  82 008c 83308101 		ld	ra,24(sp)
  83              		.cfi_restore 1
  84 0090 03340101 		ld	s0,16(sp)
  85              		.cfi_restore 8
  86              		.cfi_def_cfa 2, 32
  87 0094 83348100 		ld	s1,8(sp)
  88              		.cfi_restore 9
  89              	.LVL12:
  90 0098 03390100 		ld	s2,0(sp)
GAS LISTING /tmp/cciR7THS.s 			page 4


  91              		.cfi_restore 18
  92              	.LVL13:
  93 009c 13010102 		addi	sp,sp,32
  94              		.cfi_def_cfa_offset 0
  95 00a0 67800000 		jr	ra
  96              		.cfi_endproc
  97              	.LFE10:
  99              		.section	.rodata.str1.8,"aMS",@progbits,1
 100              		.align	3
 101              	.LC1:
 102 0000 4552524F 		.string	"ERROR: byte not in given objAlloc\n"
 102      523A2062 
 102      79746520 
 102      6E6F7420 
 102      696E2067 
 103              		.text
 104              		.align	2
 105              		.globl	_ZN20KObjectAllocatorTest15getValueOfBitAtEmmP16KObjectAllocator
 107              	_ZN20KObjectAllocatorTest15getValueOfBitAtEmmP16KObjectAllocator:
 108              	.LFB23:
 109              		.file 2 "src/kObjectAllocatorTest.cpp"
   1:src/kObjectAllocatorTest.cpp **** #include "../h/kObjectAllocatorTest.hpp"
   2:src/kObjectAllocatorTest.cpp **** #include "../h/print.hpp"
   3:src/kObjectAllocatorTest.cpp **** 
   4:src/kObjectAllocatorTest.cpp **** bool KObjectAllocatorTest::runTests() {
   5:src/kObjectAllocatorTest.cpp ****     for (size_t size : sizes)
   6:src/kObjectAllocatorTest.cpp ****     for (size_t i = 0; i < numberOfTests; ++i) {
   7:src/kObjectAllocatorTest.cpp ****         if (!test(i, size)) {
   8:src/kObjectAllocatorTest.cpp ****             printString("Failed KObjectAllocator test ");
   9:src/kObjectAllocatorTest.cpp ****             printInteger(i); printString("\n"); return false;
  10:src/kObjectAllocatorTest.cpp ****         } else printString("Passed ");
  11:src/kObjectAllocatorTest.cpp ****         if (i != 0 && (i + 1) % 10 == 0) printString("\n");
  12:src/kObjectAllocatorTest.cpp ****     }
  13:src/kObjectAllocatorTest.cpp ****     return true;
  14:src/kObjectAllocatorTest.cpp **** }
  15:src/kObjectAllocatorTest.cpp **** 
  16:src/kObjectAllocatorTest.cpp **** bool KObjectAllocatorTest::test(size_t i, size_t size) {
  17:src/kObjectAllocatorTest.cpp ****     switch (i) {
  18:src/kObjectAllocatorTest.cpp ****         case 0: return test0(size); break;
  19:src/kObjectAllocatorTest.cpp ****         case 1: return test1(size); break;
  20:src/kObjectAllocatorTest.cpp ****         case 2: return test2(size); break;
  21:src/kObjectAllocatorTest.cpp ****         case 3: return test3(size); break;
  22:src/kObjectAllocatorTest.cpp ****         default: break;
  23:src/kObjectAllocatorTest.cpp ****     }
  24:src/kObjectAllocatorTest.cpp ****     return false;
  25:src/kObjectAllocatorTest.cpp **** }
  26:src/kObjectAllocatorTest.cpp **** 
  27:src/kObjectAllocatorTest.cpp **** bool KObjectAllocatorTest::getValueOfBitAt(size_t byte, size_t bit, KObjectAllocator* objAlloc) {
 110              		.loc 2 27 97 is_stmt 1
 111              		.cfi_startproc
 112              	.LVL14:
  28:src/kObjectAllocatorTest.cpp ****     for (size_t i = 0; i < objAlloc->numberOfAllocations; ++i) {
 113              		.loc 2 28 5
 114              	.LBB55:
 115              		.loc 2 28 17 is_stmt 0
 116 0000 93070000 		li	a5,0
 117 0004 6F008000 		j	.L9
GAS LISTING /tmp/cciR7THS.s 			page 5


 118              	.LVL15:
 119              	.L7:
 120              		.loc 2 28 5 is_stmt 1 discriminator 2
 121 0008 93871700 		addi	a5,a5,1
 122              	.LVL16:
 123              	.L9:
 124              		.loc 2 28 26 discriminator 1
 125              		.loc 2 28 38 is_stmt 0 discriminator 1
 126 000c 03B70603 		ld	a4,48(a3)
 127              		.loc 2 28 26 discriminator 1
 128 0010 63F2E704 		bleu	a4,a5,.L6
  29:src/kObjectAllocatorTest.cpp ****         if (i * objAlloc->memorySizeForBits <= byte && byte < (i + 1) * objAlloc->memorySizeForBits
 129              		.loc 2 29 9 is_stmt 1
 130              		.loc 2 29 27 is_stmt 0
 131 0014 03B70601 		ld	a4,16(a3)
 132              		.loc 2 29 15
 133 0018 3305F702 		mul	a0,a4,a5
 134              		.loc 2 29 9
 135 001c E3E6A5FE 		bgtu	a0,a1,.L7
 136              		.loc 2 29 66 discriminator 1
 137 0020 13881700 		addi	a6,a5,1
 138              		.loc 2 29 71 discriminator 1
 139 0024 33070703 		mul	a4,a4,a6
 140              		.loc 2 29 53 discriminator 1
 141 0028 E3F0E5FE 		bleu	a4,a1,.L7
  30:src/kObjectAllocatorTest.cpp ****             return (objAlloc->bitVectors[i][byte - i * objAlloc->memorySizeForBits] >> bit & (uint8
 142              		.loc 2 30 13 is_stmt 1
 143              		.loc 2 30 31 is_stmt 0
 144 002c 03B78602 		ld	a4,40(a3)
 145              		.loc 2 30 43
 146 0030 93973700 		slli	a5,a5,3
 147              	.LVL17:
 148 0034 B307F700 		add	a5,a4,a5
 149 0038 83B70700 		ld	a5,0(a5)
 150              		.loc 2 30 50
 151 003c B385A540 		sub	a1,a1,a0
 152              	.LVL18:
 153              		.loc 2 30 83
 154 0040 B385B700 		add	a1,a5,a1
 155 0044 03C50500 		lbu	a0,0(a1)
 156              		.loc 2 30 85
 157 0048 3B56C540 		sraw	a2,a0,a2
 158              	.LVL19:
 159              		.loc 2 30 108
 160 004c 13751600 		andi	a0,a2,1
 161              	.LBE55:
  31:src/kObjectAllocatorTest.cpp ****     }
  32:src/kObjectAllocatorTest.cpp ****     printString("ERROR: byte not in given objAlloc\n");
  33:src/kObjectAllocatorTest.cpp ****     return false;
  34:src/kObjectAllocatorTest.cpp **** }
 162              		.loc 2 34 1
 163 0050 67800000 		ret
 164              	.LVL20:
 165              	.L6:
  27:src/kObjectAllocatorTest.cpp ****     for (size_t i = 0; i < objAlloc->numberOfAllocations; ++i) {
 166              		.loc 2 27 97
 167 0054 130101FF 		addi	sp,sp,-16
GAS LISTING /tmp/cciR7THS.s 			page 6


 168              		.cfi_def_cfa_offset 16
 169 0058 23341100 		sd	ra,8(sp)
 170 005c 23308100 		sd	s0,0(sp)
 171              		.cfi_offset 1, -8
 172              		.cfi_offset 8, -16
 173 0060 13040101 		addi	s0,sp,16
 174              		.cfi_def_cfa 8, 0
  32:src/kObjectAllocatorTest.cpp ****     return false;
 175              		.loc 2 32 5 is_stmt 1
  32:src/kObjectAllocatorTest.cpp ****     return false;
 176              		.loc 2 32 16 is_stmt 0
 177 0064 17050000 		lla	a0,.LC1
 177      13050500 
 178 006c 97000000 		call	_Z11printStringPKc@plt
 178      E7800000 
 179              	.LVL21:
  33:src/kObjectAllocatorTest.cpp **** }
 180              		.loc 2 33 5 is_stmt 1
  33:src/kObjectAllocatorTest.cpp **** }
 181              		.loc 2 33 12 is_stmt 0
 182 0074 13050000 		li	a0,0
 183              		.loc 2 34 1
 184 0078 83308100 		ld	ra,8(sp)
 185              		.cfi_restore 1
 186 007c 03340100 		ld	s0,0(sp)
 187              		.cfi_restore 8
 188              		.cfi_def_cfa 2, 16
 189 0080 13010101 		addi	sp,sp,16
 190              		.cfi_def_cfa_offset 0
 191 0084 67800000 		jr	ra
 192              		.cfi_endproc
 193              	.LFE23:
 195              		.section	.rodata.str1.8
 196 0023 00000000 		.align	3
 196      00
 197              	.LC2:
 198 0028 4552524F 		.string	"ERROR: given object not allocated in given objAlloc\n"
 198      523A2067 
 198      6976656E 
 198      206F626A 
 198      65637420 
 199              		.text
 200              		.align	2
 201              		.globl	_ZN20KObjectAllocatorTest15getByteOfObjectEPvP16KObjectAllocator
 203              	_ZN20KObjectAllocatorTest15getByteOfObjectEPvP16KObjectAllocator:
 204              	.LFB24:
  35:src/kObjectAllocatorTest.cpp **** 
  36:src/kObjectAllocatorTest.cpp **** size_t KObjectAllocatorTest::getByteOfObject(void* obj, KObjectAllocator* objAlloc) {
 205              		.loc 2 36 85 is_stmt 1
 206              		.cfi_startproc
 207              	.LVL22:
  37:src/kObjectAllocatorTest.cpp ****     for (size_t i = 0; i < objAlloc->numberOfAllocations; ++i) {
 208              		.loc 2 37 5
 209              	.LBB56:
 210              		.loc 2 37 17 is_stmt 0
 211 0088 13070000 		li	a4,0
 212 008c 6F008000 		j	.L17
GAS LISTING /tmp/cciR7THS.s 			page 7


 213              	.LVL23:
 214              	.L15:
 215              		.loc 2 37 5 is_stmt 1 discriminator 2
 216 0090 13071700 		addi	a4,a4,1
 217              	.LVL24:
 218              	.L17:
 219              		.loc 2 37 26 discriminator 1
 220              		.loc 2 37 38 is_stmt 0 discriminator 1
 221 0094 83370603 		ld	a5,48(a2)
 222              		.loc 2 37 26 discriminator 1
 223 0098 637EF702 		bleu	a5,a4,.L14
 224              	.LBB57:
  38:src/kObjectAllocatorTest.cpp ****         if ((uint8*) obj < objAlloc->objectVectors[i]) continue;
 225              		.loc 2 38 9 is_stmt 1
 226              		.loc 2 38 38 is_stmt 0
 227 009c 83370602 		ld	a5,32(a2)
 228              		.loc 2 38 53
 229 00a0 93163700 		slli	a3,a4,3
 230 00a4 B387D700 		add	a5,a5,a3
 231 00a8 83B70700 		ld	a5,0(a5)
 232              		.loc 2 38 9
 233 00ac E3E2F5FE 		bgtu	a5,a1,.L15
  39:src/kObjectAllocatorTest.cpp ****         size_t idiff = (size_t) ((uint8*) obj - objAlloc->objectVectors[i]);
 234              		.loc 2 39 9 is_stmt 1
 235              		.loc 2 39 47 is_stmt 0
 236 00b0 3385F540 		sub	a0,a1,a5
 237              	.LVL25:
  40:src/kObjectAllocatorTest.cpp ****         size_t byte = idiff / objAlloc->objectSize / 8;
 238              		.loc 2 40 9 is_stmt 1
 239              		.loc 2 40 41 is_stmt 0
 240 00b4 83378601 		ld	a5,24(a2)
 241              		.loc 2 40 29
 242 00b8 3355F502 		divu	a0,a0,a5
 243              	.LVL26:
 244              		.loc 2 40 16
 245 00bc 13553500 		srli	a0,a0,3
 246              	.LVL27:
  41:src/kObjectAllocatorTest.cpp ****         if (byte >= objAlloc->memorySizeForBits) continue;
 247              		.loc 2 41 9 is_stmt 1
 248              		.loc 2 41 31 is_stmt 0
 249 00c0 83370601 		ld	a5,16(a2)
 250              		.loc 2 41 9
 251 00c4 E376F5FC 		bleu	a5,a0,.L15
  42:src/kObjectAllocatorTest.cpp ****         return byte + i * objAlloc->memorySizeForBits;
 252              		.loc 2 42 9 is_stmt 1
 253              		.loc 2 42 25 is_stmt 0
 254 00c8 3387E702 		mul	a4,a5,a4
 255              	.LVL28:
 256              		.loc 2 42 37
 257 00cc 3305A700 		add	a0,a4,a0
 258              	.LVL29:
 259              	.LBE57:
 260              	.LBE56:
  43:src/kObjectAllocatorTest.cpp ****     }
  44:src/kObjectAllocatorTest.cpp ****     printString("ERROR: given object not allocated in given objAlloc\n");
  45:src/kObjectAllocatorTest.cpp ****     return 0;
  46:src/kObjectAllocatorTest.cpp **** }
GAS LISTING /tmp/cciR7THS.s 			page 8


 261              		.loc 2 46 1
 262 00d0 67800000 		ret
 263              	.LVL30:
 264              	.L14:
  36:src/kObjectAllocatorTest.cpp ****     for (size_t i = 0; i < objAlloc->numberOfAllocations; ++i) {
 265              		.loc 2 36 85
 266 00d4 130101FF 		addi	sp,sp,-16
 267              		.cfi_def_cfa_offset 16
 268 00d8 23341100 		sd	ra,8(sp)
 269 00dc 23308100 		sd	s0,0(sp)
 270              		.cfi_offset 1, -8
 271              		.cfi_offset 8, -16
 272 00e0 13040101 		addi	s0,sp,16
 273              		.cfi_def_cfa 8, 0
  44:src/kObjectAllocatorTest.cpp ****     return 0;
 274              		.loc 2 44 5 is_stmt 1
  44:src/kObjectAllocatorTest.cpp ****     return 0;
 275              		.loc 2 44 16 is_stmt 0
 276 00e4 17050000 		lla	a0,.LC2
 276      13050500 
 277 00ec 97000000 		call	_Z11printStringPKc@plt
 277      E7800000 
 278              	.LVL31:
  45:src/kObjectAllocatorTest.cpp **** }
 279              		.loc 2 45 5 is_stmt 1
  45:src/kObjectAllocatorTest.cpp **** }
 280              		.loc 2 45 12 is_stmt 0
 281 00f4 13050000 		li	a0,0
 282              		.loc 2 46 1
 283 00f8 83308100 		ld	ra,8(sp)
 284              		.cfi_restore 1
 285 00fc 03340100 		ld	s0,0(sp)
 286              		.cfi_restore 8
 287              		.cfi_def_cfa 2, 16
 288 0100 13010101 		addi	sp,sp,16
 289              		.cfi_def_cfa_offset 0
 290 0104 67800000 		jr	ra
 291              		.cfi_endproc
 292              	.LFE24:
 294              		.align	2
 295              		.globl	_ZN20KObjectAllocatorTest14getBitOfObjectEPvP16KObjectAllocator
 297              	_ZN20KObjectAllocatorTest14getBitOfObjectEPvP16KObjectAllocator:
 298              	.LFB25:
  47:src/kObjectAllocatorTest.cpp **** 
  48:src/kObjectAllocatorTest.cpp **** size_t KObjectAllocatorTest::getBitOfObject(void* obj, KObjectAllocator* objAlloc) {
 299              		.loc 2 48 84 is_stmt 1
 300              		.cfi_startproc
 301              	.LVL32:
  49:src/kObjectAllocatorTest.cpp ****     for (size_t i = 0; i < objAlloc->numberOfAllocations; ++i) {
 302              		.loc 2 49 5
 303              	.LBB58:
 304              		.loc 2 49 17 is_stmt 0
 305 0108 13070000 		li	a4,0
 306 010c 6F008000 		j	.L25
 307              	.LVL33:
 308              	.L23:
 309              		.loc 2 49 5 is_stmt 1 discriminator 2
GAS LISTING /tmp/cciR7THS.s 			page 9


 310 0110 13071700 		addi	a4,a4,1
 311              	.LVL34:
 312              	.L25:
 313              		.loc 2 49 26 discriminator 1
 314              		.loc 2 49 38 is_stmt 0 discriminator 1
 315 0114 83370603 		ld	a5,48(a2)
 316              		.loc 2 49 26 discriminator 1
 317 0118 6370F704 		bleu	a5,a4,.L22
 318              	.LBB59:
  50:src/kObjectAllocatorTest.cpp ****         if ((uint8*) obj < objAlloc->objectVectors[i]) continue;
 319              		.loc 2 50 9 is_stmt 1
 320              		.loc 2 50 38 is_stmt 0
 321 011c 83370602 		ld	a5,32(a2)
 322              		.loc 2 50 53
 323 0120 93163700 		slli	a3,a4,3
 324 0124 B387D700 		add	a5,a5,a3
 325 0128 83B70700 		ld	a5,0(a5)
 326              		.loc 2 50 9
 327 012c E3E2F5FE 		bgtu	a5,a1,.L23
  51:src/kObjectAllocatorTest.cpp ****         size_t idiff = (size_t) ((uint8*) obj - objAlloc->objectVectors[i]);
 328              		.loc 2 51 9 is_stmt 1
 329              		.loc 2 51 47 is_stmt 0
 330 0130 B387F540 		sub	a5,a1,a5
 331              	.LVL35:
  52:src/kObjectAllocatorTest.cpp ****         size_t byte = idiff / objAlloc->objectSize / 8;
 332              		.loc 2 52 9 is_stmt 1
 333              		.loc 2 52 41 is_stmt 0
 334 0134 03358601 		ld	a0,24(a2)
 335              		.loc 2 52 29
 336 0138 B3D7A702 		divu	a5,a5,a0
 337              	.LVL36:
 338              		.loc 2 52 16
 339 013c 93D63700 		srli	a3,a5,3
 340              	.LVL37:
  53:src/kObjectAllocatorTest.cpp ****         if (byte >= objAlloc->memorySizeForBits) continue;
 341              		.loc 2 53 9 is_stmt 1
 342              		.loc 2 53 31 is_stmt 0
 343 0140 03350601 		ld	a0,16(a2)
 344              		.loc 2 53 9
 345 0144 E3F6A6FC 		bleu	a0,a3,.L23
  54:src/kObjectAllocatorTest.cpp ****         size_t bit = idiff / objAlloc->objectSize - byte * 8;
 346              		.loc 2 54 9 is_stmt 1
 347              		.loc 2 54 58 is_stmt 0
 348 0148 13F587FF 		andi	a0,a5,-8
 349              	.LVL38:
  55:src/kObjectAllocatorTest.cpp ****         return 7 - bit;
 350              		.loc 2 55 9 is_stmt 1
 351              		.loc 2 55 20 is_stmt 0
 352 014c B307F540 		sub	a5,a0,a5
 353              	.LVL39:
 354 0150 13857700 		addi	a0,a5,7
 355              	.LVL40:
 356              	.LBE59:
 357              	.LBE58:
  56:src/kObjectAllocatorTest.cpp ****     }
  57:src/kObjectAllocatorTest.cpp ****     printString("ERROR: given object not allocated in given objAlloc\n");
  58:src/kObjectAllocatorTest.cpp ****     return 0;
GAS LISTING /tmp/cciR7THS.s 			page 10


  59:src/kObjectAllocatorTest.cpp **** }
 358              		.loc 2 59 1
 359 0154 67800000 		ret
 360              	.LVL41:
 361              	.L22:
  48:src/kObjectAllocatorTest.cpp ****     for (size_t i = 0; i < objAlloc->numberOfAllocations; ++i) {
 362              		.loc 2 48 84
 363 0158 130101FF 		addi	sp,sp,-16
 364              		.cfi_def_cfa_offset 16
 365 015c 23341100 		sd	ra,8(sp)
 366 0160 23308100 		sd	s0,0(sp)
 367              		.cfi_offset 1, -8
 368              		.cfi_offset 8, -16
 369 0164 13040101 		addi	s0,sp,16
 370              		.cfi_def_cfa 8, 0
  57:src/kObjectAllocatorTest.cpp ****     return 0;
 371              		.loc 2 57 5 is_stmt 1
  57:src/kObjectAllocatorTest.cpp ****     return 0;
 372              		.loc 2 57 16 is_stmt 0
 373 0168 17050000 		lla	a0,.LC2
 373      13050500 
 374 0170 97000000 		call	_Z11printStringPKc@plt
 374      E7800000 
 375              	.LVL42:
  58:src/kObjectAllocatorTest.cpp **** }
 376              		.loc 2 58 5 is_stmt 1
  58:src/kObjectAllocatorTest.cpp **** }
 377              		.loc 2 58 12 is_stmt 0
 378 0178 13050000 		li	a0,0
 379              		.loc 2 59 1
 380 017c 83308100 		ld	ra,8(sp)
 381              		.cfi_restore 1
 382 0180 03340100 		ld	s0,0(sp)
 383              		.cfi_restore 8
 384              		.cfi_def_cfa 2, 16
 385 0184 13010101 		addi	sp,sp,16
 386              		.cfi_def_cfa_offset 0
 387 0188 67800000 		jr	ra
 388              		.cfi_endproc
 389              	.LFE25:
 391              		.align	2
 392              		.globl	_ZN20KObjectAllocatorTest11getObjectAtEmmP16KObjectAllocator
 394              	_ZN20KObjectAllocatorTest11getObjectAtEmmP16KObjectAllocator:
 395              	.LFB26:
  60:src/kObjectAllocatorTest.cpp **** 
  61:src/kObjectAllocatorTest.cpp **** void* KObjectAllocatorTest::getObjectAt(size_t byte, size_t bit, KObjectAllocator* objAlloc) {
 396              		.loc 2 61 94 is_stmt 1
 397              		.cfi_startproc
 398              	.LVL43:
  62:src/kObjectAllocatorTest.cpp ****     for (size_t i = 0; i < objAlloc->numberOfAllocations; ++i)
 399              		.loc 2 62 5
 400              	.LBB60:
 401              		.loc 2 62 17 is_stmt 0
 402 018c 93070000 		li	a5,0
 403 0190 6F008000 		j	.L33
 404              	.LVL44:
 405              	.L31:
GAS LISTING /tmp/cciR7THS.s 			page 11


 406              		.loc 2 62 5 is_stmt 1 discriminator 2
 407 0194 93871700 		addi	a5,a5,1
 408              	.LVL45:
 409              	.L33:
 410              		.loc 2 62 26 discriminator 1
 411              		.loc 2 62 38 is_stmt 0 discriminator 1
 412 0198 03B70603 		ld	a4,48(a3)
 413              		.loc 2 62 26 discriminator 1
 414 019c 63F6E704 		bleu	a4,a5,.L30
  63:src/kObjectAllocatorTest.cpp ****         if (i * objAlloc->memorySizeForBits <= byte && byte < (i + 1) * objAlloc->memorySizeForBits
 415              		.loc 2 63 9 is_stmt 1
 416              		.loc 2 63 27 is_stmt 0
 417 01a0 03B70601 		ld	a4,16(a3)
 418              		.loc 2 63 15
 419 01a4 3308F702 		mul	a6,a4,a5
 420              		.loc 2 63 9
 421 01a8 E3E605FF 		bgtu	a6,a1,.L31
 422              		.loc 2 63 66 discriminator 1
 423 01ac 93881700 		addi	a7,a5,1
 424              		.loc 2 63 71 discriminator 1
 425 01b0 33071703 		mul	a4,a4,a7
 426              		.loc 2 63 53 discriminator 1
 427 01b4 E3F0E5FE 		bleu	a4,a1,.L31
  64:src/kObjectAllocatorTest.cpp ****             return &objAlloc->objectVectors[i][((byte - i * objAlloc->memorySizeForBits) * 8 + 7 - 
 428              		.loc 2 64 13 is_stmt 1
 429              		.loc 2 64 31 is_stmt 0
 430 01b8 03B70602 		ld	a4,32(a3)
 431              		.loc 2 64 46
 432 01bc 93973700 		slli	a5,a5,3
 433              	.LVL46:
 434 01c0 B307F700 		add	a5,a4,a5
 435 01c4 83B70700 		ld	a5,0(a5)
 436              		.loc 2 64 55
 437 01c8 B3850541 		sub	a1,a1,a6
 438              	.LVL47:
 439              		.loc 2 64 90
 440 01cc 93953500 		slli	a1,a1,3
 441              		.loc 2 64 98
 442 01d0 3385C540 		sub	a0,a1,a2
 443              	.LVL48:
 444 01d4 13057500 		addi	a0,a0,7
 445              		.loc 2 64 117
 446 01d8 03B78601 		ld	a4,24(a3)
 447              		.loc 2 64 105
 448 01dc 3305E502 		mul	a0,a0,a4
 449              		.loc 2 64 127
 450 01e0 3385A700 		add	a0,a5,a0
 451              	.LBE60:
  65:src/kObjectAllocatorTest.cpp ****     printString("ERROR: given object not allocated in given objAlloc\n");
  66:src/kObjectAllocatorTest.cpp ****     return nullptr;
  67:src/kObjectAllocatorTest.cpp **** }
 452              		.loc 2 67 1
 453 01e4 67800000 		ret
 454              	.LVL49:
 455              	.L30:
  61:src/kObjectAllocatorTest.cpp ****     for (size_t i = 0; i < objAlloc->numberOfAllocations; ++i)
 456              		.loc 2 61 94
GAS LISTING /tmp/cciR7THS.s 			page 12


 457 01e8 130101FF 		addi	sp,sp,-16
 458              		.cfi_def_cfa_offset 16
 459 01ec 23341100 		sd	ra,8(sp)
 460 01f0 23308100 		sd	s0,0(sp)
 461              		.cfi_offset 1, -8
 462              		.cfi_offset 8, -16
 463 01f4 13040101 		addi	s0,sp,16
 464              		.cfi_def_cfa 8, 0
  65:src/kObjectAllocatorTest.cpp ****     printString("ERROR: given object not allocated in given objAlloc\n");
 465              		.loc 2 65 5 is_stmt 1
  65:src/kObjectAllocatorTest.cpp ****     printString("ERROR: given object not allocated in given objAlloc\n");
 466              		.loc 2 65 16 is_stmt 0
 467 01f8 17050000 		lla	a0,.LC2
 467      13050500 
 468              	.LVL50:
 469 0200 97000000 		call	_Z11printStringPKc@plt
 469      E7800000 
 470              	.LVL51:
  66:src/kObjectAllocatorTest.cpp **** }
 471              		.loc 2 66 5 is_stmt 1
  66:src/kObjectAllocatorTest.cpp **** }
 472              		.loc 2 66 12 is_stmt 0
 473 0208 13050000 		li	a0,0
 474              		.loc 2 67 1
 475 020c 83308100 		ld	ra,8(sp)
 476              		.cfi_restore 1
 477 0210 03340100 		ld	s0,0(sp)
 478              		.cfi_restore 8
 479              		.cfi_def_cfa 2, 16
 480 0214 13010101 		addi	sp,sp,16
 481              		.cfi_def_cfa_offset 0
 482 0218 67800000 		jr	ra
 483              		.cfi_endproc
 484              	.LFE26:
 486              		.align	2
 487              		.globl	_ZN20KObjectAllocatorTest5test0Em
 489              	_ZN20KObjectAllocatorTest5test0Em:
 490              	.LFB27:
  68:src/kObjectAllocatorTest.cpp **** 
  69:src/kObjectAllocatorTest.cpp **** bool KObjectAllocatorTest::test0(size_t size) {
 491              		.loc 2 69 47 is_stmt 1
 492              		.cfi_startproc
 493              		.cfi_personality 0x9b,DW.ref.__gxx_personality_v0
 494              		.cfi_lsda 0x1b,.LLSDA27
 495              	.LVL52:
 496 021c 130101F5 		addi	sp,sp,-176
 497              		.cfi_def_cfa_offset 176
 498 0220 2334110A 		sd	ra,168(sp)
 499 0224 2330810A 		sd	s0,160(sp)
 500 0228 233C9108 		sd	s1,152(sp)
 501 022c 23382109 		sd	s2,144(sp)
 502 0230 23343109 		sd	s3,136(sp)
 503 0234 23304109 		sd	s4,128(sp)
 504 0238 233C5107 		sd	s5,120(sp)
 505 023c 23386107 		sd	s6,112(sp)
 506 0240 23347107 		sd	s7,104(sp)
 507              		.cfi_offset 1, -8
GAS LISTING /tmp/cciR7THS.s 			page 13


 508              		.cfi_offset 8, -16
 509              		.cfi_offset 9, -24
 510              		.cfi_offset 18, -32
 511              		.cfi_offset 19, -40
 512              		.cfi_offset 20, -48
 513              		.cfi_offset 21, -56
 514              		.cfi_offset 22, -64
 515              		.cfi_offset 23, -72
 516 0244 1304010B 		addi	s0,sp,176
 517              		.cfi_def_cfa 8, 0
 518 0248 93090500 		mv	s3,a0
 519 024c 13890500 		mv	s2,a1
  70:src/kObjectAllocatorTest.cpp ****     KObjectAllocator* objAlloc = new KObjectAllocator(size, 9);
 520              		.loc 2 70 5
 521              	.LVL53:
 522              	.LBB109:
 523              	.LBB110:
  65:src/../h/kObjectAllocator.hpp ****     }
 524              		.loc 1 65 9
 525              	.LEHB0:
  65:src/../h/kObjectAllocator.hpp ****     }
 526              		.loc 1 65 55 is_stmt 0
 527 0250 97000000 		call	_ZN15MemoryAllocator8instanceEv@plt
 527      E7800000 
 528              	.LVL54:
 529 0258 93050004 		li	a1,64
 530 025c 97000000 		call	_ZN15MemoryAllocator10kmem_allocEm@plt
 530      E7800000 
 531              	.LVL55:
 532              	.LEHE0:
 533 0264 93040500 		mv	s1,a0
 534              	.LVL56:
 535              	.LBE110:
 536              	.LBE109:
 537              	.LBB111:
 538              	.LBB112:
  51:src/../h/kObjectAllocator.hpp ****         bitVectors = (uint8**) MemoryAllocator::instance()->kmem_alloc(numberOfAllocations * sizeof
 539              		.loc 1 51 120
 540 0268 93079000 		li	a5,9
 541 026c 2330F500 		sd	a5,0(a0)
 542 0270 2334F500 		sd	a5,8(a0)
 543 0274 233C2501 		sd	s2,24(a0)
 544 0278 93071000 		li	a5,1
 545 027c 2338F502 		sd	a5,48(a0)
 546 0280 233C0502 		sd	zero,56(a0)
 547              	.LBB113:
  52:src/../h/kObjectAllocator.hpp ****         objectVectors = (uint8**) MemoryAllocator::instance()->kmem_alloc(numberOfAllocations * siz
 548              		.loc 1 52 9 is_stmt 1
 549              	.LEHB1:
  52:src/../h/kObjectAllocator.hpp ****         objectVectors = (uint8**) MemoryAllocator::instance()->kmem_alloc(numberOfAllocations * siz
 550              		.loc 1 52 71 is_stmt 0
 551 0284 97000000 		call	_ZN15MemoryAllocator8instanceEv@plt
 551      E7800000 
 552              	.LVL57:
  52:src/../h/kObjectAllocator.hpp ****         objectVectors = (uint8**) MemoryAllocator::instance()->kmem_alloc(numberOfAllocations * siz
 553              		.loc 1 52 72
 554 028c 83B50403 		ld	a1,48(s1)
GAS LISTING /tmp/cciR7THS.s 			page 14


  52:src/../h/kObjectAllocator.hpp ****         objectVectors = (uint8**) MemoryAllocator::instance()->kmem_alloc(numberOfAllocations * siz
 555              		.loc 1 52 71
 556 0290 93953500 		slli	a1,a1,3
 557 0294 97000000 		call	_ZN15MemoryAllocator10kmem_allocEm@plt
 557      E7800000 
 558              	.LVL58:
  52:src/../h/kObjectAllocator.hpp ****         objectVectors = (uint8**) MemoryAllocator::instance()->kmem_alloc(numberOfAllocations * siz
 559              		.loc 1 52 20
 560 029c 23B4A402 		sd	a0,40(s1)
  53:src/../h/kObjectAllocator.hpp ****         initialNumberOfObjects = numberOfObjects = numberOfObjects / 8 * 8 + 8 * (numberOfObjects /
 561              		.loc 1 53 9 is_stmt 1
  53:src/../h/kObjectAllocator.hpp ****         initialNumberOfObjects = numberOfObjects = numberOfObjects / 8 * 8 + 8 * (numberOfObjects /
 562              		.loc 1 53 74 is_stmt 0
 563 02a0 97000000 		call	_ZN15MemoryAllocator8instanceEv@plt
 563      E7800000 
 564              	.LVL59:
  53:src/../h/kObjectAllocator.hpp ****         initialNumberOfObjects = numberOfObjects = numberOfObjects / 8 * 8 + 8 * (numberOfObjects /
 565              		.loc 1 53 75
 566 02a8 83B50403 		ld	a1,48(s1)
  53:src/../h/kObjectAllocator.hpp ****         initialNumberOfObjects = numberOfObjects = numberOfObjects / 8 * 8 + 8 * (numberOfObjects /
 567              		.loc 1 53 74
 568 02ac 93953500 		slli	a1,a1,3
 569 02b0 97000000 		call	_ZN15MemoryAllocator10kmem_allocEm@plt
 569      E7800000 
 570              	.LVL60:
  53:src/../h/kObjectAllocator.hpp ****         initialNumberOfObjects = numberOfObjects = numberOfObjects / 8 * 8 + 8 * (numberOfObjects /
 571              		.loc 1 53 23
 572 02b8 23B0A402 		sd	a0,32(s1)
  54:src/../h/kObjectAllocator.hpp ****         // one bit for each object which indicates whether memory
 573              		.loc 1 54 9 is_stmt 1
  54:src/../h/kObjectAllocator.hpp ****         // one bit for each object which indicates whether memory
 574              		.loc 1 54 52 is_stmt 0
 575 02bc 03B78400 		ld	a4,8(s1)
  54:src/../h/kObjectAllocator.hpp ****         // one bit for each object which indicates whether memory
 576              		.loc 1 54 72
 577 02c0 937787FF 		andi	a5,a4,-8
  54:src/../h/kObjectAllocator.hpp ****         // one bit for each object which indicates whether memory
 578              		.loc 1 54 80
 579 02c4 6304F702 		beq	a4,a5,.L93
 580 02c8 13078000 		li	a4,8
 581              	.L38:
  54:src/../h/kObjectAllocator.hpp ****         // one bit for each object which indicates whether memory
 582              		.loc 1 54 76
 583 02cc B387E700 		add	a5,a5,a4
  54:src/../h/kObjectAllocator.hpp ****         // one bit for each object which indicates whether memory
 584              		.loc 1 54 50
 585 02d0 23B4F400 		sd	a5,8(s1)
  54:src/../h/kObjectAllocator.hpp ****         // one bit for each object which indicates whether memory
 586              		.loc 1 54 32
 587 02d4 23B0F400 		sd	a5,0(s1)
  57:src/../h/kObjectAllocator.hpp ****         bitVectors[0] = (uint8*) MemoryAllocator::instance()->kmem_alloc(
 588              		.loc 1 57 9 is_stmt 1
  57:src/../h/kObjectAllocator.hpp ****         bitVectors[0] = (uint8*) MemoryAllocator::instance()->kmem_alloc(
 589              		.loc 1 57 45 is_stmt 0
 590 02d8 93D73700 		srli	a5,a5,3
  57:src/../h/kObjectAllocator.hpp ****         bitVectors[0] = (uint8*) MemoryAllocator::instance()->kmem_alloc(
 591              		.loc 1 57 27
GAS LISTING /tmp/cciR7THS.s 			page 15


 592 02dc 23B8F400 		sd	a5,16(s1)
  58:src/../h/kObjectAllocator.hpp ****                 memorySizeForBits + initialNumberOfObjects * objectSize
 593              		.loc 1 58 9 is_stmt 1
  58:src/../h/kObjectAllocator.hpp ****                 memorySizeForBits + initialNumberOfObjects * objectSize
 594              		.loc 1 58 73 is_stmt 0
 595 02e0 97000000 		call	_ZN15MemoryAllocator8instanceEv@plt
 595      E7800000 
 596              	.LVL61:
 597 02e8 6F00C000 		j	.L101
 598              	.L93:
  54:src/../h/kObjectAllocator.hpp ****         // one bit for each object which indicates whether memory
 599              		.loc 1 54 80
 600 02ec 13070000 		li	a4,0
 601 02f0 6FF0DFFD 		j	.L38
 602              	.L101:
  59:src/../h/kObjectAllocator.hpp ****         );
 603              		.loc 1 59 17
 604 02f4 83B50401 		ld	a1,16(s1)
  59:src/../h/kObjectAllocator.hpp ****         );
 605              		.loc 1 59 37
 606 02f8 83B70400 		ld	a5,0(s1)
  59:src/../h/kObjectAllocator.hpp ****         );
 607              		.loc 1 59 60
 608 02fc B307F902 		mul	a5,s2,a5
  58:src/../h/kObjectAllocator.hpp ****                 memorySizeForBits + initialNumberOfObjects * objectSize
 609              		.loc 1 58 9
 610 0300 03BA8402 		ld	s4,40(s1)
  58:src/../h/kObjectAllocator.hpp ****                 memorySizeForBits + initialNumberOfObjects * objectSize
 611              		.loc 1 58 73
 612 0304 B385F500 		add	a1,a1,a5
 613 0308 97000000 		call	_ZN15MemoryAllocator10kmem_allocEm@plt
 613      E7800000 
 614              	.LVL62:
 615              	.LEHE1:
  58:src/../h/kObjectAllocator.hpp ****                 memorySizeForBits + initialNumberOfObjects * objectSize
 616              		.loc 1 58 23
 617 0310 2330AA00 		sd	a0,0(s4)
  61:src/../h/kObjectAllocator.hpp ****         for (size_t i = 0; i < memorySizeForBits; bitVectors[0][i++] = 0);
 618              		.loc 1 61 9 is_stmt 1
  61:src/../h/kObjectAllocator.hpp ****         for (size_t i = 0; i < memorySizeForBits; bitVectors[0][i++] = 0);
 619              		.loc 1 61 28 is_stmt 0
 620 0314 83B78402 		ld	a5,40(s1)
  61:src/../h/kObjectAllocator.hpp ****         for (size_t i = 0; i < memorySizeForBits; bitVectors[0][i++] = 0);
 621              		.loc 1 61 40
 622 0318 83B70700 		ld	a5,0(a5)
  61:src/../h/kObjectAllocator.hpp ****         for (size_t i = 0; i < memorySizeForBits; bitVectors[0][i++] = 0);
 623              		.loc 1 61 44
 624 031c 83B60401 		ld	a3,16(s1)
  61:src/../h/kObjectAllocator.hpp ****         for (size_t i = 0; i < memorySizeForBits; bitVectors[0][i++] = 0);
 625              		.loc 1 61 9
 626 0320 03B70402 		ld	a4,32(s1)
  61:src/../h/kObjectAllocator.hpp ****         for (size_t i = 0; i < memorySizeForBits; bitVectors[0][i++] = 0);
 627              		.loc 1 61 42
 628 0324 B387D700 		add	a5,a5,a3
  61:src/../h/kObjectAllocator.hpp ****         for (size_t i = 0; i < memorySizeForBits; bitVectors[0][i++] = 0);
 629              		.loc 1 61 26
 630 0328 2330F700 		sd	a5,0(a4)
GAS LISTING /tmp/cciR7THS.s 			page 16


  62:src/../h/kObjectAllocator.hpp ****     }
 631              		.loc 1 62 9 is_stmt 1
 632              	.LVL63:
 633              	.LBB114:
  62:src/../h/kObjectAllocator.hpp ****     }
 634              		.loc 1 62 21 is_stmt 0
 635 032c 93070000 		li	a5,0
 636              	.LVL64:
 637              	.L40:
  62:src/../h/kObjectAllocator.hpp ****     }
 638              		.loc 1 62 30 is_stmt 1
  62:src/../h/kObjectAllocator.hpp ****     }
 639              		.loc 1 62 32 is_stmt 0
 640 0330 03B70401 		ld	a4,16(s1)
  62:src/../h/kObjectAllocator.hpp ****     }
 641              		.loc 1 62 30
 642 0334 63FEE700 		bleu	a4,a5,.L39
  62:src/../h/kObjectAllocator.hpp ****     }
 643              		.loc 1 62 9 is_stmt 1
  62:src/../h/kObjectAllocator.hpp ****     }
 644              		.loc 1 62 51 is_stmt 0
 645 0338 03B78402 		ld	a4,40(s1)
  62:src/../h/kObjectAllocator.hpp ****     }
 646              		.loc 1 62 63
 647 033c 03370700 		ld	a4,0(a4)
 648              	.LVL65:
  62:src/../h/kObjectAllocator.hpp ****     }
 649              		.loc 1 62 68
 650 0340 3307F700 		add	a4,a4,a5
  62:src/../h/kObjectAllocator.hpp ****     }
 651              		.loc 1 62 70
 652 0344 23000700 		sb	zero,0(a4)
  62:src/../h/kObjectAllocator.hpp ****     }
 653              		.loc 1 62 66
 654 0348 93871700 		addi	a5,a5,1
 655              	.LVL66:
  62:src/../h/kObjectAllocator.hpp ****     }
 656              		.loc 1 62 9
 657 034c 6FF05FFE 		j	.L40
 658              	.L39:
 659              	.LVL67:
 660              	.LBE114:
 661              	.LBE113:
 662              	.LBE112:
 663              	.LBE111:
  71:src/kObjectAllocatorTest.cpp ****     if (objAlloc->getNumberOfObjects() != 16) { delete objAlloc; return false; }
 664              		.loc 2 71 5 is_stmt 1 discriminator 3
 665              	.LBB115:
 666              	.LBB116:
  74:src/../h/kObjectAllocator.hpp ****     void printInternalMemory();
  75:src/../h/kObjectAllocator.hpp ****     size_t getObjectSize() { return objectSize; }
  76:src/../h/kObjectAllocator.hpp ****     size_t getInitialNumberOfObjects() { return initialNumberOfObjects; }
  77:src/../h/kObjectAllocator.hpp ****     size_t getNumberOfObjects() { return numberOfObjects; }
 667              		.loc 1 77 35 discriminator 3
 668              		.loc 1 77 42 is_stmt 0 discriminator 3
 669 0350 03B78400 		ld	a4,8(s1)
 670              	.LVL68:
GAS LISTING /tmp/cciR7THS.s 			page 17


 671              	.LBE116:
 672              	.LBE115:
 673              		.loc 2 71 5 discriminator 3
 674 0354 93070001 		li	a5,16
 675 0358 6306F70A 		beq	a4,a5,.L41
 676              		.loc 2 71 49 is_stmt 1 discriminator 1
 677              		.loc 2 71 64 is_stmt 0 discriminator 1
 678 035c 638A0406 		beqz	s1,.L42
 679              	.LBB117:
 680              	.LBB118:
 681              	.LBB119:
  68:src/../h/kObjectAllocator.hpp ****             MemoryAllocator::instance()->kmem_free(((KObjectAllocator*) p)->bitVectors[i]);
 682              		.loc 1 68 21
 683 0360 13090000 		li	s2,0
 684              	.LVL69:
 685 0364 6F008002 		j	.L44
 686              	.LVL70:
 687              	.L102:
  69:src/../h/kObjectAllocator.hpp ****         MemoryAllocator::instance()->kmem_free(((KObjectAllocator*) p)->bitVectors);
 688              		.loc 1 69 13 is_stmt 1
 689              	.LEHB2:
  69:src/../h/kObjectAllocator.hpp ****         MemoryAllocator::instance()->kmem_free(((KObjectAllocator*) p)->bitVectors);
 690              		.loc 1 69 51 is_stmt 0
 691 0368 97000000 		call	_ZN15MemoryAllocator8instanceEv@plt
 691      E7800000 
 692              	.LVL71:
  69:src/../h/kObjectAllocator.hpp ****         MemoryAllocator::instance()->kmem_free(((KObjectAllocator*) p)->bitVectors);
 693              		.loc 1 69 77
 694 0370 83B78402 		ld	a5,40(s1)
  69:src/../h/kObjectAllocator.hpp ****         MemoryAllocator::instance()->kmem_free(((KObjectAllocator*) p)->bitVectors);
 695              		.loc 1 69 89
 696 0374 13173900 		slli	a4,s2,3
 697 0378 B387E700 		add	a5,a5,a4
  69:src/../h/kObjectAllocator.hpp ****         MemoryAllocator::instance()->kmem_free(((KObjectAllocator*) p)->bitVectors);
 698              		.loc 1 69 51
 699 037c 83B50700 		ld	a1,0(a5)
 700 0380 97000000 		call	_ZN15MemoryAllocator9kmem_freeEPv@plt
 700      E7800000 
 701              	.LVL72:
  68:src/../h/kObjectAllocator.hpp ****             MemoryAllocator::instance()->kmem_free(((KObjectAllocator*) p)->bitVectors[i]);
 702              		.loc 1 68 9 is_stmt 1
 703 0388 13091900 		addi	s2,s2,1
 704              	.LVL73:
 705              	.L44:
  68:src/../h/kObjectAllocator.hpp ****             MemoryAllocator::instance()->kmem_free(((KObjectAllocator*) p)->bitVectors[i]);
 706              		.loc 1 68 30
  68:src/../h/kObjectAllocator.hpp ****             MemoryAllocator::instance()->kmem_free(((KObjectAllocator*) p)->bitVectors[i]);
 707              		.loc 1 68 57 is_stmt 0
 708 038c 83B70403 		ld	a5,48(s1)
  68:src/../h/kObjectAllocator.hpp ****             MemoryAllocator::instance()->kmem_free(((KObjectAllocator*) p)->bitVectors[i]);
 709              		.loc 1 68 30
 710 0390 E36CF9FC 		bgtu	a5,s2,.L102
 711              	.LBE119:
  70:src/../h/kObjectAllocator.hpp ****         MemoryAllocator::instance()->kmem_free(((KObjectAllocator*) p)->objectVectors);
 712              		.loc 1 70 9 is_stmt 1
  70:src/../h/kObjectAllocator.hpp ****         MemoryAllocator::instance()->kmem_free(((KObjectAllocator*) p)->objectVectors);
 713              		.loc 1 70 47 is_stmt 0
GAS LISTING /tmp/cciR7THS.s 			page 18


 714 0394 97000000 		call	_ZN15MemoryAllocator8instanceEv@plt
 714      E7800000 
 715              	.LVL74:
 716 039c 83B58402 		ld	a1,40(s1)
 717 03a0 97000000 		call	_ZN15MemoryAllocator9kmem_freeEPv@plt
 717      E7800000 
 718              	.LVL75:
  71:src/../h/kObjectAllocator.hpp ****         MemoryAllocator::instance()->kmem_free(p);
 719              		.loc 1 71 9 is_stmt 1
  71:src/../h/kObjectAllocator.hpp ****         MemoryAllocator::instance()->kmem_free(p);
 720              		.loc 1 71 47 is_stmt 0
 721 03a8 97000000 		call	_ZN15MemoryAllocator8instanceEv@plt
 721      E7800000 
 722              	.LVL76:
 723 03b0 83B50402 		ld	a1,32(s1)
 724 03b4 97000000 		call	_ZN15MemoryAllocator9kmem_freeEPv@plt
 724      E7800000 
 725              	.LVL77:
  72:src/../h/kObjectAllocator.hpp ****     }
 726              		.loc 1 72 9 is_stmt 1
  72:src/../h/kObjectAllocator.hpp ****     }
 727              		.loc 1 72 47 is_stmt 0
 728 03bc 97000000 		call	_ZN15MemoryAllocator8instanceEv@plt
 728      E7800000 
 729              	.LVL78:
 730 03c4 93850400 		mv	a1,s1
 731 03c8 97000000 		call	_ZN15MemoryAllocator9kmem_freeEPv@plt
 731      E7800000 
 732              	.LVL79:
 733              	.L42:
 734              	.LBE118:
 735              	.LBE117:
 736              		.loc 2 71 66 is_stmt 1 discriminator 3
 737              		.loc 2 71 73 is_stmt 0 discriminator 3
 738 03d0 130A0000 		li	s4,0
 739              	.L99:
  72:src/kObjectAllocatorTest.cpp ****     if (objAlloc->getMemorySizeForBits() != 2) { delete objAlloc; return false; }
  73:src/kObjectAllocatorTest.cpp ****     if (objAlloc->getObjectSize() != size) { delete objAlloc; return false; }
  74:src/kObjectAllocatorTest.cpp ****     void* objArr[10]; for (size_t i = 0; i < 10; objArr[i++] = objAlloc->allocateNewObject());
  75:src/kObjectAllocatorTest.cpp ****     size_t byte = 0; size_t bit = 7;
  76:src/kObjectAllocatorTest.cpp ****     for (size_t i = 0; i < 10; ++i) {
  77:src/kObjectAllocatorTest.cpp ****         if (objArr[i] != getObjectAt(byte, bit, objAlloc)) { delete objAlloc; return false; }
  78:src/kObjectAllocatorTest.cpp ****         size_t objByte = getByteOfObject(objArr[i], objAlloc);
  79:src/kObjectAllocatorTest.cpp ****         size_t objBit = getBitOfObject(objArr[i], objAlloc);
  80:src/kObjectAllocatorTest.cpp ****         if (objByte != byte || objBit != bit) { delete objAlloc; return false; }
  81:src/kObjectAllocatorTest.cpp ****         if (!getValueOfBitAt(byte, bit, objAlloc)) { delete objAlloc; return false; }
  82:src/kObjectAllocatorTest.cpp ****         if (bit == 0) { ++byte; bit = 8; } --bit;
  83:src/kObjectAllocatorTest.cpp ****     }
  84:src/kObjectAllocatorTest.cpp ****     for (size_t i = 0; i < 6; ++i) {
  85:src/kObjectAllocatorTest.cpp ****         if (getValueOfBitAt(byte, bit, objAlloc)) { delete objAlloc; return false; }
  86:src/kObjectAllocatorTest.cpp ****         if (bit == 0) { ++byte; bit = 8; } --bit;
  87:src/kObjectAllocatorTest.cpp ****     }
  88:src/kObjectAllocatorTest.cpp ****     objAlloc->freeObject(objArr[4]);
  89:src/kObjectAllocatorTest.cpp ****     objAlloc->freeObject(objArr[7]);
  90:src/kObjectAllocatorTest.cpp ****     objAlloc->freeObject(objArr[8]);
  91:src/kObjectAllocatorTest.cpp ****     objArr[4] = objAlloc->allocateNewObject();
  92:src/kObjectAllocatorTest.cpp ****     if (objArr[4] != getObjectAt(1, 7, objAlloc)) { delete objAlloc; return false; }
GAS LISTING /tmp/cciR7THS.s 			page 19


  93:src/kObjectAllocatorTest.cpp ****     byte = getByteOfObject(objArr[4], objAlloc);
  94:src/kObjectAllocatorTest.cpp ****     bit = getBitOfObject(objArr[4], objAlloc);
  95:src/kObjectAllocatorTest.cpp ****     if (byte != 1 || bit != 7) { delete objAlloc; return false; }
  96:src/kObjectAllocatorTest.cpp ****     bool expectedBitValues[16] = {
  97:src/kObjectAllocatorTest.cpp ****             true, true, true, true, false, true, true, false,
  98:src/kObjectAllocatorTest.cpp ****             true, true, false, false, false, false, false, false
  99:src/kObjectAllocatorTest.cpp ****     };
 100:src/kObjectAllocatorTest.cpp ****     byte = 0; bit = 7;
 101:src/kObjectAllocatorTest.cpp ****     for (size_t i = 0; i < 16; ++i) {
 102:src/kObjectAllocatorTest.cpp ****         if (expectedBitValues[i] != getValueOfBitAt(byte, bit, objAlloc))
 103:src/kObjectAllocatorTest.cpp ****             { delete objAlloc; return false; } if (bit == 0) { ++byte; bit = 8; } --bit;
 104:src/kObjectAllocatorTest.cpp ****     }
 105:src/kObjectAllocatorTest.cpp ****     delete objAlloc;
 106:src/kObjectAllocatorTest.cpp ****     return true;
 107:src/kObjectAllocatorTest.cpp **** }
 740              		.loc 2 107 1
 741 03d4 13050A00 		mv	a0,s4
 742 03d8 8330810A 		ld	ra,168(sp)
 743              		.cfi_remember_state
 744              		.cfi_restore 1
 745 03dc 0334010A 		ld	s0,160(sp)
 746              		.cfi_restore 8
 747              		.cfi_def_cfa 2, 176
 748 03e0 83348109 		ld	s1,152(sp)
 749              		.cfi_restore 9
 750              	.LVL80:
 751 03e4 03390109 		ld	s2,144(sp)
 752              		.cfi_restore 18
 753 03e8 83398108 		ld	s3,136(sp)
 754              		.cfi_restore 19
 755              	.LVL81:
 756 03ec 033A0108 		ld	s4,128(sp)
 757              		.cfi_restore 20
 758 03f0 833A8107 		ld	s5,120(sp)
 759              		.cfi_restore 21
 760 03f4 033B0107 		ld	s6,112(sp)
 761              		.cfi_restore 22
 762 03f8 833B8106 		ld	s7,104(sp)
 763              		.cfi_restore 23
 764 03fc 1301010B 		addi	sp,sp,176
 765              		.cfi_def_cfa_offset 0
 766 0400 67800000 		jr	ra
 767              	.LVL82:
 768              	.L41:
 769              		.cfi_restore_state
  72:src/kObjectAllocatorTest.cpp ****     if (objAlloc->getMemorySizeForBits() != 2) { delete objAlloc; return false; }
 770              		.loc 2 72 5 is_stmt 1
 771              	.LBB120:
 772              	.LBB121:
  78:src/../h/kObjectAllocator.hpp ****     size_t getMemorySizeForBits() { return memorySizeForBits; }
 773              		.loc 1 78 37
 774              		.loc 1 78 44 is_stmt 0
 775 0404 03B70401 		ld	a4,16(s1)
 776              	.LVL83:
 777              	.LBE121:
 778              	.LBE120:
  72:src/kObjectAllocatorTest.cpp ****     if (objAlloc->getMemorySizeForBits() != 2) { delete objAlloc; return false; }
GAS LISTING /tmp/cciR7THS.s 			page 20


 779              		.loc 2 72 5
 780 0408 93072000 		li	a5,2
 781 040c 6300F708 		beq	a4,a5,.L46
  72:src/kObjectAllocatorTest.cpp ****     if (objAlloc->getMemorySizeForBits() != 2) { delete objAlloc; return false; }
 782              		.loc 2 72 50 is_stmt 1 discriminator 1
  72:src/kObjectAllocatorTest.cpp ****     if (objAlloc->getMemorySizeForBits() != 2) { delete objAlloc; return false; }
 783              		.loc 2 72 65 is_stmt 0 discriminator 1
 784 0410 638A0406 		beqz	s1,.L47
 785              	.LBB122:
 786              	.LBB123:
 787              	.LBB124:
  68:src/../h/kObjectAllocator.hpp ****             MemoryAllocator::instance()->kmem_free(((KObjectAllocator*) p)->bitVectors[i]);
 788              		.loc 1 68 21
 789 0414 13090000 		li	s2,0
 790              	.LVL84:
 791 0418 6F008002 		j	.L49
 792              	.LVL85:
 793              	.L103:
  69:src/../h/kObjectAllocator.hpp ****         MemoryAllocator::instance()->kmem_free(((KObjectAllocator*) p)->bitVectors);
 794              		.loc 1 69 13 is_stmt 1
  69:src/../h/kObjectAllocator.hpp ****         MemoryAllocator::instance()->kmem_free(((KObjectAllocator*) p)->bitVectors);
 795              		.loc 1 69 51 is_stmt 0
 796 041c 97000000 		call	_ZN15MemoryAllocator8instanceEv@plt
 796      E7800000 
 797              	.LVL86:
  69:src/../h/kObjectAllocator.hpp ****         MemoryAllocator::instance()->kmem_free(((KObjectAllocator*) p)->bitVectors);
 798              		.loc 1 69 77
 799 0424 83B78402 		ld	a5,40(s1)
  69:src/../h/kObjectAllocator.hpp ****         MemoryAllocator::instance()->kmem_free(((KObjectAllocator*) p)->bitVectors);
 800              		.loc 1 69 89
 801 0428 13173900 		slli	a4,s2,3
 802 042c B387E700 		add	a5,a5,a4
  69:src/../h/kObjectAllocator.hpp ****         MemoryAllocator::instance()->kmem_free(((KObjectAllocator*) p)->bitVectors);
 803              		.loc 1 69 51
 804 0430 83B50700 		ld	a1,0(a5)
 805 0434 97000000 		call	_ZN15MemoryAllocator9kmem_freeEPv@plt
 805      E7800000 
 806              	.LVL87:
  68:src/../h/kObjectAllocator.hpp ****             MemoryAllocator::instance()->kmem_free(((KObjectAllocator*) p)->bitVectors[i]);
 807              		.loc 1 68 9 is_stmt 1
 808 043c 13091900 		addi	s2,s2,1
 809              	.LVL88:
 810              	.L49:
  68:src/../h/kObjectAllocator.hpp ****             MemoryAllocator::instance()->kmem_free(((KObjectAllocator*) p)->bitVectors[i]);
 811              		.loc 1 68 30
  68:src/../h/kObjectAllocator.hpp ****             MemoryAllocator::instance()->kmem_free(((KObjectAllocator*) p)->bitVectors[i]);
 812              		.loc 1 68 57 is_stmt 0
 813 0440 83B70403 		ld	a5,48(s1)
  68:src/../h/kObjectAllocator.hpp ****             MemoryAllocator::instance()->kmem_free(((KObjectAllocator*) p)->bitVectors[i]);
 814              		.loc 1 68 30
 815 0444 E36CF9FC 		bgtu	a5,s2,.L103
 816              	.LBE124:
  70:src/../h/kObjectAllocator.hpp ****         MemoryAllocator::instance()->kmem_free(((KObjectAllocator*) p)->objectVectors);
 817              		.loc 1 70 9 is_stmt 1
  70:src/../h/kObjectAllocator.hpp ****         MemoryAllocator::instance()->kmem_free(((KObjectAllocator*) p)->objectVectors);
 818              		.loc 1 70 47 is_stmt 0
 819 0448 97000000 		call	_ZN15MemoryAllocator8instanceEv@plt
GAS LISTING /tmp/cciR7THS.s 			page 21


 819      E7800000 
 820              	.LVL89:
 821 0450 83B58402 		ld	a1,40(s1)
 822 0454 97000000 		call	_ZN15MemoryAllocator9kmem_freeEPv@plt
 822      E7800000 
 823              	.LVL90:
  71:src/../h/kObjectAllocator.hpp ****         MemoryAllocator::instance()->kmem_free(p);
 824              		.loc 1 71 9 is_stmt 1
  71:src/../h/kObjectAllocator.hpp ****         MemoryAllocator::instance()->kmem_free(p);
 825              		.loc 1 71 47 is_stmt 0
 826 045c 97000000 		call	_ZN15MemoryAllocator8instanceEv@plt
 826      E7800000 
 827              	.LVL91:
 828 0464 83B50402 		ld	a1,32(s1)
 829 0468 97000000 		call	_ZN15MemoryAllocator9kmem_freeEPv@plt
 829      E7800000 
 830              	.LVL92:
  72:src/../h/kObjectAllocator.hpp ****     }
 831              		.loc 1 72 9 is_stmt 1
  72:src/../h/kObjectAllocator.hpp ****     }
 832              		.loc 1 72 47 is_stmt 0
 833 0470 97000000 		call	_ZN15MemoryAllocator8instanceEv@plt
 833      E7800000 
 834              	.LVL93:
 835 0478 93850400 		mv	a1,s1
 836 047c 97000000 		call	_ZN15MemoryAllocator9kmem_freeEPv@plt
 836      E7800000 
 837              	.LVL94:
 838              	.L47:
 839              	.LBE123:
 840              	.LBE122:
  72:src/kObjectAllocatorTest.cpp ****     if (objAlloc->getObjectSize() != size) { delete objAlloc; return false; }
 841              		.loc 2 72 67 is_stmt 1 discriminator 3
  72:src/kObjectAllocatorTest.cpp ****     if (objAlloc->getObjectSize() != size) { delete objAlloc; return false; }
 842              		.loc 2 72 74 is_stmt 0 discriminator 3
 843 0484 130A0000 		li	s4,0
 844 0488 6FF0DFF4 		j	.L99
 845              	.LVL95:
 846              	.L46:
  73:src/kObjectAllocatorTest.cpp ****     void* objArr[10]; for (size_t i = 0; i < 10; objArr[i++] = objAlloc->allocateNewObject());
 847              		.loc 2 73 5 is_stmt 1
 848              	.LBB125:
 849              	.LBB126:
  75:src/../h/kObjectAllocator.hpp ****     size_t getInitialNumberOfObjects() { return initialNumberOfObjects; }
 850              		.loc 1 75 30
  75:src/../h/kObjectAllocator.hpp ****     size_t getInitialNumberOfObjects() { return initialNumberOfObjects; }
 851              		.loc 1 75 37 is_stmt 0
 852 048c 83B78401 		ld	a5,24(s1)
 853              	.LVL96:
 854              	.LBE126:
 855              	.LBE125:
  73:src/kObjectAllocatorTest.cpp ****     void* objArr[10]; for (size_t i = 0; i < 10; objArr[i++] = objAlloc->allocateNewObject());
 856              		.loc 2 73 5
 857 0490 6300F908 		beq	s2,a5,.L94
  73:src/kObjectAllocatorTest.cpp ****     void* objArr[10]; for (size_t i = 0; i < 10; objArr[i++] = objAlloc->allocateNewObject());
 858              		.loc 2 73 46 is_stmt 1 discriminator 1
  73:src/kObjectAllocatorTest.cpp ****     void* objArr[10]; for (size_t i = 0; i < 10; objArr[i++] = objAlloc->allocateNewObject());
GAS LISTING /tmp/cciR7THS.s 			page 22


 859              		.loc 2 73 61 is_stmt 0 discriminator 1
 860 0494 638A0406 		beqz	s1,.L51
 861              	.LBB127:
 862              	.LBB128:
 863              	.LBB129:
  68:src/../h/kObjectAllocator.hpp ****             MemoryAllocator::instance()->kmem_free(((KObjectAllocator*) p)->bitVectors[i]);
 864              		.loc 1 68 21
 865 0498 13090000 		li	s2,0
 866              	.LVL97:
 867              	.L53:
  68:src/../h/kObjectAllocator.hpp ****             MemoryAllocator::instance()->kmem_free(((KObjectAllocator*) p)->bitVectors[i]);
 868              		.loc 1 68 30 is_stmt 1
  68:src/../h/kObjectAllocator.hpp ****             MemoryAllocator::instance()->kmem_free(((KObjectAllocator*) p)->bitVectors[i]);
 869              		.loc 1 68 57 is_stmt 0
 870 049c 83B70403 		ld	a5,48(s1)
  68:src/../h/kObjectAllocator.hpp ****             MemoryAllocator::instance()->kmem_free(((KObjectAllocator*) p)->bitVectors[i]);
 871              		.loc 1 68 30
 872 04a0 6376F902 		bleu	a5,s2,.L52
  69:src/../h/kObjectAllocator.hpp ****         MemoryAllocator::instance()->kmem_free(((KObjectAllocator*) p)->bitVectors);
 873              		.loc 1 69 13 is_stmt 1
  69:src/../h/kObjectAllocator.hpp ****         MemoryAllocator::instance()->kmem_free(((KObjectAllocator*) p)->bitVectors);
 874              		.loc 1 69 51 is_stmt 0
 875 04a4 97000000 		call	_ZN15MemoryAllocator8instanceEv@plt
 875      E7800000 
 876              	.LVL98:
  69:src/../h/kObjectAllocator.hpp ****         MemoryAllocator::instance()->kmem_free(((KObjectAllocator*) p)->bitVectors);
 877              		.loc 1 69 77
 878 04ac 83B78402 		ld	a5,40(s1)
  69:src/../h/kObjectAllocator.hpp ****         MemoryAllocator::instance()->kmem_free(((KObjectAllocator*) p)->bitVectors);
 879              		.loc 1 69 89
 880 04b0 13173900 		slli	a4,s2,3
 881 04b4 B387E700 		add	a5,a5,a4
  69:src/../h/kObjectAllocator.hpp ****         MemoryAllocator::instance()->kmem_free(((KObjectAllocator*) p)->bitVectors);
 882              		.loc 1 69 51
 883 04b8 83B50700 		ld	a1,0(a5)
 884 04bc 97000000 		call	_ZN15MemoryAllocator9kmem_freeEPv@plt
 884      E7800000 
 885              	.LVL99:
  68:src/../h/kObjectAllocator.hpp ****             MemoryAllocator::instance()->kmem_free(((KObjectAllocator*) p)->bitVectors[i]);
 886              		.loc 1 68 9 is_stmt 1
 887 04c4 13091900 		addi	s2,s2,1
 888              	.LVL100:
 889 04c8 6FF05FFD 		j	.L53
 890              	.L52:
 891              	.LBE129:
  70:src/../h/kObjectAllocator.hpp ****         MemoryAllocator::instance()->kmem_free(((KObjectAllocator*) p)->objectVectors);
 892              		.loc 1 70 9
  70:src/../h/kObjectAllocator.hpp ****         MemoryAllocator::instance()->kmem_free(((KObjectAllocator*) p)->objectVectors);
 893              		.loc 1 70 47 is_stmt 0
 894 04cc 97000000 		call	_ZN15MemoryAllocator8instanceEv@plt
 894      E7800000 
 895              	.LVL101:
 896 04d4 83B58402 		ld	a1,40(s1)
 897 04d8 97000000 		call	_ZN15MemoryAllocator9kmem_freeEPv@plt
 897      E7800000 
 898              	.LVL102:
  71:src/../h/kObjectAllocator.hpp ****         MemoryAllocator::instance()->kmem_free(p);
GAS LISTING /tmp/cciR7THS.s 			page 23


 899              		.loc 1 71 9 is_stmt 1
  71:src/../h/kObjectAllocator.hpp ****         MemoryAllocator::instance()->kmem_free(p);
 900              		.loc 1 71 47 is_stmt 0
 901 04e0 97000000 		call	_ZN15MemoryAllocator8instanceEv@plt
 901      E7800000 
 902              	.LVL103:
 903 04e8 83B50402 		ld	a1,32(s1)
 904 04ec 97000000 		call	_ZN15MemoryAllocator9kmem_freeEPv@plt
 904      E7800000 
 905              	.LVL104:
  72:src/../h/kObjectAllocator.hpp ****     }
 906              		.loc 1 72 9 is_stmt 1
  72:src/../h/kObjectAllocator.hpp ****     }
 907              		.loc 1 72 47 is_stmt 0
 908 04f4 97000000 		call	_ZN15MemoryAllocator8instanceEv@plt
 908      E7800000 
 909              	.LVL105:
 910 04fc 93850400 		mv	a1,s1
 911 0500 97000000 		call	_ZN15MemoryAllocator9kmem_freeEPv@plt
 911      E7800000 
 912              	.LVL106:
 913              	.L51:
 914              	.LBE128:
 915              	.LBE127:
  73:src/kObjectAllocatorTest.cpp ****     void* objArr[10]; for (size_t i = 0; i < 10; objArr[i++] = objAlloc->allocateNewObject());
 916              		.loc 2 73 63 is_stmt 1 discriminator 3
  73:src/kObjectAllocatorTest.cpp ****     void* objArr[10]; for (size_t i = 0; i < 10; objArr[i++] = objAlloc->allocateNewObject());
 917              		.loc 2 73 70 is_stmt 0 discriminator 3
 918 0508 130A0000 		li	s4,0
 919 050c 6FF09FEC 		j	.L99
 920              	.LVL107:
 921              	.L94:
 922              	.LBB130:
  74:src/kObjectAllocatorTest.cpp ****     size_t byte = 0; size_t bit = 7;
 923              		.loc 2 74 35
 924 0510 13090000 		li	s2,0
 925              	.LVL108:
 926              	.L50:
  74:src/kObjectAllocatorTest.cpp ****     size_t byte = 0; size_t bit = 7;
 927              		.loc 2 74 44 is_stmt 1 discriminator 4
 928 0514 93079000 		li	a5,9
 929 0518 63E62703 		bgtu	s2,a5,.L95
  74:src/kObjectAllocatorTest.cpp ****     size_t byte = 0; size_t bit = 7;
 930              		.loc 2 74 23 discriminator 2
  74:src/kObjectAllocatorTest.cpp ****     size_t byte = 0; size_t bit = 7;
 931              		.loc 2 74 58 is_stmt 0 discriminator 2
 932 051c 130A1900 		addi	s4,s2,1
 933              	.LVL109:
  74:src/kObjectAllocatorTest.cpp ****     size_t byte = 0; size_t bit = 7;
 934              		.loc 2 74 91 discriminator 2
 935 0520 13850400 		mv	a0,s1
 936 0524 97000000 		call	_ZN16KObjectAllocator17allocateNewObjectEv@plt
 936      E7800000 
 937              	.LVL110:
  74:src/kObjectAllocatorTest.cpp ****     size_t byte = 0; size_t bit = 7;
 938              		.loc 2 74 62 discriminator 2
 939 052c 13193900 		slli	s2,s2,3
GAS LISTING /tmp/cciR7THS.s 			page 24


 940 0530 930704FB 		addi	a5,s0,-80
 941 0534 33892701 		add	s2,a5,s2
 942 0538 2338A9FA 		sd	a0,-80(s2)
  74:src/kObjectAllocatorTest.cpp ****     size_t byte = 0; size_t bit = 7;
 943              		.loc 2 74 58 discriminator 2
 944 053c 13090A00 		mv	s2,s4
  74:src/kObjectAllocatorTest.cpp ****     size_t byte = 0; size_t bit = 7;
 945              		.loc 2 74 23 discriminator 2
 946 0540 6FF05FFD 		j	.L50
 947              	.LVL111:
 948              	.L95:
 949              	.LBE130:
 950              	.LBB131:
  76:src/kObjectAllocatorTest.cpp ****         if (objArr[i] != getObjectAt(byte, bit, objAlloc)) { delete objAlloc; return false; }
 951              		.loc 2 76 17
 952 0544 130B0000 		li	s6,0
 953              	.LBE131:
  75:src/kObjectAllocatorTest.cpp ****     for (size_t i = 0; i < 10; ++i) {
 954              		.loc 2 75 29
 955 0548 13097000 		li	s2,7
 956              	.LVL112:
  75:src/kObjectAllocatorTest.cpp ****     for (size_t i = 0; i < 10; ++i) {
 957              		.loc 2 75 12
 958 054c 930A0000 		li	s5,0
 959 0550 6F004018 		j	.L54
 960              	.LVL113:
 961              	.L105:
 962              	.LBB143:
 963              	.LBB132:
  77:src/kObjectAllocatorTest.cpp ****         size_t objByte = getByteOfObject(objArr[i], objAlloc);
 964              		.loc 2 77 62 is_stmt 1 discriminator 2
  77:src/kObjectAllocatorTest.cpp ****         size_t objByte = getByteOfObject(objArr[i], objAlloc);
 965              		.loc 2 77 77 is_stmt 0 discriminator 2
 966 0554 638A0406 		beqz	s1,.L57
 967              	.LBB133:
 968              	.LBB134:
 969              	.LBB135:
  68:src/../h/kObjectAllocator.hpp ****             MemoryAllocator::instance()->kmem_free(((KObjectAllocator*) p)->bitVectors[i]);
 970              		.loc 1 68 21
 971 0558 13090000 		li	s2,0
 972              	.LVL114:
 973              	.L59:
  68:src/../h/kObjectAllocator.hpp ****             MemoryAllocator::instance()->kmem_free(((KObjectAllocator*) p)->bitVectors[i]);
 974              		.loc 1 68 30 is_stmt 1
  68:src/../h/kObjectAllocator.hpp ****             MemoryAllocator::instance()->kmem_free(((KObjectAllocator*) p)->bitVectors[i]);
 975              		.loc 1 68 57 is_stmt 0
 976 055c 83B70403 		ld	a5,48(s1)
  68:src/../h/kObjectAllocator.hpp ****             MemoryAllocator::instance()->kmem_free(((KObjectAllocator*) p)->bitVectors[i]);
 977              		.loc 1 68 30
 978 0560 6376F902 		bleu	a5,s2,.L58
  69:src/../h/kObjectAllocator.hpp ****         MemoryAllocator::instance()->kmem_free(((KObjectAllocator*) p)->bitVectors);
 979              		.loc 1 69 13 is_stmt 1
  69:src/../h/kObjectAllocator.hpp ****         MemoryAllocator::instance()->kmem_free(((KObjectAllocator*) p)->bitVectors);
 980              		.loc 1 69 51 is_stmt 0
 981 0564 97000000 		call	_ZN15MemoryAllocator8instanceEv@plt
 981      E7800000 
 982              	.LVL115:
GAS LISTING /tmp/cciR7THS.s 			page 25


  69:src/../h/kObjectAllocator.hpp ****         MemoryAllocator::instance()->kmem_free(((KObjectAllocator*) p)->bitVectors);
 983              		.loc 1 69 77
 984 056c 83B78402 		ld	a5,40(s1)
  69:src/../h/kObjectAllocator.hpp ****         MemoryAllocator::instance()->kmem_free(((KObjectAllocator*) p)->bitVectors);
 985              		.loc 1 69 89
 986 0570 13173900 		slli	a4,s2,3
 987 0574 B387E700 		add	a5,a5,a4
  69:src/../h/kObjectAllocator.hpp ****         MemoryAllocator::instance()->kmem_free(((KObjectAllocator*) p)->bitVectors);
 988              		.loc 1 69 51
 989 0578 83B50700 		ld	a1,0(a5)
 990 057c 97000000 		call	_ZN15MemoryAllocator9kmem_freeEPv@plt
 990      E7800000 
 991              	.LVL116:
  68:src/../h/kObjectAllocator.hpp ****             MemoryAllocator::instance()->kmem_free(((KObjectAllocator*) p)->bitVectors[i]);
 992              		.loc 1 68 9 is_stmt 1
 993 0584 13091900 		addi	s2,s2,1
 994              	.LVL117:
 995 0588 6FF05FFD 		j	.L59
 996              	.L58:
 997              	.LBE135:
  70:src/../h/kObjectAllocator.hpp ****         MemoryAllocator::instance()->kmem_free(((KObjectAllocator*) p)->objectVectors);
 998              		.loc 1 70 9
  70:src/../h/kObjectAllocator.hpp ****         MemoryAllocator::instance()->kmem_free(((KObjectAllocator*) p)->objectVectors);
 999              		.loc 1 70 47 is_stmt 0
 1000 058c 97000000 		call	_ZN15MemoryAllocator8instanceEv@plt
 1000      E7800000 
 1001              	.LVL118:
 1002 0594 83B58402 		ld	a1,40(s1)
 1003 0598 97000000 		call	_ZN15MemoryAllocator9kmem_freeEPv@plt
 1003      E7800000 
 1004              	.LVL119:
  71:src/../h/kObjectAllocator.hpp ****         MemoryAllocator::instance()->kmem_free(p);
 1005              		.loc 1 71 9 is_stmt 1
  71:src/../h/kObjectAllocator.hpp ****         MemoryAllocator::instance()->kmem_free(p);
 1006              		.loc 1 71 47 is_stmt 0
 1007 05a0 97000000 		call	_ZN15MemoryAllocator8instanceEv@plt
 1007      E7800000 
 1008              	.LVL120:
 1009 05a8 83B50402 		ld	a1,32(s1)
 1010 05ac 97000000 		call	_ZN15MemoryAllocator9kmem_freeEPv@plt
 1010      E7800000 
 1011              	.LVL121:
  72:src/../h/kObjectAllocator.hpp ****     }
 1012              		.loc 1 72 9 is_stmt 1
  72:src/../h/kObjectAllocator.hpp ****     }
 1013              		.loc 1 72 47 is_stmt 0
 1014 05b4 97000000 		call	_ZN15MemoryAllocator8instanceEv@plt
 1014      E7800000 
 1015              	.LVL122:
 1016 05bc 93850400 		mv	a1,s1
 1017 05c0 97000000 		call	_ZN15MemoryAllocator9kmem_freeEPv@plt
 1017      E7800000 
 1018              	.LVL123:
 1019              	.L57:
 1020              	.LBE134:
 1021              	.LBE133:
  77:src/kObjectAllocatorTest.cpp ****         size_t objByte = getByteOfObject(objArr[i], objAlloc);
GAS LISTING /tmp/cciR7THS.s 			page 26


 1022              		.loc 2 77 79 is_stmt 1 discriminator 4
  77:src/kObjectAllocatorTest.cpp ****         size_t objByte = getByteOfObject(objArr[i], objAlloc);
 1023              		.loc 2 77 86 is_stmt 0 discriminator 4
 1024 05c8 130A0000 		li	s4,0
 1025 05cc 6FF09FE0 		j	.L99
 1026              	.LVL124:
 1027              	.L60:
  80:src/kObjectAllocatorTest.cpp ****         if (!getValueOfBitAt(byte, bit, objAlloc)) { delete objAlloc; return false; }
 1028              		.loc 2 80 49 is_stmt 1 discriminator 3
  80:src/kObjectAllocatorTest.cpp ****         if (!getValueOfBitAt(byte, bit, objAlloc)) { delete objAlloc; return false; }
 1029              		.loc 2 80 64 is_stmt 0 discriminator 3
 1030 05d0 638A0406 		beqz	s1,.L62
 1031              	.LBB136:
 1032              	.LBB137:
 1033              	.LBB138:
  68:src/../h/kObjectAllocator.hpp ****             MemoryAllocator::instance()->kmem_free(((KObjectAllocator*) p)->bitVectors[i]);
 1034              		.loc 1 68 21
 1035 05d4 13090000 		li	s2,0
 1036              	.LVL125:
 1037              	.L64:
  68:src/../h/kObjectAllocator.hpp ****             MemoryAllocator::instance()->kmem_free(((KObjectAllocator*) p)->bitVectors[i]);
 1038              		.loc 1 68 30 is_stmt 1
  68:src/../h/kObjectAllocator.hpp ****             MemoryAllocator::instance()->kmem_free(((KObjectAllocator*) p)->bitVectors[i]);
 1039              		.loc 1 68 57 is_stmt 0
 1040 05d8 83B70403 		ld	a5,48(s1)
  68:src/../h/kObjectAllocator.hpp ****             MemoryAllocator::instance()->kmem_free(((KObjectAllocator*) p)->bitVectors[i]);
 1041              		.loc 1 68 30
 1042 05dc 6376F902 		bleu	a5,s2,.L63
  69:src/../h/kObjectAllocator.hpp ****         MemoryAllocator::instance()->kmem_free(((KObjectAllocator*) p)->bitVectors);
 1043              		.loc 1 69 13 is_stmt 1
  69:src/../h/kObjectAllocator.hpp ****         MemoryAllocator::instance()->kmem_free(((KObjectAllocator*) p)->bitVectors);
 1044              		.loc 1 69 51 is_stmt 0
 1045 05e0 97000000 		call	_ZN15MemoryAllocator8instanceEv@plt
 1045      E7800000 
 1046              	.LVL126:
  69:src/../h/kObjectAllocator.hpp ****         MemoryAllocator::instance()->kmem_free(((KObjectAllocator*) p)->bitVectors);
 1047              		.loc 1 69 77
 1048 05e8 83B78402 		ld	a5,40(s1)
  69:src/../h/kObjectAllocator.hpp ****         MemoryAllocator::instance()->kmem_free(((KObjectAllocator*) p)->bitVectors);
 1049              		.loc 1 69 89
 1050 05ec 13173900 		slli	a4,s2,3
 1051 05f0 B387E700 		add	a5,a5,a4
  69:src/../h/kObjectAllocator.hpp ****         MemoryAllocator::instance()->kmem_free(((KObjectAllocator*) p)->bitVectors);
 1052              		.loc 1 69 51
 1053 05f4 83B50700 		ld	a1,0(a5)
 1054 05f8 97000000 		call	_ZN15MemoryAllocator9kmem_freeEPv@plt
 1054      E7800000 
 1055              	.LVL127:
  68:src/../h/kObjectAllocator.hpp ****             MemoryAllocator::instance()->kmem_free(((KObjectAllocator*) p)->bitVectors[i]);
 1056              		.loc 1 68 9 is_stmt 1
 1057 0600 13091900 		addi	s2,s2,1
 1058              	.LVL128:
 1059 0604 6FF05FFD 		j	.L64
 1060              	.L63:
 1061              	.LBE138:
  70:src/../h/kObjectAllocator.hpp ****         MemoryAllocator::instance()->kmem_free(((KObjectAllocator*) p)->objectVectors);
 1062              		.loc 1 70 9
GAS LISTING /tmp/cciR7THS.s 			page 27


  70:src/../h/kObjectAllocator.hpp ****         MemoryAllocator::instance()->kmem_free(((KObjectAllocator*) p)->objectVectors);
 1063              		.loc 1 70 47 is_stmt 0
 1064 0608 97000000 		call	_ZN15MemoryAllocator8instanceEv@plt
 1064      E7800000 
 1065              	.LVL129:
 1066 0610 83B58402 		ld	a1,40(s1)
 1067 0614 97000000 		call	_ZN15MemoryAllocator9kmem_freeEPv@plt
 1067      E7800000 
 1068              	.LVL130:
  71:src/../h/kObjectAllocator.hpp ****         MemoryAllocator::instance()->kmem_free(p);
 1069              		.loc 1 71 9 is_stmt 1
  71:src/../h/kObjectAllocator.hpp ****         MemoryAllocator::instance()->kmem_free(p);
 1070              		.loc 1 71 47 is_stmt 0
 1071 061c 97000000 		call	_ZN15MemoryAllocator8instanceEv@plt
 1071      E7800000 
 1072              	.LVL131:
 1073 0624 83B50402 		ld	a1,32(s1)
 1074 0628 97000000 		call	_ZN15MemoryAllocator9kmem_freeEPv@plt
 1074      E7800000 
 1075              	.LVL132:
  72:src/../h/kObjectAllocator.hpp ****     }
 1076              		.loc 1 72 9 is_stmt 1
  72:src/../h/kObjectAllocator.hpp ****     }
 1077              		.loc 1 72 47 is_stmt 0
 1078 0630 97000000 		call	_ZN15MemoryAllocator8instanceEv@plt
 1078      E7800000 
 1079              	.LVL133:
 1080 0638 93850400 		mv	a1,s1
 1081 063c 97000000 		call	_ZN15MemoryAllocator9kmem_freeEPv@plt
 1081      E7800000 
 1082              	.LVL134:
 1083              	.L62:
 1084              	.LBE137:
 1085              	.LBE136:
  80:src/kObjectAllocatorTest.cpp ****         if (!getValueOfBitAt(byte, bit, objAlloc)) { delete objAlloc; return false; }
 1086              		.loc 2 80 66 is_stmt 1 discriminator 5
  80:src/kObjectAllocatorTest.cpp ****         if (!getValueOfBitAt(byte, bit, objAlloc)) { delete objAlloc; return false; }
 1087              		.loc 2 80 73 is_stmt 0 discriminator 5
 1088 0644 130A0000 		li	s4,0
 1089 0648 6FF0DFD8 		j	.L99
 1090              	.LVL135:
 1091              	.L106:
  81:src/kObjectAllocatorTest.cpp ****         if (bit == 0) { ++byte; bit = 8; } --bit;
 1092              		.loc 2 81 54 is_stmt 1 discriminator 2
  81:src/kObjectAllocatorTest.cpp ****         if (bit == 0) { ++byte; bit = 8; } --bit;
 1093              		.loc 2 81 69 is_stmt 0 discriminator 2
 1094 064c E38404D8 		beqz	s1,.L99
 1095              	.LBB139:
 1096              	.LBB140:
 1097              	.LBB141:
  68:src/../h/kObjectAllocator.hpp ****             MemoryAllocator::instance()->kmem_free(((KObjectAllocator*) p)->bitVectors[i]);
 1098              		.loc 1 68 21
 1099 0650 13090000 		li	s2,0
 1100              	.LVL136:
 1101 0654 6F008002 		j	.L68
 1102              	.LVL137:
 1103              	.L104:
GAS LISTING /tmp/cciR7THS.s 			page 28


  69:src/../h/kObjectAllocator.hpp ****         MemoryAllocator::instance()->kmem_free(((KObjectAllocator*) p)->bitVectors);
 1104              		.loc 1 69 13 is_stmt 1
  69:src/../h/kObjectAllocator.hpp ****         MemoryAllocator::instance()->kmem_free(((KObjectAllocator*) p)->bitVectors);
 1105              		.loc 1 69 51 is_stmt 0
 1106 0658 97000000 		call	_ZN15MemoryAllocator8instanceEv@plt
 1106      E7800000 
 1107              	.LVL138:
  69:src/../h/kObjectAllocator.hpp ****         MemoryAllocator::instance()->kmem_free(((KObjectAllocator*) p)->bitVectors);
 1108              		.loc 1 69 77
 1109 0660 83B78402 		ld	a5,40(s1)
  69:src/../h/kObjectAllocator.hpp ****         MemoryAllocator::instance()->kmem_free(((KObjectAllocator*) p)->bitVectors);
 1110              		.loc 1 69 89
 1111 0664 13173900 		slli	a4,s2,3
 1112 0668 B387E700 		add	a5,a5,a4
  69:src/../h/kObjectAllocator.hpp ****         MemoryAllocator::instance()->kmem_free(((KObjectAllocator*) p)->bitVectors);
 1113              		.loc 1 69 51
 1114 066c 83B50700 		ld	a1,0(a5)
 1115 0670 97000000 		call	_ZN15MemoryAllocator9kmem_freeEPv@plt
 1115      E7800000 
 1116              	.LVL139:
  68:src/../h/kObjectAllocator.hpp ****             MemoryAllocator::instance()->kmem_free(((KObjectAllocator*) p)->bitVectors[i]);
 1117              		.loc 1 68 9 is_stmt 1
 1118 0678 13091900 		addi	s2,s2,1
 1119              	.LVL140:
 1120              	.L68:
  68:src/../h/kObjectAllocator.hpp ****             MemoryAllocator::instance()->kmem_free(((KObjectAllocator*) p)->bitVectors[i]);
 1121              		.loc 1 68 30
  68:src/../h/kObjectAllocator.hpp ****             MemoryAllocator::instance()->kmem_free(((KObjectAllocator*) p)->bitVectors[i]);
 1122              		.loc 1 68 57 is_stmt 0
 1123 067c 83B70403 		ld	a5,48(s1)
  68:src/../h/kObjectAllocator.hpp ****             MemoryAllocator::instance()->kmem_free(((KObjectAllocator*) p)->bitVectors[i]);
 1124              		.loc 1 68 30
 1125 0680 E36CF9FC 		bgtu	a5,s2,.L104
 1126              	.LBE141:
  70:src/../h/kObjectAllocator.hpp ****         MemoryAllocator::instance()->kmem_free(((KObjectAllocator*) p)->objectVectors);
 1127              		.loc 1 70 9 is_stmt 1
  70:src/../h/kObjectAllocator.hpp ****         MemoryAllocator::instance()->kmem_free(((KObjectAllocator*) p)->objectVectors);
 1128              		.loc 1 70 47 is_stmt 0
 1129 0684 97000000 		call	_ZN15MemoryAllocator8instanceEv@plt
 1129      E7800000 
 1130              	.LVL141:
 1131 068c 83B58402 		ld	a1,40(s1)
 1132 0690 97000000 		call	_ZN15MemoryAllocator9kmem_freeEPv@plt
 1132      E7800000 
 1133              	.LVL142:
  71:src/../h/kObjectAllocator.hpp ****         MemoryAllocator::instance()->kmem_free(p);
 1134              		.loc 1 71 9 is_stmt 1
  71:src/../h/kObjectAllocator.hpp ****         MemoryAllocator::instance()->kmem_free(p);
 1135              		.loc 1 71 47 is_stmt 0
 1136 0698 97000000 		call	_ZN15MemoryAllocator8instanceEv@plt
 1136      E7800000 
 1137              	.LVL143:
 1138 06a0 83B50402 		ld	a1,32(s1)
 1139 06a4 97000000 		call	_ZN15MemoryAllocator9kmem_freeEPv@plt
 1139      E7800000 
 1140              	.LVL144:
  72:src/../h/kObjectAllocator.hpp ****     }
GAS LISTING /tmp/cciR7THS.s 			page 29


 1141              		.loc 1 72 9 is_stmt 1
  72:src/../h/kObjectAllocator.hpp ****     }
 1142              		.loc 1 72 47 is_stmt 0
 1143 06ac 97000000 		call	_ZN15MemoryAllocator8instanceEv@plt
 1143      E7800000 
 1144              	.LVL145:
 1145 06b4 93850400 		mv	a1,s1
 1146 06b8 97000000 		call	_ZN15MemoryAllocator9kmem_freeEPv@plt
 1146      E7800000 
 1147              	.LVL146:
 1148              	.LBE140:
 1149              	.LBE139:
  81:src/kObjectAllocatorTest.cpp ****         if (bit == 0) { ++byte; bit = 8; } --bit;
 1150              		.loc 2 81 71 is_stmt 1
  81:src/kObjectAllocatorTest.cpp ****         if (bit == 0) { ++byte; bit = 8; } --bit;
 1151              		.loc 2 81 78 is_stmt 0
 1152 06c0 6FF05FD1 		j	.L99
 1153              	.LVL147:
 1154              	.L107:
  82:src/kObjectAllocatorTest.cpp ****     }
 1155              		.loc 2 82 25 is_stmt 1 discriminator 1
 1156 06c4 938A1A00 		addi	s5,s5,1
 1157              	.LVL148:
  82:src/kObjectAllocatorTest.cpp ****     }
 1158              		.loc 2 82 33 discriminator 1
  82:src/kObjectAllocatorTest.cpp ****     }
 1159              		.loc 2 82 37 is_stmt 0 discriminator 1
 1160 06c8 13098000 		li	s2,8
 1161              	.LVL149:
 1162              	.L69:
  82:src/kObjectAllocatorTest.cpp ****     }
 1163              		.loc 2 82 44 is_stmt 1 discriminator 3
 1164 06cc 1309F9FF 		addi	s2,s2,-1
 1165              	.LVL150:
 1166              	.LBE132:
  76:src/kObjectAllocatorTest.cpp ****         if (objArr[i] != getObjectAt(byte, bit, objAlloc)) { delete objAlloc; return false; }
 1167              		.loc 2 76 5 discriminator 3
 1168 06d0 130B1B00 		addi	s6,s6,1
 1169              	.LVL151:
 1170              	.L54:
  76:src/kObjectAllocatorTest.cpp ****         if (objArr[i] != getObjectAt(byte, bit, objAlloc)) { delete objAlloc; return false; }
 1171              		.loc 2 76 26 discriminator 2
 1172 06d4 93079000 		li	a5,9
 1173 06d8 63E66709 		bgtu	s6,a5,.L96
 1174              	.LBB142:
  77:src/kObjectAllocatorTest.cpp ****         size_t objByte = getByteOfObject(objArr[i], objAlloc);
 1175              		.loc 2 77 9
  77:src/kObjectAllocatorTest.cpp ****         size_t objByte = getByteOfObject(objArr[i], objAlloc);
 1176              		.loc 2 77 21 is_stmt 0
 1177 06dc 93173B00 		slli	a5,s6,3
 1178 06e0 130704FB 		addi	a4,s0,-80
 1179 06e4 B307F700 		add	a5,a4,a5
 1180 06e8 03BA07FB 		ld	s4,-80(a5)
  77:src/kObjectAllocatorTest.cpp ****         size_t objByte = getByteOfObject(objArr[i], objAlloc);
 1181              		.loc 2 77 37
 1182 06ec 93860400 		mv	a3,s1
 1183 06f0 13060900 		mv	a2,s2
GAS LISTING /tmp/cciR7THS.s 			page 30


 1184 06f4 93850A00 		mv	a1,s5
 1185 06f8 13850900 		mv	a0,s3
 1186 06fc 97000000 		call	_ZN20KObjectAllocatorTest11getObjectAtEmmP16KObjectAllocator
 1186      E7800000 
 1187              	.LVL152:
  77:src/kObjectAllocatorTest.cpp ****         size_t objByte = getByteOfObject(objArr[i], objAlloc);
 1188              		.loc 2 77 9
 1189 0704 E318AAE4 		bne	s4,a0,.L105
  78:src/kObjectAllocatorTest.cpp ****         size_t objBit = getBitOfObject(objArr[i], objAlloc);
 1190              		.loc 2 78 9 is_stmt 1
  78:src/kObjectAllocatorTest.cpp ****         size_t objBit = getBitOfObject(objArr[i], objAlloc);
 1191              		.loc 2 78 41 is_stmt 0
 1192 0708 13860400 		mv	a2,s1
 1193 070c 93050A00 		mv	a1,s4
 1194 0710 13850900 		mv	a0,s3
 1195 0714 97000000 		call	_ZN20KObjectAllocatorTest15getByteOfObjectEPvP16KObjectAllocator
 1195      E7800000 
 1196              	.LVL153:
 1197 071c 930B0500 		mv	s7,a0
 1198              	.LVL154:
  79:src/kObjectAllocatorTest.cpp ****         if (objByte != byte || objBit != bit) { delete objAlloc; return false; }
 1199              		.loc 2 79 9 is_stmt 1
  79:src/kObjectAllocatorTest.cpp ****         if (objByte != byte || objBit != bit) { delete objAlloc; return false; }
 1200              		.loc 2 79 39 is_stmt 0
 1201 0720 13860400 		mv	a2,s1
 1202 0724 93050A00 		mv	a1,s4
 1203 0728 13850900 		mv	a0,s3
 1204              	.LVL155:
 1205 072c 97000000 		call	_ZN20KObjectAllocatorTest14getBitOfObjectEPvP16KObjectAllocator
 1205      E7800000 
 1206              	.LVL156:
  80:src/kObjectAllocatorTest.cpp ****         if (!getValueOfBitAt(byte, bit, objAlloc)) { delete objAlloc; return false; }
 1207              		.loc 2 80 9 is_stmt 1
 1208 0734 E39E7AE9 		bne	s5,s7,.L60
  80:src/kObjectAllocatorTest.cpp ****         if (!getValueOfBitAt(byte, bit, objAlloc)) { delete objAlloc; return false; }
 1209              		.loc 2 80 29 is_stmt 0 discriminator 2
 1210 0738 E31CA9E8 		bne	s2,a0,.L60
  81:src/kObjectAllocatorTest.cpp ****         if (bit == 0) { ++byte; bit = 8; } --bit;
 1211              		.loc 2 81 9 is_stmt 1
  81:src/kObjectAllocatorTest.cpp ****         if (bit == 0) { ++byte; bit = 8; } --bit;
 1212              		.loc 2 81 29 is_stmt 0
 1213 073c 93860400 		mv	a3,s1
 1214 0740 13060900 		mv	a2,s2
 1215 0744 93850A00 		mv	a1,s5
 1216 0748 13850900 		mv	a0,s3
 1217              	.LVL157:
 1218 074c 97000000 		call	_ZN20KObjectAllocatorTest15getValueOfBitAtEmmP16KObjectAllocator
 1218      E7800000 
 1219              	.LVL158:
 1220 0754 130A0500 		mv	s4,a0
  81:src/kObjectAllocatorTest.cpp ****         if (bit == 0) { ++byte; bit = 8; } --bit;
 1221              		.loc 2 81 9
 1222 0758 E30A05EE 		beqz	a0,.L106
  82:src/kObjectAllocatorTest.cpp ****     }
 1223              		.loc 2 82 9 is_stmt 1
 1224 075c E31809F6 		bnez	s2,.L69
 1225 0760 6FF05FF6 		j	.L107
GAS LISTING /tmp/cciR7THS.s 			page 31


 1226              	.LVL159:
 1227              	.L96:
 1228              	.LBE142:
 1229              	.LBE143:
 1230              	.LBB144:
  84:src/kObjectAllocatorTest.cpp ****         if (getValueOfBitAt(byte, bit, objAlloc)) { delete objAlloc; return false; }
 1231              		.loc 2 84 17 is_stmt 0
 1232 0764 130A0000 		li	s4,0
 1233 0768 6F000009 		j	.L55
 1234              	.LVL160:
 1235              	.L108:
  85:src/kObjectAllocatorTest.cpp ****         if (bit == 0) { ++byte; bit = 8; } --bit;
 1236              		.loc 2 85 53 is_stmt 1 discriminator 2
  85:src/kObjectAllocatorTest.cpp ****         if (bit == 0) { ++byte; bit = 8; } --bit;
 1237              		.loc 2 85 68 is_stmt 0 discriminator 2
 1238 076c 638A0406 		beqz	s1,.L72
 1239              	.LBB145:
 1240              	.LBB146:
 1241              	.LBB147:
  68:src/../h/kObjectAllocator.hpp ****             MemoryAllocator::instance()->kmem_free(((KObjectAllocator*) p)->bitVectors[i]);
 1242              		.loc 1 68 21
 1243 0770 13090000 		li	s2,0
 1244              	.LVL161:
 1245              	.L74:
  68:src/../h/kObjectAllocator.hpp ****             MemoryAllocator::instance()->kmem_free(((KObjectAllocator*) p)->bitVectors[i]);
 1246              		.loc 1 68 30 is_stmt 1
  68:src/../h/kObjectAllocator.hpp ****             MemoryAllocator::instance()->kmem_free(((KObjectAllocator*) p)->bitVectors[i]);
 1247              		.loc 1 68 57 is_stmt 0
 1248 0774 83B70403 		ld	a5,48(s1)
  68:src/../h/kObjectAllocator.hpp ****             MemoryAllocator::instance()->kmem_free(((KObjectAllocator*) p)->bitVectors[i]);
 1249              		.loc 1 68 30
 1250 0778 6376F902 		bleu	a5,s2,.L73
  69:src/../h/kObjectAllocator.hpp ****         MemoryAllocator::instance()->kmem_free(((KObjectAllocator*) p)->bitVectors);
 1251              		.loc 1 69 13 is_stmt 1
  69:src/../h/kObjectAllocator.hpp ****         MemoryAllocator::instance()->kmem_free(((KObjectAllocator*) p)->bitVectors);
 1252              		.loc 1 69 51 is_stmt 0
 1253 077c 97000000 		call	_ZN15MemoryAllocator8instanceEv@plt
 1253      E7800000 
 1254              	.LVL162:
  69:src/../h/kObjectAllocator.hpp ****         MemoryAllocator::instance()->kmem_free(((KObjectAllocator*) p)->bitVectors);
 1255              		.loc 1 69 77
 1256 0784 83B78402 		ld	a5,40(s1)
  69:src/../h/kObjectAllocator.hpp ****         MemoryAllocator::instance()->kmem_free(((KObjectAllocator*) p)->bitVectors);
 1257              		.loc 1 69 89
 1258 0788 13173900 		slli	a4,s2,3
 1259 078c B387E700 		add	a5,a5,a4
  69:src/../h/kObjectAllocator.hpp ****         MemoryAllocator::instance()->kmem_free(((KObjectAllocator*) p)->bitVectors);
 1260              		.loc 1 69 51
 1261 0790 83B50700 		ld	a1,0(a5)
 1262 0794 97000000 		call	_ZN15MemoryAllocator9kmem_freeEPv@plt
 1262      E7800000 
 1263              	.LVL163:
  68:src/../h/kObjectAllocator.hpp ****             MemoryAllocator::instance()->kmem_free(((KObjectAllocator*) p)->bitVectors[i]);
 1264              		.loc 1 68 9 is_stmt 1
 1265 079c 13091900 		addi	s2,s2,1
 1266              	.LVL164:
 1267 07a0 6FF05FFD 		j	.L74
GAS LISTING /tmp/cciR7THS.s 			page 32


 1268              	.L73:
 1269              	.LBE147:
  70:src/../h/kObjectAllocator.hpp ****         MemoryAllocator::instance()->kmem_free(((KObjectAllocator*) p)->objectVectors);
 1270              		.loc 1 70 9
  70:src/../h/kObjectAllocator.hpp ****         MemoryAllocator::instance()->kmem_free(((KObjectAllocator*) p)->objectVectors);
 1271              		.loc 1 70 47 is_stmt 0
 1272 07a4 97000000 		call	_ZN15MemoryAllocator8instanceEv@plt
 1272      E7800000 
 1273              	.LVL165:
 1274 07ac 83B58402 		ld	a1,40(s1)
 1275 07b0 97000000 		call	_ZN15MemoryAllocator9kmem_freeEPv@plt
 1275      E7800000 
 1276              	.LVL166:
  71:src/../h/kObjectAllocator.hpp ****         MemoryAllocator::instance()->kmem_free(p);
 1277              		.loc 1 71 9 is_stmt 1
  71:src/../h/kObjectAllocator.hpp ****         MemoryAllocator::instance()->kmem_free(p);
 1278              		.loc 1 71 47 is_stmt 0
 1279 07b8 97000000 		call	_ZN15MemoryAllocator8instanceEv@plt
 1279      E7800000 
 1280              	.LVL167:
 1281 07c0 83B50402 		ld	a1,32(s1)
 1282 07c4 97000000 		call	_ZN15MemoryAllocator9kmem_freeEPv@plt
 1282      E7800000 
 1283              	.LVL168:
  72:src/../h/kObjectAllocator.hpp ****     }
 1284              		.loc 1 72 9 is_stmt 1
  72:src/../h/kObjectAllocator.hpp ****     }
 1285              		.loc 1 72 47 is_stmt 0
 1286 07cc 97000000 		call	_ZN15MemoryAllocator8instanceEv@plt
 1286      E7800000 
 1287              	.LVL169:
 1288 07d4 93850400 		mv	a1,s1
 1289 07d8 97000000 		call	_ZN15MemoryAllocator9kmem_freeEPv@plt
 1289      E7800000 
 1290              	.LVL170:
 1291              	.L72:
 1292              	.LBE146:
 1293              	.LBE145:
  85:src/kObjectAllocatorTest.cpp ****         if (bit == 0) { ++byte; bit = 8; } --bit;
 1294              		.loc 2 85 70 is_stmt 1 discriminator 4
  85:src/kObjectAllocatorTest.cpp ****         if (bit == 0) { ++byte; bit = 8; } --bit;
 1295              		.loc 2 85 77 is_stmt 0 discriminator 4
 1296 07e0 130A0000 		li	s4,0
 1297              	.LVL171:
 1298 07e4 6FF01FBF 		j	.L99
 1299              	.LVL172:
 1300              	.L109:
  86:src/kObjectAllocatorTest.cpp ****     }
 1301              		.loc 2 86 25 is_stmt 1 discriminator 1
 1302 07e8 938A1A00 		addi	s5,s5,1
 1303              	.LVL173:
  86:src/kObjectAllocatorTest.cpp ****     }
 1304              		.loc 2 86 33 discriminator 1
  86:src/kObjectAllocatorTest.cpp ****     }
 1305              		.loc 2 86 37 is_stmt 0 discriminator 1
 1306 07ec 13098000 		li	s2,8
 1307              	.LVL174:
GAS LISTING /tmp/cciR7THS.s 			page 33


 1308              	.L75:
  86:src/kObjectAllocatorTest.cpp ****     }
 1309              		.loc 2 86 44 is_stmt 1 discriminator 3
 1310 07f0 1309F9FF 		addi	s2,s2,-1
 1311              	.LVL175:
  84:src/kObjectAllocatorTest.cpp ****         if (getValueOfBitAt(byte, bit, objAlloc)) { delete objAlloc; return false; }
 1312              		.loc 2 84 5 discriminator 3
 1313 07f4 130A1A00 		addi	s4,s4,1
 1314              	.LVL176:
 1315              	.L55:
  84:src/kObjectAllocatorTest.cpp ****         if (getValueOfBitAt(byte, bit, objAlloc)) { delete objAlloc; return false; }
 1316              		.loc 2 84 26 discriminator 2
 1317 07f8 93075000 		li	a5,5
 1318 07fc 63E44703 		bgtu	s4,a5,.L70
  85:src/kObjectAllocatorTest.cpp ****         if (bit == 0) { ++byte; bit = 8; } --bit;
 1319              		.loc 2 85 9
  85:src/kObjectAllocatorTest.cpp ****         if (bit == 0) { ++byte; bit = 8; } --bit;
 1320              		.loc 2 85 28 is_stmt 0
 1321 0800 93860400 		mv	a3,s1
 1322 0804 13060900 		mv	a2,s2
 1323 0808 93850A00 		mv	a1,s5
 1324 080c 13850900 		mv	a0,s3
 1325 0810 97000000 		call	_ZN20KObjectAllocatorTest15getValueOfBitAtEmmP16KObjectAllocator
 1325      E7800000 
 1326              	.LVL177:
  85:src/kObjectAllocatorTest.cpp ****         if (bit == 0) { ++byte; bit = 8; } --bit;
 1327              		.loc 2 85 9
 1328 0818 E31A05F4 		bnez	a0,.L108
  86:src/kObjectAllocatorTest.cpp ****     }
 1329              		.loc 2 86 9 is_stmt 1
 1330 081c E31A09FC 		bnez	s2,.L75
 1331 0820 6FF09FFC 		j	.L109
 1332              	.L70:
 1333              	.LBE144:
  88:src/kObjectAllocatorTest.cpp ****     objAlloc->freeObject(objArr[7]);
 1334              		.loc 2 88 5
  88:src/kObjectAllocatorTest.cpp ****     objAlloc->freeObject(objArr[7]);
 1335              		.loc 2 88 25 is_stmt 0
 1336 0824 833504F8 		ld	a1,-128(s0)
 1337 0828 13850400 		mv	a0,s1
 1338 082c 97000000 		call	_ZN16KObjectAllocator10freeObjectEPv@plt
 1338      E7800000 
 1339              	.LVL178:
  89:src/kObjectAllocatorTest.cpp ****     objAlloc->freeObject(objArr[8]);
 1340              		.loc 2 89 5 is_stmt 1
  89:src/kObjectAllocatorTest.cpp ****     objAlloc->freeObject(objArr[8]);
 1341              		.loc 2 89 25 is_stmt 0
 1342 0834 833584F9 		ld	a1,-104(s0)
 1343 0838 13850400 		mv	a0,s1
 1344 083c 97000000 		call	_ZN16KObjectAllocator10freeObjectEPv@plt
 1344      E7800000 
 1345              	.LVL179:
  90:src/kObjectAllocatorTest.cpp ****     objArr[4] = objAlloc->allocateNewObject();
 1346              		.loc 2 90 5 is_stmt 1
  90:src/kObjectAllocatorTest.cpp ****     objArr[4] = objAlloc->allocateNewObject();
 1347              		.loc 2 90 25 is_stmt 0
 1348 0844 833504FA 		ld	a1,-96(s0)
GAS LISTING /tmp/cciR7THS.s 			page 34


 1349 0848 13850400 		mv	a0,s1
 1350 084c 97000000 		call	_ZN16KObjectAllocator10freeObjectEPv@plt
 1350      E7800000 
 1351              	.LVL180:
  91:src/kObjectAllocatorTest.cpp ****     if (objArr[4] != getObjectAt(1, 7, objAlloc)) { delete objAlloc; return false; }
 1352              		.loc 2 91 5 is_stmt 1
  91:src/kObjectAllocatorTest.cpp ****     if (objArr[4] != getObjectAt(1, 7, objAlloc)) { delete objAlloc; return false; }
 1353              		.loc 2 91 44 is_stmt 0
 1354 0854 13850400 		mv	a0,s1
 1355 0858 97000000 		call	_ZN16KObjectAllocator17allocateNewObjectEv@plt
 1355      E7800000 
 1356              	.LVL181:
 1357 0860 13090500 		mv	s2,a0
 1358              	.LVL182:
  92:src/kObjectAllocatorTest.cpp ****     byte = getByteOfObject(objArr[4], objAlloc);
 1359              		.loc 2 92 5 is_stmt 1
  92:src/kObjectAllocatorTest.cpp ****     byte = getByteOfObject(objArr[4], objAlloc);
 1360              		.loc 2 92 33 is_stmt 0
 1361 0864 93860400 		mv	a3,s1
 1362 0868 13067000 		li	a2,7
 1363 086c 93051000 		li	a1,1
 1364 0870 13850900 		mv	a0,s3
 1365 0874 97000000 		call	_ZN20KObjectAllocatorTest11getObjectAtEmmP16KObjectAllocator
 1365      E7800000 
 1366              	.LVL183:
  92:src/kObjectAllocatorTest.cpp ****     byte = getByteOfObject(objArr[4], objAlloc);
 1367              		.loc 2 92 5
 1368 087c 6300A908 		beq	s2,a0,.L76
  92:src/kObjectAllocatorTest.cpp ****     byte = getByteOfObject(objArr[4], objAlloc);
 1369              		.loc 2 92 53 is_stmt 1 discriminator 2
  92:src/kObjectAllocatorTest.cpp ****     byte = getByteOfObject(objArr[4], objAlloc);
 1370              		.loc 2 92 68 is_stmt 0 discriminator 2
 1371 0880 638A0406 		beqz	s1,.L77
 1372              	.LBB148:
 1373              	.LBB149:
 1374              	.LBB150:
  68:src/../h/kObjectAllocator.hpp ****             MemoryAllocator::instance()->kmem_free(((KObjectAllocator*) p)->bitVectors[i]);
 1375              		.loc 1 68 21
 1376 0884 13090000 		li	s2,0
 1377 0888 6F008002 		j	.L79
 1378              	.LVL184:
 1379              	.L110:
  69:src/../h/kObjectAllocator.hpp ****         MemoryAllocator::instance()->kmem_free(((KObjectAllocator*) p)->bitVectors);
 1380              		.loc 1 69 13 is_stmt 1
  69:src/../h/kObjectAllocator.hpp ****         MemoryAllocator::instance()->kmem_free(((KObjectAllocator*) p)->bitVectors);
 1381              		.loc 1 69 51 is_stmt 0
 1382 088c 97000000 		call	_ZN15MemoryAllocator8instanceEv@plt
 1382      E7800000 
 1383              	.LVL185:
  69:src/../h/kObjectAllocator.hpp ****         MemoryAllocator::instance()->kmem_free(((KObjectAllocator*) p)->bitVectors);
 1384              		.loc 1 69 77
 1385 0894 83B78402 		ld	a5,40(s1)
  69:src/../h/kObjectAllocator.hpp ****         MemoryAllocator::instance()->kmem_free(((KObjectAllocator*) p)->bitVectors);
 1386              		.loc 1 69 89
 1387 0898 13173900 		slli	a4,s2,3
 1388 089c B387E700 		add	a5,a5,a4
  69:src/../h/kObjectAllocator.hpp ****         MemoryAllocator::instance()->kmem_free(((KObjectAllocator*) p)->bitVectors);
GAS LISTING /tmp/cciR7THS.s 			page 35


 1389              		.loc 1 69 51
 1390 08a0 83B50700 		ld	a1,0(a5)
 1391 08a4 97000000 		call	_ZN15MemoryAllocator9kmem_freeEPv@plt
 1391      E7800000 
 1392              	.LVL186:
  68:src/../h/kObjectAllocator.hpp ****             MemoryAllocator::instance()->kmem_free(((KObjectAllocator*) p)->bitVectors[i]);
 1393              		.loc 1 68 9 is_stmt 1
 1394 08ac 13091900 		addi	s2,s2,1
 1395              	.LVL187:
 1396              	.L79:
  68:src/../h/kObjectAllocator.hpp ****             MemoryAllocator::instance()->kmem_free(((KObjectAllocator*) p)->bitVectors[i]);
 1397              		.loc 1 68 30
  68:src/../h/kObjectAllocator.hpp ****             MemoryAllocator::instance()->kmem_free(((KObjectAllocator*) p)->bitVectors[i]);
 1398              		.loc 1 68 57 is_stmt 0
 1399 08b0 83B70403 		ld	a5,48(s1)
  68:src/../h/kObjectAllocator.hpp ****             MemoryAllocator::instance()->kmem_free(((KObjectAllocator*) p)->bitVectors[i]);
 1400              		.loc 1 68 30
 1401 08b4 E36CF9FC 		bgtu	a5,s2,.L110
 1402              	.LBE150:
  70:src/../h/kObjectAllocator.hpp ****         MemoryAllocator::instance()->kmem_free(((KObjectAllocator*) p)->objectVectors);
 1403              		.loc 1 70 9 is_stmt 1
  70:src/../h/kObjectAllocator.hpp ****         MemoryAllocator::instance()->kmem_free(((KObjectAllocator*) p)->objectVectors);
 1404              		.loc 1 70 47 is_stmt 0
 1405 08b8 97000000 		call	_ZN15MemoryAllocator8instanceEv@plt
 1405      E7800000 
 1406              	.LVL188:
 1407 08c0 83B58402 		ld	a1,40(s1)
 1408 08c4 97000000 		call	_ZN15MemoryAllocator9kmem_freeEPv@plt
 1408      E7800000 
 1409              	.LVL189:
  71:src/../h/kObjectAllocator.hpp ****         MemoryAllocator::instance()->kmem_free(p);
 1410              		.loc 1 71 9 is_stmt 1
  71:src/../h/kObjectAllocator.hpp ****         MemoryAllocator::instance()->kmem_free(p);
 1411              		.loc 1 71 47 is_stmt 0
 1412 08cc 97000000 		call	_ZN15MemoryAllocator8instanceEv@plt
 1412      E7800000 
 1413              	.LVL190:
 1414 08d4 83B50402 		ld	a1,32(s1)
 1415 08d8 97000000 		call	_ZN15MemoryAllocator9kmem_freeEPv@plt
 1415      E7800000 
 1416              	.LVL191:
  72:src/../h/kObjectAllocator.hpp ****     }
 1417              		.loc 1 72 9 is_stmt 1
  72:src/../h/kObjectAllocator.hpp ****     }
 1418              		.loc 1 72 47 is_stmt 0
 1419 08e0 97000000 		call	_ZN15MemoryAllocator8instanceEv@plt
 1419      E7800000 
 1420              	.LVL192:
 1421 08e8 93850400 		mv	a1,s1
 1422 08ec 97000000 		call	_ZN15MemoryAllocator9kmem_freeEPv@plt
 1422      E7800000 
 1423              	.LVL193:
 1424              	.L77:
 1425              	.LBE149:
 1426              	.LBE148:
  92:src/kObjectAllocatorTest.cpp ****     byte = getByteOfObject(objArr[4], objAlloc);
 1427              		.loc 2 92 70 is_stmt 1 discriminator 4
GAS LISTING /tmp/cciR7THS.s 			page 36


  92:src/kObjectAllocatorTest.cpp ****     byte = getByteOfObject(objArr[4], objAlloc);
 1428              		.loc 2 92 77 is_stmt 0 discriminator 4
 1429 08f4 130A0000 		li	s4,0
 1430              	.LVL194:
 1431 08f8 6FF0DFAD 		j	.L99
 1432              	.LVL195:
 1433              	.L76:
  93:src/kObjectAllocatorTest.cpp ****     bit = getBitOfObject(objArr[4], objAlloc);
 1434              		.loc 2 93 5 is_stmt 1
  93:src/kObjectAllocatorTest.cpp ****     bit = getBitOfObject(objArr[4], objAlloc);
 1435              		.loc 2 93 27 is_stmt 0
 1436 08fc 13860400 		mv	a2,s1
 1437 0900 93050900 		mv	a1,s2
 1438 0904 13850900 		mv	a0,s3
 1439 0908 97000000 		call	_ZN20KObjectAllocatorTest15getByteOfObjectEPvP16KObjectAllocator
 1439      E7800000 
 1440              	.LVL196:
 1441 0910 130A0500 		mv	s4,a0
 1442              	.LVL197:
  94:src/kObjectAllocatorTest.cpp ****     if (byte != 1 || bit != 7) { delete objAlloc; return false; }
 1443              		.loc 2 94 5 is_stmt 1
  94:src/kObjectAllocatorTest.cpp ****     if (byte != 1 || bit != 7) { delete objAlloc; return false; }
 1444              		.loc 2 94 25 is_stmt 0
 1445 0914 13860400 		mv	a2,s1
 1446 0918 93050900 		mv	a1,s2
 1447 091c 13850900 		mv	a0,s3
 1448              	.LVL198:
 1449 0920 97000000 		call	_ZN20KObjectAllocatorTest14getBitOfObjectEPvP16KObjectAllocator
 1449      E7800000 
 1450              	.LVL199:
 1451 0928 13090500 		mv	s2,a0
 1452              	.LVL200:
  95:src/kObjectAllocatorTest.cpp ****     bool expectedBitValues[16] = {
 1453              		.loc 2 95 5 is_stmt 1
 1454 092c 93071000 		li	a5,1
 1455 0930 6316FA00 		bne	s4,a5,.L80
  95:src/kObjectAllocatorTest.cpp ****     bool expectedBitValues[16] = {
 1456              		.loc 2 95 19 is_stmt 0 discriminator 2
 1457 0934 93077000 		li	a5,7
 1458 0938 6300F508 		beq	a0,a5,.L81
 1459              	.L80:
  95:src/kObjectAllocatorTest.cpp ****     bool expectedBitValues[16] = {
 1460              		.loc 2 95 34 is_stmt 1 discriminator 3
  95:src/kObjectAllocatorTest.cpp ****     bool expectedBitValues[16] = {
 1461              		.loc 2 95 49 is_stmt 0 discriminator 3
 1462 093c 638A0406 		beqz	s1,.L82
 1463              	.LBB151:
 1464              	.LBB152:
 1465              	.LBB153:
  68:src/../h/kObjectAllocator.hpp ****             MemoryAllocator::instance()->kmem_free(((KObjectAllocator*) p)->bitVectors[i]);
 1466              		.loc 1 68 21
 1467 0940 13090000 		li	s2,0
 1468 0944 6F008002 		j	.L84
 1469              	.LVL201:
 1470              	.L111:
  69:src/../h/kObjectAllocator.hpp ****         MemoryAllocator::instance()->kmem_free(((KObjectAllocator*) p)->bitVectors);
 1471              		.loc 1 69 13 is_stmt 1
GAS LISTING /tmp/cciR7THS.s 			page 37


  69:src/../h/kObjectAllocator.hpp ****         MemoryAllocator::instance()->kmem_free(((KObjectAllocator*) p)->bitVectors);
 1472              		.loc 1 69 51 is_stmt 0
 1473 0948 97000000 		call	_ZN15MemoryAllocator8instanceEv@plt
 1473      E7800000 
 1474              	.LVL202:
  69:src/../h/kObjectAllocator.hpp ****         MemoryAllocator::instance()->kmem_free(((KObjectAllocator*) p)->bitVectors);
 1475              		.loc 1 69 77
 1476 0950 83B78402 		ld	a5,40(s1)
  69:src/../h/kObjectAllocator.hpp ****         MemoryAllocator::instance()->kmem_free(((KObjectAllocator*) p)->bitVectors);
 1477              		.loc 1 69 89
 1478 0954 13173900 		slli	a4,s2,3
 1479 0958 B387E700 		add	a5,a5,a4
  69:src/../h/kObjectAllocator.hpp ****         MemoryAllocator::instance()->kmem_free(((KObjectAllocator*) p)->bitVectors);
 1480              		.loc 1 69 51
 1481 095c 83B50700 		ld	a1,0(a5)
 1482 0960 97000000 		call	_ZN15MemoryAllocator9kmem_freeEPv@plt
 1482      E7800000 
 1483              	.LVL203:
  68:src/../h/kObjectAllocator.hpp ****             MemoryAllocator::instance()->kmem_free(((KObjectAllocator*) p)->bitVectors[i]);
 1484              		.loc 1 68 9 is_stmt 1
 1485 0968 13091900 		addi	s2,s2,1
 1486              	.LVL204:
 1487              	.L84:
  68:src/../h/kObjectAllocator.hpp ****             MemoryAllocator::instance()->kmem_free(((KObjectAllocator*) p)->bitVectors[i]);
 1488              		.loc 1 68 30
  68:src/../h/kObjectAllocator.hpp ****             MemoryAllocator::instance()->kmem_free(((KObjectAllocator*) p)->bitVectors[i]);
 1489              		.loc 1 68 57 is_stmt 0
 1490 096c 83B70403 		ld	a5,48(s1)
  68:src/../h/kObjectAllocator.hpp ****             MemoryAllocator::instance()->kmem_free(((KObjectAllocator*) p)->bitVectors[i]);
 1491              		.loc 1 68 30
 1492 0970 E36CF9FC 		bgtu	a5,s2,.L111
 1493              	.LBE153:
  70:src/../h/kObjectAllocator.hpp ****         MemoryAllocator::instance()->kmem_free(((KObjectAllocator*) p)->objectVectors);
 1494              		.loc 1 70 9 is_stmt 1
  70:src/../h/kObjectAllocator.hpp ****         MemoryAllocator::instance()->kmem_free(((KObjectAllocator*) p)->objectVectors);
 1495              		.loc 1 70 47 is_stmt 0
 1496 0974 97000000 		call	_ZN15MemoryAllocator8instanceEv@plt
 1496      E7800000 
 1497              	.LVL205:
 1498 097c 83B58402 		ld	a1,40(s1)
 1499 0980 97000000 		call	_ZN15MemoryAllocator9kmem_freeEPv@plt
 1499      E7800000 
 1500              	.LVL206:
  71:src/../h/kObjectAllocator.hpp ****         MemoryAllocator::instance()->kmem_free(p);
 1501              		.loc 1 71 9 is_stmt 1
  71:src/../h/kObjectAllocator.hpp ****         MemoryAllocator::instance()->kmem_free(p);
 1502              		.loc 1 71 47 is_stmt 0
 1503 0988 97000000 		call	_ZN15MemoryAllocator8instanceEv@plt
 1503      E7800000 
 1504              	.LVL207:
 1505 0990 83B50402 		ld	a1,32(s1)
 1506 0994 97000000 		call	_ZN15MemoryAllocator9kmem_freeEPv@plt
 1506      E7800000 
 1507              	.LVL208:
  72:src/../h/kObjectAllocator.hpp ****     }
 1508              		.loc 1 72 9 is_stmt 1
  72:src/../h/kObjectAllocator.hpp ****     }
GAS LISTING /tmp/cciR7THS.s 			page 38


 1509              		.loc 1 72 47 is_stmt 0
 1510 099c 97000000 		call	_ZN15MemoryAllocator8instanceEv@plt
 1510      E7800000 
 1511              	.LVL209:
 1512 09a4 93850400 		mv	a1,s1
 1513 09a8 97000000 		call	_ZN15MemoryAllocator9kmem_freeEPv@plt
 1513      E7800000 
 1514              	.LVL210:
 1515              	.L82:
 1516              	.LBE152:
 1517              	.LBE151:
  95:src/kObjectAllocatorTest.cpp ****     bool expectedBitValues[16] = {
 1518              		.loc 2 95 51 is_stmt 1 discriminator 5
  95:src/kObjectAllocatorTest.cpp ****     bool expectedBitValues[16] = {
 1519              		.loc 2 95 58 is_stmt 0 discriminator 5
 1520 09b0 130A0000 		li	s4,0
 1521              	.LVL211:
 1522 09b4 6FF01FA2 		j	.L99
 1523              	.LVL212:
 1524              	.L81:
  96:src/kObjectAllocatorTest.cpp ****             true, true, true, true, false, true, true, false,
 1525              		.loc 2 96 5 is_stmt 1
  96:src/kObjectAllocatorTest.cpp ****             true, true, true, true, false, true, true, false,
 1526              		.loc 2 96 10 is_stmt 0
 1527 09b8 97070000 		lla	a5,.LANCHOR0
 1527      93870700 
 1528 09c0 03B70700 		ld	a4,0(a5)
 1529 09c4 2338E4F4 		sd	a4,-176(s0)
 1530 09c8 83B78700 		ld	a5,8(a5)
 1531 09cc 233CF4F4 		sd	a5,-168(s0)
 100:src/kObjectAllocatorTest.cpp ****     for (size_t i = 0; i < 16; ++i) {
 1532              		.loc 2 100 5 is_stmt 1
 1533              	.LVL213:
 100:src/kObjectAllocatorTest.cpp ****     for (size_t i = 0; i < 16; ++i) {
 1534              		.loc 2 100 15
 101:src/kObjectAllocatorTest.cpp ****         if (expectedBitValues[i] != getValueOfBitAt(byte, bit, objAlloc))
 1535              		.loc 2 101 5
 1536              	.LBB154:
 101:src/kObjectAllocatorTest.cpp ****         if (expectedBitValues[i] != getValueOfBitAt(byte, bit, objAlloc))
 1537              		.loc 2 101 17 is_stmt 0
 1538 09d0 130A0000 		li	s4,0
 1539              	.LBE154:
 100:src/kObjectAllocatorTest.cpp ****     for (size_t i = 0; i < 16; ++i) {
 1540              		.loc 2 100 10
 1541 09d4 930A0000 		li	s5,0
 1542 09d8 6F00C002 		j	.L89
 1543              	.LVL214:
 1544              	.L112:
 1545              	.LBB155:
 103:src/kObjectAllocatorTest.cpp ****     }
 1546              		.loc 2 103 15 is_stmt 1
 103:src/kObjectAllocatorTest.cpp ****     }
 1547              		.loc 2 103 30 is_stmt 0
 1548 09dc 63880400 		beqz	s1,.L87
 103:src/kObjectAllocatorTest.cpp ****     }
 1549              		.loc 2 103 22 discriminator 1
 1550 09e0 13850400 		mv	a0,s1
GAS LISTING /tmp/cciR7THS.s 			page 39


 1551 09e4 97000000 		call	_ZN16KObjectAllocatordlEPv
 1551      E7800000 
 1552              	.LVL215:
 1553              	.L87:
 103:src/kObjectAllocatorTest.cpp ****     }
 1554              		.loc 2 103 32 is_stmt 1 discriminator 2
 103:src/kObjectAllocatorTest.cpp ****     }
 1555              		.loc 2 103 39 is_stmt 0 discriminator 2
 1556 09ec 130A0000 		li	s4,0
 1557              	.LVL216:
 1558 09f0 6FF05F9E 		j	.L99
 1559              	.LVL217:
 1560              	.L113:
 103:src/kObjectAllocatorTest.cpp ****     }
 1561              		.loc 2 103 64 is_stmt 1 discriminator 3
 1562 09f4 938A1A00 		addi	s5,s5,1
 1563              	.LVL218:
 103:src/kObjectAllocatorTest.cpp ****     }
 1564              		.loc 2 103 72 discriminator 3
 103:src/kObjectAllocatorTest.cpp ****     }
 1565              		.loc 2 103 76 is_stmt 0 discriminator 3
 1566 09f8 13098000 		li	s2,8
 1567              	.LVL219:
 1568              	.L88:
 103:src/kObjectAllocatorTest.cpp ****     }
 1569              		.loc 2 103 83 is_stmt 1 discriminator 5
 1570 09fc 1309F9FF 		addi	s2,s2,-1
 1571              	.LVL220:
 101:src/kObjectAllocatorTest.cpp ****         if (expectedBitValues[i] != getValueOfBitAt(byte, bit, objAlloc))
 1572              		.loc 2 101 5 discriminator 5
 1573 0a00 130A1A00 		addi	s4,s4,1
 1574              	.LVL221:
 1575              	.L89:
 101:src/kObjectAllocatorTest.cpp ****         if (expectedBitValues[i] != getValueOfBitAt(byte, bit, objAlloc))
 1576              		.loc 2 101 26 discriminator 2
 1577 0a04 9307F000 		li	a5,15
 1578 0a08 63EA4703 		bgtu	s4,a5,.L85
 102:src/kObjectAllocatorTest.cpp ****             { delete objAlloc; return false; } if (bit == 0) { ++byte; bit = 8; } --bit;
 1579              		.loc 2 102 9
 102:src/kObjectAllocatorTest.cpp ****             { delete objAlloc; return false; } if (bit == 0) { ++byte; bit = 8; } --bit;
 1580              		.loc 2 102 32 is_stmt 0
 1581 0a0c 930704FB 		addi	a5,s0,-80
 1582 0a10 B3874701 		add	a5,a5,s4
 1583 0a14 03CB07FA 		lbu	s6,-96(a5)
 102:src/kObjectAllocatorTest.cpp ****             { delete objAlloc; return false; } if (bit == 0) { ++byte; bit = 8; } --bit;
 1584              		.loc 2 102 52
 1585 0a18 93860400 		mv	a3,s1
 1586 0a1c 13060900 		mv	a2,s2
 1587 0a20 93850A00 		mv	a1,s5
 1588 0a24 13850900 		mv	a0,s3
 1589 0a28 97000000 		call	_ZN20KObjectAllocatorTest15getValueOfBitAtEmmP16KObjectAllocator
 1589      E7800000 
 1590              	.LVL222:
 102:src/kObjectAllocatorTest.cpp ****             { delete objAlloc; return false; } if (bit == 0) { ++byte; bit = 8; } --bit;
 1591              		.loc 2 102 9
 1592 0a30 E316ABFA 		bne	s6,a0,.L112
 103:src/kObjectAllocatorTest.cpp ****     }
GAS LISTING /tmp/cciR7THS.s 			page 40


 1593              		.loc 2 103 48 is_stmt 1
 1594 0a34 E31409FC 		bnez	s2,.L88
 1595 0a38 6FF0DFFB 		j	.L113
 1596              	.L85:
 1597              	.LBE155:
 105:src/kObjectAllocatorTest.cpp ****     return true;
 1598              		.loc 2 105 5
 105:src/kObjectAllocatorTest.cpp ****     return true;
 1599              		.loc 2 105 20 is_stmt 0
 1600 0a3c 638E0406 		beqz	s1,.L97
 1601              	.LBB156:
 1602              	.LBB157:
 1603              	.LBB158:
  68:src/../h/kObjectAllocator.hpp ****             MemoryAllocator::instance()->kmem_free(((KObjectAllocator*) p)->bitVectors[i]);
 1604              		.loc 1 68 21
 1605 0a40 13090000 		li	s2,0
 1606              	.LVL223:
 1607 0a44 6F008002 		j	.L91
 1608              	.LVL224:
 1609              	.L114:
  69:src/../h/kObjectAllocator.hpp ****         MemoryAllocator::instance()->kmem_free(((KObjectAllocator*) p)->bitVectors);
 1610              		.loc 1 69 13 is_stmt 1
  69:src/../h/kObjectAllocator.hpp ****         MemoryAllocator::instance()->kmem_free(((KObjectAllocator*) p)->bitVectors);
 1611              		.loc 1 69 51 is_stmt 0
 1612 0a48 97000000 		call	_ZN15MemoryAllocator8instanceEv@plt
 1612      E7800000 
 1613              	.LVL225:
  69:src/../h/kObjectAllocator.hpp ****         MemoryAllocator::instance()->kmem_free(((KObjectAllocator*) p)->bitVectors);
 1614              		.loc 1 69 77
 1615 0a50 83B78402 		ld	a5,40(s1)
  69:src/../h/kObjectAllocator.hpp ****         MemoryAllocator::instance()->kmem_free(((KObjectAllocator*) p)->bitVectors);
 1616              		.loc 1 69 89
 1617 0a54 13173900 		slli	a4,s2,3
 1618 0a58 B387E700 		add	a5,a5,a4
  69:src/../h/kObjectAllocator.hpp ****         MemoryAllocator::instance()->kmem_free(((KObjectAllocator*) p)->bitVectors);
 1619              		.loc 1 69 51
 1620 0a5c 83B50700 		ld	a1,0(a5)
 1621 0a60 97000000 		call	_ZN15MemoryAllocator9kmem_freeEPv@plt
 1621      E7800000 
 1622              	.LVL226:
  68:src/../h/kObjectAllocator.hpp ****             MemoryAllocator::instance()->kmem_free(((KObjectAllocator*) p)->bitVectors[i]);
 1623              		.loc 1 68 9 is_stmt 1
 1624 0a68 13091900 		addi	s2,s2,1
 1625              	.LVL227:
 1626              	.L91:
  68:src/../h/kObjectAllocator.hpp ****             MemoryAllocator::instance()->kmem_free(((KObjectAllocator*) p)->bitVectors[i]);
 1627              		.loc 1 68 30
  68:src/../h/kObjectAllocator.hpp ****             MemoryAllocator::instance()->kmem_free(((KObjectAllocator*) p)->bitVectors[i]);
 1628              		.loc 1 68 57 is_stmt 0
 1629 0a6c 83B70403 		ld	a5,48(s1)
  68:src/../h/kObjectAllocator.hpp ****             MemoryAllocator::instance()->kmem_free(((KObjectAllocator*) p)->bitVectors[i]);
 1630              		.loc 1 68 30
 1631 0a70 E36CF9FC 		bgtu	a5,s2,.L114
 1632              	.LBE158:
  70:src/../h/kObjectAllocator.hpp ****         MemoryAllocator::instance()->kmem_free(((KObjectAllocator*) p)->objectVectors);
 1633              		.loc 1 70 9 is_stmt 1
  70:src/../h/kObjectAllocator.hpp ****         MemoryAllocator::instance()->kmem_free(((KObjectAllocator*) p)->objectVectors);
GAS LISTING /tmp/cciR7THS.s 			page 41


 1634              		.loc 1 70 47 is_stmt 0
 1635 0a74 97000000 		call	_ZN15MemoryAllocator8instanceEv@plt
 1635      E7800000 
 1636              	.LVL228:
 1637 0a7c 83B58402 		ld	a1,40(s1)
 1638 0a80 97000000 		call	_ZN15MemoryAllocator9kmem_freeEPv@plt
 1638      E7800000 
 1639              	.LVL229:
  71:src/../h/kObjectAllocator.hpp ****         MemoryAllocator::instance()->kmem_free(p);
 1640              		.loc 1 71 9 is_stmt 1
  71:src/../h/kObjectAllocator.hpp ****         MemoryAllocator::instance()->kmem_free(p);
 1641              		.loc 1 71 47 is_stmt 0
 1642 0a88 97000000 		call	_ZN15MemoryAllocator8instanceEv@plt
 1642      E7800000 
 1643              	.LVL230:
 1644 0a90 83B50402 		ld	a1,32(s1)
 1645 0a94 97000000 		call	_ZN15MemoryAllocator9kmem_freeEPv@plt
 1645      E7800000 
 1646              	.LVL231:
  72:src/../h/kObjectAllocator.hpp ****     }
 1647              		.loc 1 72 9 is_stmt 1
  72:src/../h/kObjectAllocator.hpp ****     }
 1648              		.loc 1 72 47 is_stmt 0
 1649 0a9c 97000000 		call	_ZN15MemoryAllocator8instanceEv@plt
 1649      E7800000 
 1650              	.LVL232:
 1651 0aa4 93850400 		mv	a1,s1
 1652 0aa8 97000000 		call	_ZN15MemoryAllocator9kmem_freeEPv@plt
 1652      E7800000 
 1653              	.LVL233:
 1654              	.LEHE2:
 1655              	.LBE157:
 1656              	.LBE156:
 106:src/kObjectAllocatorTest.cpp **** }
 1657              		.loc 2 106 12
 1658 0ab0 130A1000 		li	s4,1
 1659              	.LVL234:
 1660              	.LBB160:
 1661              	.LBB159:
  73:src/../h/kObjectAllocator.hpp ****     void printInternalMemory();
 1662              		.loc 1 73 5
 1663 0ab4 6FF01F92 		j	.L99
 1664              	.LVL235:
 1665              	.L97:
 1666              	.LBE159:
 1667              	.LBE160:
 106:src/kObjectAllocatorTest.cpp **** }
 1668              		.loc 2 106 12
 1669 0ab8 130A1000 		li	s4,1
 1670              	.LVL236:
 1671 0abc 6FF09F91 		j	.L99
 1672              	.LVL237:
 1673              	.L98:
 1674 0ac0 13090500 		mv	s2,a0
 1675              	.LVL238:
  70:src/kObjectAllocatorTest.cpp ****     if (objAlloc->getNumberOfObjects() != 16) { delete objAlloc; return false; }
 1676              		.loc 2 70 62
GAS LISTING /tmp/cciR7THS.s 			page 42


 1677 0ac4 13850400 		mv	a0,s1
 1678 0ac8 97000000 		call	_ZN16KObjectAllocatordlEPv
 1678      E7800000 
 1679              	.LVL239:
 1680 0ad0 13050900 		mv	a0,s2
 1681              	.LEHB3:
 1682 0ad4 97000000 		call	_Unwind_Resume@plt
 1682      E7800000 
 1683              	.LVL240:
 1684              	.LEHE3:
 1685              		.cfi_endproc
 1686              	.LFE27:
 1687              		.globl	__gxx_personality_v0
 1688              		.section	.gcc_except_table,"a",@progbits
 1689              	.LLSDA27:
 1690 0000 FF       		.byte	0xff
 1691 0001 FF       		.byte	0xff
 1692 0002 03       		.byte	0x3
 1693 0003 34       		.byte	0x34
 1694 0004 00000000 		.4byte	.LEHB0-.LFB27
 1695 0008 00000000 		.4byte	.LEHE0-.LEHB0
 1696 000c 00000000 		.4byte	0
 1697 0010 00       		.byte	0
 1698 0011 00000000 		.4byte	.LEHB1-.LFB27
 1699 0015 00000000 		.4byte	.LEHE1-.LEHB1
 1700 0019 00000000 		.4byte	.L98-.LFB27
 1701 001d 00       		.byte	0
 1702 001e 00000000 		.4byte	.LEHB2-.LFB27
 1703 0022 00000000 		.4byte	.LEHE2-.LEHB2
 1704 0026 00000000 		.4byte	0
 1705 002a 00       		.byte	0
 1706 002b 00000000 		.4byte	.LEHB3-.LFB27
 1707 002f 00000000 		.4byte	.LEHE3-.LEHB3
 1708 0033 00000000 		.4byte	0
 1709 0037 00       		.byte	0
 1710              		.text
 1712              		.align	2
 1713              		.globl	_ZN20KObjectAllocatorTest5test1Em
 1715              	_ZN20KObjectAllocatorTest5test1Em:
 1716              	.LFB28:
 108:src/kObjectAllocatorTest.cpp **** 
 109:src/kObjectAllocatorTest.cpp **** bool KObjectAllocatorTest::test1(size_t size) {
 1717              		.loc 2 109 47 is_stmt 1
 1718              		.cfi_startproc
 1719              		.cfi_personality 0x9b,DW.ref.__gxx_personality_v0
 1720              		.cfi_lsda 0x1b,.LLSDA28
 1721              	.LVL241:
 1722 0adc 13010181 		addi	sp,sp,-2032
 1723              		.cfi_def_cfa_offset 2032
 1724 0ae0 2334117E 		sd	ra,2024(sp)
 1725 0ae4 2330817E 		sd	s0,2016(sp)
 1726 0ae8 233C917C 		sd	s1,2008(sp)
 1727 0aec 2338217D 		sd	s2,2000(sp)
 1728 0af0 2334317D 		sd	s3,1992(sp)
 1729 0af4 2330417D 		sd	s4,1984(sp)
 1730 0af8 233C517B 		sd	s5,1976(sp)
 1731              		.cfi_offset 1, -8
GAS LISTING /tmp/cciR7THS.s 			page 43


 1732              		.cfi_offset 8, -16
 1733              		.cfi_offset 9, -24
 1734              		.cfi_offset 18, -32
 1735              		.cfi_offset 19, -40
 1736              		.cfi_offset 20, -48
 1737              		.cfi_offset 21, -56
 1738 0afc 1304017F 		addi	s0,sp,2032
 1739              		.cfi_def_cfa 8, 0
 1740 0b00 130101DB 		addi	sp,sp,-592
 1741 0b04 93090500 		mv	s3,a0
 1742 0b08 13890500 		mv	s2,a1
 110:src/kObjectAllocatorTest.cpp ****     KObjectAllocator* objAlloc = new KObjectAllocator(size);
 1743              		.loc 2 110 5
 1744              	.LVL242:
 1745              	.LBB201:
 1746              	.LBB202:
  65:src/../h/kObjectAllocator.hpp ****     }
 1747              		.loc 1 65 9
 1748              	.LEHB4:
  65:src/../h/kObjectAllocator.hpp ****     }
 1749              		.loc 1 65 55 is_stmt 0
 1750 0b0c 97000000 		call	_ZN15MemoryAllocator8instanceEv@plt
 1750      E7800000 
 1751              	.LVL243:
 1752 0b14 93050004 		li	a1,64
 1753 0b18 97000000 		call	_ZN15MemoryAllocator10kmem_allocEm@plt
 1753      E7800000 
 1754              	.LVL244:
 1755              	.LEHE4:
 1756 0b20 93040500 		mv	s1,a0
 1757              	.LVL245:
 1758              	.LBE202:
 1759              	.LBE201:
 1760              	.LBB203:
 1761              	.LBB204:
 1762              	.LBB205:
  51:src/../h/kObjectAllocator.hpp ****         bitVectors = (uint8**) MemoryAllocator::instance()->kmem_alloc(numberOfAllocations * sizeof
 1763              		.loc 1 51 120
 1764 0b24 93070014 		li	a5,320
 1765 0b28 2330F500 		sd	a5,0(a0)
 1766 0b2c 2334F500 		sd	a5,8(a0)
 1767 0b30 233C2501 		sd	s2,24(a0)
 1768 0b34 93071000 		li	a5,1
 1769 0b38 2338F502 		sd	a5,48(a0)
 1770 0b3c 233C0502 		sd	zero,56(a0)
 1771              	.LBB206:
  52:src/../h/kObjectAllocator.hpp ****         objectVectors = (uint8**) MemoryAllocator::instance()->kmem_alloc(numberOfAllocations * siz
 1772              		.loc 1 52 9 is_stmt 1
 1773              	.LEHB5:
  52:src/../h/kObjectAllocator.hpp ****         objectVectors = (uint8**) MemoryAllocator::instance()->kmem_alloc(numberOfAllocations * siz
 1774              		.loc 1 52 71 is_stmt 0
 1775 0b40 97000000 		call	_ZN15MemoryAllocator8instanceEv@plt
 1775      E7800000 
 1776              	.LVL246:
  52:src/../h/kObjectAllocator.hpp ****         objectVectors = (uint8**) MemoryAllocator::instance()->kmem_alloc(numberOfAllocations * siz
 1777              		.loc 1 52 72
 1778 0b48 83B50403 		ld	a1,48(s1)
GAS LISTING /tmp/cciR7THS.s 			page 44


  52:src/../h/kObjectAllocator.hpp ****         objectVectors = (uint8**) MemoryAllocator::instance()->kmem_alloc(numberOfAllocations * siz
 1779              		.loc 1 52 71
 1780 0b4c 93953500 		slli	a1,a1,3
 1781 0b50 97000000 		call	_ZN15MemoryAllocator10kmem_allocEm@plt
 1781      E7800000 
 1782              	.LVL247:
  52:src/../h/kObjectAllocator.hpp ****         objectVectors = (uint8**) MemoryAllocator::instance()->kmem_alloc(numberOfAllocations * siz
 1783              		.loc 1 52 20
 1784 0b58 23B4A402 		sd	a0,40(s1)
  53:src/../h/kObjectAllocator.hpp ****         initialNumberOfObjects = numberOfObjects = numberOfObjects / 8 * 8 + 8 * (numberOfObjects /
 1785              		.loc 1 53 9 is_stmt 1
  53:src/../h/kObjectAllocator.hpp ****         initialNumberOfObjects = numberOfObjects = numberOfObjects / 8 * 8 + 8 * (numberOfObjects /
 1786              		.loc 1 53 74 is_stmt 0
 1787 0b5c 97000000 		call	_ZN15MemoryAllocator8instanceEv@plt
 1787      E7800000 
 1788              	.LVL248:
  53:src/../h/kObjectAllocator.hpp ****         initialNumberOfObjects = numberOfObjects = numberOfObjects / 8 * 8 + 8 * (numberOfObjects /
 1789              		.loc 1 53 75
 1790 0b64 83B50403 		ld	a1,48(s1)
  53:src/../h/kObjectAllocator.hpp ****         initialNumberOfObjects = numberOfObjects = numberOfObjects / 8 * 8 + 8 * (numberOfObjects /
 1791              		.loc 1 53 74
 1792 0b68 93953500 		slli	a1,a1,3
 1793 0b6c 97000000 		call	_ZN15MemoryAllocator10kmem_allocEm@plt
 1793      E7800000 
 1794              	.LVL249:
  53:src/../h/kObjectAllocator.hpp ****         initialNumberOfObjects = numberOfObjects = numberOfObjects / 8 * 8 + 8 * (numberOfObjects /
 1795              		.loc 1 53 23
 1796 0b74 23B0A402 		sd	a0,32(s1)
  54:src/../h/kObjectAllocator.hpp ****         // one bit for each object which indicates whether memory
 1797              		.loc 1 54 9 is_stmt 1
  54:src/../h/kObjectAllocator.hpp ****         // one bit for each object which indicates whether memory
 1798              		.loc 1 54 52 is_stmt 0
 1799 0b78 03B78400 		ld	a4,8(s1)
  54:src/../h/kObjectAllocator.hpp ****         // one bit for each object which indicates whether memory
 1800              		.loc 1 54 72
 1801 0b7c 937787FF 		andi	a5,a4,-8
  54:src/../h/kObjectAllocator.hpp ****         // one bit for each object which indicates whether memory
 1802              		.loc 1 54 80
 1803 0b80 6304F702 		beq	a4,a5,.L185
 1804 0b84 13078000 		li	a4,8
 1805              	.L116:
  54:src/../h/kObjectAllocator.hpp ****         // one bit for each object which indicates whether memory
 1806              		.loc 1 54 76
 1807 0b88 B387E700 		add	a5,a5,a4
  54:src/../h/kObjectAllocator.hpp ****         // one bit for each object which indicates whether memory
 1808              		.loc 1 54 50
 1809 0b8c 23B4F400 		sd	a5,8(s1)
  54:src/../h/kObjectAllocator.hpp ****         // one bit for each object which indicates whether memory
 1810              		.loc 1 54 32
 1811 0b90 23B0F400 		sd	a5,0(s1)
  57:src/../h/kObjectAllocator.hpp ****         bitVectors[0] = (uint8*) MemoryAllocator::instance()->kmem_alloc(
 1812              		.loc 1 57 9 is_stmt 1
  57:src/../h/kObjectAllocator.hpp ****         bitVectors[0] = (uint8*) MemoryAllocator::instance()->kmem_alloc(
 1813              		.loc 1 57 45 is_stmt 0
 1814 0b94 93D73700 		srli	a5,a5,3
  57:src/../h/kObjectAllocator.hpp ****         bitVectors[0] = (uint8*) MemoryAllocator::instance()->kmem_alloc(
 1815              		.loc 1 57 27
GAS LISTING /tmp/cciR7THS.s 			page 45


 1816 0b98 23B8F400 		sd	a5,16(s1)
  58:src/../h/kObjectAllocator.hpp ****                 memorySizeForBits + initialNumberOfObjects * objectSize
 1817              		.loc 1 58 9 is_stmt 1
  58:src/../h/kObjectAllocator.hpp ****                 memorySizeForBits + initialNumberOfObjects * objectSize
 1818              		.loc 1 58 73 is_stmt 0
 1819 0b9c 97000000 		call	_ZN15MemoryAllocator8instanceEv@plt
 1819      E7800000 
 1820              	.LVL250:
 1821 0ba4 6F00C000 		j	.L197
 1822              	.L185:
  54:src/../h/kObjectAllocator.hpp ****         // one bit for each object which indicates whether memory
 1823              		.loc 1 54 80
 1824 0ba8 13070000 		li	a4,0
 1825 0bac 6FF0DFFD 		j	.L116
 1826              	.L197:
  59:src/../h/kObjectAllocator.hpp ****         );
 1827              		.loc 1 59 17
 1828 0bb0 83B50401 		ld	a1,16(s1)
  59:src/../h/kObjectAllocator.hpp ****         );
 1829              		.loc 1 59 37
 1830 0bb4 83B70400 		ld	a5,0(s1)
  59:src/../h/kObjectAllocator.hpp ****         );
 1831              		.loc 1 59 60
 1832 0bb8 B307F902 		mul	a5,s2,a5
  58:src/../h/kObjectAllocator.hpp ****                 memorySizeForBits + initialNumberOfObjects * objectSize
 1833              		.loc 1 58 9
 1834 0bbc 03BA8402 		ld	s4,40(s1)
  58:src/../h/kObjectAllocator.hpp ****                 memorySizeForBits + initialNumberOfObjects * objectSize
 1835              		.loc 1 58 73
 1836 0bc0 B385F500 		add	a1,a1,a5
 1837 0bc4 97000000 		call	_ZN15MemoryAllocator10kmem_allocEm@plt
 1837      E7800000 
 1838              	.LVL251:
 1839              	.LEHE5:
  58:src/../h/kObjectAllocator.hpp ****                 memorySizeForBits + initialNumberOfObjects * objectSize
 1840              		.loc 1 58 23
 1841 0bcc 2330AA00 		sd	a0,0(s4)
  61:src/../h/kObjectAllocator.hpp ****         for (size_t i = 0; i < memorySizeForBits; bitVectors[0][i++] = 0);
 1842              		.loc 1 61 9 is_stmt 1
  61:src/../h/kObjectAllocator.hpp ****         for (size_t i = 0; i < memorySizeForBits; bitVectors[0][i++] = 0);
 1843              		.loc 1 61 28 is_stmt 0
 1844 0bd0 83B78402 		ld	a5,40(s1)
  61:src/../h/kObjectAllocator.hpp ****         for (size_t i = 0; i < memorySizeForBits; bitVectors[0][i++] = 0);
 1845              		.loc 1 61 40
 1846 0bd4 83B70700 		ld	a5,0(a5)
  61:src/../h/kObjectAllocator.hpp ****         for (size_t i = 0; i < memorySizeForBits; bitVectors[0][i++] = 0);
 1847              		.loc 1 61 44
 1848 0bd8 83B60401 		ld	a3,16(s1)
  61:src/../h/kObjectAllocator.hpp ****         for (size_t i = 0; i < memorySizeForBits; bitVectors[0][i++] = 0);
 1849              		.loc 1 61 9
 1850 0bdc 03B70402 		ld	a4,32(s1)
  61:src/../h/kObjectAllocator.hpp ****         for (size_t i = 0; i < memorySizeForBits; bitVectors[0][i++] = 0);
 1851              		.loc 1 61 42
 1852 0be0 B387D700 		add	a5,a5,a3
  61:src/../h/kObjectAllocator.hpp ****         for (size_t i = 0; i < memorySizeForBits; bitVectors[0][i++] = 0);
 1853              		.loc 1 61 26
 1854 0be4 2330F700 		sd	a5,0(a4)
GAS LISTING /tmp/cciR7THS.s 			page 46


  62:src/../h/kObjectAllocator.hpp ****     }
 1855              		.loc 1 62 9 is_stmt 1
 1856              	.LVL252:
 1857              	.LBB207:
  62:src/../h/kObjectAllocator.hpp ****     }
 1858              		.loc 1 62 21 is_stmt 0
 1859 0be8 93070000 		li	a5,0
 1860              	.LVL253:
 1861              	.L118:
  62:src/../h/kObjectAllocator.hpp ****     }
 1862              		.loc 1 62 30 is_stmt 1
  62:src/../h/kObjectAllocator.hpp ****     }
 1863              		.loc 1 62 32 is_stmt 0
 1864 0bec 03B70401 		ld	a4,16(s1)
  62:src/../h/kObjectAllocator.hpp ****     }
 1865              		.loc 1 62 30
 1866 0bf0 63FEE700 		bleu	a4,a5,.L117
  62:src/../h/kObjectAllocator.hpp ****     }
 1867              		.loc 1 62 9 is_stmt 1
  62:src/../h/kObjectAllocator.hpp ****     }
 1868              		.loc 1 62 51 is_stmt 0
 1869 0bf4 03B78402 		ld	a4,40(s1)
  62:src/../h/kObjectAllocator.hpp ****     }
 1870              		.loc 1 62 63
 1871 0bf8 03370700 		ld	a4,0(a4)
 1872              	.LVL254:
  62:src/../h/kObjectAllocator.hpp ****     }
 1873              		.loc 1 62 68
 1874 0bfc 3307F700 		add	a4,a4,a5
  62:src/../h/kObjectAllocator.hpp ****     }
 1875              		.loc 1 62 70
 1876 0c00 23000700 		sb	zero,0(a4)
  62:src/../h/kObjectAllocator.hpp ****     }
 1877              		.loc 1 62 66
 1878 0c04 93871700 		addi	a5,a5,1
 1879              	.LVL255:
  62:src/../h/kObjectAllocator.hpp ****     }
 1880              		.loc 1 62 9
 1881 0c08 6FF05FFE 		j	.L118
 1882              	.L117:
 1883              	.LVL256:
 1884              	.LBE207:
 1885              	.LBE206:
 1886              	.LBE205:
 1887              	.LBE204:
 1888              	.LBE203:
 111:src/kObjectAllocatorTest.cpp ****     if (objAlloc->getNumberOfObjects() != 320) { delete objAlloc; return false; }
 1889              		.loc 2 111 5 is_stmt 1 discriminator 3
 1890              	.LBB208:
 1891              	.LBB209:
  77:src/../h/kObjectAllocator.hpp ****     size_t getMemorySizeForBits() { return memorySizeForBits; }
 1892              		.loc 1 77 35 discriminator 3
  77:src/../h/kObjectAllocator.hpp ****     size_t getMemorySizeForBits() { return memorySizeForBits; }
 1893              		.loc 1 77 42 is_stmt 0 discriminator 3
 1894 0c0c 03B78400 		ld	a4,8(s1)
 1895              	.LVL257:
 1896              	.LBE209:
GAS LISTING /tmp/cciR7THS.s 			page 47


 1897              	.LBE208:
 1898              		.loc 2 111 5 discriminator 3
 1899 0c10 93070014 		li	a5,320
 1900 0c14 6302F70A 		beq	a4,a5,.L119
 1901              		.loc 2 111 50 is_stmt 1 discriminator 1
 1902              		.loc 2 111 65 is_stmt 0 discriminator 1
 1903 0c18 638A0406 		beqz	s1,.L120
 1904              	.LBB210:
 1905              	.LBB211:
 1906              	.LBB212:
  68:src/../h/kObjectAllocator.hpp ****             MemoryAllocator::instance()->kmem_free(((KObjectAllocator*) p)->bitVectors[i]);
 1907              		.loc 1 68 21
 1908 0c1c 13090000 		li	s2,0
 1909              	.LVL258:
 1910              	.L122:
  68:src/../h/kObjectAllocator.hpp ****             MemoryAllocator::instance()->kmem_free(((KObjectAllocator*) p)->bitVectors[i]);
 1911              		.loc 1 68 30 is_stmt 1
  68:src/../h/kObjectAllocator.hpp ****             MemoryAllocator::instance()->kmem_free(((KObjectAllocator*) p)->bitVectors[i]);
 1912              		.loc 1 68 57 is_stmt 0
 1913 0c20 83B70403 		ld	a5,48(s1)
  68:src/../h/kObjectAllocator.hpp ****             MemoryAllocator::instance()->kmem_free(((KObjectAllocator*) p)->bitVectors[i]);
 1914              		.loc 1 68 30
 1915 0c24 6376F902 		bleu	a5,s2,.L121
  69:src/../h/kObjectAllocator.hpp ****         MemoryAllocator::instance()->kmem_free(((KObjectAllocator*) p)->bitVectors);
 1916              		.loc 1 69 13 is_stmt 1
 1917              	.LEHB6:
  69:src/../h/kObjectAllocator.hpp ****         MemoryAllocator::instance()->kmem_free(((KObjectAllocator*) p)->bitVectors);
 1918              		.loc 1 69 51 is_stmt 0
 1919 0c28 97000000 		call	_ZN15MemoryAllocator8instanceEv@plt
 1919      E7800000 
 1920              	.LVL259:
  69:src/../h/kObjectAllocator.hpp ****         MemoryAllocator::instance()->kmem_free(((KObjectAllocator*) p)->bitVectors);
 1921              		.loc 1 69 77
 1922 0c30 83B78402 		ld	a5,40(s1)
  69:src/../h/kObjectAllocator.hpp ****         MemoryAllocator::instance()->kmem_free(((KObjectAllocator*) p)->bitVectors);
 1923              		.loc 1 69 89
 1924 0c34 13173900 		slli	a4,s2,3
 1925 0c38 B387E700 		add	a5,a5,a4
  69:src/../h/kObjectAllocator.hpp ****         MemoryAllocator::instance()->kmem_free(((KObjectAllocator*) p)->bitVectors);
 1926              		.loc 1 69 51
 1927 0c3c 83B50700 		ld	a1,0(a5)
 1928 0c40 97000000 		call	_ZN15MemoryAllocator9kmem_freeEPv@plt
 1928      E7800000 
 1929              	.LVL260:
  68:src/../h/kObjectAllocator.hpp ****             MemoryAllocator::instance()->kmem_free(((KObjectAllocator*) p)->bitVectors[i]);
 1930              		.loc 1 68 9 is_stmt 1
 1931 0c48 13091900 		addi	s2,s2,1
 1932              	.LVL261:
 1933 0c4c 6FF05FFD 		j	.L122
 1934              	.L121:
 1935              	.LBE212:
  70:src/../h/kObjectAllocator.hpp ****         MemoryAllocator::instance()->kmem_free(((KObjectAllocator*) p)->objectVectors);
 1936              		.loc 1 70 9
  70:src/../h/kObjectAllocator.hpp ****         MemoryAllocator::instance()->kmem_free(((KObjectAllocator*) p)->objectVectors);
 1937              		.loc 1 70 47 is_stmt 0
 1938 0c50 97000000 		call	_ZN15MemoryAllocator8instanceEv@plt
 1938      E7800000 
GAS LISTING /tmp/cciR7THS.s 			page 48


 1939              	.LVL262:
 1940 0c58 83B58402 		ld	a1,40(s1)
 1941 0c5c 97000000 		call	_ZN15MemoryAllocator9kmem_freeEPv@plt
 1941      E7800000 
 1942              	.LVL263:
  71:src/../h/kObjectAllocator.hpp ****         MemoryAllocator::instance()->kmem_free(p);
 1943              		.loc 1 71 9 is_stmt 1
  71:src/../h/kObjectAllocator.hpp ****         MemoryAllocator::instance()->kmem_free(p);
 1944              		.loc 1 71 47 is_stmt 0
 1945 0c64 97000000 		call	_ZN15MemoryAllocator8instanceEv@plt
 1945      E7800000 
 1946              	.LVL264:
 1947 0c6c 83B50402 		ld	a1,32(s1)
 1948 0c70 97000000 		call	_ZN15MemoryAllocator9kmem_freeEPv@plt
 1948      E7800000 
 1949              	.LVL265:
  72:src/../h/kObjectAllocator.hpp ****     }
 1950              		.loc 1 72 9 is_stmt 1
  72:src/../h/kObjectAllocator.hpp ****     }
 1951              		.loc 1 72 47 is_stmt 0
 1952 0c78 97000000 		call	_ZN15MemoryAllocator8instanceEv@plt
 1952      E7800000 
 1953              	.LVL266:
 1954 0c80 93850400 		mv	a1,s1
 1955 0c84 97000000 		call	_ZN15MemoryAllocator9kmem_freeEPv@plt
 1955      E7800000 
 1956              	.LVL267:
 1957              	.L120:
 1958              	.LBE211:
 1959              	.LBE210:
 1960              		.loc 2 111 67 is_stmt 1 discriminator 3
 1961              		.loc 2 111 74 is_stmt 0 discriminator 3
 1962 0c8c 13050000 		li	a0,0
 1963              	.L190:
 112:src/kObjectAllocatorTest.cpp ****     if (objAlloc->getMemorySizeForBits() != 40) { delete objAlloc; return false; }
 113:src/kObjectAllocatorTest.cpp ****     if (objAlloc->getObjectSize() != size) { delete objAlloc; return false; }
 114:src/kObjectAllocatorTest.cpp ****     void* objArr[320]; for (size_t i = 0; i < 32; objArr[i++] = objAlloc->allocateNewObject());
 115:src/kObjectAllocatorTest.cpp ****     if (getByteOfObject(objArr[31], objAlloc) != 3
 116:src/kObjectAllocatorTest.cpp ****         || getBitOfObject(objArr[31], objAlloc) != 0)
 117:src/kObjectAllocatorTest.cpp ****         { delete objAlloc; return false; }
 118:src/kObjectAllocatorTest.cpp **** 
 119:src/kObjectAllocatorTest.cpp ****     if (objAlloc->nextNonTakenByte != 4) { delete objAlloc; return false; }
 120:src/kObjectAllocatorTest.cpp ****     for (size_t i = 32; i < 320; objArr[i++] = objAlloc->allocateNewObject());
 121:src/kObjectAllocatorTest.cpp ****     if (objAlloc->nextNonTakenByte != 40) { delete objAlloc; return false; }
 122:src/kObjectAllocatorTest.cpp **** 
 123:src/kObjectAllocatorTest.cpp ****     objAlloc->freeObject(objArr[7 * 8]);
 124:src/kObjectAllocatorTest.cpp ****     objArr[7 * 8] = objAlloc->allocateNewObject();
 125:src/kObjectAllocatorTest.cpp ****     if (getByteOfObject(objArr[7 * 8], objAlloc) != 7
 126:src/kObjectAllocatorTest.cpp ****         || getBitOfObject(objArr[7 * 8], objAlloc) != 7)
 127:src/kObjectAllocatorTest.cpp ****         { delete objAlloc; return false; }
 128:src/kObjectAllocatorTest.cpp ****     if (objAlloc->nextNonTakenByte != 7) { delete objAlloc; return false; }
 129:src/kObjectAllocatorTest.cpp **** 
 130:src/kObjectAllocatorTest.cpp ****     objAlloc->freeObject(objArr[6 * 8 + 3]);
 131:src/kObjectAllocatorTest.cpp ****     objAlloc->freeObject(objArr[7 * 8 + 4]);
 132:src/kObjectAllocatorTest.cpp ****     objAlloc->freeObject(objArr[38 * 8 + 5]);
 133:src/kObjectAllocatorTest.cpp **** 
 134:src/kObjectAllocatorTest.cpp ****     objArr[7 * 8 + 4] = objAlloc->allocateNewObject();
GAS LISTING /tmp/cciR7THS.s 			page 49


 135:src/kObjectAllocatorTest.cpp ****     if (getByteOfObject(objArr[7 * 8 + 4], objAlloc) != 7
 136:src/kObjectAllocatorTest.cpp ****         || getBitOfObject(objArr[7 * 8 + 4], objAlloc) != 3)
 137:src/kObjectAllocatorTest.cpp ****         { delete objAlloc; return false; }
 138:src/kObjectAllocatorTest.cpp ****     if (objAlloc->nextNonTakenByte != 7) { delete objAlloc; return false; }
 139:src/kObjectAllocatorTest.cpp ****     objAlloc->freeObject(objArr[3 * 8 + 5]);
 140:src/kObjectAllocatorTest.cpp **** 
 141:src/kObjectAllocatorTest.cpp ****     objArr[38 * 8 + 5] = objAlloc->allocateNewObject();
 142:src/kObjectAllocatorTest.cpp ****     if (getByteOfObject(objArr[38 * 8 + 5], objAlloc) != 38
 143:src/kObjectAllocatorTest.cpp ****         || getBitOfObject(objArr[38 * 8 + 5], objAlloc) != 2)
 144:src/kObjectAllocatorTest.cpp ****     { delete objAlloc; return false; }
 145:src/kObjectAllocatorTest.cpp ****     if (objAlloc->nextNonTakenByte != 38) { delete objAlloc; return false; }
 146:src/kObjectAllocatorTest.cpp **** 
 147:src/kObjectAllocatorTest.cpp **** 
 148:src/kObjectAllocatorTest.cpp ****     objArr[3 * 8 + 5] = objAlloc->allocateNewObject();
 149:src/kObjectAllocatorTest.cpp ****     if (getByteOfObject(objArr[3 * 8 + 5], objAlloc) != 3 || getBitOfObject(objArr[3 * 8 + 5], objA
 150:src/kObjectAllocatorTest.cpp ****     if (objAlloc->nextNonTakenByte != 3) { delete objAlloc; return false; }
 151:src/kObjectAllocatorTest.cpp **** 
 152:src/kObjectAllocatorTest.cpp ****     objArr[6 * 8 + 3] = objAlloc->allocateNewObject();
 153:src/kObjectAllocatorTest.cpp ****     if (getByteOfObject(objArr[6 * 8 + 3], objAlloc) != 6
 154:src/kObjectAllocatorTest.cpp ****         || getBitOfObject(objArr[6 * 8 + 3], objAlloc) != 4)
 155:src/kObjectAllocatorTest.cpp ****     { delete objAlloc; return false; }
 156:src/kObjectAllocatorTest.cpp ****     if (objAlloc->nextNonTakenByte != 6) { delete objAlloc; return false; }
 157:src/kObjectAllocatorTest.cpp **** 
 158:src/kObjectAllocatorTest.cpp ****     for (int i = 0; i < 3; ++i) {
 159:src/kObjectAllocatorTest.cpp ****         objAlloc->freeObject(objArr[319]);
 160:src/kObjectAllocatorTest.cpp ****         objArr[319] = objAlloc->allocateNewObject();
 161:src/kObjectAllocatorTest.cpp ****         if (getByteOfObject(objArr[319], objAlloc) != 39
 162:src/kObjectAllocatorTest.cpp ****             || getBitOfObject(objArr[319], objAlloc) != 0)
 163:src/kObjectAllocatorTest.cpp ****         { delete objAlloc; return false; }
 164:src/kObjectAllocatorTest.cpp ****         if (objAlloc->nextNonTakenByte != 40) { delete objAlloc; return false; }
 165:src/kObjectAllocatorTest.cpp **** 
 166:src/kObjectAllocatorTest.cpp ****         objAlloc->freeObject(objArr[1]);
 167:src/kObjectAllocatorTest.cpp ****         objArr[1] = objAlloc->allocateNewObject();
 168:src/kObjectAllocatorTest.cpp ****         if (getByteOfObject(objArr[1], objAlloc) != 0
 169:src/kObjectAllocatorTest.cpp ****             || getBitOfObject(objArr[1], objAlloc) != 6)
 170:src/kObjectAllocatorTest.cpp ****         { delete objAlloc; return false; }
 171:src/kObjectAllocatorTest.cpp ****         if (objAlloc->nextNonTakenByte != 0) { delete objAlloc; return false; }
 172:src/kObjectAllocatorTest.cpp ****     }
 173:src/kObjectAllocatorTest.cpp ****     delete objAlloc;
 174:src/kObjectAllocatorTest.cpp ****     return true;
 175:src/kObjectAllocatorTest.cpp **** }
 1964              		.loc 2 175 1
 1965 0c90 13010125 		addi	sp,sp,592
 1966              		.cfi_remember_state
 1967              		.cfi_def_cfa 2, 2032
 1968 0c94 8330817E 		ld	ra,2024(sp)
 1969              		.cfi_restore 1
 1970 0c98 0334017E 		ld	s0,2016(sp)
 1971              		.cfi_restore 8
 1972 0c9c 8334817D 		ld	s1,2008(sp)
 1973              		.cfi_restore 9
 1974              	.LVL268:
 1975 0ca0 0339017D 		ld	s2,2000(sp)
 1976              		.cfi_restore 18
 1977 0ca4 8339817C 		ld	s3,1992(sp)
 1978              		.cfi_restore 19
 1979              	.LVL269:
GAS LISTING /tmp/cciR7THS.s 			page 50


 1980 0ca8 033A017C 		ld	s4,1984(sp)
 1981              		.cfi_restore 20
 1982 0cac 833A817B 		ld	s5,1976(sp)
 1983              		.cfi_restore 21
 1984 0cb0 1301017F 		addi	sp,sp,2032
 1985              		.cfi_def_cfa_offset 0
 1986 0cb4 67800000 		jr	ra
 1987              	.LVL270:
 1988              	.L119:
 1989              		.cfi_restore_state
 112:src/kObjectAllocatorTest.cpp ****     if (objAlloc->getMemorySizeForBits() != 40) { delete objAlloc; return false; }
 1990              		.loc 2 112 5 is_stmt 1
 1991              	.LBB213:
 1992              	.LBB214:
 1993              		.loc 1 78 37
 1994              		.loc 1 78 44 is_stmt 0
 1995 0cb8 03B70401 		ld	a4,16(s1)
 1996              	.LVL271:
 1997              	.LBE214:
 1998              	.LBE213:
 112:src/kObjectAllocatorTest.cpp ****     if (objAlloc->getMemorySizeForBits() != 40) { delete objAlloc; return false; }
 1999              		.loc 2 112 5
 2000 0cbc 93078002 		li	a5,40
 2001 0cc0 6300F708 		beq	a4,a5,.L124
 112:src/kObjectAllocatorTest.cpp ****     if (objAlloc->getMemorySizeForBits() != 40) { delete objAlloc; return false; }
 2002              		.loc 2 112 51 is_stmt 1 discriminator 1
 112:src/kObjectAllocatorTest.cpp ****     if (objAlloc->getMemorySizeForBits() != 40) { delete objAlloc; return false; }
 2003              		.loc 2 112 66 is_stmt 0 discriminator 1
 2004 0cc4 638A0406 		beqz	s1,.L125
 2005              	.LBB215:
 2006              	.LBB216:
 2007              	.LBB217:
  68:src/../h/kObjectAllocator.hpp ****             MemoryAllocator::instance()->kmem_free(((KObjectAllocator*) p)->bitVectors[i]);
 2008              		.loc 1 68 21
 2009 0cc8 13090000 		li	s2,0
 2010              	.LVL272:
 2011              	.L127:
  68:src/../h/kObjectAllocator.hpp ****             MemoryAllocator::instance()->kmem_free(((KObjectAllocator*) p)->bitVectors[i]);
 2012              		.loc 1 68 30 is_stmt 1
  68:src/../h/kObjectAllocator.hpp ****             MemoryAllocator::instance()->kmem_free(((KObjectAllocator*) p)->bitVectors[i]);
 2013              		.loc 1 68 57 is_stmt 0
 2014 0ccc 83B70403 		ld	a5,48(s1)
  68:src/../h/kObjectAllocator.hpp ****             MemoryAllocator::instance()->kmem_free(((KObjectAllocator*) p)->bitVectors[i]);
 2015              		.loc 1 68 30
 2016 0cd0 6376F902 		bleu	a5,s2,.L126
  69:src/../h/kObjectAllocator.hpp ****         MemoryAllocator::instance()->kmem_free(((KObjectAllocator*) p)->bitVectors);
 2017              		.loc 1 69 13 is_stmt 1
  69:src/../h/kObjectAllocator.hpp ****         MemoryAllocator::instance()->kmem_free(((KObjectAllocator*) p)->bitVectors);
 2018              		.loc 1 69 51 is_stmt 0
 2019 0cd4 97000000 		call	_ZN15MemoryAllocator8instanceEv@plt
 2019      E7800000 
 2020              	.LVL273:
  69:src/../h/kObjectAllocator.hpp ****         MemoryAllocator::instance()->kmem_free(((KObjectAllocator*) p)->bitVectors);
 2021              		.loc 1 69 77
 2022 0cdc 83B78402 		ld	a5,40(s1)
  69:src/../h/kObjectAllocator.hpp ****         MemoryAllocator::instance()->kmem_free(((KObjectAllocator*) p)->bitVectors);
 2023              		.loc 1 69 89
GAS LISTING /tmp/cciR7THS.s 			page 51


 2024 0ce0 13173900 		slli	a4,s2,3
 2025 0ce4 B387E700 		add	a5,a5,a4
  69:src/../h/kObjectAllocator.hpp ****         MemoryAllocator::instance()->kmem_free(((KObjectAllocator*) p)->bitVectors);
 2026              		.loc 1 69 51
 2027 0ce8 83B50700 		ld	a1,0(a5)
 2028 0cec 97000000 		call	_ZN15MemoryAllocator9kmem_freeEPv@plt
 2028      E7800000 
 2029              	.LVL274:
  68:src/../h/kObjectAllocator.hpp ****             MemoryAllocator::instance()->kmem_free(((KObjectAllocator*) p)->bitVectors[i]);
 2030              		.loc 1 68 9 is_stmt 1
 2031 0cf4 13091900 		addi	s2,s2,1
 2032              	.LVL275:
 2033 0cf8 6FF05FFD 		j	.L127
 2034              	.L126:
 2035              	.LBE217:
  70:src/../h/kObjectAllocator.hpp ****         MemoryAllocator::instance()->kmem_free(((KObjectAllocator*) p)->objectVectors);
 2036              		.loc 1 70 9
  70:src/../h/kObjectAllocator.hpp ****         MemoryAllocator::instance()->kmem_free(((KObjectAllocator*) p)->objectVectors);
 2037              		.loc 1 70 47 is_stmt 0
 2038 0cfc 97000000 		call	_ZN15MemoryAllocator8instanceEv@plt
 2038      E7800000 
 2039              	.LVL276:
 2040 0d04 83B58402 		ld	a1,40(s1)
 2041 0d08 97000000 		call	_ZN15MemoryAllocator9kmem_freeEPv@plt
 2041      E7800000 
 2042              	.LVL277:
  71:src/../h/kObjectAllocator.hpp ****         MemoryAllocator::instance()->kmem_free(p);
 2043              		.loc 1 71 9 is_stmt 1
  71:src/../h/kObjectAllocator.hpp ****         MemoryAllocator::instance()->kmem_free(p);
 2044              		.loc 1 71 47 is_stmt 0
 2045 0d10 97000000 		call	_ZN15MemoryAllocator8instanceEv@plt
 2045      E7800000 
 2046              	.LVL278:
 2047 0d18 83B50402 		ld	a1,32(s1)
 2048 0d1c 97000000 		call	_ZN15MemoryAllocator9kmem_freeEPv@plt
 2048      E7800000 
 2049              	.LVL279:
  72:src/../h/kObjectAllocator.hpp ****     }
 2050              		.loc 1 72 9 is_stmt 1
  72:src/../h/kObjectAllocator.hpp ****     }
 2051              		.loc 1 72 47 is_stmt 0
 2052 0d24 97000000 		call	_ZN15MemoryAllocator8instanceEv@plt
 2052      E7800000 
 2053              	.LVL280:
 2054 0d2c 93850400 		mv	a1,s1
 2055 0d30 97000000 		call	_ZN15MemoryAllocator9kmem_freeEPv@plt
 2055      E7800000 
 2056              	.LVL281:
 2057              	.L125:
 2058              	.LBE216:
 2059              	.LBE215:
 112:src/kObjectAllocatorTest.cpp ****     if (objAlloc->getObjectSize() != size) { delete objAlloc; return false; }
 2060              		.loc 2 112 68 is_stmt 1 discriminator 3
 112:src/kObjectAllocatorTest.cpp ****     if (objAlloc->getObjectSize() != size) { delete objAlloc; return false; }
 2061              		.loc 2 112 75 is_stmt 0 discriminator 3
 2062 0d38 13050000 		li	a0,0
 2063 0d3c 6FF05FF5 		j	.L190
GAS LISTING /tmp/cciR7THS.s 			page 52


 2064              	.LVL282:
 2065              	.L124:
 113:src/kObjectAllocatorTest.cpp ****     void* objArr[320]; for (size_t i = 0; i < 32; objArr[i++] = objAlloc->allocateNewObject());
 2066              		.loc 2 113 5 is_stmt 1
 2067              	.LBB218:
 2068              	.LBB219:
  75:src/../h/kObjectAllocator.hpp ****     size_t getInitialNumberOfObjects() { return initialNumberOfObjects; }
 2069              		.loc 1 75 30
  75:src/../h/kObjectAllocator.hpp ****     size_t getInitialNumberOfObjects() { return initialNumberOfObjects; }
 2070              		.loc 1 75 37 is_stmt 0
 2071 0d40 83B78401 		ld	a5,24(s1)
 2072              	.LVL283:
 2073              	.LBE219:
 2074              	.LBE218:
 113:src/kObjectAllocatorTest.cpp ****     void* objArr[320]; for (size_t i = 0; i < 32; objArr[i++] = objAlloc->allocateNewObject());
 2075              		.loc 2 113 5
 2076 0d44 6300F908 		beq	s2,a5,.L186
 113:src/kObjectAllocatorTest.cpp ****     void* objArr[320]; for (size_t i = 0; i < 32; objArr[i++] = objAlloc->allocateNewObject());
 2077              		.loc 2 113 46 is_stmt 1 discriminator 1
 113:src/kObjectAllocatorTest.cpp ****     void* objArr[320]; for (size_t i = 0; i < 32; objArr[i++] = objAlloc->allocateNewObject());
 2078              		.loc 2 113 61 is_stmt 0 discriminator 1
 2079 0d48 638A0406 		beqz	s1,.L129
 2080              	.LBB220:
 2081              	.LBB221:
 2082              	.LBB222:
  68:src/../h/kObjectAllocator.hpp ****             MemoryAllocator::instance()->kmem_free(((KObjectAllocator*) p)->bitVectors[i]);
 2083              		.loc 1 68 21
 2084 0d4c 13090000 		li	s2,0
 2085              	.LVL284:
 2086              	.L131:
  68:src/../h/kObjectAllocator.hpp ****             MemoryAllocator::instance()->kmem_free(((KObjectAllocator*) p)->bitVectors[i]);
 2087              		.loc 1 68 30 is_stmt 1
  68:src/../h/kObjectAllocator.hpp ****             MemoryAllocator::instance()->kmem_free(((KObjectAllocator*) p)->bitVectors[i]);
 2088              		.loc 1 68 57 is_stmt 0
 2089 0d50 83B70403 		ld	a5,48(s1)
  68:src/../h/kObjectAllocator.hpp ****             MemoryAllocator::instance()->kmem_free(((KObjectAllocator*) p)->bitVectors[i]);
 2090              		.loc 1 68 30
 2091 0d54 6376F902 		bleu	a5,s2,.L130
  69:src/../h/kObjectAllocator.hpp ****         MemoryAllocator::instance()->kmem_free(((KObjectAllocator*) p)->bitVectors);
 2092              		.loc 1 69 13 is_stmt 1
  69:src/../h/kObjectAllocator.hpp ****         MemoryAllocator::instance()->kmem_free(((KObjectAllocator*) p)->bitVectors);
 2093              		.loc 1 69 51 is_stmt 0
 2094 0d58 97000000 		call	_ZN15MemoryAllocator8instanceEv@plt
 2094      E7800000 
 2095              	.LVL285:
  69:src/../h/kObjectAllocator.hpp ****         MemoryAllocator::instance()->kmem_free(((KObjectAllocator*) p)->bitVectors);
 2096              		.loc 1 69 77
 2097 0d60 83B78402 		ld	a5,40(s1)
  69:src/../h/kObjectAllocator.hpp ****         MemoryAllocator::instance()->kmem_free(((KObjectAllocator*) p)->bitVectors);
 2098              		.loc 1 69 89
 2099 0d64 13173900 		slli	a4,s2,3
 2100 0d68 B387E700 		add	a5,a5,a4
  69:src/../h/kObjectAllocator.hpp ****         MemoryAllocator::instance()->kmem_free(((KObjectAllocator*) p)->bitVectors);
 2101              		.loc 1 69 51
 2102 0d6c 83B50700 		ld	a1,0(a5)
 2103 0d70 97000000 		call	_ZN15MemoryAllocator9kmem_freeEPv@plt
 2103      E7800000 
GAS LISTING /tmp/cciR7THS.s 			page 53


 2104              	.LVL286:
  68:src/../h/kObjectAllocator.hpp ****             MemoryAllocator::instance()->kmem_free(((KObjectAllocator*) p)->bitVectors[i]);
 2105              		.loc 1 68 9 is_stmt 1
 2106 0d78 13091900 		addi	s2,s2,1
 2107              	.LVL287:
 2108 0d7c 6FF05FFD 		j	.L131
 2109              	.L130:
 2110              	.LBE222:
  70:src/../h/kObjectAllocator.hpp ****         MemoryAllocator::instance()->kmem_free(((KObjectAllocator*) p)->objectVectors);
 2111              		.loc 1 70 9
  70:src/../h/kObjectAllocator.hpp ****         MemoryAllocator::instance()->kmem_free(((KObjectAllocator*) p)->objectVectors);
 2112              		.loc 1 70 47 is_stmt 0
 2113 0d80 97000000 		call	_ZN15MemoryAllocator8instanceEv@plt
 2113      E7800000 
 2114              	.LVL288:
 2115 0d88 83B58402 		ld	a1,40(s1)
 2116 0d8c 97000000 		call	_ZN15MemoryAllocator9kmem_freeEPv@plt
 2116      E7800000 
 2117              	.LVL289:
  71:src/../h/kObjectAllocator.hpp ****         MemoryAllocator::instance()->kmem_free(p);
 2118              		.loc 1 71 9 is_stmt 1
  71:src/../h/kObjectAllocator.hpp ****         MemoryAllocator::instance()->kmem_free(p);
 2119              		.loc 1 71 47 is_stmt 0
 2120 0d94 97000000 		call	_ZN15MemoryAllocator8instanceEv@plt
 2120      E7800000 
 2121              	.LVL290:
 2122 0d9c 83B50402 		ld	a1,32(s1)
 2123 0da0 97000000 		call	_ZN15MemoryAllocator9kmem_freeEPv@plt
 2123      E7800000 
 2124              	.LVL291:
  72:src/../h/kObjectAllocator.hpp ****     }
 2125              		.loc 1 72 9 is_stmt 1
  72:src/../h/kObjectAllocator.hpp ****     }
 2126              		.loc 1 72 47 is_stmt 0
 2127 0da8 97000000 		call	_ZN15MemoryAllocator8instanceEv@plt
 2127      E7800000 
 2128              	.LVL292:
 2129 0db0 93850400 		mv	a1,s1
 2130 0db4 97000000 		call	_ZN15MemoryAllocator9kmem_freeEPv@plt
 2130      E7800000 
 2131              	.LVL293:
 2132              	.L129:
 2133              	.LBE221:
 2134              	.LBE220:
 113:src/kObjectAllocatorTest.cpp ****     void* objArr[320]; for (size_t i = 0; i < 32; objArr[i++] = objAlloc->allocateNewObject());
 2135              		.loc 2 113 63 is_stmt 1 discriminator 3
 113:src/kObjectAllocatorTest.cpp ****     void* objArr[320]; for (size_t i = 0; i < 32; objArr[i++] = objAlloc->allocateNewObject());
 2136              		.loc 2 113 70 is_stmt 0 discriminator 3
 2137 0dbc 13050000 		li	a0,0
 2138 0dc0 6FF01FED 		j	.L190
 2139              	.LVL294:
 2140              	.L186:
 2141              	.LBB223:
 114:src/kObjectAllocatorTest.cpp ****     if (getByteOfObject(objArr[31], objAlloc) != 3
 2142              		.loc 2 114 36
 2143 0dc4 13090000 		li	s2,0
 2144              	.LVL295:
GAS LISTING /tmp/cciR7THS.s 			page 54


 2145              	.L128:
 114:src/kObjectAllocatorTest.cpp ****     if (getByteOfObject(objArr[31], objAlloc) != 3
 2146              		.loc 2 114 45 is_stmt 1 discriminator 4
 2147 0dc8 9307F001 		li	a5,31
 2148 0dcc 63EA2703 		bgtu	s2,a5,.L132
 114:src/kObjectAllocatorTest.cpp ****     if (getByteOfObject(objArr[31], objAlloc) != 3
 2149              		.loc 2 114 24 discriminator 2
 114:src/kObjectAllocatorTest.cpp ****     if (getByteOfObject(objArr[31], objAlloc) != 3
 2150              		.loc 2 114 59 is_stmt 0 discriminator 2
 2151 0dd0 130A1900 		addi	s4,s2,1
 2152              	.LVL296:
 114:src/kObjectAllocatorTest.cpp ****     if (getByteOfObject(objArr[31], objAlloc) != 3
 2153              		.loc 2 114 92 discriminator 2
 2154 0dd4 13850400 		mv	a0,s1
 2155 0dd8 97000000 		call	_ZN16KObjectAllocator17allocateNewObjectEv@plt
 2155      E7800000 
 2156              	.LVL297:
 114:src/kObjectAllocatorTest.cpp ****     if (getByteOfObject(objArr[31], objAlloc) != 3
 2157              		.loc 2 114 63 discriminator 2
 2158 0de0 B7F7FFFF 		li	a5,-4096
 2159 0de4 13193900 		slli	s2,s2,3
 2160 0de8 130704FC 		addi	a4,s0,-64
 2161 0dec B307F700 		add	a5,a4,a5
 2162 0df0 33892701 		add	s2,a5,s2
 2163 0df4 2330A960 		sd	a0,1536(s2)
 114:src/kObjectAllocatorTest.cpp ****     if (getByteOfObject(objArr[31], objAlloc) != 3
 2164              		.loc 2 114 59 discriminator 2
 2165 0df8 13090A00 		mv	s2,s4
 114:src/kObjectAllocatorTest.cpp ****     if (getByteOfObject(objArr[31], objAlloc) != 3
 2166              		.loc 2 114 24 discriminator 2
 2167 0dfc 6FF0DFFC 		j	.L128
 2168              	.LVL298:
 2169              	.L132:
 2170              	.LBE223:
 115:src/kObjectAllocatorTest.cpp ****         || getBitOfObject(objArr[31], objAlloc) != 0)
 2171              		.loc 2 115 5 is_stmt 1
 115:src/kObjectAllocatorTest.cpp ****         || getBitOfObject(objArr[31], objAlloc) != 0)
 2172              		.loc 2 115 24 is_stmt 0
 2173 0e00 B7F7FFFF 		li	a5,-4096
 2174 0e04 130704FC 		addi	a4,s0,-64
 2175 0e08 B307F700 		add	a5,a4,a5
 2176 0e0c 03B9876F 		ld	s2,1784(a5)
 2177              	.LVL299:
 2178 0e10 13860400 		mv	a2,s1
 2179 0e14 93050900 		mv	a1,s2
 2180 0e18 13850900 		mv	a0,s3
 2181 0e1c 97000000 		call	_ZN20KObjectAllocatorTest15getByteOfObjectEPvP16KObjectAllocator
 2181      E7800000 
 2182              	.LVL300:
 116:src/kObjectAllocatorTest.cpp ****         { delete objAlloc; return false; }
 2183              		.loc 2 116 9
 2184 0e24 93073000 		li	a5,3
 2185 0e28 630EF502 		beq	a0,a5,.L198
 2186              	.L133:
 117:src/kObjectAllocatorTest.cpp **** 
 2187              		.loc 2 117 11 is_stmt 1 discriminator 4
 117:src/kObjectAllocatorTest.cpp **** 
GAS LISTING /tmp/cciR7THS.s 			page 55


 2188              		.loc 2 117 26 is_stmt 0 discriminator 4
 2189 0e2c 638C040C 		beqz	s1,.L136
 2190              	.LBB224:
 2191              	.LBB225:
 2192              	.LBB226:
  68:src/../h/kObjectAllocator.hpp ****             MemoryAllocator::instance()->kmem_free(((KObjectAllocator*) p)->bitVectors[i]);
 2193              		.loc 1 68 21
 2194 0e30 13090000 		li	s2,0
 2195              	.L135:
 2196              	.LVL301:
  68:src/../h/kObjectAllocator.hpp ****             MemoryAllocator::instance()->kmem_free(((KObjectAllocator*) p)->bitVectors[i]);
 2197              		.loc 1 68 30 is_stmt 1
  68:src/../h/kObjectAllocator.hpp ****             MemoryAllocator::instance()->kmem_free(((KObjectAllocator*) p)->bitVectors[i]);
 2198              		.loc 1 68 57 is_stmt 0
 2199 0e34 83B70403 		ld	a5,48(s1)
  68:src/../h/kObjectAllocator.hpp ****             MemoryAllocator::instance()->kmem_free(((KObjectAllocator*) p)->bitVectors[i]);
 2200              		.loc 1 68 30
 2201 0e38 6378F908 		bleu	a5,s2,.L139
  69:src/../h/kObjectAllocator.hpp ****         MemoryAllocator::instance()->kmem_free(((KObjectAllocator*) p)->bitVectors);
 2202              		.loc 1 69 13 is_stmt 1
  69:src/../h/kObjectAllocator.hpp ****         MemoryAllocator::instance()->kmem_free(((KObjectAllocator*) p)->bitVectors);
 2203              		.loc 1 69 51 is_stmt 0
 2204 0e3c 97000000 		call	_ZN15MemoryAllocator8instanceEv@plt
 2204      E7800000 
 2205              	.LVL302:
  69:src/../h/kObjectAllocator.hpp ****         MemoryAllocator::instance()->kmem_free(((KObjectAllocator*) p)->bitVectors);
 2206              		.loc 1 69 77
 2207 0e44 83B78402 		ld	a5,40(s1)
  69:src/../h/kObjectAllocator.hpp ****         MemoryAllocator::instance()->kmem_free(((KObjectAllocator*) p)->bitVectors);
 2208              		.loc 1 69 89
 2209 0e48 13173900 		slli	a4,s2,3
 2210 0e4c B387E700 		add	a5,a5,a4
  69:src/../h/kObjectAllocator.hpp ****         MemoryAllocator::instance()->kmem_free(((KObjectAllocator*) p)->bitVectors);
 2211              		.loc 1 69 51
 2212 0e50 83B50700 		ld	a1,0(a5)
 2213 0e54 97000000 		call	_ZN15MemoryAllocator9kmem_freeEPv@plt
 2213      E7800000 
 2214              	.LVL303:
  68:src/../h/kObjectAllocator.hpp ****             MemoryAllocator::instance()->kmem_free(((KObjectAllocator*) p)->bitVectors[i]);
 2215              		.loc 1 68 9 is_stmt 1
 2216 0e5c 13091900 		addi	s2,s2,1
 2217              	.LVL304:
 2218 0e60 6FF05FFD 		j	.L135
 2219              	.LVL305:
 2220              	.L198:
 2221              	.LBE226:
 2222              	.LBE225:
 2223              	.LBE224:
 116:src/kObjectAllocatorTest.cpp ****         { delete objAlloc; return false; }
 2224              		.loc 2 116 26 is_stmt 0 discriminator 2
 2225 0e64 13860400 		mv	a2,s1
 2226 0e68 93050900 		mv	a1,s2
 2227 0e6c 13850900 		mv	a0,s3
 2228 0e70 97000000 		call	_ZN20KObjectAllocatorTest14getBitOfObjectEPvP16KObjectAllocator
 2228      E7800000 
 2229              	.LVL306:
 2230 0e78 930A0500 		mv	s5,a0
GAS LISTING /tmp/cciR7THS.s 			page 56


 116:src/kObjectAllocatorTest.cpp ****         { delete objAlloc; return false; }
 2231              		.loc 2 116 9 discriminator 2
 2232 0e7c E31805FA 		bnez	a0,.L133
 119:src/kObjectAllocatorTest.cpp ****     for (size_t i = 32; i < 320; objArr[i++] = objAlloc->allocateNewObject());
 2233              		.loc 2 119 5 is_stmt 1
 119:src/kObjectAllocatorTest.cpp ****     for (size_t i = 32; i < 320; objArr[i++] = objAlloc->allocateNewObject());
 2234              		.loc 2 119 19 is_stmt 0
 2235 0e80 03B78403 		ld	a4,56(s1)
 119:src/kObjectAllocatorTest.cpp ****     for (size_t i = 32; i < 320; objArr[i++] = objAlloc->allocateNewObject());
 2236              		.loc 2 119 5
 2237 0e84 93074000 		li	a5,4
 2238 0e88 6312F708 		bne	a4,a5,.L137
 2239              	.LBB228:
 120:src/kObjectAllocatorTest.cpp ****     if (objAlloc->nextNonTakenByte != 40) { delete objAlloc; return false; }
 2240              		.loc 2 120 17
 2241 0e8c 13090002 		li	s2,32
 2242              	.L138:
 2243              	.LVL307:
 120:src/kObjectAllocatorTest.cpp ****     if (objAlloc->nextNonTakenByte != 40) { delete objAlloc; return false; }
 2244              		.loc 2 120 27 is_stmt 1 discriminator 4
 2245 0e90 9307F013 		li	a5,319
 2246 0e94 63E8270F 		bgtu	s2,a5,.L143
 120:src/kObjectAllocatorTest.cpp ****     if (objAlloc->nextNonTakenByte != 40) { delete objAlloc; return false; }
 2247              		.loc 2 120 5 discriminator 2
 120:src/kObjectAllocatorTest.cpp ****     if (objAlloc->nextNonTakenByte != 40) { delete objAlloc; return false; }
 2248              		.loc 2 120 42 is_stmt 0 discriminator 2
 2249 0e98 130A1900 		addi	s4,s2,1
 2250              	.LVL308:
 120:src/kObjectAllocatorTest.cpp ****     if (objAlloc->nextNonTakenByte != 40) { delete objAlloc; return false; }
 2251              		.loc 2 120 75 discriminator 2
 2252 0e9c 13850400 		mv	a0,s1
 2253 0ea0 97000000 		call	_ZN16KObjectAllocator17allocateNewObjectEv@plt
 2253      E7800000 
 2254              	.LVL309:
 120:src/kObjectAllocatorTest.cpp ****     if (objAlloc->nextNonTakenByte != 40) { delete objAlloc; return false; }
 2255              		.loc 2 120 46 discriminator 2
 2256 0ea8 B7F7FFFF 		li	a5,-4096
 2257 0eac 13193900 		slli	s2,s2,3
 2258 0eb0 130704FC 		addi	a4,s0,-64
 2259 0eb4 B307F700 		add	a5,a4,a5
 2260 0eb8 33892701 		add	s2,a5,s2
 2261 0ebc 2330A960 		sd	a0,1536(s2)
 120:src/kObjectAllocatorTest.cpp ****     if (objAlloc->nextNonTakenByte != 40) { delete objAlloc; return false; }
 2262              		.loc 2 120 42 discriminator 2
 2263 0ec0 13090A00 		mv	s2,s4
 120:src/kObjectAllocatorTest.cpp ****     if (objAlloc->nextNonTakenByte != 40) { delete objAlloc; return false; }
 2264              		.loc 2 120 5 discriminator 2
 2265 0ec4 6FF0DFFC 		j	.L138
 2266              	.LVL310:
 2267              	.L139:
 2268              	.LBE228:
 2269              	.LBB229:
 2270              	.LBB227:
  70:src/../h/kObjectAllocator.hpp ****         MemoryAllocator::instance()->kmem_free(((KObjectAllocator*) p)->objectVectors);
 2271              		.loc 1 70 9 is_stmt 1
  70:src/../h/kObjectAllocator.hpp ****         MemoryAllocator::instance()->kmem_free(((KObjectAllocator*) p)->objectVectors);
 2272              		.loc 1 70 47 is_stmt 0
GAS LISTING /tmp/cciR7THS.s 			page 57


 2273 0ec8 97000000 		call	_ZN15MemoryAllocator8instanceEv@plt
 2273      E7800000 
 2274              	.LVL311:
 2275 0ed0 83B58402 		ld	a1,40(s1)
 2276 0ed4 97000000 		call	_ZN15MemoryAllocator9kmem_freeEPv@plt
 2276      E7800000 
 2277              	.LVL312:
  71:src/../h/kObjectAllocator.hpp ****         MemoryAllocator::instance()->kmem_free(p);
 2278              		.loc 1 71 9 is_stmt 1
  71:src/../h/kObjectAllocator.hpp ****         MemoryAllocator::instance()->kmem_free(p);
 2279              		.loc 1 71 47 is_stmt 0
 2280 0edc 97000000 		call	_ZN15MemoryAllocator8instanceEv@plt
 2280      E7800000 
 2281              	.LVL313:
 2282 0ee4 83B50402 		ld	a1,32(s1)
 2283 0ee8 97000000 		call	_ZN15MemoryAllocator9kmem_freeEPv@plt
 2283      E7800000 
 2284              	.LVL314:
  72:src/../h/kObjectAllocator.hpp ****     }
 2285              		.loc 1 72 9 is_stmt 1
  72:src/../h/kObjectAllocator.hpp ****     }
 2286              		.loc 1 72 47 is_stmt 0
 2287 0ef0 97000000 		call	_ZN15MemoryAllocator8instanceEv@plt
 2287      E7800000 
 2288              	.LVL315:
 2289 0ef8 93850400 		mv	a1,s1
 2290 0efc 97000000 		call	_ZN15MemoryAllocator9kmem_freeEPv@plt
 2290      E7800000 
 2291              	.LVL316:
 2292              	.L136:
 2293              	.LBE227:
 2294              	.LBE229:
 117:src/kObjectAllocatorTest.cpp **** 
 2295              		.loc 2 117 28 is_stmt 1 discriminator 2
 117:src/kObjectAllocatorTest.cpp **** 
 2296              		.loc 2 117 35 is_stmt 0 discriminator 2
 2297 0f04 13050000 		li	a0,0
 2298 0f08 6FF09FD8 		j	.L190
 2299              	.L137:
 119:src/kObjectAllocatorTest.cpp ****     for (size_t i = 32; i < 320; objArr[i++] = objAlloc->allocateNewObject());
 2300              		.loc 2 119 44 is_stmt 1 discriminator 1
 119:src/kObjectAllocatorTest.cpp ****     for (size_t i = 32; i < 320; objArr[i++] = objAlloc->allocateNewObject());
 2301              		.loc 2 119 59 is_stmt 0 discriminator 1
 2302 0f0c 63960402 		bnez	s1,.L142
 2303 0f10 6F00C006 		j	.L140
 2304              	.LVL317:
 2305              	.L199:
 2306              	.LBB230:
 2307              	.LBB231:
 2308              	.LBB232:
  69:src/../h/kObjectAllocator.hpp ****         MemoryAllocator::instance()->kmem_free(((KObjectAllocator*) p)->bitVectors);
 2309              		.loc 1 69 13 is_stmt 1
  69:src/../h/kObjectAllocator.hpp ****         MemoryAllocator::instance()->kmem_free(((KObjectAllocator*) p)->bitVectors);
 2310              		.loc 1 69 51 is_stmt 0
 2311 0f14 97000000 		call	_ZN15MemoryAllocator8instanceEv@plt
 2311      E7800000 
 2312              	.LVL318:
GAS LISTING /tmp/cciR7THS.s 			page 58


  69:src/../h/kObjectAllocator.hpp ****         MemoryAllocator::instance()->kmem_free(((KObjectAllocator*) p)->bitVectors);
 2313              		.loc 1 69 77
 2314 0f1c 83B78402 		ld	a5,40(s1)
  69:src/../h/kObjectAllocator.hpp ****         MemoryAllocator::instance()->kmem_free(((KObjectAllocator*) p)->bitVectors);
 2315              		.loc 1 69 89
 2316 0f20 13973A00 		slli	a4,s5,3
 2317 0f24 B387E700 		add	a5,a5,a4
  69:src/../h/kObjectAllocator.hpp ****         MemoryAllocator::instance()->kmem_free(((KObjectAllocator*) p)->bitVectors);
 2318              		.loc 1 69 51
 2319 0f28 83B50700 		ld	a1,0(a5)
 2320 0f2c 97000000 		call	_ZN15MemoryAllocator9kmem_freeEPv@plt
 2320      E7800000 
 2321              	.LVL319:
  68:src/../h/kObjectAllocator.hpp ****             MemoryAllocator::instance()->kmem_free(((KObjectAllocator*) p)->bitVectors[i]);
 2322              		.loc 1 68 9 is_stmt 1
 2323 0f34 938A1A00 		addi	s5,s5,1
 2324              	.LVL320:
 2325              	.L142:
  68:src/../h/kObjectAllocator.hpp ****             MemoryAllocator::instance()->kmem_free(((KObjectAllocator*) p)->bitVectors[i]);
 2326              		.loc 1 68 30
  68:src/../h/kObjectAllocator.hpp ****             MemoryAllocator::instance()->kmem_free(((KObjectAllocator*) p)->bitVectors[i]);
 2327              		.loc 1 68 57 is_stmt 0
 2328 0f38 83B70403 		ld	a5,48(s1)
  68:src/../h/kObjectAllocator.hpp ****             MemoryAllocator::instance()->kmem_free(((KObjectAllocator*) p)->bitVectors[i]);
 2329              		.loc 1 68 30
 2330 0f3c E3ECFAFC 		bgtu	a5,s5,.L199
 2331              	.LBE232:
  70:src/../h/kObjectAllocator.hpp ****         MemoryAllocator::instance()->kmem_free(((KObjectAllocator*) p)->objectVectors);
 2332              		.loc 1 70 9 is_stmt 1
  70:src/../h/kObjectAllocator.hpp ****         MemoryAllocator::instance()->kmem_free(((KObjectAllocator*) p)->objectVectors);
 2333              		.loc 1 70 47 is_stmt 0
 2334 0f40 97000000 		call	_ZN15MemoryAllocator8instanceEv@plt
 2334      E7800000 
 2335              	.LVL321:
 2336 0f48 83B58402 		ld	a1,40(s1)
 2337 0f4c 97000000 		call	_ZN15MemoryAllocator9kmem_freeEPv@plt
 2337      E7800000 
 2338              	.LVL322:
  71:src/../h/kObjectAllocator.hpp ****         MemoryAllocator::instance()->kmem_free(p);
 2339              		.loc 1 71 9 is_stmt 1
  71:src/../h/kObjectAllocator.hpp ****         MemoryAllocator::instance()->kmem_free(p);
 2340              		.loc 1 71 47 is_stmt 0
 2341 0f54 97000000 		call	_ZN15MemoryAllocator8instanceEv@plt
 2341      E7800000 
 2342              	.LVL323:
 2343 0f5c 83B50402 		ld	a1,32(s1)
 2344 0f60 97000000 		call	_ZN15MemoryAllocator9kmem_freeEPv@plt
 2344      E7800000 
 2345              	.LVL324:
  72:src/../h/kObjectAllocator.hpp ****     }
 2346              		.loc 1 72 9 is_stmt 1
  72:src/../h/kObjectAllocator.hpp ****     }
 2347              		.loc 1 72 47 is_stmt 0
 2348 0f68 97000000 		call	_ZN15MemoryAllocator8instanceEv@plt
 2348      E7800000 
 2349              	.LVL325:
 2350 0f70 93850400 		mv	a1,s1
GAS LISTING /tmp/cciR7THS.s 			page 59


 2351 0f74 97000000 		call	_ZN15MemoryAllocator9kmem_freeEPv@plt
 2351      E7800000 
 2352              	.LVL326:
 2353              	.L140:
 2354              	.LBE231:
 2355              	.LBE230:
 119:src/kObjectAllocatorTest.cpp ****     for (size_t i = 32; i < 320; objArr[i++] = objAlloc->allocateNewObject());
 2356              		.loc 2 119 61 is_stmt 1 discriminator 3
 119:src/kObjectAllocatorTest.cpp ****     for (size_t i = 32; i < 320; objArr[i++] = objAlloc->allocateNewObject());
 2357              		.loc 2 119 68 is_stmt 0 discriminator 3
 2358 0f7c 13050000 		li	a0,0
 2359 0f80 6FF01FD1 		j	.L190
 2360              	.LVL327:
 2361              	.L143:
 121:src/kObjectAllocatorTest.cpp **** 
 2362              		.loc 2 121 5 is_stmt 1
 121:src/kObjectAllocatorTest.cpp **** 
 2363              		.loc 2 121 19 is_stmt 0
 2364 0f84 03B78403 		ld	a4,56(s1)
 121:src/kObjectAllocatorTest.cpp **** 
 2365              		.loc 2 121 5
 2366 0f88 93078002 		li	a5,40
 2367 0f8c 630EF706 		beq	a4,a5,.L144
 121:src/kObjectAllocatorTest.cpp **** 
 2368              		.loc 2 121 45 is_stmt 1 discriminator 1
 121:src/kObjectAllocatorTest.cpp **** 
 2369              		.loc 2 121 60 is_stmt 0 discriminator 1
 2370 0f90 63880406 		beqz	s1,.L145
 2371              	.L147:
 2372              	.LVL328:
 2373              	.LBB233:
 2374              	.LBB234:
 2375              	.LBB235:
  68:src/../h/kObjectAllocator.hpp ****             MemoryAllocator::instance()->kmem_free(((KObjectAllocator*) p)->bitVectors[i]);
 2376              		.loc 1 68 30 is_stmt 1
  68:src/../h/kObjectAllocator.hpp ****             MemoryAllocator::instance()->kmem_free(((KObjectAllocator*) p)->bitVectors[i]);
 2377              		.loc 1 68 57 is_stmt 0
 2378 0f94 83B70403 		ld	a5,48(s1)
  68:src/../h/kObjectAllocator.hpp ****             MemoryAllocator::instance()->kmem_free(((KObjectAllocator*) p)->bitVectors[i]);
 2379              		.loc 1 68 30
 2380 0f98 63F6FA02 		bleu	a5,s5,.L146
  69:src/../h/kObjectAllocator.hpp ****         MemoryAllocator::instance()->kmem_free(((KObjectAllocator*) p)->bitVectors);
 2381              		.loc 1 69 13 is_stmt 1
  69:src/../h/kObjectAllocator.hpp ****         MemoryAllocator::instance()->kmem_free(((KObjectAllocator*) p)->bitVectors);
 2382              		.loc 1 69 51 is_stmt 0
 2383 0f9c 97000000 		call	_ZN15MemoryAllocator8instanceEv@plt
 2383      E7800000 
 2384              	.LVL329:
  69:src/../h/kObjectAllocator.hpp ****         MemoryAllocator::instance()->kmem_free(((KObjectAllocator*) p)->bitVectors);
 2385              		.loc 1 69 77
 2386 0fa4 83B78402 		ld	a5,40(s1)
  69:src/../h/kObjectAllocator.hpp ****         MemoryAllocator::instance()->kmem_free(((KObjectAllocator*) p)->bitVectors);
 2387              		.loc 1 69 89
 2388 0fa8 13973A00 		slli	a4,s5,3
 2389 0fac B387E700 		add	a5,a5,a4
  69:src/../h/kObjectAllocator.hpp ****         MemoryAllocator::instance()->kmem_free(((KObjectAllocator*) p)->bitVectors);
 2390              		.loc 1 69 51
GAS LISTING /tmp/cciR7THS.s 			page 60


 2391 0fb0 83B50700 		ld	a1,0(a5)
 2392 0fb4 97000000 		call	_ZN15MemoryAllocator9kmem_freeEPv@plt
 2392      E7800000 
 2393              	.LVL330:
  68:src/../h/kObjectAllocator.hpp ****             MemoryAllocator::instance()->kmem_free(((KObjectAllocator*) p)->bitVectors[i]);
 2394              		.loc 1 68 9 is_stmt 1
 2395 0fbc 938A1A00 		addi	s5,s5,1
 2396              	.LVL331:
 2397 0fc0 6FF05FFD 		j	.L147
 2398              	.L146:
 2399              	.LBE235:
  70:src/../h/kObjectAllocator.hpp ****         MemoryAllocator::instance()->kmem_free(((KObjectAllocator*) p)->objectVectors);
 2400              		.loc 1 70 9
  70:src/../h/kObjectAllocator.hpp ****         MemoryAllocator::instance()->kmem_free(((KObjectAllocator*) p)->objectVectors);
 2401              		.loc 1 70 47 is_stmt 0
 2402 0fc4 97000000 		call	_ZN15MemoryAllocator8instanceEv@plt
 2402      E7800000 
 2403              	.LVL332:
 2404 0fcc 83B58402 		ld	a1,40(s1)
 2405 0fd0 97000000 		call	_ZN15MemoryAllocator9kmem_freeEPv@plt
 2405      E7800000 
 2406              	.LVL333:
  71:src/../h/kObjectAllocator.hpp ****         MemoryAllocator::instance()->kmem_free(p);
 2407              		.loc 1 71 9 is_stmt 1
  71:src/../h/kObjectAllocator.hpp ****         MemoryAllocator::instance()->kmem_free(p);
 2408              		.loc 1 71 47 is_stmt 0
 2409 0fd8 97000000 		call	_ZN15MemoryAllocator8instanceEv@plt
 2409      E7800000 
 2410              	.LVL334:
 2411 0fe0 83B50402 		ld	a1,32(s1)
 2412 0fe4 97000000 		call	_ZN15MemoryAllocator9kmem_freeEPv@plt
 2412      E7800000 
 2413              	.LVL335:
  72:src/../h/kObjectAllocator.hpp ****     }
 2414              		.loc 1 72 9 is_stmt 1
  72:src/../h/kObjectAllocator.hpp ****     }
 2415              		.loc 1 72 47 is_stmt 0
 2416 0fec 97000000 		call	_ZN15MemoryAllocator8instanceEv@plt
 2416      E7800000 
 2417              	.LVL336:
 2418 0ff4 93850400 		mv	a1,s1
 2419 0ff8 97000000 		call	_ZN15MemoryAllocator9kmem_freeEPv@plt
 2419      E7800000 
 2420              	.LVL337:
 2421              	.L145:
 2422              	.LBE234:
 2423              	.LBE233:
 121:src/kObjectAllocatorTest.cpp **** 
 2424              		.loc 2 121 62 is_stmt 1 discriminator 3
 121:src/kObjectAllocatorTest.cpp **** 
 2425              		.loc 2 121 69 is_stmt 0 discriminator 3
 2426 1000 13050000 		li	a0,0
 2427 1004 6FF0DFC8 		j	.L190
 2428              	.L144:
 123:src/kObjectAllocatorTest.cpp ****     objArr[7 * 8] = objAlloc->allocateNewObject();
 2429              		.loc 2 123 5 is_stmt 1
 123:src/kObjectAllocatorTest.cpp ****     objArr[7 * 8] = objAlloc->allocateNewObject();
GAS LISTING /tmp/cciR7THS.s 			page 61


 2430              		.loc 2 123 25 is_stmt 0
 2431 1008 B7F7FFFF 		li	a5,-4096
 2432 100c 130704FC 		addi	a4,s0,-64
 2433 1010 B307F700 		add	a5,a4,a5
 2434 1014 83B5077C 		ld	a1,1984(a5)
 2435 1018 13850400 		mv	a0,s1
 2436 101c 97000000 		call	_ZN16KObjectAllocator10freeObjectEPv@plt
 2436      E7800000 
 2437              	.LVL338:
 124:src/kObjectAllocatorTest.cpp ****     if (getByteOfObject(objArr[7 * 8], objAlloc) != 7
 2438              		.loc 2 124 5 is_stmt 1
 124:src/kObjectAllocatorTest.cpp ****     if (getByteOfObject(objArr[7 * 8], objAlloc) != 7
 2439              		.loc 2 124 48 is_stmt 0
 2440 1024 13850400 		mv	a0,s1
 2441 1028 97000000 		call	_ZN16KObjectAllocator17allocateNewObjectEv@plt
 2441      E7800000 
 2442              	.LVL339:
 2443 1030 13090500 		mv	s2,a0
 2444              	.LVL340:
 125:src/kObjectAllocatorTest.cpp ****         || getBitOfObject(objArr[7 * 8], objAlloc) != 7)
 2445              		.loc 2 125 5 is_stmt 1
 125:src/kObjectAllocatorTest.cpp ****         || getBitOfObject(objArr[7 * 8], objAlloc) != 7)
 2446              		.loc 2 125 24 is_stmt 0
 2447 1034 13860400 		mv	a2,s1
 2448 1038 93050500 		mv	a1,a0
 2449 103c 13850900 		mv	a0,s3
 2450 1040 97000000 		call	_ZN20KObjectAllocatorTest15getByteOfObjectEPvP16KObjectAllocator
 2450      E7800000 
 2451              	.LVL341:
 126:src/kObjectAllocatorTest.cpp ****         { delete objAlloc; return false; }
 2452              		.loc 2 126 9
 2453 1048 93077000 		li	a5,7
 2454 104c 630CF502 		beq	a0,a5,.L200
 2455              	.L148:
 127:src/kObjectAllocatorTest.cpp ****     if (objAlloc->nextNonTakenByte != 7) { delete objAlloc; return false; }
 2456              		.loc 2 127 11 is_stmt 1 discriminator 4
 127:src/kObjectAllocatorTest.cpp ****     if (objAlloc->nextNonTakenByte != 7) { delete objAlloc; return false; }
 2457              		.loc 2 127 26 is_stmt 0 discriminator 4
 2458 1050 6386040A 		beqz	s1,.L151
 2459              	.L153:
 2460              	.LVL342:
 2461              	.LBB236:
 2462              	.LBB237:
 2463              	.LBB238:
  68:src/../h/kObjectAllocator.hpp ****             MemoryAllocator::instance()->kmem_free(((KObjectAllocator*) p)->bitVectors[i]);
 2464              		.loc 1 68 30 is_stmt 1
  68:src/../h/kObjectAllocator.hpp ****             MemoryAllocator::instance()->kmem_free(((KObjectAllocator*) p)->bitVectors[i]);
 2465              		.loc 1 68 57 is_stmt 0
 2466 1054 83B70403 		ld	a5,48(s1)
  68:src/../h/kObjectAllocator.hpp ****             MemoryAllocator::instance()->kmem_free(((KObjectAllocator*) p)->bitVectors[i]);
 2467              		.loc 1 68 30
 2468 1058 63F4FA06 		bleu	a5,s5,.L152
  69:src/../h/kObjectAllocator.hpp ****         MemoryAllocator::instance()->kmem_free(((KObjectAllocator*) p)->bitVectors);
 2469              		.loc 1 69 13 is_stmt 1
  69:src/../h/kObjectAllocator.hpp ****         MemoryAllocator::instance()->kmem_free(((KObjectAllocator*) p)->bitVectors);
 2470              		.loc 1 69 51 is_stmt 0
 2471 105c 97000000 		call	_ZN15MemoryAllocator8instanceEv@plt
GAS LISTING /tmp/cciR7THS.s 			page 62


 2471      E7800000 
 2472              	.LVL343:
  69:src/../h/kObjectAllocator.hpp ****         MemoryAllocator::instance()->kmem_free(((KObjectAllocator*) p)->bitVectors);
 2473              		.loc 1 69 77
 2474 1064 83B78402 		ld	a5,40(s1)
  69:src/../h/kObjectAllocator.hpp ****         MemoryAllocator::instance()->kmem_free(((KObjectAllocator*) p)->bitVectors);
 2475              		.loc 1 69 89
 2476 1068 13973A00 		slli	a4,s5,3
 2477 106c B387E700 		add	a5,a5,a4
  69:src/../h/kObjectAllocator.hpp ****         MemoryAllocator::instance()->kmem_free(((KObjectAllocator*) p)->bitVectors);
 2478              		.loc 1 69 51
 2479 1070 83B50700 		ld	a1,0(a5)
 2480 1074 97000000 		call	_ZN15MemoryAllocator9kmem_freeEPv@plt
 2480      E7800000 
 2481              	.LVL344:
  68:src/../h/kObjectAllocator.hpp ****             MemoryAllocator::instance()->kmem_free(((KObjectAllocator*) p)->bitVectors[i]);
 2482              		.loc 1 68 9 is_stmt 1
 2483 107c 938A1A00 		addi	s5,s5,1
 2484              	.LVL345:
 2485 1080 6FF05FFD 		j	.L153
 2486              	.LVL346:
 2487              	.L200:
 2488              	.LBE238:
 2489              	.LBE237:
 2490              	.LBE236:
 126:src/kObjectAllocatorTest.cpp ****         { delete objAlloc; return false; }
 2491              		.loc 2 126 26 is_stmt 0 discriminator 2
 2492 1084 13860400 		mv	a2,s1
 2493 1088 93050900 		mv	a1,s2
 2494 108c 13850900 		mv	a0,s3
 2495 1090 97000000 		call	_ZN20KObjectAllocatorTest14getBitOfObjectEPvP16KObjectAllocator
 2495      E7800000 
 2496              	.LVL347:
 126:src/kObjectAllocatorTest.cpp ****         { delete objAlloc; return false; }
 2497              		.loc 2 126 9 discriminator 2
 2498 1098 93077000 		li	a5,7
 2499 109c E31AF5FA 		bne	a0,a5,.L148
 128:src/kObjectAllocatorTest.cpp **** 
 2500              		.loc 2 128 5 is_stmt 1
 128:src/kObjectAllocatorTest.cpp **** 
 2501              		.loc 2 128 19 is_stmt 0
 2502 10a0 03B78403 		ld	a4,56(s1)
 128:src/kObjectAllocatorTest.cpp **** 
 2503              		.loc 2 128 5
 2504 10a4 6300F706 		beq	a4,a5,.L201
 128:src/kObjectAllocatorTest.cpp **** 
 2505              		.loc 2 128 44 is_stmt 1 discriminator 1
 128:src/kObjectAllocatorTest.cpp **** 
 2506              		.loc 2 128 59 is_stmt 0 discriminator 1
 2507 10a8 63880400 		beqz	s1,.L154
 128:src/kObjectAllocatorTest.cpp **** 
 2508              		.loc 2 128 51 discriminator 2
 2509 10ac 13850400 		mv	a0,s1
 2510 10b0 97000000 		call	_ZN16KObjectAllocatordlEPv
 2510      E7800000 
 2511              	.LVL348:
 2512              	.L154:
GAS LISTING /tmp/cciR7THS.s 			page 63


 128:src/kObjectAllocatorTest.cpp **** 
 2513              		.loc 2 128 61 is_stmt 1 discriminator 3
 128:src/kObjectAllocatorTest.cpp **** 
 2514              		.loc 2 128 68 is_stmt 0 discriminator 3
 2515 10b8 13050000 		li	a0,0
 2516 10bc 6FF05FBD 		j	.L190
 2517              	.LVL349:
 2518              	.L152:
 2519              	.LBB240:
 2520              	.LBB239:
  70:src/../h/kObjectAllocator.hpp ****         MemoryAllocator::instance()->kmem_free(((KObjectAllocator*) p)->objectVectors);
 2521              		.loc 1 70 9 is_stmt 1
  70:src/../h/kObjectAllocator.hpp ****         MemoryAllocator::instance()->kmem_free(((KObjectAllocator*) p)->objectVectors);
 2522              		.loc 1 70 47 is_stmt 0
 2523 10c0 97000000 		call	_ZN15MemoryAllocator8instanceEv@plt
 2523      E7800000 
 2524              	.LVL350:
 2525 10c8 83B58402 		ld	a1,40(s1)
 2526 10cc 97000000 		call	_ZN15MemoryAllocator9kmem_freeEPv@plt
 2526      E7800000 
 2527              	.LVL351:
  71:src/../h/kObjectAllocator.hpp ****         MemoryAllocator::instance()->kmem_free(p);
 2528              		.loc 1 71 9 is_stmt 1
  71:src/../h/kObjectAllocator.hpp ****         MemoryAllocator::instance()->kmem_free(p);
 2529              		.loc 1 71 47 is_stmt 0
 2530 10d4 97000000 		call	_ZN15MemoryAllocator8instanceEv@plt
 2530      E7800000 
 2531              	.LVL352:
 2532 10dc 83B50402 		ld	a1,32(s1)
 2533 10e0 97000000 		call	_ZN15MemoryAllocator9kmem_freeEPv@plt
 2533      E7800000 
 2534              	.LVL353:
  72:src/../h/kObjectAllocator.hpp ****     }
 2535              		.loc 1 72 9 is_stmt 1
  72:src/../h/kObjectAllocator.hpp ****     }
 2536              		.loc 1 72 47 is_stmt 0
 2537 10e8 97000000 		call	_ZN15MemoryAllocator8instanceEv@plt
 2537      E7800000 
 2538              	.LVL354:
 2539 10f0 93850400 		mv	a1,s1
 2540 10f4 97000000 		call	_ZN15MemoryAllocator9kmem_freeEPv@plt
 2540      E7800000 
 2541              	.LVL355:
 2542              	.L151:
 2543              	.LBE239:
 2544              	.LBE240:
 127:src/kObjectAllocatorTest.cpp ****     if (objAlloc->nextNonTakenByte != 7) { delete objAlloc; return false; }
 2545              		.loc 2 127 28 is_stmt 1 discriminator 2
 127:src/kObjectAllocatorTest.cpp ****     if (objAlloc->nextNonTakenByte != 7) { delete objAlloc; return false; }
 2546              		.loc 2 127 35 is_stmt 0 discriminator 2
 2547 10fc 13050000 		li	a0,0
 2548 1100 6FF01FB9 		j	.L190
 2549              	.L201:
 130:src/kObjectAllocatorTest.cpp ****     objAlloc->freeObject(objArr[7 * 8 + 4]);
 2550              		.loc 2 130 5 is_stmt 1
 130:src/kObjectAllocatorTest.cpp ****     objAlloc->freeObject(objArr[7 * 8 + 4]);
 2551              		.loc 2 130 25 is_stmt 0
GAS LISTING /tmp/cciR7THS.s 			page 64


 2552 1104 37F9FFFF 		li	s2,-4096
 2553 1108 930704FC 		addi	a5,s0,-64
 2554 110c 33892701 		add	s2,a5,s2
 2555 1110 83358979 		ld	a1,1944(s2)
 2556 1114 13850400 		mv	a0,s1
 2557 1118 97000000 		call	_ZN16KObjectAllocator10freeObjectEPv@plt
 2557      E7800000 
 2558              	.LVL356:
 131:src/kObjectAllocatorTest.cpp ****     objAlloc->freeObject(objArr[38 * 8 + 5]);
 2559              		.loc 2 131 5 is_stmt 1
 131:src/kObjectAllocatorTest.cpp ****     objAlloc->freeObject(objArr[38 * 8 + 5]);
 2560              		.loc 2 131 25 is_stmt 0
 2561 1120 8335097E 		ld	a1,2016(s2)
 2562 1124 13850400 		mv	a0,s1
 2563 1128 97000000 		call	_ZN16KObjectAllocator10freeObjectEPv@plt
 2563      E7800000 
 2564              	.LVL357:
 132:src/kObjectAllocatorTest.cpp **** 
 2565              		.loc 2 132 5 is_stmt 1
 132:src/kObjectAllocatorTest.cpp **** 
 2566              		.loc 2 132 25 is_stmt 0
 2567 1130 833584F6 		ld	a1,-152(s0)
 2568 1134 13850400 		mv	a0,s1
 2569 1138 97000000 		call	_ZN16KObjectAllocator10freeObjectEPv@plt
 2569      E7800000 
 2570              	.LVL358:
 134:src/kObjectAllocatorTest.cpp ****     if (getByteOfObject(objArr[7 * 8 + 4], objAlloc) != 7
 2571              		.loc 2 134 5 is_stmt 1
 134:src/kObjectAllocatorTest.cpp ****     if (getByteOfObject(objArr[7 * 8 + 4], objAlloc) != 7
 2572              		.loc 2 134 52 is_stmt 0
 2573 1140 13850400 		mv	a0,s1
 2574 1144 97000000 		call	_ZN16KObjectAllocator17allocateNewObjectEv@plt
 2574      E7800000 
 2575              	.LVL359:
 2576 114c 13090500 		mv	s2,a0
 135:src/kObjectAllocatorTest.cpp ****         || getBitOfObject(objArr[7 * 8 + 4], objAlloc) != 3)
 2577              		.loc 2 135 5 is_stmt 1
 135:src/kObjectAllocatorTest.cpp ****         || getBitOfObject(objArr[7 * 8 + 4], objAlloc) != 3)
 2578              		.loc 2 135 24 is_stmt 0
 2579 1150 13860400 		mv	a2,s1
 2580 1154 93050500 		mv	a1,a0
 2581 1158 13850900 		mv	a0,s3
 2582 115c 97000000 		call	_ZN20KObjectAllocatorTest15getByteOfObjectEPvP16KObjectAllocator
 2582      E7800000 
 2583              	.LVL360:
 136:src/kObjectAllocatorTest.cpp ****         { delete objAlloc; return false; }
 2584              		.loc 2 136 9
 2585 1164 93077000 		li	a5,7
 2586 1168 630EF500 		beq	a0,a5,.L202
 2587              	.L155:
 137:src/kObjectAllocatorTest.cpp ****     if (objAlloc->nextNonTakenByte != 7) { delete objAlloc; return false; }
 2588              		.loc 2 137 11 is_stmt 1 discriminator 4
 137:src/kObjectAllocatorTest.cpp ****     if (objAlloc->nextNonTakenByte != 7) { delete objAlloc; return false; }
 2589              		.loc 2 137 26 is_stmt 0 discriminator 4
 2590 116c 63880400 		beqz	s1,.L158
 137:src/kObjectAllocatorTest.cpp ****     if (objAlloc->nextNonTakenByte != 7) { delete objAlloc; return false; }
 2591              		.loc 2 137 18 discriminator 1
GAS LISTING /tmp/cciR7THS.s 			page 65


 2592 1170 13850400 		mv	a0,s1
 2593 1174 97000000 		call	_ZN16KObjectAllocatordlEPv
 2593      E7800000 
 2594              	.LVL361:
 2595              	.L158:
 137:src/kObjectAllocatorTest.cpp ****     if (objAlloc->nextNonTakenByte != 7) { delete objAlloc; return false; }
 2596              		.loc 2 137 28 is_stmt 1 discriminator 2
 137:src/kObjectAllocatorTest.cpp ****     if (objAlloc->nextNonTakenByte != 7) { delete objAlloc; return false; }
 2597              		.loc 2 137 35 is_stmt 0 discriminator 2
 2598 117c 13050000 		li	a0,0
 2599 1180 6FF01FB1 		j	.L190
 2600              	.L202:
 136:src/kObjectAllocatorTest.cpp ****         { delete objAlloc; return false; }
 2601              		.loc 2 136 26 discriminator 2
 2602 1184 13860400 		mv	a2,s1
 2603 1188 93050900 		mv	a1,s2
 2604 118c 13850900 		mv	a0,s3
 2605 1190 97000000 		call	_ZN20KObjectAllocatorTest14getBitOfObjectEPvP16KObjectAllocator
 2605      E7800000 
 2606              	.LVL362:
 136:src/kObjectAllocatorTest.cpp ****         { delete objAlloc; return false; }
 2607              		.loc 2 136 9 discriminator 2
 2608 1198 93073000 		li	a5,3
 2609 119c E318F5FC 		bne	a0,a5,.L155
 138:src/kObjectAllocatorTest.cpp ****     objAlloc->freeObject(objArr[3 * 8 + 5]);
 2610              		.loc 2 138 5 is_stmt 1
 138:src/kObjectAllocatorTest.cpp ****     objAlloc->freeObject(objArr[3 * 8 + 5]);
 2611              		.loc 2 138 19 is_stmt 0
 2612 11a0 03B78403 		ld	a4,56(s1)
 138:src/kObjectAllocatorTest.cpp ****     objAlloc->freeObject(objArr[3 * 8 + 5]);
 2613              		.loc 2 138 5
 2614 11a4 93077000 		li	a5,7
 2615 11a8 630EF700 		beq	a4,a5,.L203
 138:src/kObjectAllocatorTest.cpp ****     objAlloc->freeObject(objArr[3 * 8 + 5]);
 2616              		.loc 2 138 44 is_stmt 1 discriminator 1
 138:src/kObjectAllocatorTest.cpp ****     objAlloc->freeObject(objArr[3 * 8 + 5]);
 2617              		.loc 2 138 59 is_stmt 0 discriminator 1
 2618 11ac 63880400 		beqz	s1,.L159
 138:src/kObjectAllocatorTest.cpp ****     objAlloc->freeObject(objArr[3 * 8 + 5]);
 2619              		.loc 2 138 51 discriminator 2
 2620 11b0 13850400 		mv	a0,s1
 2621 11b4 97000000 		call	_ZN16KObjectAllocatordlEPv
 2621      E7800000 
 2622              	.LVL363:
 2623              	.L159:
 138:src/kObjectAllocatorTest.cpp ****     objAlloc->freeObject(objArr[3 * 8 + 5]);
 2624              		.loc 2 138 61 is_stmt 1 discriminator 3
 138:src/kObjectAllocatorTest.cpp ****     objAlloc->freeObject(objArr[3 * 8 + 5]);
 2625              		.loc 2 138 68 is_stmt 0 discriminator 3
 2626 11bc 13050000 		li	a0,0
 2627 11c0 6FF01FAD 		j	.L190
 2628              	.L203:
 139:src/kObjectAllocatorTest.cpp **** 
 2629              		.loc 2 139 5 is_stmt 1
 139:src/kObjectAllocatorTest.cpp **** 
 2630              		.loc 2 139 25 is_stmt 0
 2631 11c4 B7F7FFFF 		li	a5,-4096
GAS LISTING /tmp/cciR7THS.s 			page 66


 2632 11c8 130704FC 		addi	a4,s0,-64
 2633 11cc B307F700 		add	a5,a4,a5
 2634 11d0 83B5876E 		ld	a1,1768(a5)
 2635 11d4 13850400 		mv	a0,s1
 2636 11d8 97000000 		call	_ZN16KObjectAllocator10freeObjectEPv@plt
 2636      E7800000 
 2637              	.LVL364:
 141:src/kObjectAllocatorTest.cpp ****     if (getByteOfObject(objArr[38 * 8 + 5], objAlloc) != 38
 2638              		.loc 2 141 5 is_stmt 1
 141:src/kObjectAllocatorTest.cpp ****     if (getByteOfObject(objArr[38 * 8 + 5], objAlloc) != 38
 2639              		.loc 2 141 53 is_stmt 0
 2640 11e0 13850400 		mv	a0,s1
 2641 11e4 97000000 		call	_ZN16KObjectAllocator17allocateNewObjectEv@plt
 2641      E7800000 
 2642              	.LVL365:
 2643 11ec 13090500 		mv	s2,a0
 142:src/kObjectAllocatorTest.cpp ****         || getBitOfObject(objArr[38 * 8 + 5], objAlloc) != 2)
 2644              		.loc 2 142 5 is_stmt 1
 142:src/kObjectAllocatorTest.cpp ****         || getBitOfObject(objArr[38 * 8 + 5], objAlloc) != 2)
 2645              		.loc 2 142 24 is_stmt 0
 2646 11f0 13860400 		mv	a2,s1
 2647 11f4 93050500 		mv	a1,a0
 2648 11f8 13850900 		mv	a0,s3
 2649 11fc 97000000 		call	_ZN20KObjectAllocatorTest15getByteOfObjectEPvP16KObjectAllocator
 2649      E7800000 
 2650              	.LVL366:
 143:src/kObjectAllocatorTest.cpp ****     { delete objAlloc; return false; }
 2651              		.loc 2 143 9
 2652 1204 93076002 		li	a5,38
 2653 1208 630EF500 		beq	a0,a5,.L204
 2654              	.L160:
 144:src/kObjectAllocatorTest.cpp ****     if (objAlloc->nextNonTakenByte != 38) { delete objAlloc; return false; }
 2655              		.loc 2 144 7 is_stmt 1 discriminator 4
 144:src/kObjectAllocatorTest.cpp ****     if (objAlloc->nextNonTakenByte != 38) { delete objAlloc; return false; }
 2656              		.loc 2 144 22 is_stmt 0 discriminator 4
 2657 120c 63880400 		beqz	s1,.L163
 144:src/kObjectAllocatorTest.cpp ****     if (objAlloc->nextNonTakenByte != 38) { delete objAlloc; return false; }
 2658              		.loc 2 144 14 discriminator 1
 2659 1210 13850400 		mv	a0,s1
 2660 1214 97000000 		call	_ZN16KObjectAllocatordlEPv
 2660      E7800000 
 2661              	.LVL367:
 2662              	.L163:
 144:src/kObjectAllocatorTest.cpp ****     if (objAlloc->nextNonTakenByte != 38) { delete objAlloc; return false; }
 2663              		.loc 2 144 24 is_stmt 1 discriminator 2
 144:src/kObjectAllocatorTest.cpp ****     if (objAlloc->nextNonTakenByte != 38) { delete objAlloc; return false; }
 2664              		.loc 2 144 31 is_stmt 0 discriminator 2
 2665 121c 13050000 		li	a0,0
 2666 1220 6FF01FA7 		j	.L190
 2667              	.L204:
 143:src/kObjectAllocatorTest.cpp ****     { delete objAlloc; return false; }
 2668              		.loc 2 143 26 discriminator 2
 2669 1224 13860400 		mv	a2,s1
 2670 1228 93050900 		mv	a1,s2
 2671 122c 13850900 		mv	a0,s3
 2672 1230 97000000 		call	_ZN20KObjectAllocatorTest14getBitOfObjectEPvP16KObjectAllocator
 2672      E7800000 
GAS LISTING /tmp/cciR7THS.s 			page 67


 2673              	.LVL368:
 143:src/kObjectAllocatorTest.cpp ****     { delete objAlloc; return false; }
 2674              		.loc 2 143 9 discriminator 2
 2675 1238 93072000 		li	a5,2
 2676 123c E318F5FC 		bne	a0,a5,.L160
 145:src/kObjectAllocatorTest.cpp **** 
 2677              		.loc 2 145 5 is_stmt 1
 145:src/kObjectAllocatorTest.cpp **** 
 2678              		.loc 2 145 19 is_stmt 0
 2679 1240 03B78403 		ld	a4,56(s1)
 145:src/kObjectAllocatorTest.cpp **** 
 2680              		.loc 2 145 5
 2681 1244 93076002 		li	a5,38
 2682 1248 630EF700 		beq	a4,a5,.L205
 145:src/kObjectAllocatorTest.cpp **** 
 2683              		.loc 2 145 45 is_stmt 1 discriminator 1
 145:src/kObjectAllocatorTest.cpp **** 
 2684              		.loc 2 145 60 is_stmt 0 discriminator 1
 2685 124c 63880400 		beqz	s1,.L164
 145:src/kObjectAllocatorTest.cpp **** 
 2686              		.loc 2 145 52 discriminator 2
 2687 1250 13850400 		mv	a0,s1
 2688 1254 97000000 		call	_ZN16KObjectAllocatordlEPv
 2688      E7800000 
 2689              	.LVL369:
 2690              	.L164:
 145:src/kObjectAllocatorTest.cpp **** 
 2691              		.loc 2 145 62 is_stmt 1 discriminator 3
 145:src/kObjectAllocatorTest.cpp **** 
 2692              		.loc 2 145 69 is_stmt 0 discriminator 3
 2693 125c 13050000 		li	a0,0
 2694 1260 6FF01FA3 		j	.L190
 2695              	.L205:
 148:src/kObjectAllocatorTest.cpp ****     if (getByteOfObject(objArr[3 * 8 + 5], objAlloc) != 3 || getBitOfObject(objArr[3 * 8 + 5], objA
 2696              		.loc 2 148 5 is_stmt 1
 148:src/kObjectAllocatorTest.cpp ****     if (getByteOfObject(objArr[3 * 8 + 5], objAlloc) != 3 || getBitOfObject(objArr[3 * 8 + 5], objA
 2697              		.loc 2 148 52 is_stmt 0
 2698 1264 13850400 		mv	a0,s1
 2699 1268 97000000 		call	_ZN16KObjectAllocator17allocateNewObjectEv@plt
 2699      E7800000 
 2700              	.LVL370:
 2701 1270 13090500 		mv	s2,a0
 149:src/kObjectAllocatorTest.cpp ****     if (objAlloc->nextNonTakenByte != 3) { delete objAlloc; return false; }
 2702              		.loc 2 149 5 is_stmt 1
 149:src/kObjectAllocatorTest.cpp ****     if (objAlloc->nextNonTakenByte != 3) { delete objAlloc; return false; }
 2703              		.loc 2 149 24 is_stmt 0
 2704 1274 13860400 		mv	a2,s1
 2705 1278 93050500 		mv	a1,a0
 2706 127c 13850900 		mv	a0,s3
 2707 1280 97000000 		call	_ZN20KObjectAllocatorTest15getByteOfObjectEPvP16KObjectAllocator
 2707      E7800000 
 2708              	.LVL371:
 149:src/kObjectAllocatorTest.cpp ****     if (objAlloc->nextNonTakenByte != 3) { delete objAlloc; return false; }
 2709              		.loc 2 149 59
 2710 1288 93073000 		li	a5,3
 2711 128c 6304F502 		beq	a0,a5,.L206
 2712              	.L165:
GAS LISTING /tmp/cciR7THS.s 			page 68


 150:src/kObjectAllocatorTest.cpp **** 
 2713              		.loc 2 150 5 is_stmt 1 discriminator 5
 150:src/kObjectAllocatorTest.cpp **** 
 2714              		.loc 2 150 19 is_stmt 0 discriminator 5
 2715 1290 03B78403 		ld	a4,56(s1)
 150:src/kObjectAllocatorTest.cpp **** 
 2716              		.loc 2 150 5 discriminator 5
 2717 1294 93073000 		li	a5,3
 2718 1298 630CF702 		beq	a4,a5,.L166
 150:src/kObjectAllocatorTest.cpp **** 
 2719              		.loc 2 150 44 is_stmt 1 discriminator 1
 150:src/kObjectAllocatorTest.cpp **** 
 2720              		.loc 2 150 59 is_stmt 0 discriminator 1
 2721 129c 63880400 		beqz	s1,.L167
 150:src/kObjectAllocatorTest.cpp **** 
 2722              		.loc 2 150 51 discriminator 2
 2723 12a0 13850400 		mv	a0,s1
 2724 12a4 97000000 		call	_ZN16KObjectAllocatordlEPv
 2724      E7800000 
 2725              	.LVL372:
 2726              	.L167:
 150:src/kObjectAllocatorTest.cpp **** 
 2727              		.loc 2 150 61 is_stmt 1 discriminator 3
 150:src/kObjectAllocatorTest.cpp **** 
 2728              		.loc 2 150 68 is_stmt 0 discriminator 3
 2729 12ac 13050000 		li	a0,0
 2730 12b0 6FF01F9E 		j	.L190
 2731              	.L206:
 149:src/kObjectAllocatorTest.cpp ****     if (objAlloc->nextNonTakenByte != 3) { delete objAlloc; return false; }
 2732              		.loc 2 149 76 discriminator 3
 2733 12b4 13860400 		mv	a2,s1
 2734 12b8 93050900 		mv	a1,s2
 2735 12bc 13850900 		mv	a0,s3
 2736 12c0 97000000 		call	_ZN20KObjectAllocatorTest14getBitOfObjectEPvP16KObjectAllocator
 2736      E7800000 
 2737              	.LVL373:
 149:src/kObjectAllocatorTest.cpp ****     if (objAlloc->nextNonTakenByte != 3) { delete objAlloc; return false; }
 2738              		.loc 2 149 59 discriminator 3
 2739 12c8 93072000 		li	a5,2
 2740 12cc E312F5FC 		bne	a0,a5,.L165
 2741              	.L166:
 152:src/kObjectAllocatorTest.cpp ****     if (getByteOfObject(objArr[6 * 8 + 3], objAlloc) != 6
 2742              		.loc 2 152 5 is_stmt 1
 152:src/kObjectAllocatorTest.cpp ****     if (getByteOfObject(objArr[6 * 8 + 3], objAlloc) != 6
 2743              		.loc 2 152 52 is_stmt 0
 2744 12d0 13850400 		mv	a0,s1
 2745 12d4 97000000 		call	_ZN16KObjectAllocator17allocateNewObjectEv@plt
 2745      E7800000 
 2746              	.LVL374:
 2747 12dc 13090500 		mv	s2,a0
 153:src/kObjectAllocatorTest.cpp ****         || getBitOfObject(objArr[6 * 8 + 3], objAlloc) != 4)
 2748              		.loc 2 153 5 is_stmt 1
 153:src/kObjectAllocatorTest.cpp ****         || getBitOfObject(objArr[6 * 8 + 3], objAlloc) != 4)
 2749              		.loc 2 153 24 is_stmt 0
 2750 12e0 13860400 		mv	a2,s1
 2751 12e4 93050500 		mv	a1,a0
 2752 12e8 13850900 		mv	a0,s3
GAS LISTING /tmp/cciR7THS.s 			page 69


 2753 12ec 97000000 		call	_ZN20KObjectAllocatorTest15getByteOfObjectEPvP16KObjectAllocator
 2753      E7800000 
 2754              	.LVL375:
 154:src/kObjectAllocatorTest.cpp ****     { delete objAlloc; return false; }
 2755              		.loc 2 154 9
 2756 12f4 93076000 		li	a5,6
 2757 12f8 630EF500 		beq	a0,a5,.L207
 2758              	.L168:
 155:src/kObjectAllocatorTest.cpp ****     if (objAlloc->nextNonTakenByte != 6) { delete objAlloc; return false; }
 2759              		.loc 2 155 7 is_stmt 1 discriminator 4
 155:src/kObjectAllocatorTest.cpp ****     if (objAlloc->nextNonTakenByte != 6) { delete objAlloc; return false; }
 2760              		.loc 2 155 22 is_stmt 0 discriminator 4
 2761 12fc 63880400 		beqz	s1,.L171
 155:src/kObjectAllocatorTest.cpp ****     if (objAlloc->nextNonTakenByte != 6) { delete objAlloc; return false; }
 2762              		.loc 2 155 14 discriminator 1
 2763 1300 13850400 		mv	a0,s1
 2764 1304 97000000 		call	_ZN16KObjectAllocatordlEPv
 2764      E7800000 
 2765              	.LVL376:
 2766              	.L171:
 155:src/kObjectAllocatorTest.cpp ****     if (objAlloc->nextNonTakenByte != 6) { delete objAlloc; return false; }
 2767              		.loc 2 155 24 is_stmt 1 discriminator 2
 155:src/kObjectAllocatorTest.cpp ****     if (objAlloc->nextNonTakenByte != 6) { delete objAlloc; return false; }
 2768              		.loc 2 155 31 is_stmt 0 discriminator 2
 2769 130c 13050000 		li	a0,0
 2770 1310 6FF01F98 		j	.L190
 2771              	.L207:
 154:src/kObjectAllocatorTest.cpp ****     { delete objAlloc; return false; }
 2772              		.loc 2 154 26 discriminator 2
 2773 1314 13860400 		mv	a2,s1
 2774 1318 93050900 		mv	a1,s2
 2775 131c 13850900 		mv	a0,s3
 2776 1320 97000000 		call	_ZN20KObjectAllocatorTest14getBitOfObjectEPvP16KObjectAllocator
 2776      E7800000 
 2777              	.LVL377:
 154:src/kObjectAllocatorTest.cpp ****     { delete objAlloc; return false; }
 2778              		.loc 2 154 9 discriminator 2
 2779 1328 93074000 		li	a5,4
 2780 132c E318F5FC 		bne	a0,a5,.L168
 156:src/kObjectAllocatorTest.cpp **** 
 2781              		.loc 2 156 5 is_stmt 1
 156:src/kObjectAllocatorTest.cpp **** 
 2782              		.loc 2 156 19 is_stmt 0
 2783 1330 03B78403 		ld	a4,56(s1)
 156:src/kObjectAllocatorTest.cpp **** 
 2784              		.loc 2 156 5
 2785 1334 93076000 		li	a5,6
 2786 1338 6314F70E 		bne	a4,a5,.L169
 2787              	.LBB241:
 158:src/kObjectAllocatorTest.cpp ****         objAlloc->freeObject(objArr[319]);
 2788              		.loc 2 158 14
 2789 133c 930A0000 		li	s5,0
 2790              	.L170:
 2791              	.LVL378:
 158:src/kObjectAllocatorTest.cpp ****         objAlloc->freeObject(objArr[319]);
 2792              		.loc 2 158 23 is_stmt 1 discriminator 1
 2793 1340 93072000 		li	a5,2
GAS LISTING /tmp/cciR7THS.s 			page 70


 2794 1344 63CA5715 		bgt	s5,a5,.L173
 159:src/kObjectAllocatorTest.cpp ****         objArr[319] = objAlloc->allocateNewObject();
 2795              		.loc 2 159 9
 159:src/kObjectAllocatorTest.cpp ****         objArr[319] = objAlloc->allocateNewObject();
 2796              		.loc 2 159 29 is_stmt 0
 2797 1348 833584FB 		ld	a1,-72(s0)
 2798 134c 13850400 		mv	a0,s1
 2799 1350 97000000 		call	_ZN16KObjectAllocator10freeObjectEPv@plt
 2799      E7800000 
 2800              	.LVL379:
 160:src/kObjectAllocatorTest.cpp ****         if (getByteOfObject(objArr[319], objAlloc) != 39
 2801              		.loc 2 160 9 is_stmt 1
 160:src/kObjectAllocatorTest.cpp ****         if (getByteOfObject(objArr[319], objAlloc) != 39
 2802              		.loc 2 160 50 is_stmt 0
 2803 1358 13850400 		mv	a0,s1
 2804 135c 97000000 		call	_ZN16KObjectAllocator17allocateNewObjectEv@plt
 2804      E7800000 
 2805              	.LVL380:
 2806 1364 13090500 		mv	s2,a0
 160:src/kObjectAllocatorTest.cpp ****         if (getByteOfObject(objArr[319], objAlloc) != 39
 2807              		.loc 2 160 21
 2808 1368 233CA4FA 		sd	a0,-72(s0)
 161:src/kObjectAllocatorTest.cpp ****             || getBitOfObject(objArr[319], objAlloc) != 0)
 2809              		.loc 2 161 9 is_stmt 1
 161:src/kObjectAllocatorTest.cpp ****             || getBitOfObject(objArr[319], objAlloc) != 0)
 2810              		.loc 2 161 28 is_stmt 0
 2811 136c 13860400 		mv	a2,s1
 2812 1370 93050500 		mv	a1,a0
 2813 1374 13850900 		mv	a0,s3
 2814 1378 97000000 		call	_ZN20KObjectAllocatorTest15getByteOfObjectEPvP16KObjectAllocator
 2814      E7800000 
 2815              	.LVL381:
 162:src/kObjectAllocatorTest.cpp ****         { delete objAlloc; return false; }
 2816              		.loc 2 162 13
 2817 1380 93077002 		li	a5,39
 2818 1384 631AF50A 		bne	a0,a5,.L174
 162:src/kObjectAllocatorTest.cpp ****         { delete objAlloc; return false; }
 2819              		.loc 2 162 30 discriminator 2
 2820 1388 13860400 		mv	a2,s1
 2821 138c 93050900 		mv	a1,s2
 2822 1390 13850900 		mv	a0,s3
 2823 1394 97000000 		call	_ZN20KObjectAllocatorTest14getBitOfObjectEPvP16KObjectAllocator
 2823      E7800000 
 2824              	.LVL382:
 162:src/kObjectAllocatorTest.cpp ****         { delete objAlloc; return false; }
 2825              		.loc 2 162 13 discriminator 2
 2826 139c 631E0508 		bnez	a0,.L174
 164:src/kObjectAllocatorTest.cpp **** 
 2827              		.loc 2 164 9 is_stmt 1
 164:src/kObjectAllocatorTest.cpp **** 
 2828              		.loc 2 164 23 is_stmt 0
 2829 13a0 03B78403 		ld	a4,56(s1)
 164:src/kObjectAllocatorTest.cpp **** 
 2830              		.loc 2 164 9
 2831 13a4 93078002 		li	a5,40
 2832 13a8 6314F70A 		bne	a4,a5,.L208
 166:src/kObjectAllocatorTest.cpp ****         objArr[1] = objAlloc->allocateNewObject();
GAS LISTING /tmp/cciR7THS.s 			page 71


 2833              		.loc 2 166 9 is_stmt 1
 166:src/kObjectAllocatorTest.cpp ****         objArr[1] = objAlloc->allocateNewObject();
 2834              		.loc 2 166 29 is_stmt 0
 2835 13ac 37FAFFFF 		li	s4,-4096
 2836 13b0 930704FC 		addi	a5,s0,-64
 2837 13b4 338A4701 		add	s4,a5,s4
 2838 13b8 83358A60 		ld	a1,1544(s4)
 2839 13bc 13850400 		mv	a0,s1
 2840 13c0 97000000 		call	_ZN16KObjectAllocator10freeObjectEPv@plt
 2840      E7800000 
 2841              	.LVL383:
 167:src/kObjectAllocatorTest.cpp ****         if (getByteOfObject(objArr[1], objAlloc) != 0
 2842              		.loc 2 167 9 is_stmt 1
 167:src/kObjectAllocatorTest.cpp ****         if (getByteOfObject(objArr[1], objAlloc) != 0
 2843              		.loc 2 167 48 is_stmt 0
 2844 13c8 13850400 		mv	a0,s1
 2845 13cc 97000000 		call	_ZN16KObjectAllocator17allocateNewObjectEv@plt
 2845      E7800000 
 2846              	.LVL384:
 2847 13d4 13090500 		mv	s2,a0
 167:src/kObjectAllocatorTest.cpp ****         if (getByteOfObject(objArr[1], objAlloc) != 0
 2848              		.loc 2 167 19
 2849 13d8 2334AA60 		sd	a0,1544(s4)
 168:src/kObjectAllocatorTest.cpp ****             || getBitOfObject(objArr[1], objAlloc) != 6)
 2850              		.loc 2 168 9 is_stmt 1
 168:src/kObjectAllocatorTest.cpp ****             || getBitOfObject(objArr[1], objAlloc) != 6)
 2851              		.loc 2 168 28 is_stmt 0
 2852 13dc 13860400 		mv	a2,s1
 2853 13e0 93050500 		mv	a1,a0
 2854 13e4 13850900 		mv	a0,s3
 2855 13e8 97000000 		call	_ZN20KObjectAllocatorTest15getByteOfObjectEPvP16KObjectAllocator
 2855      E7800000 
 2856              	.LVL385:
 169:src/kObjectAllocatorTest.cpp ****         { delete objAlloc; return false; }
 2857              		.loc 2 169 13
 2858 13f0 631C0506 		bnez	a0,.L179
 169:src/kObjectAllocatorTest.cpp ****         { delete objAlloc; return false; }
 2859              		.loc 2 169 30 discriminator 2
 2860 13f4 13860400 		mv	a2,s1
 2861 13f8 93050900 		mv	a1,s2
 2862 13fc 13850900 		mv	a0,s3
 2863 1400 97000000 		call	_ZN20KObjectAllocatorTest14getBitOfObjectEPvP16KObjectAllocator
 2863      E7800000 
 2864              	.LVL386:
 169:src/kObjectAllocatorTest.cpp ****         { delete objAlloc; return false; }
 2865              		.loc 2 169 13 discriminator 2
 2866 1408 93076000 		li	a5,6
 2867 140c 631EF504 		bne	a0,a5,.L179
 171:src/kObjectAllocatorTest.cpp ****     }
 2868              		.loc 2 171 9 is_stmt 1
 171:src/kObjectAllocatorTest.cpp ****     }
 2869              		.loc 2 171 23 is_stmt 0
 2870 1410 83B78403 		ld	a5,56(s1)
 171:src/kObjectAllocatorTest.cpp ****     }
 2871              		.loc 2 171 9
 2872 1414 63960706 		bnez	a5,.L209
 158:src/kObjectAllocatorTest.cpp ****         objAlloc->freeObject(objArr[319]);
GAS LISTING /tmp/cciR7THS.s 			page 72


 2873              		.loc 2 158 5 is_stmt 1 discriminator 2
 2874 1418 9B8A1A00 		addiw	s5,s5,1
 2875              	.LVL387:
 2876 141c 6FF05FF2 		j	.L170
 2877              	.L169:
 2878              	.LBE241:
 156:src/kObjectAllocatorTest.cpp **** 
 2879              		.loc 2 156 44 discriminator 1
 156:src/kObjectAllocatorTest.cpp **** 
 2880              		.loc 2 156 59 is_stmt 0 discriminator 1
 2881 1420 63880400 		beqz	s1,.L172
 156:src/kObjectAllocatorTest.cpp **** 
 2882              		.loc 2 156 51 discriminator 2
 2883 1424 13850400 		mv	a0,s1
 2884 1428 97000000 		call	_ZN16KObjectAllocatordlEPv
 2884      E7800000 
 2885              	.LVL388:
 2886              	.L172:
 156:src/kObjectAllocatorTest.cpp **** 
 2887              		.loc 2 156 61 is_stmt 1 discriminator 3
 156:src/kObjectAllocatorTest.cpp **** 
 2888              		.loc 2 156 68 is_stmt 0 discriminator 3
 2889 1430 13050000 		li	a0,0
 2890 1434 6FF0DF85 		j	.L190
 2891              	.LVL389:
 2892              	.L174:
 2893              	.LBB242:
 163:src/kObjectAllocatorTest.cpp ****         if (objAlloc->nextNonTakenByte != 40) { delete objAlloc; return false; }
 2894              		.loc 2 163 11 is_stmt 1 discriminator 4
 163:src/kObjectAllocatorTest.cpp ****         if (objAlloc->nextNonTakenByte != 40) { delete objAlloc; return false; }
 2895              		.loc 2 163 26 is_stmt 0 discriminator 4
 2896 1438 63880400 		beqz	s1,.L177
 163:src/kObjectAllocatorTest.cpp ****         if (objAlloc->nextNonTakenByte != 40) { delete objAlloc; return false; }
 2897              		.loc 2 163 18 discriminator 1
 2898 143c 13850400 		mv	a0,s1
 2899 1440 97000000 		call	_ZN16KObjectAllocatordlEPv
 2899      E7800000 
 2900              	.LVL390:
 2901              	.L177:
 163:src/kObjectAllocatorTest.cpp ****         if (objAlloc->nextNonTakenByte != 40) { delete objAlloc; return false; }
 2902              		.loc 2 163 28 is_stmt 1 discriminator 2
 163:src/kObjectAllocatorTest.cpp ****         if (objAlloc->nextNonTakenByte != 40) { delete objAlloc; return false; }
 2903              		.loc 2 163 35 is_stmt 0 discriminator 2
 2904 1448 13050000 		li	a0,0
 2905 144c 6FF05F84 		j	.L190
 2906              	.L208:
 164:src/kObjectAllocatorTest.cpp **** 
 2907              		.loc 2 164 49 is_stmt 1 discriminator 1
 164:src/kObjectAllocatorTest.cpp **** 
 2908              		.loc 2 164 64 is_stmt 0 discriminator 1
 2909 1450 63880400 		beqz	s1,.L178
 164:src/kObjectAllocatorTest.cpp **** 
 2910              		.loc 2 164 56 discriminator 2
 2911 1454 13850400 		mv	a0,s1
 2912 1458 97000000 		call	_ZN16KObjectAllocatordlEPv
 2912      E7800000 
 2913              	.LVL391:
GAS LISTING /tmp/cciR7THS.s 			page 73


 2914              	.L178:
 164:src/kObjectAllocatorTest.cpp **** 
 2915              		.loc 2 164 66 is_stmt 1 discriminator 3
 164:src/kObjectAllocatorTest.cpp **** 
 2916              		.loc 2 164 73 is_stmt 0 discriminator 3
 2917 1460 13050000 		li	a0,0
 2918 1464 6FF0DF82 		j	.L190
 2919              	.L179:
 170:src/kObjectAllocatorTest.cpp ****         if (objAlloc->nextNonTakenByte != 0) { delete objAlloc; return false; }
 2920              		.loc 2 170 11 is_stmt 1 discriminator 4
 170:src/kObjectAllocatorTest.cpp ****         if (objAlloc->nextNonTakenByte != 0) { delete objAlloc; return false; }
 2921              		.loc 2 170 26 is_stmt 0 discriminator 4
 2922 1468 63880400 		beqz	s1,.L182
 170:src/kObjectAllocatorTest.cpp ****         if (objAlloc->nextNonTakenByte != 0) { delete objAlloc; return false; }
 2923              		.loc 2 170 18 discriminator 1
 2924 146c 13850400 		mv	a0,s1
 2925 1470 97000000 		call	_ZN16KObjectAllocatordlEPv
 2925      E7800000 
 2926              	.LVL392:
 2927              	.L182:
 170:src/kObjectAllocatorTest.cpp ****         if (objAlloc->nextNonTakenByte != 0) { delete objAlloc; return false; }
 2928              		.loc 2 170 28 is_stmt 1 discriminator 2
 170:src/kObjectAllocatorTest.cpp ****         if (objAlloc->nextNonTakenByte != 0) { delete objAlloc; return false; }
 2929              		.loc 2 170 35 is_stmt 0 discriminator 2
 2930 1478 13050000 		li	a0,0
 2931 147c 6FF05F81 		j	.L190
 2932              	.L209:
 171:src/kObjectAllocatorTest.cpp ****     }
 2933              		.loc 2 171 48 is_stmt 1 discriminator 1
 171:src/kObjectAllocatorTest.cpp ****     }
 2934              		.loc 2 171 63 is_stmt 0 discriminator 1
 2935 1480 63880400 		beqz	s1,.L183
 171:src/kObjectAllocatorTest.cpp ****     }
 2936              		.loc 2 171 55 discriminator 2
 2937 1484 13850400 		mv	a0,s1
 2938 1488 97000000 		call	_ZN16KObjectAllocatordlEPv
 2938      E7800000 
 2939              	.LVL393:
 2940              	.L183:
 171:src/kObjectAllocatorTest.cpp ****     }
 2941              		.loc 2 171 65 is_stmt 1 discriminator 3
 171:src/kObjectAllocatorTest.cpp ****     }
 2942              		.loc 2 171 72 is_stmt 0 discriminator 3
 2943 1490 13050000 		li	a0,0
 2944 1494 6FF0CFFF 		j	.L190
 2945              	.L173:
 2946              	.LBE242:
 173:src/kObjectAllocatorTest.cpp ****     return true;
 2947              		.loc 2 173 5 is_stmt 1
 173:src/kObjectAllocatorTest.cpp ****     return true;
 2948              		.loc 2 173 20 is_stmt 0
 2949 1498 638C0400 		beqz	s1,.L188
 173:src/kObjectAllocatorTest.cpp ****     return true;
 2950              		.loc 2 173 12 discriminator 1
 2951 149c 13850400 		mv	a0,s1
 2952 14a0 97000000 		call	_ZN16KObjectAllocatordlEPv
 2952      E7800000 
GAS LISTING /tmp/cciR7THS.s 			page 74


 2953              	.LVL394:
 2954              	.LEHE6:
 174:src/kObjectAllocatorTest.cpp **** }
 2955              		.loc 2 174 12 discriminator 1
 2956 14a8 13051000 		li	a0,1
 2957 14ac 6FF04FFE 		j	.L190
 2958              	.L188:
 174:src/kObjectAllocatorTest.cpp **** }
 2959              		.loc 2 174 12
 2960 14b0 13051000 		li	a0,1
 2961 14b4 6FF0CFFD 		j	.L190
 2962              	.LVL395:
 2963              	.L189:
 2964 14b8 13090500 		mv	s2,a0
 2965              	.LVL396:
 110:src/kObjectAllocatorTest.cpp ****     if (objAlloc->getNumberOfObjects() != 320) { delete objAlloc; return false; }
 2966              		.loc 2 110 59
 2967 14bc 13850400 		mv	a0,s1
 2968 14c0 97000000 		call	_ZN16KObjectAllocatordlEPv
 2968      E7800000 
 2969              	.LVL397:
 2970 14c8 13050900 		mv	a0,s2
 2971              	.LEHB7:
 2972 14cc 97000000 		call	_Unwind_Resume@plt
 2972      E7800000 
 2973              	.LVL398:
 2974              	.LEHE7:
 2975              		.cfi_endproc
 2976              	.LFE28:
 2977              		.section	.gcc_except_table
 2978              	.LLSDA28:
 2979 0038 FF       		.byte	0xff
 2980 0039 FF       		.byte	0xff
 2981 003a 03       		.byte	0x3
 2982 003b 34       		.byte	0x34
 2983 003c 00000000 		.4byte	.LEHB4-.LFB28
 2984 0040 00000000 		.4byte	.LEHE4-.LEHB4
 2985 0044 00000000 		.4byte	0
 2986 0048 00       		.byte	0
 2987 0049 00000000 		.4byte	.LEHB5-.LFB28
 2988 004d 00000000 		.4byte	.LEHE5-.LEHB5
 2989 0051 00000000 		.4byte	.L189-.LFB28
 2990 0055 00       		.byte	0
 2991 0056 00000000 		.4byte	.LEHB6-.LFB28
 2992 005a 00000000 		.4byte	.LEHE6-.LEHB6
 2993 005e 00000000 		.4byte	0
 2994 0062 00       		.byte	0
 2995 0063 00000000 		.4byte	.LEHB7-.LFB28
 2996 0067 00000000 		.4byte	.LEHE7-.LEHB7
 2997 006b 00000000 		.4byte	0
 2998 006f 00       		.byte	0
 2999              		.text
 3001              		.align	2
 3002              		.globl	_ZN20KObjectAllocatorTest5test2Em
 3004              	_ZN20KObjectAllocatorTest5test2Em:
 3005              	.LFB29:
 176:src/kObjectAllocatorTest.cpp **** 
GAS LISTING /tmp/cciR7THS.s 			page 75


 177:src/kObjectAllocatorTest.cpp **** bool KObjectAllocatorTest::test2(size_t size) {
 3006              		.loc 2 177 47 is_stmt 1
 3007              		.cfi_startproc
 3008              		.cfi_personality 0x9b,DW.ref.__gxx_personality_v0
 3009              		.cfi_lsda 0x1b,.LLSDA29
 3010              	.LVL399:
 3011 14d4 130101F5 		addi	sp,sp,-176
 3012              		.cfi_def_cfa_offset 176
 3013 14d8 2334110A 		sd	ra,168(sp)
 3014 14dc 2330810A 		sd	s0,160(sp)
 3015 14e0 233C9108 		sd	s1,152(sp)
 3016 14e4 23382109 		sd	s2,144(sp)
 3017 14e8 23343109 		sd	s3,136(sp)
 3018 14ec 23304109 		sd	s4,128(sp)
 3019 14f0 233C5107 		sd	s5,120(sp)
 3020 14f4 23386107 		sd	s6,112(sp)
 3021 14f8 23347107 		sd	s7,104(sp)
 3022 14fc 23308107 		sd	s8,96(sp)
 3023              		.cfi_offset 1, -8
 3024              		.cfi_offset 8, -16
 3025              		.cfi_offset 9, -24
 3026              		.cfi_offset 18, -32
 3027              		.cfi_offset 19, -40
 3028              		.cfi_offset 20, -48
 3029              		.cfi_offset 21, -56
 3030              		.cfi_offset 22, -64
 3031              		.cfi_offset 23, -72
 3032              		.cfi_offset 24, -80
 3033 1500 1304010B 		addi	s0,sp,176
 3034              		.cfi_def_cfa 8, 0
 3035 1504 93090500 		mv	s3,a0
 3036 1508 13890500 		mv	s2,a1
 178:src/kObjectAllocatorTest.cpp ****     KObjectAllocator* objAlloc = new KObjectAllocator(size, 3);
 3037              		.loc 2 178 5
 3038              	.LVL400:
 3039              	.LBB291:
 3040              	.LBB292:
  65:src/../h/kObjectAllocator.hpp ****     }
 3041              		.loc 1 65 9
 3042              	.LEHB8:
  65:src/../h/kObjectAllocator.hpp ****     }
 3043              		.loc 1 65 55 is_stmt 0
 3044 150c 97000000 		call	_ZN15MemoryAllocator8instanceEv@plt
 3044      E7800000 
 3045              	.LVL401:
 3046 1514 93050004 		li	a1,64
 3047 1518 97000000 		call	_ZN15MemoryAllocator10kmem_allocEm@plt
 3047      E7800000 
 3048              	.LVL402:
 3049              	.LEHE8:
 3050 1520 93040500 		mv	s1,a0
 3051              	.LVL403:
 3052              	.LBE292:
 3053              	.LBE291:
 3054              	.LBB293:
 3055              	.LBB294:
  51:src/../h/kObjectAllocator.hpp ****         bitVectors = (uint8**) MemoryAllocator::instance()->kmem_alloc(numberOfAllocations * sizeof
GAS LISTING /tmp/cciR7THS.s 			page 76


 3056              		.loc 1 51 120
 3057 1524 93073000 		li	a5,3
 3058 1528 2330F500 		sd	a5,0(a0)
 3059 152c 2334F500 		sd	a5,8(a0)
 3060 1530 233C2501 		sd	s2,24(a0)
 3061 1534 93071000 		li	a5,1
 3062 1538 2338F502 		sd	a5,48(a0)
 3063 153c 233C0502 		sd	zero,56(a0)
 3064              	.LBB295:
  52:src/../h/kObjectAllocator.hpp ****         objectVectors = (uint8**) MemoryAllocator::instance()->kmem_alloc(numberOfAllocations * siz
 3065              		.loc 1 52 9 is_stmt 1
 3066              	.LEHB9:
  52:src/../h/kObjectAllocator.hpp ****         objectVectors = (uint8**) MemoryAllocator::instance()->kmem_alloc(numberOfAllocations * siz
 3067              		.loc 1 52 71 is_stmt 0
 3068 1540 97000000 		call	_ZN15MemoryAllocator8instanceEv@plt
 3068      E7800000 
 3069              	.LVL404:
  52:src/../h/kObjectAllocator.hpp ****         objectVectors = (uint8**) MemoryAllocator::instance()->kmem_alloc(numberOfAllocations * siz
 3070              		.loc 1 52 72
 3071 1548 83B50403 		ld	a1,48(s1)
  52:src/../h/kObjectAllocator.hpp ****         objectVectors = (uint8**) MemoryAllocator::instance()->kmem_alloc(numberOfAllocations * siz
 3072              		.loc 1 52 71
 3073 154c 93953500 		slli	a1,a1,3
 3074 1550 97000000 		call	_ZN15MemoryAllocator10kmem_allocEm@plt
 3074      E7800000 
 3075              	.LVL405:
  52:src/../h/kObjectAllocator.hpp ****         objectVectors = (uint8**) MemoryAllocator::instance()->kmem_alloc(numberOfAllocations * siz
 3076              		.loc 1 52 20
 3077 1558 23B4A402 		sd	a0,40(s1)
  53:src/../h/kObjectAllocator.hpp ****         initialNumberOfObjects = numberOfObjects = numberOfObjects / 8 * 8 + 8 * (numberOfObjects /
 3078              		.loc 1 53 9 is_stmt 1
  53:src/../h/kObjectAllocator.hpp ****         initialNumberOfObjects = numberOfObjects = numberOfObjects / 8 * 8 + 8 * (numberOfObjects /
 3079              		.loc 1 53 74 is_stmt 0
 3080 155c 97000000 		call	_ZN15MemoryAllocator8instanceEv@plt
 3080      E7800000 
 3081              	.LVL406:
  53:src/../h/kObjectAllocator.hpp ****         initialNumberOfObjects = numberOfObjects = numberOfObjects / 8 * 8 + 8 * (numberOfObjects /
 3082              		.loc 1 53 75
 3083 1564 83B50403 		ld	a1,48(s1)
  53:src/../h/kObjectAllocator.hpp ****         initialNumberOfObjects = numberOfObjects = numberOfObjects / 8 * 8 + 8 * (numberOfObjects /
 3084              		.loc 1 53 74
 3085 1568 93953500 		slli	a1,a1,3
 3086 156c 97000000 		call	_ZN15MemoryAllocator10kmem_allocEm@plt
 3086      E7800000 
 3087              	.LVL407:
  53:src/../h/kObjectAllocator.hpp ****         initialNumberOfObjects = numberOfObjects = numberOfObjects / 8 * 8 + 8 * (numberOfObjects /
 3088              		.loc 1 53 23
 3089 1574 23B0A402 		sd	a0,32(s1)
  54:src/../h/kObjectAllocator.hpp ****         // one bit for each object which indicates whether memory
 3090              		.loc 1 54 9 is_stmt 1
  54:src/../h/kObjectAllocator.hpp ****         // one bit for each object which indicates whether memory
 3091              		.loc 1 54 52 is_stmt 0
 3092 1578 03B78400 		ld	a4,8(s1)
  54:src/../h/kObjectAllocator.hpp ****         // one bit for each object which indicates whether memory
 3093              		.loc 1 54 72
 3094 157c 937787FF 		andi	a5,a4,-8
  54:src/../h/kObjectAllocator.hpp ****         // one bit for each object which indicates whether memory
GAS LISTING /tmp/cciR7THS.s 			page 77


 3095              		.loc 1 54 80
 3096 1580 6304F702 		beq	a4,a5,.L266
 3097 1584 13078000 		li	a4,8
 3098              	.L211:
  54:src/../h/kObjectAllocator.hpp ****         // one bit for each object which indicates whether memory
 3099              		.loc 1 54 76
 3100 1588 B387E700 		add	a5,a5,a4
  54:src/../h/kObjectAllocator.hpp ****         // one bit for each object which indicates whether memory
 3101              		.loc 1 54 50
 3102 158c 23B4F400 		sd	a5,8(s1)
  54:src/../h/kObjectAllocator.hpp ****         // one bit for each object which indicates whether memory
 3103              		.loc 1 54 32
 3104 1590 23B0F400 		sd	a5,0(s1)
  57:src/../h/kObjectAllocator.hpp ****         bitVectors[0] = (uint8*) MemoryAllocator::instance()->kmem_alloc(
 3105              		.loc 1 57 9 is_stmt 1
  57:src/../h/kObjectAllocator.hpp ****         bitVectors[0] = (uint8*) MemoryAllocator::instance()->kmem_alloc(
 3106              		.loc 1 57 45 is_stmt 0
 3107 1594 93D73700 		srli	a5,a5,3
  57:src/../h/kObjectAllocator.hpp ****         bitVectors[0] = (uint8*) MemoryAllocator::instance()->kmem_alloc(
 3108              		.loc 1 57 27
 3109 1598 23B8F400 		sd	a5,16(s1)
  58:src/../h/kObjectAllocator.hpp ****                 memorySizeForBits + initialNumberOfObjects * objectSize
 3110              		.loc 1 58 9 is_stmt 1
  58:src/../h/kObjectAllocator.hpp ****                 memorySizeForBits + initialNumberOfObjects * objectSize
 3111              		.loc 1 58 73 is_stmt 0
 3112 159c 97000000 		call	_ZN15MemoryAllocator8instanceEv@plt
 3112      E7800000 
 3113              	.LVL408:
 3114 15a4 6F00C000 		j	.L274
 3115              	.L266:
  54:src/../h/kObjectAllocator.hpp ****         // one bit for each object which indicates whether memory
 3116              		.loc 1 54 80
 3117 15a8 13070000 		li	a4,0
 3118 15ac 6FF0DFFD 		j	.L211
 3119              	.L274:
  59:src/../h/kObjectAllocator.hpp ****         );
 3120              		.loc 1 59 17
 3121 15b0 83B50401 		ld	a1,16(s1)
  59:src/../h/kObjectAllocator.hpp ****         );
 3122              		.loc 1 59 37
 3123 15b4 83B70400 		ld	a5,0(s1)
  59:src/../h/kObjectAllocator.hpp ****         );
 3124              		.loc 1 59 60
 3125 15b8 B307F902 		mul	a5,s2,a5
  58:src/../h/kObjectAllocator.hpp ****                 memorySizeForBits + initialNumberOfObjects * objectSize
 3126              		.loc 1 58 9
 3127 15bc 03BA8402 		ld	s4,40(s1)
  58:src/../h/kObjectAllocator.hpp ****                 memorySizeForBits + initialNumberOfObjects * objectSize
 3128              		.loc 1 58 73
 3129 15c0 B385F500 		add	a1,a1,a5
 3130 15c4 97000000 		call	_ZN15MemoryAllocator10kmem_allocEm@plt
 3130      E7800000 
 3131              	.LVL409:
 3132              	.LEHE9:
  58:src/../h/kObjectAllocator.hpp ****                 memorySizeForBits + initialNumberOfObjects * objectSize
 3133              		.loc 1 58 23
 3134 15cc 2330AA00 		sd	a0,0(s4)
GAS LISTING /tmp/cciR7THS.s 			page 78


  61:src/../h/kObjectAllocator.hpp ****         for (size_t i = 0; i < memorySizeForBits; bitVectors[0][i++] = 0);
 3135              		.loc 1 61 9 is_stmt 1
  61:src/../h/kObjectAllocator.hpp ****         for (size_t i = 0; i < memorySizeForBits; bitVectors[0][i++] = 0);
 3136              		.loc 1 61 28 is_stmt 0
 3137 15d0 83B78402 		ld	a5,40(s1)
  61:src/../h/kObjectAllocator.hpp ****         for (size_t i = 0; i < memorySizeForBits; bitVectors[0][i++] = 0);
 3138              		.loc 1 61 40
 3139 15d4 83B70700 		ld	a5,0(a5)
  61:src/../h/kObjectAllocator.hpp ****         for (size_t i = 0; i < memorySizeForBits; bitVectors[0][i++] = 0);
 3140              		.loc 1 61 44
 3141 15d8 83B60401 		ld	a3,16(s1)
  61:src/../h/kObjectAllocator.hpp ****         for (size_t i = 0; i < memorySizeForBits; bitVectors[0][i++] = 0);
 3142              		.loc 1 61 9
 3143 15dc 03B70402 		ld	a4,32(s1)
  61:src/../h/kObjectAllocator.hpp ****         for (size_t i = 0; i < memorySizeForBits; bitVectors[0][i++] = 0);
 3144              		.loc 1 61 42
 3145 15e0 B387D700 		add	a5,a5,a3
  61:src/../h/kObjectAllocator.hpp ****         for (size_t i = 0; i < memorySizeForBits; bitVectors[0][i++] = 0);
 3146              		.loc 1 61 26
 3147 15e4 2330F700 		sd	a5,0(a4)
  62:src/../h/kObjectAllocator.hpp ****     }
 3148              		.loc 1 62 9 is_stmt 1
 3149              	.LVL410:
 3150              	.LBB296:
  62:src/../h/kObjectAllocator.hpp ****     }
 3151              		.loc 1 62 21 is_stmt 0
 3152 15e8 93070000 		li	a5,0
 3153              	.LVL411:
 3154              	.L213:
  62:src/../h/kObjectAllocator.hpp ****     }
 3155              		.loc 1 62 30 is_stmt 1
  62:src/../h/kObjectAllocator.hpp ****     }
 3156              		.loc 1 62 32 is_stmt 0
 3157 15ec 03B70401 		ld	a4,16(s1)
  62:src/../h/kObjectAllocator.hpp ****     }
 3158              		.loc 1 62 30
 3159 15f0 63FEE700 		bleu	a4,a5,.L212
  62:src/../h/kObjectAllocator.hpp ****     }
 3160              		.loc 1 62 9 is_stmt 1
  62:src/../h/kObjectAllocator.hpp ****     }
 3161              		.loc 1 62 51 is_stmt 0
 3162 15f4 03B78402 		ld	a4,40(s1)
  62:src/../h/kObjectAllocator.hpp ****     }
 3163              		.loc 1 62 63
 3164 15f8 03370700 		ld	a4,0(a4)
 3165              	.LVL412:
  62:src/../h/kObjectAllocator.hpp ****     }
 3166              		.loc 1 62 68
 3167 15fc 3307F700 		add	a4,a4,a5
  62:src/../h/kObjectAllocator.hpp ****     }
 3168              		.loc 1 62 70
 3169 1600 23000700 		sb	zero,0(a4)
  62:src/../h/kObjectAllocator.hpp ****     }
 3170              		.loc 1 62 66
 3171 1604 93871700 		addi	a5,a5,1
 3172              	.LVL413:
  62:src/../h/kObjectAllocator.hpp ****     }
GAS LISTING /tmp/cciR7THS.s 			page 79


 3173              		.loc 1 62 9
 3174 1608 6FF05FFE 		j	.L213
 3175              	.L212:
 3176              	.LVL414:
 3177              	.LBE296:
 3178              	.LBE295:
 3179              	.LBE294:
 3180              	.LBE293:
 179:src/kObjectAllocatorTest.cpp ****     if (objAlloc->getNumberOfObjects() != 8) { delete objAlloc; return false; }
 3181              		.loc 2 179 5 is_stmt 1 discriminator 3
 3182              	.LBB297:
 3183              	.LBB298:
  77:src/../h/kObjectAllocator.hpp ****     size_t getMemorySizeForBits() { return memorySizeForBits; }
 3184              		.loc 1 77 35 discriminator 3
  77:src/../h/kObjectAllocator.hpp ****     size_t getMemorySizeForBits() { return memorySizeForBits; }
 3185              		.loc 1 77 42 is_stmt 0 discriminator 3
 3186 160c 83BB8400 		ld	s7,8(s1)
 3187              	.LVL415:
 3188              	.LBE298:
 3189              	.LBE297:
 3190              		.loc 2 179 5 discriminator 3
 3191 1610 93078000 		li	a5,8
 3192 1614 6388FB0A 		beq	s7,a5,.L214
 3193              		.loc 2 179 48 is_stmt 1 discriminator 1
 3194              		.loc 2 179 63 is_stmt 0 discriminator 1
 3195 1618 638A0406 		beqz	s1,.L215
 3196              	.LBB299:
 3197              	.LBB300:
 3198              	.LBB301:
  68:src/../h/kObjectAllocator.hpp ****             MemoryAllocator::instance()->kmem_free(((KObjectAllocator*) p)->bitVectors[i]);
 3199              		.loc 1 68 21
 3200 161c 13090000 		li	s2,0
 3201              	.LVL416:
 3202 1620 6F008002 		j	.L217
 3203              	.LVL417:
 3204              	.L275:
  69:src/../h/kObjectAllocator.hpp ****         MemoryAllocator::instance()->kmem_free(((KObjectAllocator*) p)->bitVectors);
 3205              		.loc 1 69 13 is_stmt 1
 3206              	.LEHB10:
  69:src/../h/kObjectAllocator.hpp ****         MemoryAllocator::instance()->kmem_free(((KObjectAllocator*) p)->bitVectors);
 3207              		.loc 1 69 51 is_stmt 0
 3208 1624 97000000 		call	_ZN15MemoryAllocator8instanceEv@plt
 3208      E7800000 
 3209              	.LVL418:
  69:src/../h/kObjectAllocator.hpp ****         MemoryAllocator::instance()->kmem_free(((KObjectAllocator*) p)->bitVectors);
 3210              		.loc 1 69 77
 3211 162c 83B78402 		ld	a5,40(s1)
  69:src/../h/kObjectAllocator.hpp ****         MemoryAllocator::instance()->kmem_free(((KObjectAllocator*) p)->bitVectors);
 3212              		.loc 1 69 89
 3213 1630 13173900 		slli	a4,s2,3
 3214 1634 B387E700 		add	a5,a5,a4
  69:src/../h/kObjectAllocator.hpp ****         MemoryAllocator::instance()->kmem_free(((KObjectAllocator*) p)->bitVectors);
 3215              		.loc 1 69 51
 3216 1638 83B50700 		ld	a1,0(a5)
 3217 163c 97000000 		call	_ZN15MemoryAllocator9kmem_freeEPv@plt
 3217      E7800000 
 3218              	.LVL419:
GAS LISTING /tmp/cciR7THS.s 			page 80


  68:src/../h/kObjectAllocator.hpp ****             MemoryAllocator::instance()->kmem_free(((KObjectAllocator*) p)->bitVectors[i]);
 3219              		.loc 1 68 9 is_stmt 1
 3220 1644 13091900 		addi	s2,s2,1
 3221              	.LVL420:
 3222              	.L217:
  68:src/../h/kObjectAllocator.hpp ****             MemoryAllocator::instance()->kmem_free(((KObjectAllocator*) p)->bitVectors[i]);
 3223              		.loc 1 68 30
  68:src/../h/kObjectAllocator.hpp ****             MemoryAllocator::instance()->kmem_free(((KObjectAllocator*) p)->bitVectors[i]);
 3224              		.loc 1 68 57 is_stmt 0
 3225 1648 83B70403 		ld	a5,48(s1)
  68:src/../h/kObjectAllocator.hpp ****             MemoryAllocator::instance()->kmem_free(((KObjectAllocator*) p)->bitVectors[i]);
 3226              		.loc 1 68 30
 3227 164c E36CF9FC 		bgtu	a5,s2,.L275
 3228              	.LBE301:
  70:src/../h/kObjectAllocator.hpp ****         MemoryAllocator::instance()->kmem_free(((KObjectAllocator*) p)->objectVectors);
 3229              		.loc 1 70 9 is_stmt 1
  70:src/../h/kObjectAllocator.hpp ****         MemoryAllocator::instance()->kmem_free(((KObjectAllocator*) p)->objectVectors);
 3230              		.loc 1 70 47 is_stmt 0
 3231 1650 97000000 		call	_ZN15MemoryAllocator8instanceEv@plt
 3231      E7800000 
 3232              	.LVL421:
 3233 1658 83B58402 		ld	a1,40(s1)
 3234 165c 97000000 		call	_ZN15MemoryAllocator9kmem_freeEPv@plt
 3234      E7800000 
 3235              	.LVL422:
  71:src/../h/kObjectAllocator.hpp ****         MemoryAllocator::instance()->kmem_free(p);
 3236              		.loc 1 71 9 is_stmt 1
  71:src/../h/kObjectAllocator.hpp ****         MemoryAllocator::instance()->kmem_free(p);
 3237              		.loc 1 71 47 is_stmt 0
 3238 1664 97000000 		call	_ZN15MemoryAllocator8instanceEv@plt
 3238      E7800000 
 3239              	.LVL423:
 3240 166c 83B50402 		ld	a1,32(s1)
 3241 1670 97000000 		call	_ZN15MemoryAllocator9kmem_freeEPv@plt
 3241      E7800000 
 3242              	.LVL424:
  72:src/../h/kObjectAllocator.hpp ****     }
 3243              		.loc 1 72 9 is_stmt 1
  72:src/../h/kObjectAllocator.hpp ****     }
 3244              		.loc 1 72 47 is_stmt 0
 3245 1678 97000000 		call	_ZN15MemoryAllocator8instanceEv@plt
 3245      E7800000 
 3246              	.LVL425:
 3247 1680 93850400 		mv	a1,s1
 3248 1684 97000000 		call	_ZN15MemoryAllocator9kmem_freeEPv@plt
 3248      E7800000 
 3249              	.LVL426:
 3250              	.L215:
 3251              	.LBE300:
 3252              	.LBE299:
 3253              		.loc 2 179 65 is_stmt 1 discriminator 3
 3254              		.loc 2 179 72 is_stmt 0 discriminator 3
 3255 168c 130A0000 		li	s4,0
 3256              	.L272:
 180:src/kObjectAllocatorTest.cpp ****     if (objAlloc->getMemorySizeForBits() != 1) { delete objAlloc; return false; }
 181:src/kObjectAllocatorTest.cpp ****     if (objAlloc->getObjectSize() != size) { delete objAlloc; return false; }
 182:src/kObjectAllocatorTest.cpp ****     void* objArr[10]; for (size_t i = 0; i < 10; objArr[i++] = objAlloc->allocateNewObject());
GAS LISTING /tmp/cciR7THS.s 			page 81


 183:src/kObjectAllocatorTest.cpp ****     size_t byte = 0; size_t bit = 7;
 184:src/kObjectAllocatorTest.cpp ****     for (size_t i = 0; i < 10; ++i) {
 185:src/kObjectAllocatorTest.cpp ****         if (objArr[i] != getObjectAt(byte, bit, objAlloc)) { delete objAlloc; return false; }
 186:src/kObjectAllocatorTest.cpp ****         size_t objByte = getByteOfObject(objArr[i], objAlloc);
 187:src/kObjectAllocatorTest.cpp ****         size_t objBit = getBitOfObject(objArr[i], objAlloc);
 188:src/kObjectAllocatorTest.cpp ****         if (objByte != byte || objBit != bit) { delete objAlloc; return false; }
 189:src/kObjectAllocatorTest.cpp ****         if (!getValueOfBitAt(byte, bit, objAlloc)) { delete objAlloc; return false; }
 190:src/kObjectAllocatorTest.cpp ****         if (bit == 0) { ++byte; bit = 8; } --bit;
 191:src/kObjectAllocatorTest.cpp ****     }
 192:src/kObjectAllocatorTest.cpp ****     for (size_t i = 0; i < 6; ++i) {
 193:src/kObjectAllocatorTest.cpp ****         if (getValueOfBitAt(byte, bit, objAlloc)) { delete objAlloc; return false; }
 194:src/kObjectAllocatorTest.cpp ****         if (bit == 0) { ++byte; bit = 8; } --bit;
 195:src/kObjectAllocatorTest.cpp ****     }
 196:src/kObjectAllocatorTest.cpp ****     objAlloc->freeObject(objArr[4]);
 197:src/kObjectAllocatorTest.cpp ****     objAlloc->freeObject(objArr[7]);
 198:src/kObjectAllocatorTest.cpp ****     objAlloc->freeObject(objArr[8]);
 199:src/kObjectAllocatorTest.cpp ****     objArr[4] = objAlloc->allocateNewObject();
 200:src/kObjectAllocatorTest.cpp ****     if (objArr[4] != getObjectAt(1, 7, objAlloc)) { delete objAlloc; return false; }
 201:src/kObjectAllocatorTest.cpp ****     byte = getByteOfObject(objArr[4], objAlloc);
 202:src/kObjectAllocatorTest.cpp ****     bit = getBitOfObject(objArr[4], objAlloc);
 203:src/kObjectAllocatorTest.cpp ****     if (byte != 1 || bit != 7) { delete objAlloc; return false; }
 204:src/kObjectAllocatorTest.cpp ****     bool expectedBitValues[16] = {
 205:src/kObjectAllocatorTest.cpp ****             true, true, true, true, false, true, true, false,
 206:src/kObjectAllocatorTest.cpp ****             true, true, false, false, false, false, false, false
 207:src/kObjectAllocatorTest.cpp ****     };
 208:src/kObjectAllocatorTest.cpp ****     byte = 0; bit = 7;
 209:src/kObjectAllocatorTest.cpp ****     for (size_t i = 0; i < 16; ++i) {
 210:src/kObjectAllocatorTest.cpp ****         if (expectedBitValues[i] != getValueOfBitAt(byte, bit, objAlloc))
 211:src/kObjectAllocatorTest.cpp ****         { delete objAlloc; return false; } if (bit == 0) { ++byte; bit = 8; } --bit;
 212:src/kObjectAllocatorTest.cpp ****     }
 213:src/kObjectAllocatorTest.cpp ****     delete objAlloc;
 214:src/kObjectAllocatorTest.cpp ****     return true;
 215:src/kObjectAllocatorTest.cpp **** }
 3257              		.loc 2 215 1
 3258 1690 13050A00 		mv	a0,s4
 3259 1694 8330810A 		ld	ra,168(sp)
 3260              		.cfi_remember_state
 3261              		.cfi_restore 1
 3262 1698 0334010A 		ld	s0,160(sp)
 3263              		.cfi_restore 8
 3264              		.cfi_def_cfa 2, 176
 3265 169c 83348109 		ld	s1,152(sp)
 3266              		.cfi_restore 9
 3267              	.LVL427:
 3268 16a0 03390109 		ld	s2,144(sp)
 3269              		.cfi_restore 18
 3270 16a4 83398108 		ld	s3,136(sp)
 3271              		.cfi_restore 19
 3272              	.LVL428:
 3273 16a8 033A0108 		ld	s4,128(sp)
 3274              		.cfi_restore 20
 3275 16ac 833A8107 		ld	s5,120(sp)
 3276              		.cfi_restore 21
 3277 16b0 033B0107 		ld	s6,112(sp)
 3278              		.cfi_restore 22
 3279 16b4 833B8106 		ld	s7,104(sp)
 3280              		.cfi_restore 23
GAS LISTING /tmp/cciR7THS.s 			page 82


 3281 16b8 033C0106 		ld	s8,96(sp)
 3282              		.cfi_restore 24
 3283 16bc 1301010B 		addi	sp,sp,176
 3284              		.cfi_def_cfa_offset 0
 3285 16c0 67800000 		jr	ra
 3286              	.LVL429:
 3287              	.L214:
 3288              		.cfi_restore_state
 180:src/kObjectAllocatorTest.cpp ****     if (objAlloc->getMemorySizeForBits() != 1) { delete objAlloc; return false; }
 3289              		.loc 2 180 5 is_stmt 1
 3290              	.LBB302:
 3291              	.LBB303:
 3292              		.loc 1 78 37
 3293              		.loc 1 78 44 is_stmt 0
 3294 16c4 03B70401 		ld	a4,16(s1)
 3295              	.LVL430:
 3296              	.LBE303:
 3297              	.LBE302:
 180:src/kObjectAllocatorTest.cpp ****     if (objAlloc->getMemorySizeForBits() != 1) { delete objAlloc; return false; }
 3298              		.loc 2 180 5
 3299 16c8 93071000 		li	a5,1
 3300 16cc 6300F708 		beq	a4,a5,.L219
 180:src/kObjectAllocatorTest.cpp ****     if (objAlloc->getMemorySizeForBits() != 1) { delete objAlloc; return false; }
 3301              		.loc 2 180 50 is_stmt 1 discriminator 1
 180:src/kObjectAllocatorTest.cpp ****     if (objAlloc->getMemorySizeForBits() != 1) { delete objAlloc; return false; }
 3302              		.loc 2 180 65 is_stmt 0 discriminator 1
 3303 16d0 638A0406 		beqz	s1,.L220
 3304              	.LBB304:
 3305              	.LBB305:
 3306              	.LBB306:
  68:src/../h/kObjectAllocator.hpp ****             MemoryAllocator::instance()->kmem_free(((KObjectAllocator*) p)->bitVectors[i]);
 3307              		.loc 1 68 21
 3308 16d4 13090000 		li	s2,0
 3309              	.LVL431:
 3310 16d8 6F008002 		j	.L222
 3311              	.LVL432:
 3312              	.L276:
  69:src/../h/kObjectAllocator.hpp ****         MemoryAllocator::instance()->kmem_free(((KObjectAllocator*) p)->bitVectors);
 3313              		.loc 1 69 13 is_stmt 1
  69:src/../h/kObjectAllocator.hpp ****         MemoryAllocator::instance()->kmem_free(((KObjectAllocator*) p)->bitVectors);
 3314              		.loc 1 69 51 is_stmt 0
 3315 16dc 97000000 		call	_ZN15MemoryAllocator8instanceEv@plt
 3315      E7800000 
 3316              	.LVL433:
  69:src/../h/kObjectAllocator.hpp ****         MemoryAllocator::instance()->kmem_free(((KObjectAllocator*) p)->bitVectors);
 3317              		.loc 1 69 77
 3318 16e4 83B78402 		ld	a5,40(s1)
  69:src/../h/kObjectAllocator.hpp ****         MemoryAllocator::instance()->kmem_free(((KObjectAllocator*) p)->bitVectors);
 3319              		.loc 1 69 89
 3320 16e8 13173900 		slli	a4,s2,3
 3321 16ec B387E700 		add	a5,a5,a4
  69:src/../h/kObjectAllocator.hpp ****         MemoryAllocator::instance()->kmem_free(((KObjectAllocator*) p)->bitVectors);
 3322              		.loc 1 69 51
 3323 16f0 83B50700 		ld	a1,0(a5)
 3324 16f4 97000000 		call	_ZN15MemoryAllocator9kmem_freeEPv@plt
 3324      E7800000 
 3325              	.LVL434:
GAS LISTING /tmp/cciR7THS.s 			page 83


  68:src/../h/kObjectAllocator.hpp ****             MemoryAllocator::instance()->kmem_free(((KObjectAllocator*) p)->bitVectors[i]);
 3326              		.loc 1 68 9 is_stmt 1
 3327 16fc 13091900 		addi	s2,s2,1
 3328              	.LVL435:
 3329              	.L222:
  68:src/../h/kObjectAllocator.hpp ****             MemoryAllocator::instance()->kmem_free(((KObjectAllocator*) p)->bitVectors[i]);
 3330              		.loc 1 68 30
  68:src/../h/kObjectAllocator.hpp ****             MemoryAllocator::instance()->kmem_free(((KObjectAllocator*) p)->bitVectors[i]);
 3331              		.loc 1 68 57 is_stmt 0
 3332 1700 83B70403 		ld	a5,48(s1)
  68:src/../h/kObjectAllocator.hpp ****             MemoryAllocator::instance()->kmem_free(((KObjectAllocator*) p)->bitVectors[i]);
 3333              		.loc 1 68 30
 3334 1704 E36CF9FC 		bgtu	a5,s2,.L276
 3335              	.LBE306:
  70:src/../h/kObjectAllocator.hpp ****         MemoryAllocator::instance()->kmem_free(((KObjectAllocator*) p)->objectVectors);
 3336              		.loc 1 70 9 is_stmt 1
  70:src/../h/kObjectAllocator.hpp ****         MemoryAllocator::instance()->kmem_free(((KObjectAllocator*) p)->objectVectors);
 3337              		.loc 1 70 47 is_stmt 0
 3338 1708 97000000 		call	_ZN15MemoryAllocator8instanceEv@plt
 3338      E7800000 
 3339              	.LVL436:
 3340 1710 83B58402 		ld	a1,40(s1)
 3341 1714 97000000 		call	_ZN15MemoryAllocator9kmem_freeEPv@plt
 3341      E7800000 
 3342              	.LVL437:
  71:src/../h/kObjectAllocator.hpp ****         MemoryAllocator::instance()->kmem_free(p);
 3343              		.loc 1 71 9 is_stmt 1
  71:src/../h/kObjectAllocator.hpp ****         MemoryAllocator::instance()->kmem_free(p);
 3344              		.loc 1 71 47 is_stmt 0
 3345 171c 97000000 		call	_ZN15MemoryAllocator8instanceEv@plt
 3345      E7800000 
 3346              	.LVL438:
 3347 1724 83B50402 		ld	a1,32(s1)
 3348 1728 97000000 		call	_ZN15MemoryAllocator9kmem_freeEPv@plt
 3348      E7800000 
 3349              	.LVL439:
  72:src/../h/kObjectAllocator.hpp ****     }
 3350              		.loc 1 72 9 is_stmt 1
  72:src/../h/kObjectAllocator.hpp ****     }
 3351              		.loc 1 72 47 is_stmt 0
 3352 1730 97000000 		call	_ZN15MemoryAllocator8instanceEv@plt
 3352      E7800000 
 3353              	.LVL440:
 3354 1738 93850400 		mv	a1,s1
 3355 173c 97000000 		call	_ZN15MemoryAllocator9kmem_freeEPv@plt
 3355      E7800000 
 3356              	.LVL441:
 3357              	.L220:
 3358              	.LBE305:
 3359              	.LBE304:
 180:src/kObjectAllocatorTest.cpp ****     if (objAlloc->getObjectSize() != size) { delete objAlloc; return false; }
 3360              		.loc 2 180 67 is_stmt 1 discriminator 3
 180:src/kObjectAllocatorTest.cpp ****     if (objAlloc->getObjectSize() != size) { delete objAlloc; return false; }
 3361              		.loc 2 180 74 is_stmt 0 discriminator 3
 3362 1744 130A0000 		li	s4,0
 3363 1748 6FF09FF4 		j	.L272
 3364              	.LVL442:
GAS LISTING /tmp/cciR7THS.s 			page 84


 3365              	.L219:
 181:src/kObjectAllocatorTest.cpp ****     void* objArr[10]; for (size_t i = 0; i < 10; objArr[i++] = objAlloc->allocateNewObject());
 3366              		.loc 2 181 5 is_stmt 1
 3367              	.LBB307:
 3368              	.LBB308:
  75:src/../h/kObjectAllocator.hpp ****     size_t getInitialNumberOfObjects() { return initialNumberOfObjects; }
 3369              		.loc 1 75 30
  75:src/../h/kObjectAllocator.hpp ****     size_t getInitialNumberOfObjects() { return initialNumberOfObjects; }
 3370              		.loc 1 75 37 is_stmt 0
 3371 174c 83B78401 		ld	a5,24(s1)
 3372              	.LVL443:
 3373              	.LBE308:
 3374              	.LBE307:
 181:src/kObjectAllocatorTest.cpp ****     void* objArr[10]; for (size_t i = 0; i < 10; objArr[i++] = objAlloc->allocateNewObject());
 3375              		.loc 2 181 5
 3376 1750 6300F908 		beq	s2,a5,.L267
 181:src/kObjectAllocatorTest.cpp ****     void* objArr[10]; for (size_t i = 0; i < 10; objArr[i++] = objAlloc->allocateNewObject());
 3377              		.loc 2 181 46 is_stmt 1 discriminator 1
 181:src/kObjectAllocatorTest.cpp ****     void* objArr[10]; for (size_t i = 0; i < 10; objArr[i++] = objAlloc->allocateNewObject());
 3378              		.loc 2 181 61 is_stmt 0 discriminator 1
 3379 1754 638A0406 		beqz	s1,.L224
 3380              	.LBB309:
 3381              	.LBB310:
 3382              	.LBB311:
  68:src/../h/kObjectAllocator.hpp ****             MemoryAllocator::instance()->kmem_free(((KObjectAllocator*) p)->bitVectors[i]);
 3383              		.loc 1 68 21
 3384 1758 13090000 		li	s2,0
 3385              	.LVL444:
 3386              	.L226:
  68:src/../h/kObjectAllocator.hpp ****             MemoryAllocator::instance()->kmem_free(((KObjectAllocator*) p)->bitVectors[i]);
 3387              		.loc 1 68 30 is_stmt 1
  68:src/../h/kObjectAllocator.hpp ****             MemoryAllocator::instance()->kmem_free(((KObjectAllocator*) p)->bitVectors[i]);
 3388              		.loc 1 68 57 is_stmt 0
 3389 175c 83B70403 		ld	a5,48(s1)
  68:src/../h/kObjectAllocator.hpp ****             MemoryAllocator::instance()->kmem_free(((KObjectAllocator*) p)->bitVectors[i]);
 3390              		.loc 1 68 30
 3391 1760 6376F902 		bleu	a5,s2,.L225
  69:src/../h/kObjectAllocator.hpp ****         MemoryAllocator::instance()->kmem_free(((KObjectAllocator*) p)->bitVectors);
 3392              		.loc 1 69 13 is_stmt 1
  69:src/../h/kObjectAllocator.hpp ****         MemoryAllocator::instance()->kmem_free(((KObjectAllocator*) p)->bitVectors);
 3393              		.loc 1 69 51 is_stmt 0
 3394 1764 97000000 		call	_ZN15MemoryAllocator8instanceEv@plt
 3394      E7800000 
 3395              	.LVL445:
  69:src/../h/kObjectAllocator.hpp ****         MemoryAllocator::instance()->kmem_free(((KObjectAllocator*) p)->bitVectors);
 3396              		.loc 1 69 77
 3397 176c 83B78402 		ld	a5,40(s1)
  69:src/../h/kObjectAllocator.hpp ****         MemoryAllocator::instance()->kmem_free(((KObjectAllocator*) p)->bitVectors);
 3398              		.loc 1 69 89
 3399 1770 13173900 		slli	a4,s2,3
 3400 1774 B387E700 		add	a5,a5,a4
  69:src/../h/kObjectAllocator.hpp ****         MemoryAllocator::instance()->kmem_free(((KObjectAllocator*) p)->bitVectors);
 3401              		.loc 1 69 51
 3402 1778 83B50700 		ld	a1,0(a5)
 3403 177c 97000000 		call	_ZN15MemoryAllocator9kmem_freeEPv@plt
 3403      E7800000 
 3404              	.LVL446:
GAS LISTING /tmp/cciR7THS.s 			page 85


  68:src/../h/kObjectAllocator.hpp ****             MemoryAllocator::instance()->kmem_free(((KObjectAllocator*) p)->bitVectors[i]);
 3405              		.loc 1 68 9 is_stmt 1
 3406 1784 13091900 		addi	s2,s2,1
 3407              	.LVL447:
 3408 1788 6FF05FFD 		j	.L226
 3409              	.L225:
 3410              	.LBE311:
  70:src/../h/kObjectAllocator.hpp ****         MemoryAllocator::instance()->kmem_free(((KObjectAllocator*) p)->objectVectors);
 3411              		.loc 1 70 9
  70:src/../h/kObjectAllocator.hpp ****         MemoryAllocator::instance()->kmem_free(((KObjectAllocator*) p)->objectVectors);
 3412              		.loc 1 70 47 is_stmt 0
 3413 178c 97000000 		call	_ZN15MemoryAllocator8instanceEv@plt
 3413      E7800000 
 3414              	.LVL448:
 3415 1794 83B58402 		ld	a1,40(s1)
 3416 1798 97000000 		call	_ZN15MemoryAllocator9kmem_freeEPv@plt
 3416      E7800000 
 3417              	.LVL449:
  71:src/../h/kObjectAllocator.hpp ****         MemoryAllocator::instance()->kmem_free(p);
 3418              		.loc 1 71 9 is_stmt 1
  71:src/../h/kObjectAllocator.hpp ****         MemoryAllocator::instance()->kmem_free(p);
 3419              		.loc 1 71 47 is_stmt 0
 3420 17a0 97000000 		call	_ZN15MemoryAllocator8instanceEv@plt
 3420      E7800000 
 3421              	.LVL450:
 3422 17a8 83B50402 		ld	a1,32(s1)
 3423 17ac 97000000 		call	_ZN15MemoryAllocator9kmem_freeEPv@plt
 3423      E7800000 
 3424              	.LVL451:
  72:src/../h/kObjectAllocator.hpp ****     }
 3425              		.loc 1 72 9 is_stmt 1
  72:src/../h/kObjectAllocator.hpp ****     }
 3426              		.loc 1 72 47 is_stmt 0
 3427 17b4 97000000 		call	_ZN15MemoryAllocator8instanceEv@plt
 3427      E7800000 
 3428              	.LVL452:
 3429 17bc 93850400 		mv	a1,s1
 3430 17c0 97000000 		call	_ZN15MemoryAllocator9kmem_freeEPv@plt
 3430      E7800000 
 3431              	.LVL453:
 3432              	.L224:
 3433              	.LBE310:
 3434              	.LBE309:
 181:src/kObjectAllocatorTest.cpp ****     void* objArr[10]; for (size_t i = 0; i < 10; objArr[i++] = objAlloc->allocateNewObject());
 3435              		.loc 2 181 63 is_stmt 1 discriminator 3
 181:src/kObjectAllocatorTest.cpp ****     void* objArr[10]; for (size_t i = 0; i < 10; objArr[i++] = objAlloc->allocateNewObject());
 3436              		.loc 2 181 70 is_stmt 0 discriminator 3
 3437 17c8 130A0000 		li	s4,0
 3438 17cc 6FF05FEC 		j	.L272
 3439              	.LVL454:
 3440              	.L267:
 3441              	.LBB312:
 182:src/kObjectAllocatorTest.cpp ****     size_t byte = 0; size_t bit = 7;
 3442              		.loc 2 182 35
 3443 17d0 13090000 		li	s2,0
 3444              	.LVL455:
 3445              	.L223:
GAS LISTING /tmp/cciR7THS.s 			page 86


 182:src/kObjectAllocatorTest.cpp ****     size_t byte = 0; size_t bit = 7;
 3446              		.loc 2 182 44 is_stmt 1 discriminator 4
 3447 17d4 93079000 		li	a5,9
 3448 17d8 63E62703 		bgtu	s2,a5,.L268
 182:src/kObjectAllocatorTest.cpp ****     size_t byte = 0; size_t bit = 7;
 3449              		.loc 2 182 23 discriminator 2
 182:src/kObjectAllocatorTest.cpp ****     size_t byte = 0; size_t bit = 7;
 3450              		.loc 2 182 58 is_stmt 0 discriminator 2
 3451 17dc 130A1900 		addi	s4,s2,1
 3452              	.LVL456:
 182:src/kObjectAllocatorTest.cpp ****     size_t byte = 0; size_t bit = 7;
 3453              		.loc 2 182 91 discriminator 2
 3454 17e0 13850400 		mv	a0,s1
 3455 17e4 97000000 		call	_ZN16KObjectAllocator17allocateNewObjectEv@plt
 3455      E7800000 
 3456              	.LVL457:
 182:src/kObjectAllocatorTest.cpp ****     size_t byte = 0; size_t bit = 7;
 3457              		.loc 2 182 62 discriminator 2
 3458 17ec 13193900 		slli	s2,s2,3
 3459 17f0 930704FB 		addi	a5,s0,-80
 3460 17f4 33892701 		add	s2,a5,s2
 3461 17f8 2338A9FA 		sd	a0,-80(s2)
 182:src/kObjectAllocatorTest.cpp ****     size_t byte = 0; size_t bit = 7;
 3462              		.loc 2 182 58 discriminator 2
 3463 17fc 13090A00 		mv	s2,s4
 182:src/kObjectAllocatorTest.cpp ****     size_t byte = 0; size_t bit = 7;
 3464              		.loc 2 182 23 discriminator 2
 3465 1800 6FF05FFD 		j	.L223
 3466              	.LVL458:
 3467              	.L268:
 3468              	.LBE312:
 3469              	.LBB313:
 184:src/kObjectAllocatorTest.cpp ****         if (objArr[i] != getObjectAt(byte, bit, objAlloc)) { delete objAlloc; return false; }
 3470              		.loc 2 184 17
 3471 1804 130B0000 		li	s6,0
 3472              	.LBE313:
 183:src/kObjectAllocatorTest.cpp ****     for (size_t i = 0; i < 10; ++i) {
 3473              		.loc 2 183 29
 3474 1808 13097000 		li	s2,7
 3475              	.LVL459:
 183:src/kObjectAllocatorTest.cpp ****     for (size_t i = 0; i < 10; ++i) {
 3476              		.loc 2 183 12
 3477 180c 930A0000 		li	s5,0
 3478 1810 6F004018 		j	.L227
 3479              	.LVL460:
 3480              	.L278:
 3481              	.LBB325:
 3482              	.LBB314:
 185:src/kObjectAllocatorTest.cpp ****         size_t objByte = getByteOfObject(objArr[i], objAlloc);
 3483              		.loc 2 185 62 is_stmt 1 discriminator 2
 185:src/kObjectAllocatorTest.cpp ****         size_t objByte = getByteOfObject(objArr[i], objAlloc);
 3484              		.loc 2 185 77 is_stmt 0 discriminator 2
 3485 1814 638A0406 		beqz	s1,.L230
 3486              	.LBB315:
 3487              	.LBB316:
 3488              	.LBB317:
  68:src/../h/kObjectAllocator.hpp ****             MemoryAllocator::instance()->kmem_free(((KObjectAllocator*) p)->bitVectors[i]);
GAS LISTING /tmp/cciR7THS.s 			page 87


 3489              		.loc 1 68 21
 3490 1818 13090000 		li	s2,0
 3491              	.LVL461:
 3492              	.L232:
  68:src/../h/kObjectAllocator.hpp ****             MemoryAllocator::instance()->kmem_free(((KObjectAllocator*) p)->bitVectors[i]);
 3493              		.loc 1 68 30 is_stmt 1
  68:src/../h/kObjectAllocator.hpp ****             MemoryAllocator::instance()->kmem_free(((KObjectAllocator*) p)->bitVectors[i]);
 3494              		.loc 1 68 57 is_stmt 0
 3495 181c 83B70403 		ld	a5,48(s1)
  68:src/../h/kObjectAllocator.hpp ****             MemoryAllocator::instance()->kmem_free(((KObjectAllocator*) p)->bitVectors[i]);
 3496              		.loc 1 68 30
 3497 1820 6376F902 		bleu	a5,s2,.L231
  69:src/../h/kObjectAllocator.hpp ****         MemoryAllocator::instance()->kmem_free(((KObjectAllocator*) p)->bitVectors);
 3498              		.loc 1 69 13 is_stmt 1
  69:src/../h/kObjectAllocator.hpp ****         MemoryAllocator::instance()->kmem_free(((KObjectAllocator*) p)->bitVectors);
 3499              		.loc 1 69 51 is_stmt 0
 3500 1824 97000000 		call	_ZN15MemoryAllocator8instanceEv@plt
 3500      E7800000 
 3501              	.LVL462:
  69:src/../h/kObjectAllocator.hpp ****         MemoryAllocator::instance()->kmem_free(((KObjectAllocator*) p)->bitVectors);
 3502              		.loc 1 69 77
 3503 182c 83B78402 		ld	a5,40(s1)
  69:src/../h/kObjectAllocator.hpp ****         MemoryAllocator::instance()->kmem_free(((KObjectAllocator*) p)->bitVectors);
 3504              		.loc 1 69 89
 3505 1830 13173900 		slli	a4,s2,3
 3506 1834 B387E700 		add	a5,a5,a4
  69:src/../h/kObjectAllocator.hpp ****         MemoryAllocator::instance()->kmem_free(((KObjectAllocator*) p)->bitVectors);
 3507              		.loc 1 69 51
 3508 1838 83B50700 		ld	a1,0(a5)
 3509 183c 97000000 		call	_ZN15MemoryAllocator9kmem_freeEPv@plt
 3509      E7800000 
 3510              	.LVL463:
  68:src/../h/kObjectAllocator.hpp ****             MemoryAllocator::instance()->kmem_free(((KObjectAllocator*) p)->bitVectors[i]);
 3511              		.loc 1 68 9 is_stmt 1
 3512 1844 13091900 		addi	s2,s2,1
 3513              	.LVL464:
 3514 1848 6FF05FFD 		j	.L232
 3515              	.L231:
 3516              	.LBE317:
  70:src/../h/kObjectAllocator.hpp ****         MemoryAllocator::instance()->kmem_free(((KObjectAllocator*) p)->objectVectors);
 3517              		.loc 1 70 9
  70:src/../h/kObjectAllocator.hpp ****         MemoryAllocator::instance()->kmem_free(((KObjectAllocator*) p)->objectVectors);
 3518              		.loc 1 70 47 is_stmt 0
 3519 184c 97000000 		call	_ZN15MemoryAllocator8instanceEv@plt
 3519      E7800000 
 3520              	.LVL465:
 3521 1854 83B58402 		ld	a1,40(s1)
 3522 1858 97000000 		call	_ZN15MemoryAllocator9kmem_freeEPv@plt
 3522      E7800000 
 3523              	.LVL466:
  71:src/../h/kObjectAllocator.hpp ****         MemoryAllocator::instance()->kmem_free(p);
 3524              		.loc 1 71 9 is_stmt 1
  71:src/../h/kObjectAllocator.hpp ****         MemoryAllocator::instance()->kmem_free(p);
 3525              		.loc 1 71 47 is_stmt 0
 3526 1860 97000000 		call	_ZN15MemoryAllocator8instanceEv@plt
 3526      E7800000 
 3527              	.LVL467:
GAS LISTING /tmp/cciR7THS.s 			page 88


 3528 1868 83B50402 		ld	a1,32(s1)
 3529 186c 97000000 		call	_ZN15MemoryAllocator9kmem_freeEPv@plt
 3529      E7800000 
 3530              	.LVL468:
  72:src/../h/kObjectAllocator.hpp ****     }
 3531              		.loc 1 72 9 is_stmt 1
  72:src/../h/kObjectAllocator.hpp ****     }
 3532              		.loc 1 72 47 is_stmt 0
 3533 1874 97000000 		call	_ZN15MemoryAllocator8instanceEv@plt
 3533      E7800000 
 3534              	.LVL469:
 3535 187c 93850400 		mv	a1,s1
 3536 1880 97000000 		call	_ZN15MemoryAllocator9kmem_freeEPv@plt
 3536      E7800000 
 3537              	.LVL470:
 3538              	.L230:
 3539              	.LBE316:
 3540              	.LBE315:
 185:src/kObjectAllocatorTest.cpp ****         size_t objByte = getByteOfObject(objArr[i], objAlloc);
 3541              		.loc 2 185 79 is_stmt 1 discriminator 4
 185:src/kObjectAllocatorTest.cpp ****         size_t objByte = getByteOfObject(objArr[i], objAlloc);
 3542              		.loc 2 185 86 is_stmt 0 discriminator 4
 3543 1888 130A0000 		li	s4,0
 3544 188c 6FF05FE0 		j	.L272
 3545              	.LVL471:
 3546              	.L233:
 188:src/kObjectAllocatorTest.cpp ****         if (!getValueOfBitAt(byte, bit, objAlloc)) { delete objAlloc; return false; }
 3547              		.loc 2 188 49 is_stmt 1 discriminator 3
 188:src/kObjectAllocatorTest.cpp ****         if (!getValueOfBitAt(byte, bit, objAlloc)) { delete objAlloc; return false; }
 3548              		.loc 2 188 64 is_stmt 0 discriminator 3
 3549 1890 638A0406 		beqz	s1,.L235
 3550              	.LBB318:
 3551              	.LBB319:
 3552              	.LBB320:
  68:src/../h/kObjectAllocator.hpp ****             MemoryAllocator::instance()->kmem_free(((KObjectAllocator*) p)->bitVectors[i]);
 3553              		.loc 1 68 21
 3554 1894 13090000 		li	s2,0
 3555              	.LVL472:
 3556              	.L237:
  68:src/../h/kObjectAllocator.hpp ****             MemoryAllocator::instance()->kmem_free(((KObjectAllocator*) p)->bitVectors[i]);
 3557              		.loc 1 68 30 is_stmt 1
  68:src/../h/kObjectAllocator.hpp ****             MemoryAllocator::instance()->kmem_free(((KObjectAllocator*) p)->bitVectors[i]);
 3558              		.loc 1 68 57 is_stmt 0
 3559 1898 83B70403 		ld	a5,48(s1)
  68:src/../h/kObjectAllocator.hpp ****             MemoryAllocator::instance()->kmem_free(((KObjectAllocator*) p)->bitVectors[i]);
 3560              		.loc 1 68 30
 3561 189c 6376F902 		bleu	a5,s2,.L236
  69:src/../h/kObjectAllocator.hpp ****         MemoryAllocator::instance()->kmem_free(((KObjectAllocator*) p)->bitVectors);
 3562              		.loc 1 69 13 is_stmt 1
  69:src/../h/kObjectAllocator.hpp ****         MemoryAllocator::instance()->kmem_free(((KObjectAllocator*) p)->bitVectors);
 3563              		.loc 1 69 51 is_stmt 0
 3564 18a0 97000000 		call	_ZN15MemoryAllocator8instanceEv@plt
 3564      E7800000 
 3565              	.LVL473:
  69:src/../h/kObjectAllocator.hpp ****         MemoryAllocator::instance()->kmem_free(((KObjectAllocator*) p)->bitVectors);
 3566              		.loc 1 69 77
 3567 18a8 83B78402 		ld	a5,40(s1)
GAS LISTING /tmp/cciR7THS.s 			page 89


  69:src/../h/kObjectAllocator.hpp ****         MemoryAllocator::instance()->kmem_free(((KObjectAllocator*) p)->bitVectors);
 3568              		.loc 1 69 89
 3569 18ac 13173900 		slli	a4,s2,3
 3570 18b0 B387E700 		add	a5,a5,a4
  69:src/../h/kObjectAllocator.hpp ****         MemoryAllocator::instance()->kmem_free(((KObjectAllocator*) p)->bitVectors);
 3571              		.loc 1 69 51
 3572 18b4 83B50700 		ld	a1,0(a5)
 3573 18b8 97000000 		call	_ZN15MemoryAllocator9kmem_freeEPv@plt
 3573      E7800000 
 3574              	.LVL474:
  68:src/../h/kObjectAllocator.hpp ****             MemoryAllocator::instance()->kmem_free(((KObjectAllocator*) p)->bitVectors[i]);
 3575              		.loc 1 68 9 is_stmt 1
 3576 18c0 13091900 		addi	s2,s2,1
 3577              	.LVL475:
 3578 18c4 6FF05FFD 		j	.L237
 3579              	.L236:
 3580              	.LBE320:
  70:src/../h/kObjectAllocator.hpp ****         MemoryAllocator::instance()->kmem_free(((KObjectAllocator*) p)->objectVectors);
 3581              		.loc 1 70 9
  70:src/../h/kObjectAllocator.hpp ****         MemoryAllocator::instance()->kmem_free(((KObjectAllocator*) p)->objectVectors);
 3582              		.loc 1 70 47 is_stmt 0
 3583 18c8 97000000 		call	_ZN15MemoryAllocator8instanceEv@plt
 3583      E7800000 
 3584              	.LVL476:
 3585 18d0 83B58402 		ld	a1,40(s1)
 3586 18d4 97000000 		call	_ZN15MemoryAllocator9kmem_freeEPv@plt
 3586      E7800000 
 3587              	.LVL477:
  71:src/../h/kObjectAllocator.hpp ****         MemoryAllocator::instance()->kmem_free(p);
 3588              		.loc 1 71 9 is_stmt 1
  71:src/../h/kObjectAllocator.hpp ****         MemoryAllocator::instance()->kmem_free(p);
 3589              		.loc 1 71 47 is_stmt 0
 3590 18dc 97000000 		call	_ZN15MemoryAllocator8instanceEv@plt
 3590      E7800000 
 3591              	.LVL478:
 3592 18e4 83B50402 		ld	a1,32(s1)
 3593 18e8 97000000 		call	_ZN15MemoryAllocator9kmem_freeEPv@plt
 3593      E7800000 
 3594              	.LVL479:
  72:src/../h/kObjectAllocator.hpp ****     }
 3595              		.loc 1 72 9 is_stmt 1
  72:src/../h/kObjectAllocator.hpp ****     }
 3596              		.loc 1 72 47 is_stmt 0
 3597 18f0 97000000 		call	_ZN15MemoryAllocator8instanceEv@plt
 3597      E7800000 
 3598              	.LVL480:
 3599 18f8 93850400 		mv	a1,s1
 3600 18fc 97000000 		call	_ZN15MemoryAllocator9kmem_freeEPv@plt
 3600      E7800000 
 3601              	.LVL481:
 3602              	.L235:
 3603              	.LBE319:
 3604              	.LBE318:
 188:src/kObjectAllocatorTest.cpp ****         if (!getValueOfBitAt(byte, bit, objAlloc)) { delete objAlloc; return false; }
 3605              		.loc 2 188 66 is_stmt 1 discriminator 5
 188:src/kObjectAllocatorTest.cpp ****         if (!getValueOfBitAt(byte, bit, objAlloc)) { delete objAlloc; return false; }
 3606              		.loc 2 188 73 is_stmt 0 discriminator 5
GAS LISTING /tmp/cciR7THS.s 			page 90


 3607 1904 130A0000 		li	s4,0
 3608 1908 6FF09FD8 		j	.L272
 3609              	.LVL482:
 3610              	.L279:
 189:src/kObjectAllocatorTest.cpp ****         if (bit == 0) { ++byte; bit = 8; } --bit;
 3611              		.loc 2 189 54 is_stmt 1 discriminator 2
 189:src/kObjectAllocatorTest.cpp ****         if (bit == 0) { ++byte; bit = 8; } --bit;
 3612              		.loc 2 189 69 is_stmt 0 discriminator 2
 3613 190c E38204D8 		beqz	s1,.L272
 3614              	.LBB321:
 3615              	.LBB322:
 3616              	.LBB323:
  68:src/../h/kObjectAllocator.hpp ****             MemoryAllocator::instance()->kmem_free(((KObjectAllocator*) p)->bitVectors[i]);
 3617              		.loc 1 68 21
 3618 1910 13090000 		li	s2,0
 3619              	.LVL483:
 3620 1914 6F008002 		j	.L241
 3621              	.LVL484:
 3622              	.L277:
  69:src/../h/kObjectAllocator.hpp ****         MemoryAllocator::instance()->kmem_free(((KObjectAllocator*) p)->bitVectors);
 3623              		.loc 1 69 13 is_stmt 1
  69:src/../h/kObjectAllocator.hpp ****         MemoryAllocator::instance()->kmem_free(((KObjectAllocator*) p)->bitVectors);
 3624              		.loc 1 69 51 is_stmt 0
 3625 1918 97000000 		call	_ZN15MemoryAllocator8instanceEv@plt
 3625      E7800000 
 3626              	.LVL485:
  69:src/../h/kObjectAllocator.hpp ****         MemoryAllocator::instance()->kmem_free(((KObjectAllocator*) p)->bitVectors);
 3627              		.loc 1 69 77
 3628 1920 83B78402 		ld	a5,40(s1)
  69:src/../h/kObjectAllocator.hpp ****         MemoryAllocator::instance()->kmem_free(((KObjectAllocator*) p)->bitVectors);
 3629              		.loc 1 69 89
 3630 1924 13173900 		slli	a4,s2,3
 3631 1928 B387E700 		add	a5,a5,a4
  69:src/../h/kObjectAllocator.hpp ****         MemoryAllocator::instance()->kmem_free(((KObjectAllocator*) p)->bitVectors);
 3632              		.loc 1 69 51
 3633 192c 83B50700 		ld	a1,0(a5)
 3634 1930 97000000 		call	_ZN15MemoryAllocator9kmem_freeEPv@plt
 3634      E7800000 
 3635              	.LVL486:
  68:src/../h/kObjectAllocator.hpp ****             MemoryAllocator::instance()->kmem_free(((KObjectAllocator*) p)->bitVectors[i]);
 3636              		.loc 1 68 9 is_stmt 1
 3637 1938 13091900 		addi	s2,s2,1
 3638              	.LVL487:
 3639              	.L241:
  68:src/../h/kObjectAllocator.hpp ****             MemoryAllocator::instance()->kmem_free(((KObjectAllocator*) p)->bitVectors[i]);
 3640              		.loc 1 68 30
  68:src/../h/kObjectAllocator.hpp ****             MemoryAllocator::instance()->kmem_free(((KObjectAllocator*) p)->bitVectors[i]);
 3641              		.loc 1 68 57 is_stmt 0
 3642 193c 83B70403 		ld	a5,48(s1)
  68:src/../h/kObjectAllocator.hpp ****             MemoryAllocator::instance()->kmem_free(((KObjectAllocator*) p)->bitVectors[i]);
 3643              		.loc 1 68 30
 3644 1940 E36CF9FC 		bgtu	a5,s2,.L277
 3645              	.LBE323:
  70:src/../h/kObjectAllocator.hpp ****         MemoryAllocator::instance()->kmem_free(((KObjectAllocator*) p)->objectVectors);
 3646              		.loc 1 70 9 is_stmt 1
  70:src/../h/kObjectAllocator.hpp ****         MemoryAllocator::instance()->kmem_free(((KObjectAllocator*) p)->objectVectors);
 3647              		.loc 1 70 47 is_stmt 0
GAS LISTING /tmp/cciR7THS.s 			page 91


 3648 1944 97000000 		call	_ZN15MemoryAllocator8instanceEv@plt
 3648      E7800000 
 3649              	.LVL488:
 3650 194c 83B58402 		ld	a1,40(s1)
 3651 1950 97000000 		call	_ZN15MemoryAllocator9kmem_freeEPv@plt
 3651      E7800000 
 3652              	.LVL489:
  71:src/../h/kObjectAllocator.hpp ****         MemoryAllocator::instance()->kmem_free(p);
 3653              		.loc 1 71 9 is_stmt 1
  71:src/../h/kObjectAllocator.hpp ****         MemoryAllocator::instance()->kmem_free(p);
 3654              		.loc 1 71 47 is_stmt 0
 3655 1958 97000000 		call	_ZN15MemoryAllocator8instanceEv@plt
 3655      E7800000 
 3656              	.LVL490:
 3657 1960 83B50402 		ld	a1,32(s1)
 3658 1964 97000000 		call	_ZN15MemoryAllocator9kmem_freeEPv@plt
 3658      E7800000 
 3659              	.LVL491:
  72:src/../h/kObjectAllocator.hpp ****     }
 3660              		.loc 1 72 9 is_stmt 1
  72:src/../h/kObjectAllocator.hpp ****     }
 3661              		.loc 1 72 47 is_stmt 0
 3662 196c 97000000 		call	_ZN15MemoryAllocator8instanceEv@plt
 3662      E7800000 
 3663              	.LVL492:
 3664 1974 93850400 		mv	a1,s1
 3665 1978 97000000 		call	_ZN15MemoryAllocator9kmem_freeEPv@plt
 3665      E7800000 
 3666              	.LVL493:
 3667              	.LBE322:
 3668              	.LBE321:
 189:src/kObjectAllocatorTest.cpp ****         if (bit == 0) { ++byte; bit = 8; } --bit;
 3669              		.loc 2 189 71 is_stmt 1
 189:src/kObjectAllocatorTest.cpp ****         if (bit == 0) { ++byte; bit = 8; } --bit;
 3670              		.loc 2 189 78 is_stmt 0
 3671 1980 6FF01FD1 		j	.L272
 3672              	.LVL494:
 3673              	.L280:
 190:src/kObjectAllocatorTest.cpp ****     }
 3674              		.loc 2 190 25 is_stmt 1 discriminator 1
 3675 1984 938A1A00 		addi	s5,s5,1
 3676              	.LVL495:
 190:src/kObjectAllocatorTest.cpp ****     }
 3677              		.loc 2 190 33 discriminator 1
 190:src/kObjectAllocatorTest.cpp ****     }
 3678              		.loc 2 190 37 is_stmt 0 discriminator 1
 3679 1988 13890B00 		mv	s2,s7
 3680              	.LVL496:
 3681              	.L242:
 190:src/kObjectAllocatorTest.cpp ****     }
 3682              		.loc 2 190 44 is_stmt 1 discriminator 3
 3683 198c 1309F9FF 		addi	s2,s2,-1
 3684              	.LVL497:
 3685              	.LBE314:
 184:src/kObjectAllocatorTest.cpp ****         if (objArr[i] != getObjectAt(byte, bit, objAlloc)) { delete objAlloc; return false; }
 3686              		.loc 2 184 5 discriminator 3
 3687 1990 130B1B00 		addi	s6,s6,1
GAS LISTING /tmp/cciR7THS.s 			page 92


 3688              	.LVL498:
 3689              	.L227:
 184:src/kObjectAllocatorTest.cpp ****         if (objArr[i] != getObjectAt(byte, bit, objAlloc)) { delete objAlloc; return false; }
 3690              		.loc 2 184 26 discriminator 2
 3691 1994 93079000 		li	a5,9
 3692 1998 63E66709 		bgtu	s6,a5,.L269
 3693              	.LBB324:
 185:src/kObjectAllocatorTest.cpp ****         size_t objByte = getByteOfObject(objArr[i], objAlloc);
 3694              		.loc 2 185 9
 185:src/kObjectAllocatorTest.cpp ****         size_t objByte = getByteOfObject(objArr[i], objAlloc);
 3695              		.loc 2 185 21 is_stmt 0
 3696 199c 93173B00 		slli	a5,s6,3
 3697 19a0 130704FB 		addi	a4,s0,-80
 3698 19a4 B307F700 		add	a5,a4,a5
 3699 19a8 03BA07FB 		ld	s4,-80(a5)
 185:src/kObjectAllocatorTest.cpp ****         size_t objByte = getByteOfObject(objArr[i], objAlloc);
 3700              		.loc 2 185 37
 3701 19ac 93860400 		mv	a3,s1
 3702 19b0 13060900 		mv	a2,s2
 3703 19b4 93850A00 		mv	a1,s5
 3704 19b8 13850900 		mv	a0,s3
 3705 19bc 97000000 		call	_ZN20KObjectAllocatorTest11getObjectAtEmmP16KObjectAllocator
 3705      E7800000 
 3706              	.LVL499:
 185:src/kObjectAllocatorTest.cpp ****         size_t objByte = getByteOfObject(objArr[i], objAlloc);
 3707              		.loc 2 185 9
 3708 19c4 E318AAE4 		bne	s4,a0,.L278
 186:src/kObjectAllocatorTest.cpp ****         size_t objBit = getBitOfObject(objArr[i], objAlloc);
 3709              		.loc 2 186 9 is_stmt 1
 186:src/kObjectAllocatorTest.cpp ****         size_t objBit = getBitOfObject(objArr[i], objAlloc);
 3710              		.loc 2 186 41 is_stmt 0
 3711 19c8 13860400 		mv	a2,s1
 3712 19cc 93050A00 		mv	a1,s4
 3713 19d0 13850900 		mv	a0,s3
 3714 19d4 97000000 		call	_ZN20KObjectAllocatorTest15getByteOfObjectEPvP16KObjectAllocator
 3714      E7800000 
 3715              	.LVL500:
 3716 19dc 130C0500 		mv	s8,a0
 3717              	.LVL501:
 187:src/kObjectAllocatorTest.cpp ****         if (objByte != byte || objBit != bit) { delete objAlloc; return false; }
 3718              		.loc 2 187 9 is_stmt 1
 187:src/kObjectAllocatorTest.cpp ****         if (objByte != byte || objBit != bit) { delete objAlloc; return false; }
 3719              		.loc 2 187 39 is_stmt 0
 3720 19e0 13860400 		mv	a2,s1
 3721 19e4 93050A00 		mv	a1,s4
 3722 19e8 13850900 		mv	a0,s3
 3723              	.LVL502:
 3724 19ec 97000000 		call	_ZN20KObjectAllocatorTest14getBitOfObjectEPvP16KObjectAllocator
 3724      E7800000 
 3725              	.LVL503:
 188:src/kObjectAllocatorTest.cpp ****         if (!getValueOfBitAt(byte, bit, objAlloc)) { delete objAlloc; return false; }
 3726              		.loc 2 188 9 is_stmt 1
 3727 19f4 E39E8AE9 		bne	s5,s8,.L233
 188:src/kObjectAllocatorTest.cpp ****         if (!getValueOfBitAt(byte, bit, objAlloc)) { delete objAlloc; return false; }
 3728              		.loc 2 188 29 is_stmt 0 discriminator 2
 3729 19f8 E31CA9E8 		bne	s2,a0,.L233
 189:src/kObjectAllocatorTest.cpp ****         if (bit == 0) { ++byte; bit = 8; } --bit;
GAS LISTING /tmp/cciR7THS.s 			page 93


 3730              		.loc 2 189 9 is_stmt 1
 189:src/kObjectAllocatorTest.cpp ****         if (bit == 0) { ++byte; bit = 8; } --bit;
 3731              		.loc 2 189 29 is_stmt 0
 3732 19fc 93860400 		mv	a3,s1
 3733 1a00 13060900 		mv	a2,s2
 3734 1a04 93850A00 		mv	a1,s5
 3735 1a08 13850900 		mv	a0,s3
 3736              	.LVL504:
 3737 1a0c 97000000 		call	_ZN20KObjectAllocatorTest15getValueOfBitAtEmmP16KObjectAllocator
 3737      E7800000 
 3738              	.LVL505:
 3739 1a14 130A0500 		mv	s4,a0
 189:src/kObjectAllocatorTest.cpp ****         if (bit == 0) { ++byte; bit = 8; } --bit;
 3740              		.loc 2 189 9
 3741 1a18 E30A05EE 		beqz	a0,.L279
 190:src/kObjectAllocatorTest.cpp ****     }
 3742              		.loc 2 190 9 is_stmt 1
 3743 1a1c E31809F6 		bnez	s2,.L242
 3744 1a20 6FF05FF6 		j	.L280
 3745              	.LVL506:
 3746              	.L269:
 3747              	.LBE324:
 3748              	.LBE325:
 3749              	.LBB326:
 192:src/kObjectAllocatorTest.cpp ****         if (getValueOfBitAt(byte, bit, objAlloc)) { delete objAlloc; return false; }
 3750              		.loc 2 192 17 is_stmt 0
 3751 1a24 130A0000 		li	s4,0
 3752 1a28 6F000009 		j	.L228
 3753              	.LVL507:
 3754              	.L281:
 193:src/kObjectAllocatorTest.cpp ****         if (bit == 0) { ++byte; bit = 8; } --bit;
 3755              		.loc 2 193 53 is_stmt 1 discriminator 2
 193:src/kObjectAllocatorTest.cpp ****         if (bit == 0) { ++byte; bit = 8; } --bit;
 3756              		.loc 2 193 68 is_stmt 0 discriminator 2
 3757 1a2c 638A0406 		beqz	s1,.L245
 3758              	.LBB327:
 3759              	.LBB328:
 3760              	.LBB329:
  68:src/../h/kObjectAllocator.hpp ****             MemoryAllocator::instance()->kmem_free(((KObjectAllocator*) p)->bitVectors[i]);
 3761              		.loc 1 68 21
 3762 1a30 13090000 		li	s2,0
 3763              	.LVL508:
 3764              	.L247:
  68:src/../h/kObjectAllocator.hpp ****             MemoryAllocator::instance()->kmem_free(((KObjectAllocator*) p)->bitVectors[i]);
 3765              		.loc 1 68 30 is_stmt 1
  68:src/../h/kObjectAllocator.hpp ****             MemoryAllocator::instance()->kmem_free(((KObjectAllocator*) p)->bitVectors[i]);
 3766              		.loc 1 68 57 is_stmt 0
 3767 1a34 83B70403 		ld	a5,48(s1)
  68:src/../h/kObjectAllocator.hpp ****             MemoryAllocator::instance()->kmem_free(((KObjectAllocator*) p)->bitVectors[i]);
 3768              		.loc 1 68 30
 3769 1a38 6376F902 		bleu	a5,s2,.L246
  69:src/../h/kObjectAllocator.hpp ****         MemoryAllocator::instance()->kmem_free(((KObjectAllocator*) p)->bitVectors);
 3770              		.loc 1 69 13 is_stmt 1
  69:src/../h/kObjectAllocator.hpp ****         MemoryAllocator::instance()->kmem_free(((KObjectAllocator*) p)->bitVectors);
 3771              		.loc 1 69 51 is_stmt 0
 3772 1a3c 97000000 		call	_ZN15MemoryAllocator8instanceEv@plt
 3772      E7800000 
GAS LISTING /tmp/cciR7THS.s 			page 94


 3773              	.LVL509:
  69:src/../h/kObjectAllocator.hpp ****         MemoryAllocator::instance()->kmem_free(((KObjectAllocator*) p)->bitVectors);
 3774              		.loc 1 69 77
 3775 1a44 83B78402 		ld	a5,40(s1)
  69:src/../h/kObjectAllocator.hpp ****         MemoryAllocator::instance()->kmem_free(((KObjectAllocator*) p)->bitVectors);
 3776              		.loc 1 69 89
 3777 1a48 13173900 		slli	a4,s2,3
 3778 1a4c B387E700 		add	a5,a5,a4
  69:src/../h/kObjectAllocator.hpp ****         MemoryAllocator::instance()->kmem_free(((KObjectAllocator*) p)->bitVectors);
 3779              		.loc 1 69 51
 3780 1a50 83B50700 		ld	a1,0(a5)
 3781 1a54 97000000 		call	_ZN15MemoryAllocator9kmem_freeEPv@plt
 3781      E7800000 
 3782              	.LVL510:
  68:src/../h/kObjectAllocator.hpp ****             MemoryAllocator::instance()->kmem_free(((KObjectAllocator*) p)->bitVectors[i]);
 3783              		.loc 1 68 9 is_stmt 1
 3784 1a5c 13091900 		addi	s2,s2,1
 3785              	.LVL511:
 3786 1a60 6FF05FFD 		j	.L247
 3787              	.L246:
 3788              	.LBE329:
  70:src/../h/kObjectAllocator.hpp ****         MemoryAllocator::instance()->kmem_free(((KObjectAllocator*) p)->objectVectors);
 3789              		.loc 1 70 9
  70:src/../h/kObjectAllocator.hpp ****         MemoryAllocator::instance()->kmem_free(((KObjectAllocator*) p)->objectVectors);
 3790              		.loc 1 70 47 is_stmt 0
 3791 1a64 97000000 		call	_ZN15MemoryAllocator8instanceEv@plt
 3791      E7800000 
 3792              	.LVL512:
 3793 1a6c 83B58402 		ld	a1,40(s1)
 3794 1a70 97000000 		call	_ZN15MemoryAllocator9kmem_freeEPv@plt
 3794      E7800000 
 3795              	.LVL513:
  71:src/../h/kObjectAllocator.hpp ****         MemoryAllocator::instance()->kmem_free(p);
 3796              		.loc 1 71 9 is_stmt 1
  71:src/../h/kObjectAllocator.hpp ****         MemoryAllocator::instance()->kmem_free(p);
 3797              		.loc 1 71 47 is_stmt 0
 3798 1a78 97000000 		call	_ZN15MemoryAllocator8instanceEv@plt
 3798      E7800000 
 3799              	.LVL514:
 3800 1a80 83B50402 		ld	a1,32(s1)
 3801 1a84 97000000 		call	_ZN15MemoryAllocator9kmem_freeEPv@plt
 3801      E7800000 
 3802              	.LVL515:
  72:src/../h/kObjectAllocator.hpp ****     }
 3803              		.loc 1 72 9 is_stmt 1
  72:src/../h/kObjectAllocator.hpp ****     }
 3804              		.loc 1 72 47 is_stmt 0
 3805 1a8c 97000000 		call	_ZN15MemoryAllocator8instanceEv@plt
 3805      E7800000 
 3806              	.LVL516:
 3807 1a94 93850400 		mv	a1,s1
 3808 1a98 97000000 		call	_ZN15MemoryAllocator9kmem_freeEPv@plt
 3808      E7800000 
 3809              	.LVL517:
 3810              	.L245:
 3811              	.LBE328:
 3812              	.LBE327:
GAS LISTING /tmp/cciR7THS.s 			page 95


 193:src/kObjectAllocatorTest.cpp ****         if (bit == 0) { ++byte; bit = 8; } --bit;
 3813              		.loc 2 193 70 is_stmt 1 discriminator 4
 193:src/kObjectAllocatorTest.cpp ****         if (bit == 0) { ++byte; bit = 8; } --bit;
 3814              		.loc 2 193 77 is_stmt 0 discriminator 4
 3815 1aa0 130A0000 		li	s4,0
 3816              	.LVL518:
 3817 1aa4 6FF0DFBE 		j	.L272
 3818              	.LVL519:
 3819              	.L282:
 194:src/kObjectAllocatorTest.cpp ****     }
 3820              		.loc 2 194 25 is_stmt 1 discriminator 1
 3821 1aa8 938A1A00 		addi	s5,s5,1
 3822              	.LVL520:
 194:src/kObjectAllocatorTest.cpp ****     }
 3823              		.loc 2 194 33 discriminator 1
 194:src/kObjectAllocatorTest.cpp ****     }
 3824              		.loc 2 194 37 is_stmt 0 discriminator 1
 3825 1aac 13890B00 		mv	s2,s7
 3826              	.LVL521:
 3827              	.L248:
 194:src/kObjectAllocatorTest.cpp ****     }
 3828              		.loc 2 194 44 is_stmt 1 discriminator 3
 3829 1ab0 1309F9FF 		addi	s2,s2,-1
 3830              	.LVL522:
 192:src/kObjectAllocatorTest.cpp ****         if (getValueOfBitAt(byte, bit, objAlloc)) { delete objAlloc; return false; }
 3831              		.loc 2 192 5 discriminator 3
 3832 1ab4 130A1A00 		addi	s4,s4,1
 3833              	.LVL523:
 3834              	.L228:
 192:src/kObjectAllocatorTest.cpp ****         if (getValueOfBitAt(byte, bit, objAlloc)) { delete objAlloc; return false; }
 3835              		.loc 2 192 26 discriminator 2
 3836 1ab8 93075000 		li	a5,5
 3837 1abc 63E44703 		bgtu	s4,a5,.L243
 193:src/kObjectAllocatorTest.cpp ****         if (bit == 0) { ++byte; bit = 8; } --bit;
 3838              		.loc 2 193 9
 193:src/kObjectAllocatorTest.cpp ****         if (bit == 0) { ++byte; bit = 8; } --bit;
 3839              		.loc 2 193 28 is_stmt 0
 3840 1ac0 93860400 		mv	a3,s1
 3841 1ac4 13060900 		mv	a2,s2
 3842 1ac8 93850A00 		mv	a1,s5
 3843 1acc 13850900 		mv	a0,s3
 3844 1ad0 97000000 		call	_ZN20KObjectAllocatorTest15getValueOfBitAtEmmP16KObjectAllocator
 3844      E7800000 
 3845              	.LVL524:
 193:src/kObjectAllocatorTest.cpp ****         if (bit == 0) { ++byte; bit = 8; } --bit;
 3846              		.loc 2 193 9
 3847 1ad8 E31A05F4 		bnez	a0,.L281
 194:src/kObjectAllocatorTest.cpp ****     }
 3848              		.loc 2 194 9 is_stmt 1
 3849 1adc E31A09FC 		bnez	s2,.L248
 3850 1ae0 6FF09FFC 		j	.L282
 3851              	.L243:
 3852              	.LBE326:
 196:src/kObjectAllocatorTest.cpp ****     objAlloc->freeObject(objArr[7]);
 3853              		.loc 2 196 5
 196:src/kObjectAllocatorTest.cpp ****     objAlloc->freeObject(objArr[7]);
 3854              		.loc 2 196 25 is_stmt 0
GAS LISTING /tmp/cciR7THS.s 			page 96


 3855 1ae4 833504F8 		ld	a1,-128(s0)
 3856 1ae8 13850400 		mv	a0,s1
 3857 1aec 97000000 		call	_ZN16KObjectAllocator10freeObjectEPv@plt
 3857      E7800000 
 3858              	.LVL525:
 197:src/kObjectAllocatorTest.cpp ****     objAlloc->freeObject(objArr[8]);
 3859              		.loc 2 197 5 is_stmt 1
 197:src/kObjectAllocatorTest.cpp ****     objAlloc->freeObject(objArr[8]);
 3860              		.loc 2 197 25 is_stmt 0
 3861 1af4 833584F9 		ld	a1,-104(s0)
 3862 1af8 13850400 		mv	a0,s1
 3863 1afc 97000000 		call	_ZN16KObjectAllocator10freeObjectEPv@plt
 3863      E7800000 
 3864              	.LVL526:
 198:src/kObjectAllocatorTest.cpp ****     objArr[4] = objAlloc->allocateNewObject();
 3865              		.loc 2 198 5 is_stmt 1
 198:src/kObjectAllocatorTest.cpp ****     objArr[4] = objAlloc->allocateNewObject();
 3866              		.loc 2 198 25 is_stmt 0
 3867 1b04 833504FA 		ld	a1,-96(s0)
 3868 1b08 13850400 		mv	a0,s1
 3869 1b0c 97000000 		call	_ZN16KObjectAllocator10freeObjectEPv@plt
 3869      E7800000 
 3870              	.LVL527:
 199:src/kObjectAllocatorTest.cpp ****     if (objArr[4] != getObjectAt(1, 7, objAlloc)) { delete objAlloc; return false; }
 3871              		.loc 2 199 5 is_stmt 1
 199:src/kObjectAllocatorTest.cpp ****     if (objArr[4] != getObjectAt(1, 7, objAlloc)) { delete objAlloc; return false; }
 3872              		.loc 2 199 44 is_stmt 0
 3873 1b14 13850400 		mv	a0,s1
 3874 1b18 97000000 		call	_ZN16KObjectAllocator17allocateNewObjectEv@plt
 3874      E7800000 
 3875              	.LVL528:
 3876 1b20 13090500 		mv	s2,a0
 3877              	.LVL529:
 200:src/kObjectAllocatorTest.cpp ****     byte = getByteOfObject(objArr[4], objAlloc);
 3878              		.loc 2 200 5 is_stmt 1
 200:src/kObjectAllocatorTest.cpp ****     byte = getByteOfObject(objArr[4], objAlloc);
 3879              		.loc 2 200 33 is_stmt 0
 3880 1b24 93860400 		mv	a3,s1
 3881 1b28 13067000 		li	a2,7
 3882 1b2c 93051000 		li	a1,1
 3883 1b30 13850900 		mv	a0,s3
 3884 1b34 97000000 		call	_ZN20KObjectAllocatorTest11getObjectAtEmmP16KObjectAllocator
 3884      E7800000 
 3885              	.LVL530:
 200:src/kObjectAllocatorTest.cpp ****     byte = getByteOfObject(objArr[4], objAlloc);
 3886              		.loc 2 200 5
 3887 1b3c 6300A908 		beq	s2,a0,.L249
 200:src/kObjectAllocatorTest.cpp ****     byte = getByteOfObject(objArr[4], objAlloc);
 3888              		.loc 2 200 53 is_stmt 1 discriminator 2
 200:src/kObjectAllocatorTest.cpp ****     byte = getByteOfObject(objArr[4], objAlloc);
 3889              		.loc 2 200 68 is_stmt 0 discriminator 2
 3890 1b40 638A0406 		beqz	s1,.L250
 3891              	.LBB330:
 3892              	.LBB331:
 3893              	.LBB332:
  68:src/../h/kObjectAllocator.hpp ****             MemoryAllocator::instance()->kmem_free(((KObjectAllocator*) p)->bitVectors[i]);
 3894              		.loc 1 68 21
GAS LISTING /tmp/cciR7THS.s 			page 97


 3895 1b44 13090000 		li	s2,0
 3896 1b48 6F008002 		j	.L252
 3897              	.LVL531:
 3898              	.L283:
  69:src/../h/kObjectAllocator.hpp ****         MemoryAllocator::instance()->kmem_free(((KObjectAllocator*) p)->bitVectors);
 3899              		.loc 1 69 13 is_stmt 1
  69:src/../h/kObjectAllocator.hpp ****         MemoryAllocator::instance()->kmem_free(((KObjectAllocator*) p)->bitVectors);
 3900              		.loc 1 69 51 is_stmt 0
 3901 1b4c 97000000 		call	_ZN15MemoryAllocator8instanceEv@plt
 3901      E7800000 
 3902              	.LVL532:
  69:src/../h/kObjectAllocator.hpp ****         MemoryAllocator::instance()->kmem_free(((KObjectAllocator*) p)->bitVectors);
 3903              		.loc 1 69 77
 3904 1b54 83B78402 		ld	a5,40(s1)
  69:src/../h/kObjectAllocator.hpp ****         MemoryAllocator::instance()->kmem_free(((KObjectAllocator*) p)->bitVectors);
 3905              		.loc 1 69 89
 3906 1b58 13173900 		slli	a4,s2,3
 3907 1b5c B387E700 		add	a5,a5,a4
  69:src/../h/kObjectAllocator.hpp ****         MemoryAllocator::instance()->kmem_free(((KObjectAllocator*) p)->bitVectors);
 3908              		.loc 1 69 51
 3909 1b60 83B50700 		ld	a1,0(a5)
 3910 1b64 97000000 		call	_ZN15MemoryAllocator9kmem_freeEPv@plt
 3910      E7800000 
 3911              	.LVL533:
  68:src/../h/kObjectAllocator.hpp ****             MemoryAllocator::instance()->kmem_free(((KObjectAllocator*) p)->bitVectors[i]);
 3912              		.loc 1 68 9 is_stmt 1
 3913 1b6c 13091900 		addi	s2,s2,1
 3914              	.LVL534:
 3915              	.L252:
  68:src/../h/kObjectAllocator.hpp ****             MemoryAllocator::instance()->kmem_free(((KObjectAllocator*) p)->bitVectors[i]);
 3916              		.loc 1 68 30
  68:src/../h/kObjectAllocator.hpp ****             MemoryAllocator::instance()->kmem_free(((KObjectAllocator*) p)->bitVectors[i]);
 3917              		.loc 1 68 57 is_stmt 0
 3918 1b70 83B70403 		ld	a5,48(s1)
  68:src/../h/kObjectAllocator.hpp ****             MemoryAllocator::instance()->kmem_free(((KObjectAllocator*) p)->bitVectors[i]);
 3919              		.loc 1 68 30
 3920 1b74 E36CF9FC 		bgtu	a5,s2,.L283
 3921              	.LBE332:
  70:src/../h/kObjectAllocator.hpp ****         MemoryAllocator::instance()->kmem_free(((KObjectAllocator*) p)->objectVectors);
 3922              		.loc 1 70 9 is_stmt 1
  70:src/../h/kObjectAllocator.hpp ****         MemoryAllocator::instance()->kmem_free(((KObjectAllocator*) p)->objectVectors);
 3923              		.loc 1 70 47 is_stmt 0
 3924 1b78 97000000 		call	_ZN15MemoryAllocator8instanceEv@plt
 3924      E7800000 
 3925              	.LVL535:
 3926 1b80 83B58402 		ld	a1,40(s1)
 3927 1b84 97000000 		call	_ZN15MemoryAllocator9kmem_freeEPv@plt
 3927      E7800000 
 3928              	.LVL536:
  71:src/../h/kObjectAllocator.hpp ****         MemoryAllocator::instance()->kmem_free(p);
 3929              		.loc 1 71 9 is_stmt 1
  71:src/../h/kObjectAllocator.hpp ****         MemoryAllocator::instance()->kmem_free(p);
 3930              		.loc 1 71 47 is_stmt 0
 3931 1b8c 97000000 		call	_ZN15MemoryAllocator8instanceEv@plt
 3931      E7800000 
 3932              	.LVL537:
 3933 1b94 83B50402 		ld	a1,32(s1)
GAS LISTING /tmp/cciR7THS.s 			page 98


 3934 1b98 97000000 		call	_ZN15MemoryAllocator9kmem_freeEPv@plt
 3934      E7800000 
 3935              	.LVL538:
  72:src/../h/kObjectAllocator.hpp ****     }
 3936              		.loc 1 72 9 is_stmt 1
  72:src/../h/kObjectAllocator.hpp ****     }
 3937              		.loc 1 72 47 is_stmt 0
 3938 1ba0 97000000 		call	_ZN15MemoryAllocator8instanceEv@plt
 3938      E7800000 
 3939              	.LVL539:
 3940 1ba8 93850400 		mv	a1,s1
 3941 1bac 97000000 		call	_ZN15MemoryAllocator9kmem_freeEPv@plt
 3941      E7800000 
 3942              	.LVL540:
 3943              	.L250:
 3944              	.LBE331:
 3945              	.LBE330:
 200:src/kObjectAllocatorTest.cpp ****     byte = getByteOfObject(objArr[4], objAlloc);
 3946              		.loc 2 200 70 is_stmt 1 discriminator 4
 200:src/kObjectAllocatorTest.cpp ****     byte = getByteOfObject(objArr[4], objAlloc);
 3947              		.loc 2 200 77 is_stmt 0 discriminator 4
 3948 1bb4 130A0000 		li	s4,0
 3949              	.LVL541:
 3950 1bb8 6FF09FAD 		j	.L272
 3951              	.LVL542:
 3952              	.L249:
 201:src/kObjectAllocatorTest.cpp ****     bit = getBitOfObject(objArr[4], objAlloc);
 3953              		.loc 2 201 5 is_stmt 1
 201:src/kObjectAllocatorTest.cpp ****     bit = getBitOfObject(objArr[4], objAlloc);
 3954              		.loc 2 201 27 is_stmt 0
 3955 1bbc 13860400 		mv	a2,s1
 3956 1bc0 93050900 		mv	a1,s2
 3957 1bc4 13850900 		mv	a0,s3
 3958 1bc8 97000000 		call	_ZN20KObjectAllocatorTest15getByteOfObjectEPvP16KObjectAllocator
 3958      E7800000 
 3959              	.LVL543:
 3960 1bd0 130A0500 		mv	s4,a0
 3961              	.LVL544:
 202:src/kObjectAllocatorTest.cpp ****     if (byte != 1 || bit != 7) { delete objAlloc; return false; }
 3962              		.loc 2 202 5 is_stmt 1
 202:src/kObjectAllocatorTest.cpp ****     if (byte != 1 || bit != 7) { delete objAlloc; return false; }
 3963              		.loc 2 202 25 is_stmt 0
 3964 1bd4 13860400 		mv	a2,s1
 3965 1bd8 93050900 		mv	a1,s2
 3966 1bdc 13850900 		mv	a0,s3
 3967              	.LVL545:
 3968 1be0 97000000 		call	_ZN20KObjectAllocatorTest14getBitOfObjectEPvP16KObjectAllocator
 3968      E7800000 
 3969              	.LVL546:
 3970 1be8 13090500 		mv	s2,a0
 3971              	.LVL547:
 203:src/kObjectAllocatorTest.cpp ****     bool expectedBitValues[16] = {
 3972              		.loc 2 203 5 is_stmt 1
 3973 1bec 93071000 		li	a5,1
 3974 1bf0 6316FA00 		bne	s4,a5,.L253
 203:src/kObjectAllocatorTest.cpp ****     bool expectedBitValues[16] = {
 3975              		.loc 2 203 19 is_stmt 0 discriminator 2
GAS LISTING /tmp/cciR7THS.s 			page 99


 3976 1bf4 93077000 		li	a5,7
 3977 1bf8 6300F508 		beq	a0,a5,.L254
 3978              	.L253:
 203:src/kObjectAllocatorTest.cpp ****     bool expectedBitValues[16] = {
 3979              		.loc 2 203 34 is_stmt 1 discriminator 3
 203:src/kObjectAllocatorTest.cpp ****     bool expectedBitValues[16] = {
 3980              		.loc 2 203 49 is_stmt 0 discriminator 3
 3981 1bfc 638A0406 		beqz	s1,.L255
 3982              	.LBB333:
 3983              	.LBB334:
 3984              	.LBB335:
  68:src/../h/kObjectAllocator.hpp ****             MemoryAllocator::instance()->kmem_free(((KObjectAllocator*) p)->bitVectors[i]);
 3985              		.loc 1 68 21
 3986 1c00 13090000 		li	s2,0
 3987 1c04 6F008002 		j	.L257
 3988              	.LVL548:
 3989              	.L284:
  69:src/../h/kObjectAllocator.hpp ****         MemoryAllocator::instance()->kmem_free(((KObjectAllocator*) p)->bitVectors);
 3990              		.loc 1 69 13 is_stmt 1
  69:src/../h/kObjectAllocator.hpp ****         MemoryAllocator::instance()->kmem_free(((KObjectAllocator*) p)->bitVectors);
 3991              		.loc 1 69 51 is_stmt 0
 3992 1c08 97000000 		call	_ZN15MemoryAllocator8instanceEv@plt
 3992      E7800000 
 3993              	.LVL549:
  69:src/../h/kObjectAllocator.hpp ****         MemoryAllocator::instance()->kmem_free(((KObjectAllocator*) p)->bitVectors);
 3994              		.loc 1 69 77
 3995 1c10 83B78402 		ld	a5,40(s1)
  69:src/../h/kObjectAllocator.hpp ****         MemoryAllocator::instance()->kmem_free(((KObjectAllocator*) p)->bitVectors);
 3996              		.loc 1 69 89
 3997 1c14 13173900 		slli	a4,s2,3
 3998 1c18 B387E700 		add	a5,a5,a4
  69:src/../h/kObjectAllocator.hpp ****         MemoryAllocator::instance()->kmem_free(((KObjectAllocator*) p)->bitVectors);
 3999              		.loc 1 69 51
 4000 1c1c 83B50700 		ld	a1,0(a5)
 4001 1c20 97000000 		call	_ZN15MemoryAllocator9kmem_freeEPv@plt
 4001      E7800000 
 4002              	.LVL550:
  68:src/../h/kObjectAllocator.hpp ****             MemoryAllocator::instance()->kmem_free(((KObjectAllocator*) p)->bitVectors[i]);
 4003              		.loc 1 68 9 is_stmt 1
 4004 1c28 13091900 		addi	s2,s2,1
 4005              	.LVL551:
 4006              	.L257:
  68:src/../h/kObjectAllocator.hpp ****             MemoryAllocator::instance()->kmem_free(((KObjectAllocator*) p)->bitVectors[i]);
 4007              		.loc 1 68 30
  68:src/../h/kObjectAllocator.hpp ****             MemoryAllocator::instance()->kmem_free(((KObjectAllocator*) p)->bitVectors[i]);
 4008              		.loc 1 68 57 is_stmt 0
 4009 1c2c 83B70403 		ld	a5,48(s1)
  68:src/../h/kObjectAllocator.hpp ****             MemoryAllocator::instance()->kmem_free(((KObjectAllocator*) p)->bitVectors[i]);
 4010              		.loc 1 68 30
 4011 1c30 E36CF9FC 		bgtu	a5,s2,.L284
 4012              	.LBE335:
  70:src/../h/kObjectAllocator.hpp ****         MemoryAllocator::instance()->kmem_free(((KObjectAllocator*) p)->objectVectors);
 4013              		.loc 1 70 9 is_stmt 1
  70:src/../h/kObjectAllocator.hpp ****         MemoryAllocator::instance()->kmem_free(((KObjectAllocator*) p)->objectVectors);
 4014              		.loc 1 70 47 is_stmt 0
 4015 1c34 97000000 		call	_ZN15MemoryAllocator8instanceEv@plt
 4015      E7800000 
GAS LISTING /tmp/cciR7THS.s 			page 100


 4016              	.LVL552:
 4017 1c3c 83B58402 		ld	a1,40(s1)
 4018 1c40 97000000 		call	_ZN15MemoryAllocator9kmem_freeEPv@plt
 4018      E7800000 
 4019              	.LVL553:
  71:src/../h/kObjectAllocator.hpp ****         MemoryAllocator::instance()->kmem_free(p);
 4020              		.loc 1 71 9 is_stmt 1
  71:src/../h/kObjectAllocator.hpp ****         MemoryAllocator::instance()->kmem_free(p);
 4021              		.loc 1 71 47 is_stmt 0
 4022 1c48 97000000 		call	_ZN15MemoryAllocator8instanceEv@plt
 4022      E7800000 
 4023              	.LVL554:
 4024 1c50 83B50402 		ld	a1,32(s1)
 4025 1c54 97000000 		call	_ZN15MemoryAllocator9kmem_freeEPv@plt
 4025      E7800000 
 4026              	.LVL555:
  72:src/../h/kObjectAllocator.hpp ****     }
 4027              		.loc 1 72 9 is_stmt 1
  72:src/../h/kObjectAllocator.hpp ****     }
 4028              		.loc 1 72 47 is_stmt 0
 4029 1c5c 97000000 		call	_ZN15MemoryAllocator8instanceEv@plt
 4029      E7800000 
 4030              	.LVL556:
 4031 1c64 93850400 		mv	a1,s1
 4032 1c68 97000000 		call	_ZN15MemoryAllocator9kmem_freeEPv@plt
 4032      E7800000 
 4033              	.LVL557:
 4034              	.L255:
 4035              	.LBE334:
 4036              	.LBE333:
 203:src/kObjectAllocatorTest.cpp ****     bool expectedBitValues[16] = {
 4037              		.loc 2 203 51 is_stmt 1 discriminator 5
 203:src/kObjectAllocatorTest.cpp ****     bool expectedBitValues[16] = {
 4038              		.loc 2 203 58 is_stmt 0 discriminator 5
 4039 1c70 130A0000 		li	s4,0
 4040              	.LVL558:
 4041 1c74 6FF0DFA1 		j	.L272
 4042              	.LVL559:
 4043              	.L254:
 204:src/kObjectAllocatorTest.cpp ****             true, true, true, true, false, true, true, false,
 4044              		.loc 2 204 5 is_stmt 1
 204:src/kObjectAllocatorTest.cpp ****             true, true, true, true, false, true, true, false,
 4045              		.loc 2 204 10 is_stmt 0
 4046 1c78 97070000 		lla	a5,.LANCHOR0
 4046      93870700 
 4047 1c80 03B70700 		ld	a4,0(a5)
 4048 1c84 2338E4F4 		sd	a4,-176(s0)
 4049 1c88 83B78700 		ld	a5,8(a5)
 4050 1c8c 233CF4F4 		sd	a5,-168(s0)
 208:src/kObjectAllocatorTest.cpp ****     for (size_t i = 0; i < 16; ++i) {
 4051              		.loc 2 208 5 is_stmt 1
 4052              	.LVL560:
 208:src/kObjectAllocatorTest.cpp ****     for (size_t i = 0; i < 16; ++i) {
 4053              		.loc 2 208 15
 209:src/kObjectAllocatorTest.cpp ****         if (expectedBitValues[i] != getValueOfBitAt(byte, bit, objAlloc))
 4054              		.loc 2 209 5
 4055              	.LBB336:
GAS LISTING /tmp/cciR7THS.s 			page 101


 209:src/kObjectAllocatorTest.cpp ****         if (expectedBitValues[i] != getValueOfBitAt(byte, bit, objAlloc))
 4056              		.loc 2 209 17 is_stmt 0
 4057 1c90 130A0000 		li	s4,0
 4058              	.LBE336:
 208:src/kObjectAllocatorTest.cpp ****     for (size_t i = 0; i < 16; ++i) {
 4059              		.loc 2 208 10
 4060 1c94 930A0000 		li	s5,0
 4061 1c98 6F00C002 		j	.L262
 4062              	.LVL561:
 4063              	.L285:
 4064              	.LBB337:
 211:src/kObjectAllocatorTest.cpp ****     }
 4065              		.loc 2 211 11 is_stmt 1
 211:src/kObjectAllocatorTest.cpp ****     }
 4066              		.loc 2 211 26 is_stmt 0
 4067 1c9c 63880400 		beqz	s1,.L260
 211:src/kObjectAllocatorTest.cpp ****     }
 4068              		.loc 2 211 18 discriminator 1
 4069 1ca0 13850400 		mv	a0,s1
 4070 1ca4 97000000 		call	_ZN16KObjectAllocatordlEPv
 4070      E7800000 
 4071              	.LVL562:
 4072              	.L260:
 211:src/kObjectAllocatorTest.cpp ****     }
 4073              		.loc 2 211 28 is_stmt 1 discriminator 2
 211:src/kObjectAllocatorTest.cpp ****     }
 4074              		.loc 2 211 35 is_stmt 0 discriminator 2
 4075 1cac 130A0000 		li	s4,0
 4076              	.LVL563:
 4077 1cb0 6FF01F9E 		j	.L272
 4078              	.LVL564:
 4079              	.L286:
 211:src/kObjectAllocatorTest.cpp ****     }
 4080              		.loc 2 211 60 is_stmt 1 discriminator 3
 4081 1cb4 938A1A00 		addi	s5,s5,1
 4082              	.LVL565:
 211:src/kObjectAllocatorTest.cpp ****     }
 4083              		.loc 2 211 68 discriminator 3
 211:src/kObjectAllocatorTest.cpp ****     }
 4084              		.loc 2 211 72 is_stmt 0 discriminator 3
 4085 1cb8 13890B00 		mv	s2,s7
 4086              	.LVL566:
 4087              	.L261:
 211:src/kObjectAllocatorTest.cpp ****     }
 4088              		.loc 2 211 79 is_stmt 1 discriminator 5
 4089 1cbc 1309F9FF 		addi	s2,s2,-1
 4090              	.LVL567:
 209:src/kObjectAllocatorTest.cpp ****         if (expectedBitValues[i] != getValueOfBitAt(byte, bit, objAlloc))
 4091              		.loc 2 209 5 discriminator 5
 4092 1cc0 130A1A00 		addi	s4,s4,1
 4093              	.LVL568:
 4094              	.L262:
 209:src/kObjectAllocatorTest.cpp ****         if (expectedBitValues[i] != getValueOfBitAt(byte, bit, objAlloc))
 4095              		.loc 2 209 26 discriminator 2
 4096 1cc4 9307F000 		li	a5,15
 4097 1cc8 63EA4703 		bgtu	s4,a5,.L258
 210:src/kObjectAllocatorTest.cpp ****         { delete objAlloc; return false; } if (bit == 0) { ++byte; bit = 8; } --bit;
GAS LISTING /tmp/cciR7THS.s 			page 102


 4098              		.loc 2 210 9
 210:src/kObjectAllocatorTest.cpp ****         { delete objAlloc; return false; } if (bit == 0) { ++byte; bit = 8; } --bit;
 4099              		.loc 2 210 32 is_stmt 0
 4100 1ccc 930704FB 		addi	a5,s0,-80
 4101 1cd0 B3874701 		add	a5,a5,s4
 4102 1cd4 03CB07FA 		lbu	s6,-96(a5)
 210:src/kObjectAllocatorTest.cpp ****         { delete objAlloc; return false; } if (bit == 0) { ++byte; bit = 8; } --bit;
 4103              		.loc 2 210 52
 4104 1cd8 93860400 		mv	a3,s1
 4105 1cdc 13060900 		mv	a2,s2
 4106 1ce0 93850A00 		mv	a1,s5
 4107 1ce4 13850900 		mv	a0,s3
 4108 1ce8 97000000 		call	_ZN20KObjectAllocatorTest15getValueOfBitAtEmmP16KObjectAllocator
 4108      E7800000 
 4109              	.LVL569:
 210:src/kObjectAllocatorTest.cpp ****         { delete objAlloc; return false; } if (bit == 0) { ++byte; bit = 8; } --bit;
 4110              		.loc 2 210 9
 4111 1cf0 E316ABFA 		bne	s6,a0,.L285
 211:src/kObjectAllocatorTest.cpp ****     }
 4112              		.loc 2 211 44 is_stmt 1
 4113 1cf4 E31409FC 		bnez	s2,.L261
 4114 1cf8 6FF0DFFB 		j	.L286
 4115              	.L258:
 4116              	.LBE337:
 213:src/kObjectAllocatorTest.cpp ****     return true;
 4117              		.loc 2 213 5
 213:src/kObjectAllocatorTest.cpp ****     return true;
 4118              		.loc 2 213 20 is_stmt 0
 4119 1cfc 638E0406 		beqz	s1,.L270
 4120              	.LBB338:
 4121              	.LBB339:
 4122              	.LBB340:
  68:src/../h/kObjectAllocator.hpp ****             MemoryAllocator::instance()->kmem_free(((KObjectAllocator*) p)->bitVectors[i]);
 4123              		.loc 1 68 21
 4124 1d00 13090000 		li	s2,0
 4125              	.LVL570:
 4126 1d04 6F008002 		j	.L264
 4127              	.LVL571:
 4128              	.L287:
  69:src/../h/kObjectAllocator.hpp ****         MemoryAllocator::instance()->kmem_free(((KObjectAllocator*) p)->bitVectors);
 4129              		.loc 1 69 13 is_stmt 1
  69:src/../h/kObjectAllocator.hpp ****         MemoryAllocator::instance()->kmem_free(((KObjectAllocator*) p)->bitVectors);
 4130              		.loc 1 69 51 is_stmt 0
 4131 1d08 97000000 		call	_ZN15MemoryAllocator8instanceEv@plt
 4131      E7800000 
 4132              	.LVL572:
  69:src/../h/kObjectAllocator.hpp ****         MemoryAllocator::instance()->kmem_free(((KObjectAllocator*) p)->bitVectors);
 4133              		.loc 1 69 77
 4134 1d10 83B78402 		ld	a5,40(s1)
  69:src/../h/kObjectAllocator.hpp ****         MemoryAllocator::instance()->kmem_free(((KObjectAllocator*) p)->bitVectors);
 4135              		.loc 1 69 89
 4136 1d14 13173900 		slli	a4,s2,3
 4137 1d18 B387E700 		add	a5,a5,a4
  69:src/../h/kObjectAllocator.hpp ****         MemoryAllocator::instance()->kmem_free(((KObjectAllocator*) p)->bitVectors);
 4138              		.loc 1 69 51
 4139 1d1c 83B50700 		ld	a1,0(a5)
 4140 1d20 97000000 		call	_ZN15MemoryAllocator9kmem_freeEPv@plt
GAS LISTING /tmp/cciR7THS.s 			page 103


 4140      E7800000 
 4141              	.LVL573:
  68:src/../h/kObjectAllocator.hpp ****             MemoryAllocator::instance()->kmem_free(((KObjectAllocator*) p)->bitVectors[i]);
 4142              		.loc 1 68 9 is_stmt 1
 4143 1d28 13091900 		addi	s2,s2,1
 4144              	.LVL574:
 4145              	.L264:
  68:src/../h/kObjectAllocator.hpp ****             MemoryAllocator::instance()->kmem_free(((KObjectAllocator*) p)->bitVectors[i]);
 4146              		.loc 1 68 30
  68:src/../h/kObjectAllocator.hpp ****             MemoryAllocator::instance()->kmem_free(((KObjectAllocator*) p)->bitVectors[i]);
 4147              		.loc 1 68 57 is_stmt 0
 4148 1d2c 83B70403 		ld	a5,48(s1)
  68:src/../h/kObjectAllocator.hpp ****             MemoryAllocator::instance()->kmem_free(((KObjectAllocator*) p)->bitVectors[i]);
 4149              		.loc 1 68 30
 4150 1d30 E36CF9FC 		bgtu	a5,s2,.L287
 4151              	.LBE340:
  70:src/../h/kObjectAllocator.hpp ****         MemoryAllocator::instance()->kmem_free(((KObjectAllocator*) p)->objectVectors);
 4152              		.loc 1 70 9 is_stmt 1
  70:src/../h/kObjectAllocator.hpp ****         MemoryAllocator::instance()->kmem_free(((KObjectAllocator*) p)->objectVectors);
 4153              		.loc 1 70 47 is_stmt 0
 4154 1d34 97000000 		call	_ZN15MemoryAllocator8instanceEv@plt
 4154      E7800000 
 4155              	.LVL575:
 4156 1d3c 83B58402 		ld	a1,40(s1)
 4157 1d40 97000000 		call	_ZN15MemoryAllocator9kmem_freeEPv@plt
 4157      E7800000 
 4158              	.LVL576:
  71:src/../h/kObjectAllocator.hpp ****         MemoryAllocator::instance()->kmem_free(p);
 4159              		.loc 1 71 9 is_stmt 1
  71:src/../h/kObjectAllocator.hpp ****         MemoryAllocator::instance()->kmem_free(p);
 4160              		.loc 1 71 47 is_stmt 0
 4161 1d48 97000000 		call	_ZN15MemoryAllocator8instanceEv@plt
 4161      E7800000 
 4162              	.LVL577:
 4163 1d50 83B50402 		ld	a1,32(s1)
 4164 1d54 97000000 		call	_ZN15MemoryAllocator9kmem_freeEPv@plt
 4164      E7800000 
 4165              	.LVL578:
  72:src/../h/kObjectAllocator.hpp ****     }
 4166              		.loc 1 72 9 is_stmt 1
  72:src/../h/kObjectAllocator.hpp ****     }
 4167              		.loc 1 72 47 is_stmt 0
 4168 1d5c 97000000 		call	_ZN15MemoryAllocator8instanceEv@plt
 4168      E7800000 
 4169              	.LVL579:
 4170 1d64 93850400 		mv	a1,s1
 4171 1d68 97000000 		call	_ZN15MemoryAllocator9kmem_freeEPv@plt
 4171      E7800000 
 4172              	.LVL580:
 4173              	.LEHE10:
 4174              	.LBE339:
 4175              	.LBE338:
 214:src/kObjectAllocatorTest.cpp **** }
 4176              		.loc 2 214 12
 4177 1d70 130A1000 		li	s4,1
 4178              	.LVL581:
 4179              	.LBB342:
GAS LISTING /tmp/cciR7THS.s 			page 104


 4180              	.LBB341:
  73:src/../h/kObjectAllocator.hpp ****     void printInternalMemory();
 4181              		.loc 1 73 5
 4182 1d74 6FF0DF91 		j	.L272
 4183              	.LVL582:
 4184              	.L270:
 4185              	.LBE341:
 4186              	.LBE342:
 214:src/kObjectAllocatorTest.cpp **** }
 4187              		.loc 2 214 12
 4188 1d78 130A1000 		li	s4,1
 4189              	.LVL583:
 4190 1d7c 6FF05F91 		j	.L272
 4191              	.LVL584:
 4192              	.L271:
 4193 1d80 13090500 		mv	s2,a0
 4194              	.LVL585:
 178:src/kObjectAllocatorTest.cpp ****     if (objAlloc->getNumberOfObjects() != 8) { delete objAlloc; return false; }
 4195              		.loc 2 178 62
 4196 1d84 13850400 		mv	a0,s1
 4197 1d88 97000000 		call	_ZN16KObjectAllocatordlEPv
 4197      E7800000 
 4198              	.LVL586:
 4199 1d90 13050900 		mv	a0,s2
 4200              	.LEHB11:
 4201 1d94 97000000 		call	_Unwind_Resume@plt
 4201      E7800000 
 4202              	.LVL587:
 4203              	.LEHE11:
 4204              		.cfi_endproc
 4205              	.LFE29:
 4206              		.section	.gcc_except_table
 4207              	.LLSDA29:
 4208 0070 FF       		.byte	0xff
 4209 0071 FF       		.byte	0xff
 4210 0072 03       		.byte	0x3
 4211 0073 34       		.byte	0x34
 4212 0074 00000000 		.4byte	.LEHB8-.LFB29
 4213 0078 00000000 		.4byte	.LEHE8-.LEHB8
 4214 007c 00000000 		.4byte	0
 4215 0080 00       		.byte	0
 4216 0081 00000000 		.4byte	.LEHB9-.LFB29
 4217 0085 00000000 		.4byte	.LEHE9-.LEHB9
 4218 0089 00000000 		.4byte	.L271-.LFB29
 4219 008d 00       		.byte	0
 4220 008e 00000000 		.4byte	.LEHB10-.LFB29
 4221 0092 00000000 		.4byte	.LEHE10-.LEHB10
 4222 0096 00000000 		.4byte	0
 4223 009a 00       		.byte	0
 4224 009b 00000000 		.4byte	.LEHB11-.LFB29
 4225 009f 00000000 		.4byte	.LEHE11-.LEHB11
 4226 00a3 00000000 		.4byte	0
 4227 00a7 00       		.byte	0
 4228              		.text
 4230              		.align	2
 4231              		.globl	_ZN20KObjectAllocatorTest5test3Em
 4233              	_ZN20KObjectAllocatorTest5test3Em:
GAS LISTING /tmp/cciR7THS.s 			page 105


 4234              	.LFB30:
 216:src/kObjectAllocatorTest.cpp **** 
 217:src/kObjectAllocatorTest.cpp **** bool KObjectAllocatorTest::test3(size_t size) {
 4235              		.loc 2 217 47 is_stmt 1
 4236              		.cfi_startproc
 4237              		.cfi_personality 0x9b,DW.ref.__gxx_personality_v0
 4238              		.cfi_lsda 0x1b,.LLSDA30
 4239              	.LVL588:
 4240 1d9c 13010181 		addi	sp,sp,-2032
 4241              		.cfi_def_cfa_offset 2032
 4242 1da0 2334117E 		sd	ra,2024(sp)
 4243 1da4 2330817E 		sd	s0,2016(sp)
 4244 1da8 233C917C 		sd	s1,2008(sp)
 4245 1dac 2338217D 		sd	s2,2000(sp)
 4246 1db0 2334317D 		sd	s3,1992(sp)
 4247 1db4 2330417D 		sd	s4,1984(sp)
 4248 1db8 233C517B 		sd	s5,1976(sp)
 4249              		.cfi_offset 1, -8
 4250              		.cfi_offset 8, -16
 4251              		.cfi_offset 9, -24
 4252              		.cfi_offset 18, -32
 4253              		.cfi_offset 19, -40
 4254              		.cfi_offset 20, -48
 4255              		.cfi_offset 21, -56
 4256 1dbc 1304017F 		addi	s0,sp,2032
 4257              		.cfi_def_cfa 8, 0
 4258 1dc0 130101FB 		addi	sp,sp,-80
 4259 1dc4 93090500 		mv	s3,a0
 218:src/kObjectAllocatorTest.cpp ****     size = sizeof(uint8);
 4260              		.loc 2 218 5
 4261              	.LVL589:
 219:src/kObjectAllocatorTest.cpp ****     KObjectAllocator* objAlloc = new KObjectAllocator(size, 5);
 4262              		.loc 2 219 5
 4263              	.LBB380:
 4264              	.LBB381:
  65:src/../h/kObjectAllocator.hpp ****     }
 4265              		.loc 1 65 9
 4266              	.LEHB12:
  65:src/../h/kObjectAllocator.hpp ****     }
 4267              		.loc 1 65 55 is_stmt 0
 4268 1dc8 97000000 		call	_ZN15MemoryAllocator8instanceEv@plt
 4268      E7800000 
 4269              	.LVL590:
 4270 1dd0 93050004 		li	a1,64
 4271 1dd4 97000000 		call	_ZN15MemoryAllocator10kmem_allocEm@plt
 4271      E7800000 
 4272              	.LVL591:
 4273              	.LEHE12:
 4274 1ddc 93040500 		mv	s1,a0
 4275              	.LVL592:
 4276              	.LBE381:
 4277              	.LBE380:
 4278              	.LBB382:
 4279              	.LBB383:
  51:src/../h/kObjectAllocator.hpp ****         bitVectors = (uint8**) MemoryAllocator::instance()->kmem_alloc(numberOfAllocations * sizeof
 4280              		.loc 1 51 120
 4281 1de0 93075000 		li	a5,5
GAS LISTING /tmp/cciR7THS.s 			page 106


 4282 1de4 2330F500 		sd	a5,0(a0)
 4283 1de8 2334F500 		sd	a5,8(a0)
 4284 1dec 93071000 		li	a5,1
 4285 1df0 233CF500 		sd	a5,24(a0)
 4286 1df4 2338F502 		sd	a5,48(a0)
 4287 1df8 233C0502 		sd	zero,56(a0)
 4288              	.LBB384:
  52:src/../h/kObjectAllocator.hpp ****         objectVectors = (uint8**) MemoryAllocator::instance()->kmem_alloc(numberOfAllocations * siz
 4289              		.loc 1 52 9 is_stmt 1
 4290              	.LEHB13:
  52:src/../h/kObjectAllocator.hpp ****         objectVectors = (uint8**) MemoryAllocator::instance()->kmem_alloc(numberOfAllocations * siz
 4291              		.loc 1 52 71 is_stmt 0
 4292 1dfc 97000000 		call	_ZN15MemoryAllocator8instanceEv@plt
 4292      E7800000 
 4293              	.LVL593:
  52:src/../h/kObjectAllocator.hpp ****         objectVectors = (uint8**) MemoryAllocator::instance()->kmem_alloc(numberOfAllocations * siz
 4294              		.loc 1 52 72
 4295 1e04 83B50403 		ld	a1,48(s1)
  52:src/../h/kObjectAllocator.hpp ****         objectVectors = (uint8**) MemoryAllocator::instance()->kmem_alloc(numberOfAllocations * siz
 4296              		.loc 1 52 71
 4297 1e08 93953500 		slli	a1,a1,3
 4298 1e0c 97000000 		call	_ZN15MemoryAllocator10kmem_allocEm@plt
 4298      E7800000 
 4299              	.LVL594:
  52:src/../h/kObjectAllocator.hpp ****         objectVectors = (uint8**) MemoryAllocator::instance()->kmem_alloc(numberOfAllocations * siz
 4300              		.loc 1 52 20
 4301 1e14 23B4A402 		sd	a0,40(s1)
  53:src/../h/kObjectAllocator.hpp ****         initialNumberOfObjects = numberOfObjects = numberOfObjects / 8 * 8 + 8 * (numberOfObjects /
 4302              		.loc 1 53 9 is_stmt 1
  53:src/../h/kObjectAllocator.hpp ****         initialNumberOfObjects = numberOfObjects = numberOfObjects / 8 * 8 + 8 * (numberOfObjects /
 4303              		.loc 1 53 74 is_stmt 0
 4304 1e18 97000000 		call	_ZN15MemoryAllocator8instanceEv@plt
 4304      E7800000 
 4305              	.LVL595:
  53:src/../h/kObjectAllocator.hpp ****         initialNumberOfObjects = numberOfObjects = numberOfObjects / 8 * 8 + 8 * (numberOfObjects /
 4306              		.loc 1 53 75
 4307 1e20 83B50403 		ld	a1,48(s1)
  53:src/../h/kObjectAllocator.hpp ****         initialNumberOfObjects = numberOfObjects = numberOfObjects / 8 * 8 + 8 * (numberOfObjects /
 4308              		.loc 1 53 74
 4309 1e24 93953500 		slli	a1,a1,3
 4310 1e28 97000000 		call	_ZN15MemoryAllocator10kmem_allocEm@plt
 4310      E7800000 
 4311              	.LVL596:
  53:src/../h/kObjectAllocator.hpp ****         initialNumberOfObjects = numberOfObjects = numberOfObjects / 8 * 8 + 8 * (numberOfObjects /
 4312              		.loc 1 53 23
 4313 1e30 23B0A402 		sd	a0,32(s1)
  54:src/../h/kObjectAllocator.hpp ****         // one bit for each object which indicates whether memory
 4314              		.loc 1 54 9 is_stmt 1
  54:src/../h/kObjectAllocator.hpp ****         // one bit for each object which indicates whether memory
 4315              		.loc 1 54 52 is_stmt 0
 4316 1e34 03B78400 		ld	a4,8(s1)
  54:src/../h/kObjectAllocator.hpp ****         // one bit for each object which indicates whether memory
 4317              		.loc 1 54 72
 4318 1e38 937787FF 		andi	a5,a4,-8
  54:src/../h/kObjectAllocator.hpp ****         // one bit for each object which indicates whether memory
 4319              		.loc 1 54 80
 4320 1e3c 6304F702 		beq	a4,a5,.L358
GAS LISTING /tmp/cciR7THS.s 			page 107


 4321 1e40 13078000 		li	a4,8
 4322              	.L289:
  54:src/../h/kObjectAllocator.hpp ****         // one bit for each object which indicates whether memory
 4323              		.loc 1 54 76
 4324 1e44 B387E700 		add	a5,a5,a4
  54:src/../h/kObjectAllocator.hpp ****         // one bit for each object which indicates whether memory
 4325              		.loc 1 54 50
 4326 1e48 23B4F400 		sd	a5,8(s1)
  54:src/../h/kObjectAllocator.hpp ****         // one bit for each object which indicates whether memory
 4327              		.loc 1 54 32
 4328 1e4c 23B0F400 		sd	a5,0(s1)
  57:src/../h/kObjectAllocator.hpp ****         bitVectors[0] = (uint8*) MemoryAllocator::instance()->kmem_alloc(
 4329              		.loc 1 57 9 is_stmt 1
  57:src/../h/kObjectAllocator.hpp ****         bitVectors[0] = (uint8*) MemoryAllocator::instance()->kmem_alloc(
 4330              		.loc 1 57 45 is_stmt 0
 4331 1e50 93D73700 		srli	a5,a5,3
  57:src/../h/kObjectAllocator.hpp ****         bitVectors[0] = (uint8*) MemoryAllocator::instance()->kmem_alloc(
 4332              		.loc 1 57 27
 4333 1e54 23B8F400 		sd	a5,16(s1)
  58:src/../h/kObjectAllocator.hpp ****                 memorySizeForBits + initialNumberOfObjects * objectSize
 4334              		.loc 1 58 9 is_stmt 1
  58:src/../h/kObjectAllocator.hpp ****                 memorySizeForBits + initialNumberOfObjects * objectSize
 4335              		.loc 1 58 73 is_stmt 0
 4336 1e58 97000000 		call	_ZN15MemoryAllocator8instanceEv@plt
 4336      E7800000 
 4337              	.LVL597:
 4338 1e60 6F00C000 		j	.L370
 4339              	.L358:
  54:src/../h/kObjectAllocator.hpp ****         // one bit for each object which indicates whether memory
 4340              		.loc 1 54 80
 4341 1e64 13070000 		li	a4,0
 4342 1e68 6FF0DFFD 		j	.L289
 4343              	.L370:
  59:src/../h/kObjectAllocator.hpp ****         );
 4344              		.loc 1 59 17
 4345 1e6c 83B50401 		ld	a1,16(s1)
  59:src/../h/kObjectAllocator.hpp ****         );
 4346              		.loc 1 59 37
 4347 1e70 83B70400 		ld	a5,0(s1)
  58:src/../h/kObjectAllocator.hpp ****                 memorySizeForBits + initialNumberOfObjects * objectSize
 4348              		.loc 1 58 9
 4349 1e74 03B98402 		ld	s2,40(s1)
  58:src/../h/kObjectAllocator.hpp ****                 memorySizeForBits + initialNumberOfObjects * objectSize
 4350              		.loc 1 58 73
 4351 1e78 B385F500 		add	a1,a1,a5
 4352 1e7c 97000000 		call	_ZN15MemoryAllocator10kmem_allocEm@plt
 4352      E7800000 
 4353              	.LVL598:
 4354              	.LEHE13:
  58:src/../h/kObjectAllocator.hpp ****                 memorySizeForBits + initialNumberOfObjects * objectSize
 4355              		.loc 1 58 23
 4356 1e84 2330A900 		sd	a0,0(s2)
  61:src/../h/kObjectAllocator.hpp ****         for (size_t i = 0; i < memorySizeForBits; bitVectors[0][i++] = 0);
 4357              		.loc 1 61 9 is_stmt 1
  61:src/../h/kObjectAllocator.hpp ****         for (size_t i = 0; i < memorySizeForBits; bitVectors[0][i++] = 0);
 4358              		.loc 1 61 28 is_stmt 0
 4359 1e88 83B78402 		ld	a5,40(s1)
GAS LISTING /tmp/cciR7THS.s 			page 108


  61:src/../h/kObjectAllocator.hpp ****         for (size_t i = 0; i < memorySizeForBits; bitVectors[0][i++] = 0);
 4360              		.loc 1 61 40
 4361 1e8c 83B70700 		ld	a5,0(a5)
  61:src/../h/kObjectAllocator.hpp ****         for (size_t i = 0; i < memorySizeForBits; bitVectors[0][i++] = 0);
 4362              		.loc 1 61 44
 4363 1e90 83B60401 		ld	a3,16(s1)
  61:src/../h/kObjectAllocator.hpp ****         for (size_t i = 0; i < memorySizeForBits; bitVectors[0][i++] = 0);
 4364              		.loc 1 61 9
 4365 1e94 03B70402 		ld	a4,32(s1)
  61:src/../h/kObjectAllocator.hpp ****         for (size_t i = 0; i < memorySizeForBits; bitVectors[0][i++] = 0);
 4366              		.loc 1 61 42
 4367 1e98 B387D700 		add	a5,a5,a3
  61:src/../h/kObjectAllocator.hpp ****         for (size_t i = 0; i < memorySizeForBits; bitVectors[0][i++] = 0);
 4368              		.loc 1 61 26
 4369 1e9c 2330F700 		sd	a5,0(a4)
  62:src/../h/kObjectAllocator.hpp ****     }
 4370              		.loc 1 62 9 is_stmt 1
 4371              	.LVL599:
 4372              	.LBB385:
  62:src/../h/kObjectAllocator.hpp ****     }
 4373              		.loc 1 62 21 is_stmt 0
 4374 1ea0 93070000 		li	a5,0
 4375              	.LVL600:
 4376              	.L291:
  62:src/../h/kObjectAllocator.hpp ****     }
 4377              		.loc 1 62 30 is_stmt 1
  62:src/../h/kObjectAllocator.hpp ****     }
 4378              		.loc 1 62 32 is_stmt 0
 4379 1ea4 03B70401 		ld	a4,16(s1)
  62:src/../h/kObjectAllocator.hpp ****     }
 4380              		.loc 1 62 30
 4381 1ea8 63FEE700 		bleu	a4,a5,.L290
  62:src/../h/kObjectAllocator.hpp ****     }
 4382              		.loc 1 62 9 is_stmt 1
  62:src/../h/kObjectAllocator.hpp ****     }
 4383              		.loc 1 62 51 is_stmt 0
 4384 1eac 03B78402 		ld	a4,40(s1)
  62:src/../h/kObjectAllocator.hpp ****     }
 4385              		.loc 1 62 63
 4386 1eb0 03370700 		ld	a4,0(a4)
 4387              	.LVL601:
  62:src/../h/kObjectAllocator.hpp ****     }
 4388              		.loc 1 62 68
 4389 1eb4 3307F700 		add	a4,a4,a5
  62:src/../h/kObjectAllocator.hpp ****     }
 4390              		.loc 1 62 70
 4391 1eb8 23000700 		sb	zero,0(a4)
  62:src/../h/kObjectAllocator.hpp ****     }
 4392              		.loc 1 62 66
 4393 1ebc 93871700 		addi	a5,a5,1
 4394              	.LVL602:
  62:src/../h/kObjectAllocator.hpp ****     }
 4395              		.loc 1 62 9
 4396 1ec0 6FF05FFE 		j	.L291
 4397              	.L290:
 4398              	.LVL603:
 4399              	.LBE385:
GAS LISTING /tmp/cciR7THS.s 			page 109


 4400              	.LBE384:
 4401              	.LBE383:
 4402              	.LBE382:
 220:src/kObjectAllocatorTest.cpp ****     if (objAlloc->getNumberOfObjects() != 8) { delete objAlloc; return false; }
 4403              		.loc 2 220 5 is_stmt 1 discriminator 3
 4404              	.LBB386:
 4405              	.LBB387:
  77:src/../h/kObjectAllocator.hpp ****     size_t getMemorySizeForBits() { return memorySizeForBits; }
 4406              		.loc 1 77 35 discriminator 3
  77:src/../h/kObjectAllocator.hpp ****     size_t getMemorySizeForBits() { return memorySizeForBits; }
 4407              		.loc 1 77 42 is_stmt 0 discriminator 3
 4408 1ec4 03B78400 		ld	a4,8(s1)
 4409              	.LVL604:
 4410              	.LBE387:
 4411              	.LBE386:
 4412              		.loc 2 220 5 discriminator 3
 4413 1ec8 93078000 		li	a5,8
 4414 1ecc 6302F70A 		beq	a4,a5,.L292
 4415              		.loc 2 220 48 is_stmt 1 discriminator 1
 4416              		.loc 2 220 63 is_stmt 0 discriminator 1
 4417 1ed0 638A0406 		beqz	s1,.L293
 4418              	.LBB388:
 4419              	.LBB389:
 4420              	.LBB390:
  68:src/../h/kObjectAllocator.hpp ****             MemoryAllocator::instance()->kmem_free(((KObjectAllocator*) p)->bitVectors[i]);
 4421              		.loc 1 68 21
 4422 1ed4 13090000 		li	s2,0
 4423              	.L295:
 4424              	.LVL605:
  68:src/../h/kObjectAllocator.hpp ****             MemoryAllocator::instance()->kmem_free(((KObjectAllocator*) p)->bitVectors[i]);
 4425              		.loc 1 68 30 is_stmt 1
  68:src/../h/kObjectAllocator.hpp ****             MemoryAllocator::instance()->kmem_free(((KObjectAllocator*) p)->bitVectors[i]);
 4426              		.loc 1 68 57 is_stmt 0
 4427 1ed8 83B70403 		ld	a5,48(s1)
  68:src/../h/kObjectAllocator.hpp ****             MemoryAllocator::instance()->kmem_free(((KObjectAllocator*) p)->bitVectors[i]);
 4428              		.loc 1 68 30
 4429 1edc 6376F902 		bleu	a5,s2,.L294
  69:src/../h/kObjectAllocator.hpp ****         MemoryAllocator::instance()->kmem_free(((KObjectAllocator*) p)->bitVectors);
 4430              		.loc 1 69 13 is_stmt 1
 4431              	.LEHB14:
  69:src/../h/kObjectAllocator.hpp ****         MemoryAllocator::instance()->kmem_free(((KObjectAllocator*) p)->bitVectors);
 4432              		.loc 1 69 51 is_stmt 0
 4433 1ee0 97000000 		call	_ZN15MemoryAllocator8instanceEv@plt
 4433      E7800000 
 4434              	.LVL606:
  69:src/../h/kObjectAllocator.hpp ****         MemoryAllocator::instance()->kmem_free(((KObjectAllocator*) p)->bitVectors);
 4435              		.loc 1 69 77
 4436 1ee8 83B78402 		ld	a5,40(s1)
  69:src/../h/kObjectAllocator.hpp ****         MemoryAllocator::instance()->kmem_free(((KObjectAllocator*) p)->bitVectors);
 4437              		.loc 1 69 89
 4438 1eec 13173900 		slli	a4,s2,3
 4439 1ef0 B387E700 		add	a5,a5,a4
  69:src/../h/kObjectAllocator.hpp ****         MemoryAllocator::instance()->kmem_free(((KObjectAllocator*) p)->bitVectors);
 4440              		.loc 1 69 51
 4441 1ef4 83B50700 		ld	a1,0(a5)
 4442 1ef8 97000000 		call	_ZN15MemoryAllocator9kmem_freeEPv@plt
 4442      E7800000 
GAS LISTING /tmp/cciR7THS.s 			page 110


 4443              	.LVL607:
  68:src/../h/kObjectAllocator.hpp ****             MemoryAllocator::instance()->kmem_free(((KObjectAllocator*) p)->bitVectors[i]);
 4444              		.loc 1 68 9 is_stmt 1
 4445 1f00 13091900 		addi	s2,s2,1
 4446              	.LVL608:
 4447 1f04 6FF05FFD 		j	.L295
 4448              	.L294:
 4449              	.LBE390:
  70:src/../h/kObjectAllocator.hpp ****         MemoryAllocator::instance()->kmem_free(((KObjectAllocator*) p)->objectVectors);
 4450              		.loc 1 70 9
  70:src/../h/kObjectAllocator.hpp ****         MemoryAllocator::instance()->kmem_free(((KObjectAllocator*) p)->objectVectors);
 4451              		.loc 1 70 47 is_stmt 0
 4452 1f08 97000000 		call	_ZN15MemoryAllocator8instanceEv@plt
 4452      E7800000 
 4453              	.LVL609:
 4454 1f10 83B58402 		ld	a1,40(s1)
 4455 1f14 97000000 		call	_ZN15MemoryAllocator9kmem_freeEPv@plt
 4455      E7800000 
 4456              	.LVL610:
  71:src/../h/kObjectAllocator.hpp ****         MemoryAllocator::instance()->kmem_free(p);
 4457              		.loc 1 71 9 is_stmt 1
  71:src/../h/kObjectAllocator.hpp ****         MemoryAllocator::instance()->kmem_free(p);
 4458              		.loc 1 71 47 is_stmt 0
 4459 1f1c 97000000 		call	_ZN15MemoryAllocator8instanceEv@plt
 4459      E7800000 
 4460              	.LVL611:
 4461 1f24 83B50402 		ld	a1,32(s1)
 4462 1f28 97000000 		call	_ZN15MemoryAllocator9kmem_freeEPv@plt
 4462      E7800000 
 4463              	.LVL612:
  72:src/../h/kObjectAllocator.hpp ****     }
 4464              		.loc 1 72 9 is_stmt 1
  72:src/../h/kObjectAllocator.hpp ****     }
 4465              		.loc 1 72 47 is_stmt 0
 4466 1f30 97000000 		call	_ZN15MemoryAllocator8instanceEv@plt
 4466      E7800000 
 4467              	.LVL613:
 4468 1f38 93850400 		mv	a1,s1
 4469 1f3c 97000000 		call	_ZN15MemoryAllocator9kmem_freeEPv@plt
 4469      E7800000 
 4470              	.LVL614:
 4471              	.L293:
 4472              	.LBE389:
 4473              	.LBE388:
 4474              		.loc 2 220 65 is_stmt 1 discriminator 3
 4475              		.loc 2 220 72 is_stmt 0 discriminator 3
 4476 1f44 13050000 		li	a0,0
 4477              	.L363:
 221:src/kObjectAllocatorTest.cpp ****     if (objAlloc->getMemorySizeForBits() != 1) { delete objAlloc; return false; }
 222:src/kObjectAllocatorTest.cpp ****     if (objAlloc->getObjectSize() != size) { delete objAlloc; return false; }
 223:src/kObjectAllocatorTest.cpp ****     void* objArr[256]; for (size_t i = 0; i < 32; objArr[i++] = objAlloc->allocateNewObject());
 224:src/kObjectAllocatorTest.cpp ****     if (getByteOfObject(objArr[31], objAlloc) != 3
 225:src/kObjectAllocatorTest.cpp ****         || getBitOfObject(objArr[31], objAlloc) != 0)
 226:src/kObjectAllocatorTest.cpp ****     { delete objAlloc; return false; }
 227:src/kObjectAllocatorTest.cpp **** 
 228:src/kObjectAllocatorTest.cpp **** 
 229:src/kObjectAllocatorTest.cpp ****     if (objAlloc->nextNonTakenByte != 4) { delete objAlloc; return false; }
GAS LISTING /tmp/cciR7THS.s 			page 111


 230:src/kObjectAllocatorTest.cpp ****     for (size_t i = 32; i < 256; objArr[i++] = objAlloc->allocateNewObject());
 231:src/kObjectAllocatorTest.cpp ****     if (objAlloc->nextNonTakenByte != 32) { delete objAlloc; return false; }
 232:src/kObjectAllocatorTest.cpp **** 
 233:src/kObjectAllocatorTest.cpp **** 
 234:src/kObjectAllocatorTest.cpp **** 
 235:src/kObjectAllocatorTest.cpp ****     objAlloc->freeObject(objArr[7 * 8]);
 236:src/kObjectAllocatorTest.cpp ****     objArr[7 * 8] = objAlloc->allocateNewObject();
 237:src/kObjectAllocatorTest.cpp ****     if (getByteOfObject(objArr[7 * 8], objAlloc) != 7
 238:src/kObjectAllocatorTest.cpp ****         || getBitOfObject(objArr[7 * 8], objAlloc) != 7)
 239:src/kObjectAllocatorTest.cpp ****     { delete objAlloc; return false; }
 240:src/kObjectAllocatorTest.cpp ****     if (objAlloc->nextNonTakenByte != 7) { delete objAlloc; return false; }
 241:src/kObjectAllocatorTest.cpp **** 
 242:src/kObjectAllocatorTest.cpp ****     objAlloc->freeObject(objArr[6 * 8 + 3]);
 243:src/kObjectAllocatorTest.cpp ****     objAlloc->freeObject(objArr[7 * 8 + 4]);
 244:src/kObjectAllocatorTest.cpp ****     objAlloc->freeObject(objArr[31 * 8 + 5]);
 245:src/kObjectAllocatorTest.cpp **** 
 246:src/kObjectAllocatorTest.cpp ****     objArr[7 * 8 + 4] = objAlloc->allocateNewObject();
 247:src/kObjectAllocatorTest.cpp ****     if (getByteOfObject(objArr[7 * 8 + 4], objAlloc) != 7
 248:src/kObjectAllocatorTest.cpp ****         || getBitOfObject(objArr[7 * 8 + 4], objAlloc) != 3)
 249:src/kObjectAllocatorTest.cpp ****     { delete objAlloc; return false; }
 250:src/kObjectAllocatorTest.cpp ****     if (objAlloc->nextNonTakenByte != 7) { delete objAlloc; return false; }
 251:src/kObjectAllocatorTest.cpp ****     objAlloc->freeObject(objArr[3 * 8 + 5]);
 252:src/kObjectAllocatorTest.cpp **** 
 253:src/kObjectAllocatorTest.cpp ****     objArr[31 * 8 + 5] = objAlloc->allocateNewObject();
 254:src/kObjectAllocatorTest.cpp ****     if (getByteOfObject(objArr[31 * 8 + 5], objAlloc) != 31
 255:src/kObjectAllocatorTest.cpp ****         || getBitOfObject(objArr[31 * 8 + 5], objAlloc) != 2)
 256:src/kObjectAllocatorTest.cpp ****     { delete objAlloc; return false; }
 257:src/kObjectAllocatorTest.cpp ****     if (objAlloc->nextNonTakenByte != 31) { delete objAlloc; return false; }
 258:src/kObjectAllocatorTest.cpp **** 
 259:src/kObjectAllocatorTest.cpp ****     objArr[3 * 8 + 5] = objAlloc->allocateNewObject();
 260:src/kObjectAllocatorTest.cpp ****     if (getByteOfObject(objArr[3 * 8 + 5], objAlloc) != 3 || getBitOfObject(objArr[3 * 8 + 5], objA
 261:src/kObjectAllocatorTest.cpp ****         if (objAlloc->nextNonTakenByte != 3) { delete objAlloc; return false; }
 262:src/kObjectAllocatorTest.cpp **** 
 263:src/kObjectAllocatorTest.cpp ****     objArr[6 * 8 + 3] = objAlloc->allocateNewObject();
 264:src/kObjectAllocatorTest.cpp ****     if (getByteOfObject(objArr[6 * 8 + 3], objAlloc) != 6
 265:src/kObjectAllocatorTest.cpp ****         || getBitOfObject(objArr[6 * 8 + 3], objAlloc) != 4)
 266:src/kObjectAllocatorTest.cpp ****     { delete objAlloc; return false; }
 267:src/kObjectAllocatorTest.cpp ****     if (objAlloc->nextNonTakenByte != 6) { delete objAlloc; return false; }
 268:src/kObjectAllocatorTest.cpp **** 
 269:src/kObjectAllocatorTest.cpp ****     for (int i = 0; i < 3; ++i) {
 270:src/kObjectAllocatorTest.cpp ****         objAlloc->freeObject(objArr[255]);
 271:src/kObjectAllocatorTest.cpp ****         objArr[255] = objAlloc->allocateNewObject();
 272:src/kObjectAllocatorTest.cpp ****         if (getByteOfObject(objArr[255], objAlloc) != 31
 273:src/kObjectAllocatorTest.cpp ****             || getBitOfObject(objArr[255], objAlloc) != 0)
 274:src/kObjectAllocatorTest.cpp ****         { delete objAlloc; return false; }
 275:src/kObjectAllocatorTest.cpp ****         if (objAlloc->nextNonTakenByte != 32) { delete objAlloc; return false; }
 276:src/kObjectAllocatorTest.cpp **** 
 277:src/kObjectAllocatorTest.cpp ****         objAlloc->freeObject(objArr[1]);
 278:src/kObjectAllocatorTest.cpp ****         objArr[1] = objAlloc->allocateNewObject();
 279:src/kObjectAllocatorTest.cpp ****         if (getByteOfObject(objArr[1], objAlloc) != 0
 280:src/kObjectAllocatorTest.cpp ****             || getBitOfObject(objArr[1], objAlloc) != 6)
 281:src/kObjectAllocatorTest.cpp ****         { delete objAlloc; return false; }
 282:src/kObjectAllocatorTest.cpp ****         if (objAlloc->nextNonTakenByte != 0) { delete objAlloc; return false; }
 283:src/kObjectAllocatorTest.cpp ****     }
 284:src/kObjectAllocatorTest.cpp ****     delete objAlloc;
 285:src/kObjectAllocatorTest.cpp ****     return true;
 286:src/kObjectAllocatorTest.cpp **** }...
GAS LISTING /tmp/cciR7THS.s 			page 112


 4478              		.loc 2 286 1
 4479 1f48 13010105 		addi	sp,sp,80
 4480              		.cfi_remember_state
 4481              		.cfi_def_cfa 2, 2032
 4482 1f4c 8330817E 		ld	ra,2024(sp)
 4483              		.cfi_restore 1
 4484 1f50 0334017E 		ld	s0,2016(sp)
 4485              		.cfi_restore 8
 4486 1f54 8334817D 		ld	s1,2008(sp)
 4487              		.cfi_restore 9
 4488              	.LVL615:
 4489 1f58 0339017D 		ld	s2,2000(sp)
 4490              		.cfi_restore 18
 4491 1f5c 8339817C 		ld	s3,1992(sp)
 4492              		.cfi_restore 19
 4493              	.LVL616:
 4494 1f60 033A017C 		ld	s4,1984(sp)
 4495              		.cfi_restore 20
 4496 1f64 833A817B 		ld	s5,1976(sp)
 4497              		.cfi_restore 21
 4498 1f68 1301017F 		addi	sp,sp,2032
 4499              		.cfi_def_cfa_offset 0
 4500 1f6c 67800000 		jr	ra
 4501              	.LVL617:
 4502              	.L292:
 4503              		.cfi_restore_state
 221:src/kObjectAllocatorTest.cpp ****     if (objAlloc->getMemorySizeForBits() != 1) { delete objAlloc; return false; }
 4504              		.loc 2 221 5 is_stmt 1
 4505              	.LBB391:
 4506              	.LBB392:
 4507              		.loc 1 78 37
 4508              		.loc 1 78 44 is_stmt 0
 4509 1f70 03B70401 		ld	a4,16(s1)
 4510              	.LVL618:
 4511              	.LBE392:
 4512              	.LBE391:
 221:src/kObjectAllocatorTest.cpp ****     if (objAlloc->getMemorySizeForBits() != 1) { delete objAlloc; return false; }
 4513              		.loc 2 221 5
 4514 1f74 93071000 		li	a5,1
 4515 1f78 6300F708 		beq	a4,a5,.L297
 221:src/kObjectAllocatorTest.cpp ****     if (objAlloc->getMemorySizeForBits() != 1) { delete objAlloc; return false; }
 4516              		.loc 2 221 50 is_stmt 1 discriminator 1
 221:src/kObjectAllocatorTest.cpp ****     if (objAlloc->getMemorySizeForBits() != 1) { delete objAlloc; return false; }
 4517              		.loc 2 221 65 is_stmt 0 discriminator 1
 4518 1f7c 638A0406 		beqz	s1,.L298
 4519              	.LBB393:
 4520              	.LBB394:
 4521              	.LBB395:
  68:src/../h/kObjectAllocator.hpp ****             MemoryAllocator::instance()->kmem_free(((KObjectAllocator*) p)->bitVectors[i]);
 4522              		.loc 1 68 21
 4523 1f80 13090000 		li	s2,0
 4524              	.L300:
 4525              	.LVL619:
  68:src/../h/kObjectAllocator.hpp ****             MemoryAllocator::instance()->kmem_free(((KObjectAllocator*) p)->bitVectors[i]);
 4526              		.loc 1 68 30 is_stmt 1
  68:src/../h/kObjectAllocator.hpp ****             MemoryAllocator::instance()->kmem_free(((KObjectAllocator*) p)->bitVectors[i]);
 4527              		.loc 1 68 57 is_stmt 0
GAS LISTING /tmp/cciR7THS.s 			page 113


 4528 1f84 83B70403 		ld	a5,48(s1)
  68:src/../h/kObjectAllocator.hpp ****             MemoryAllocator::instance()->kmem_free(((KObjectAllocator*) p)->bitVectors[i]);
 4529              		.loc 1 68 30
 4530 1f88 6376F902 		bleu	a5,s2,.L299
  69:src/../h/kObjectAllocator.hpp ****         MemoryAllocator::instance()->kmem_free(((KObjectAllocator*) p)->bitVectors);
 4531              		.loc 1 69 13 is_stmt 1
  69:src/../h/kObjectAllocator.hpp ****         MemoryAllocator::instance()->kmem_free(((KObjectAllocator*) p)->bitVectors);
 4532              		.loc 1 69 51 is_stmt 0
 4533 1f8c 97000000 		call	_ZN15MemoryAllocator8instanceEv@plt
 4533      E7800000 
 4534              	.LVL620:
  69:src/../h/kObjectAllocator.hpp ****         MemoryAllocator::instance()->kmem_free(((KObjectAllocator*) p)->bitVectors);
 4535              		.loc 1 69 77
 4536 1f94 83B78402 		ld	a5,40(s1)
  69:src/../h/kObjectAllocator.hpp ****         MemoryAllocator::instance()->kmem_free(((KObjectAllocator*) p)->bitVectors);
 4537              		.loc 1 69 89
 4538 1f98 13173900 		slli	a4,s2,3
 4539 1f9c B387E700 		add	a5,a5,a4
  69:src/../h/kObjectAllocator.hpp ****         MemoryAllocator::instance()->kmem_free(((KObjectAllocator*) p)->bitVectors);
 4540              		.loc 1 69 51
 4541 1fa0 83B50700 		ld	a1,0(a5)
 4542 1fa4 97000000 		call	_ZN15MemoryAllocator9kmem_freeEPv@plt
 4542      E7800000 
 4543              	.LVL621:
  68:src/../h/kObjectAllocator.hpp ****             MemoryAllocator::instance()->kmem_free(((KObjectAllocator*) p)->bitVectors[i]);
 4544              		.loc 1 68 9 is_stmt 1
 4545 1fac 13091900 		addi	s2,s2,1
 4546              	.LVL622:
 4547 1fb0 6FF05FFD 		j	.L300
 4548              	.L299:
 4549              	.LBE395:
  70:src/../h/kObjectAllocator.hpp ****         MemoryAllocator::instance()->kmem_free(((KObjectAllocator*) p)->objectVectors);
 4550              		.loc 1 70 9
  70:src/../h/kObjectAllocator.hpp ****         MemoryAllocator::instance()->kmem_free(((KObjectAllocator*) p)->objectVectors);
 4551              		.loc 1 70 47 is_stmt 0
 4552 1fb4 97000000 		call	_ZN15MemoryAllocator8instanceEv@plt
 4552      E7800000 
 4553              	.LVL623:
 4554 1fbc 83B58402 		ld	a1,40(s1)
 4555 1fc0 97000000 		call	_ZN15MemoryAllocator9kmem_freeEPv@plt
 4555      E7800000 
 4556              	.LVL624:
  71:src/../h/kObjectAllocator.hpp ****         MemoryAllocator::instance()->kmem_free(p);
 4557              		.loc 1 71 9 is_stmt 1
  71:src/../h/kObjectAllocator.hpp ****         MemoryAllocator::instance()->kmem_free(p);
 4558              		.loc 1 71 47 is_stmt 0
 4559 1fc8 97000000 		call	_ZN15MemoryAllocator8instanceEv@plt
 4559      E7800000 
 4560              	.LVL625:
 4561 1fd0 83B50402 		ld	a1,32(s1)
 4562 1fd4 97000000 		call	_ZN15MemoryAllocator9kmem_freeEPv@plt
 4562      E7800000 
 4563              	.LVL626:
  72:src/../h/kObjectAllocator.hpp ****     }
 4564              		.loc 1 72 9 is_stmt 1
  72:src/../h/kObjectAllocator.hpp ****     }
 4565              		.loc 1 72 47 is_stmt 0
GAS LISTING /tmp/cciR7THS.s 			page 114


 4566 1fdc 97000000 		call	_ZN15MemoryAllocator8instanceEv@plt
 4566      E7800000 
 4567              	.LVL627:
 4568 1fe4 93850400 		mv	a1,s1
 4569 1fe8 97000000 		call	_ZN15MemoryAllocator9kmem_freeEPv@plt
 4569      E7800000 
 4570              	.LVL628:
 4571              	.L298:
 4572              	.LBE394:
 4573              	.LBE393:
 221:src/kObjectAllocatorTest.cpp ****     if (objAlloc->getMemorySizeForBits() != 1) { delete objAlloc; return false; }
 4574              		.loc 2 221 67 is_stmt 1 discriminator 3
 221:src/kObjectAllocatorTest.cpp ****     if (objAlloc->getMemorySizeForBits() != 1) { delete objAlloc; return false; }
 4575              		.loc 2 221 74 is_stmt 0 discriminator 3
 4576 1ff0 13050000 		li	a0,0
 4577 1ff4 6FF05FF5 		j	.L363
 4578              	.L297:
 222:src/kObjectAllocatorTest.cpp ****     if (objAlloc->getObjectSize() != size) { delete objAlloc; return false; }
 4579              		.loc 2 222 5 is_stmt 1
 4580              	.LVL629:
 4581              	.LBB396:
 4582              	.LBB397:
  75:src/../h/kObjectAllocator.hpp ****     size_t getInitialNumberOfObjects() { return initialNumberOfObjects; }
 4583              		.loc 1 75 30
  75:src/../h/kObjectAllocator.hpp ****     size_t getInitialNumberOfObjects() { return initialNumberOfObjects; }
 4584              		.loc 1 75 37 is_stmt 0
 4585 1ff8 03B78401 		ld	a4,24(s1)
 4586              	.LVL630:
 4587              	.LBE397:
 4588              	.LBE396:
 222:src/kObjectAllocatorTest.cpp ****     if (objAlloc->getObjectSize() != size) { delete objAlloc; return false; }
 4589              		.loc 2 222 5
 4590 1ffc 93071000 		li	a5,1
 4591 2000 6300F708 		beq	a4,a5,.L359
 222:src/kObjectAllocatorTest.cpp ****     if (objAlloc->getObjectSize() != size) { delete objAlloc; return false; }
 4592              		.loc 2 222 46 is_stmt 1 discriminator 1
 222:src/kObjectAllocatorTest.cpp ****     if (objAlloc->getObjectSize() != size) { delete objAlloc; return false; }
 4593              		.loc 2 222 61 is_stmt 0 discriminator 1
 4594 2004 638A0406 		beqz	s1,.L302
 4595              	.LBB398:
 4596              	.LBB399:
 4597              	.LBB400:
  68:src/../h/kObjectAllocator.hpp ****             MemoryAllocator::instance()->kmem_free(((KObjectAllocator*) p)->bitVectors[i]);
 4598              		.loc 1 68 21
 4599 2008 13090000 		li	s2,0
 4600              	.L304:
 4601              	.LVL631:
  68:src/../h/kObjectAllocator.hpp ****             MemoryAllocator::instance()->kmem_free(((KObjectAllocator*) p)->bitVectors[i]);
 4602              		.loc 1 68 30 is_stmt 1
  68:src/../h/kObjectAllocator.hpp ****             MemoryAllocator::instance()->kmem_free(((KObjectAllocator*) p)->bitVectors[i]);
 4603              		.loc 1 68 57 is_stmt 0
 4604 200c 83B70403 		ld	a5,48(s1)
  68:src/../h/kObjectAllocator.hpp ****             MemoryAllocator::instance()->kmem_free(((KObjectAllocator*) p)->bitVectors[i]);
 4605              		.loc 1 68 30
 4606 2010 6376F902 		bleu	a5,s2,.L303
  69:src/../h/kObjectAllocator.hpp ****         MemoryAllocator::instance()->kmem_free(((KObjectAllocator*) p)->bitVectors);
 4607              		.loc 1 69 13 is_stmt 1
GAS LISTING /tmp/cciR7THS.s 			page 115


  69:src/../h/kObjectAllocator.hpp ****         MemoryAllocator::instance()->kmem_free(((KObjectAllocator*) p)->bitVectors);
 4608              		.loc 1 69 51 is_stmt 0
 4609 2014 97000000 		call	_ZN15MemoryAllocator8instanceEv@plt
 4609      E7800000 
 4610              	.LVL632:
  69:src/../h/kObjectAllocator.hpp ****         MemoryAllocator::instance()->kmem_free(((KObjectAllocator*) p)->bitVectors);
 4611              		.loc 1 69 77
 4612 201c 83B78402 		ld	a5,40(s1)
  69:src/../h/kObjectAllocator.hpp ****         MemoryAllocator::instance()->kmem_free(((KObjectAllocator*) p)->bitVectors);
 4613              		.loc 1 69 89
 4614 2020 13173900 		slli	a4,s2,3
 4615 2024 B387E700 		add	a5,a5,a4
  69:src/../h/kObjectAllocator.hpp ****         MemoryAllocator::instance()->kmem_free(((KObjectAllocator*) p)->bitVectors);
 4616              		.loc 1 69 51
 4617 2028 83B50700 		ld	a1,0(a5)
 4618 202c 97000000 		call	_ZN15MemoryAllocator9kmem_freeEPv@plt
 4618      E7800000 
 4619              	.LVL633:
  68:src/../h/kObjectAllocator.hpp ****             MemoryAllocator::instance()->kmem_free(((KObjectAllocator*) p)->bitVectors[i]);
 4620              		.loc 1 68 9 is_stmt 1
 4621 2034 13091900 		addi	s2,s2,1
 4622              	.LVL634:
 4623 2038 6FF05FFD 		j	.L304
 4624              	.L303:
 4625              	.LBE400:
  70:src/../h/kObjectAllocator.hpp ****         MemoryAllocator::instance()->kmem_free(((KObjectAllocator*) p)->objectVectors);
 4626              		.loc 1 70 9
  70:src/../h/kObjectAllocator.hpp ****         MemoryAllocator::instance()->kmem_free(((KObjectAllocator*) p)->objectVectors);
 4627              		.loc 1 70 47 is_stmt 0
 4628 203c 97000000 		call	_ZN15MemoryAllocator8instanceEv@plt
 4628      E7800000 
 4629              	.LVL635:
 4630 2044 83B58402 		ld	a1,40(s1)
 4631 2048 97000000 		call	_ZN15MemoryAllocator9kmem_freeEPv@plt
 4631      E7800000 
 4632              	.LVL636:
  71:src/../h/kObjectAllocator.hpp ****         MemoryAllocator::instance()->kmem_free(p);
 4633              		.loc 1 71 9 is_stmt 1
  71:src/../h/kObjectAllocator.hpp ****         MemoryAllocator::instance()->kmem_free(p);
 4634              		.loc 1 71 47 is_stmt 0
 4635 2050 97000000 		call	_ZN15MemoryAllocator8instanceEv@plt
 4635      E7800000 
 4636              	.LVL637:
 4637 2058 83B50402 		ld	a1,32(s1)
 4638 205c 97000000 		call	_ZN15MemoryAllocator9kmem_freeEPv@plt
 4638      E7800000 
 4639              	.LVL638:
  72:src/../h/kObjectAllocator.hpp ****     }
 4640              		.loc 1 72 9 is_stmt 1
  72:src/../h/kObjectAllocator.hpp ****     }
 4641              		.loc 1 72 47 is_stmt 0
 4642 2064 97000000 		call	_ZN15MemoryAllocator8instanceEv@plt
 4642      E7800000 
 4643              	.LVL639:
 4644 206c 93850400 		mv	a1,s1
 4645 2070 97000000 		call	_ZN15MemoryAllocator9kmem_freeEPv@plt
 4645      E7800000 
GAS LISTING /tmp/cciR7THS.s 			page 116


 4646              	.LVL640:
 4647              	.L302:
 4648              	.LBE399:
 4649              	.LBE398:
 222:src/kObjectAllocatorTest.cpp ****     if (objAlloc->getObjectSize() != size) { delete objAlloc; return false; }
 4650              		.loc 2 222 63 is_stmt 1 discriminator 3
 222:src/kObjectAllocatorTest.cpp ****     if (objAlloc->getObjectSize() != size) { delete objAlloc; return false; }
 4651              		.loc 2 222 70 is_stmt 0 discriminator 3
 4652 2078 13050000 		li	a0,0
 4653 207c 6FF0DFEC 		j	.L363
 4654              	.L359:
 4655              	.LBB401:
 223:src/kObjectAllocatorTest.cpp ****     void* objArr[256]; for (size_t i = 0; i < 32; objArr[i++] = objAlloc->allocateNewObject());
 4656              		.loc 2 223 36
 4657 2080 13090000 		li	s2,0
 4658              	.L301:
 4659              	.LVL641:
 223:src/kObjectAllocatorTest.cpp ****     void* objArr[256]; for (size_t i = 0; i < 32; objArr[i++] = objAlloc->allocateNewObject());
 4660              		.loc 2 223 45 is_stmt 1 discriminator 4
 4661 2084 9307F001 		li	a5,31
 4662 2088 63E62703 		bgtu	s2,a5,.L305
 223:src/kObjectAllocatorTest.cpp ****     void* objArr[256]; for (size_t i = 0; i < 32; objArr[i++] = objAlloc->allocateNewObject());
 4663              		.loc 2 223 24 discriminator 2
 223:src/kObjectAllocatorTest.cpp ****     void* objArr[256]; for (size_t i = 0; i < 32; objArr[i++] = objAlloc->allocateNewObject());
 4664              		.loc 2 223 59 is_stmt 0 discriminator 2
 4665 208c 130A1900 		addi	s4,s2,1
 4666              	.LVL642:
 223:src/kObjectAllocatorTest.cpp ****     void* objArr[256]; for (size_t i = 0; i < 32; objArr[i++] = objAlloc->allocateNewObject());
 4667              		.loc 2 223 92 discriminator 2
 4668 2090 13850400 		mv	a0,s1
 4669 2094 97000000 		call	_ZN16KObjectAllocator17allocateNewObjectEv@plt
 4669      E7800000 
 4670              	.LVL643:
 223:src/kObjectAllocatorTest.cpp ****     void* objArr[256]; for (size_t i = 0; i < 32; objArr[i++] = objAlloc->allocateNewObject());
 4671              		.loc 2 223 63 discriminator 2
 4672 209c 13193900 		slli	s2,s2,3
 4673 20a0 930704FC 		addi	a5,s0,-64
 4674 20a4 33892701 		add	s2,a5,s2
 4675 20a8 2330A980 		sd	a0,-2048(s2)
 223:src/kObjectAllocatorTest.cpp ****     void* objArr[256]; for (size_t i = 0; i < 32; objArr[i++] = objAlloc->allocateNewObject());
 4676              		.loc 2 223 59 discriminator 2
 4677 20ac 13090A00 		mv	s2,s4
 223:src/kObjectAllocatorTest.cpp ****     void* objArr[256]; for (size_t i = 0; i < 32; objArr[i++] = objAlloc->allocateNewObject());
 4678              		.loc 2 223 24 discriminator 2
 4679 20b0 6FF05FFD 		j	.L301
 4680              	.LVL644:
 4681              	.L305:
 4682              	.LBE401:
 224:src/kObjectAllocatorTest.cpp ****     if (getByteOfObject(objArr[31], objAlloc) != 3
 4683              		.loc 2 224 5 is_stmt 1
 224:src/kObjectAllocatorTest.cpp ****     if (getByteOfObject(objArr[31], objAlloc) != 3
 4684              		.loc 2 224 24 is_stmt 0
 4685 20b4 0339848B 		ld	s2,-1864(s0)
 4686              	.LVL645:
 4687 20b8 13860400 		mv	a2,s1
 4688 20bc 93050900 		mv	a1,s2
 4689 20c0 13850900 		mv	a0,s3
GAS LISTING /tmp/cciR7THS.s 			page 117


 4690 20c4 97000000 		call	_ZN20KObjectAllocatorTest15getByteOfObjectEPvP16KObjectAllocator
 4690      E7800000 
 4691              	.LVL646:
 225:src/kObjectAllocatorTest.cpp ****         || getBitOfObject(objArr[31], objAlloc) != 0)
 4692              		.loc 2 225 9
 4693 20cc 93073000 		li	a5,3
 4694 20d0 630EF502 		beq	a0,a5,.L371
 4695              	.L306:
 226:src/kObjectAllocatorTest.cpp ****     { delete objAlloc; return false; }
 4696              		.loc 2 226 7 is_stmt 1 discriminator 4
 226:src/kObjectAllocatorTest.cpp ****     { delete objAlloc; return false; }
 4697              		.loc 2 226 22 is_stmt 0 discriminator 4
 4698 20d4 6388040C 		beqz	s1,.L309
 4699              	.LBB402:
 4700              	.LBB403:
 4701              	.LBB404:
  68:src/../h/kObjectAllocator.hpp ****             MemoryAllocator::instance()->kmem_free(((KObjectAllocator*) p)->bitVectors[i]);
 4702              		.loc 1 68 21
 4703 20d8 13090000 		li	s2,0
 4704              	.L308:
 4705              	.LVL647:
  68:src/../h/kObjectAllocator.hpp ****             MemoryAllocator::instance()->kmem_free(((KObjectAllocator*) p)->bitVectors[i]);
 4706              		.loc 1 68 30 is_stmt 1
  68:src/../h/kObjectAllocator.hpp ****             MemoryAllocator::instance()->kmem_free(((KObjectAllocator*) p)->bitVectors[i]);
 4707              		.loc 1 68 57 is_stmt 0
 4708 20dc 83B70403 		ld	a5,48(s1)
  68:src/../h/kObjectAllocator.hpp ****             MemoryAllocator::instance()->kmem_free(((KObjectAllocator*) p)->bitVectors[i]);
 4709              		.loc 1 68 30
 4710 20e0 6374F908 		bleu	a5,s2,.L312
  69:src/../h/kObjectAllocator.hpp ****         MemoryAllocator::instance()->kmem_free(((KObjectAllocator*) p)->bitVectors);
 4711              		.loc 1 69 13 is_stmt 1
  69:src/../h/kObjectAllocator.hpp ****         MemoryAllocator::instance()->kmem_free(((KObjectAllocator*) p)->bitVectors);
 4712              		.loc 1 69 51 is_stmt 0
 4713 20e4 97000000 		call	_ZN15MemoryAllocator8instanceEv@plt
 4713      E7800000 
 4714              	.LVL648:
  69:src/../h/kObjectAllocator.hpp ****         MemoryAllocator::instance()->kmem_free(((KObjectAllocator*) p)->bitVectors);
 4715              		.loc 1 69 77
 4716 20ec 83B78402 		ld	a5,40(s1)
  69:src/../h/kObjectAllocator.hpp ****         MemoryAllocator::instance()->kmem_free(((KObjectAllocator*) p)->bitVectors);
 4717              		.loc 1 69 89
 4718 20f0 13173900 		slli	a4,s2,3
 4719 20f4 B387E700 		add	a5,a5,a4
  69:src/../h/kObjectAllocator.hpp ****         MemoryAllocator::instance()->kmem_free(((KObjectAllocator*) p)->bitVectors);
 4720              		.loc 1 69 51
 4721 20f8 83B50700 		ld	a1,0(a5)
 4722 20fc 97000000 		call	_ZN15MemoryAllocator9kmem_freeEPv@plt
 4722      E7800000 
 4723              	.LVL649:
  68:src/../h/kObjectAllocator.hpp ****             MemoryAllocator::instance()->kmem_free(((KObjectAllocator*) p)->bitVectors[i]);
 4724              		.loc 1 68 9 is_stmt 1
 4725 2104 13091900 		addi	s2,s2,1
 4726              	.LVL650:
 4727 2108 6FF05FFD 		j	.L308
 4728              	.LVL651:
 4729              	.L371:
 4730              	.LBE404:
GAS LISTING /tmp/cciR7THS.s 			page 118


 4731              	.LBE403:
 4732              	.LBE402:
 225:src/kObjectAllocatorTest.cpp ****         || getBitOfObject(objArr[31], objAlloc) != 0)
 4733              		.loc 2 225 26 is_stmt 0 discriminator 2
 4734 210c 13860400 		mv	a2,s1
 4735 2110 93050900 		mv	a1,s2
 4736 2114 13850900 		mv	a0,s3
 4737 2118 97000000 		call	_ZN20KObjectAllocatorTest14getBitOfObjectEPvP16KObjectAllocator
 4737      E7800000 
 4738              	.LVL652:
 4739 2120 930A0500 		mv	s5,a0
 225:src/kObjectAllocatorTest.cpp ****         || getBitOfObject(objArr[31], objAlloc) != 0)
 4740              		.loc 2 225 9 discriminator 2
 4741 2124 E31805FA 		bnez	a0,.L306
 229:src/kObjectAllocatorTest.cpp ****     if (objAlloc->nextNonTakenByte != 4) { delete objAlloc; return false; }
 4742              		.loc 2 229 5 is_stmt 1
 229:src/kObjectAllocatorTest.cpp ****     if (objAlloc->nextNonTakenByte != 4) { delete objAlloc; return false; }
 4743              		.loc 2 229 19 is_stmt 0
 4744 2128 03B78403 		ld	a4,56(s1)
 229:src/kObjectAllocatorTest.cpp ****     if (objAlloc->nextNonTakenByte != 4) { delete objAlloc; return false; }
 4745              		.loc 2 229 5
 4746 212c 93074000 		li	a5,4
 4747 2130 631EF706 		bne	a4,a5,.L310
 4748              	.LBB406:
 230:src/kObjectAllocatorTest.cpp ****     for (size_t i = 32; i < 256; objArr[i++] = objAlloc->allocateNewObject());
 4749              		.loc 2 230 17
 4750 2134 13090002 		li	s2,32
 4751              	.L311:
 4752              	.LVL653:
 230:src/kObjectAllocatorTest.cpp ****     for (size_t i = 32; i < 256; objArr[i++] = objAlloc->allocateNewObject());
 4753              		.loc 2 230 27 is_stmt 1 discriminator 4
 4754 2138 9307F00F 		li	a5,255
 4755 213c 63E4270F 		bgtu	s2,a5,.L316
 230:src/kObjectAllocatorTest.cpp ****     for (size_t i = 32; i < 256; objArr[i++] = objAlloc->allocateNewObject());
 4756              		.loc 2 230 5 discriminator 2
 230:src/kObjectAllocatorTest.cpp ****     for (size_t i = 32; i < 256; objArr[i++] = objAlloc->allocateNewObject());
 4757              		.loc 2 230 42 is_stmt 0 discriminator 2
 4758 2140 130A1900 		addi	s4,s2,1
 4759              	.LVL654:
 230:src/kObjectAllocatorTest.cpp ****     for (size_t i = 32; i < 256; objArr[i++] = objAlloc->allocateNewObject());
 4760              		.loc 2 230 75 discriminator 2
 4761 2144 13850400 		mv	a0,s1
 4762 2148 97000000 		call	_ZN16KObjectAllocator17allocateNewObjectEv@plt
 4762      E7800000 
 4763              	.LVL655:
 230:src/kObjectAllocatorTest.cpp ****     for (size_t i = 32; i < 256; objArr[i++] = objAlloc->allocateNewObject());
 4764              		.loc 2 230 46 discriminator 2
 4765 2150 13193900 		slli	s2,s2,3
 4766 2154 930704FC 		addi	a5,s0,-64
 4767 2158 33892701 		add	s2,a5,s2
 4768 215c 2330A980 		sd	a0,-2048(s2)
 230:src/kObjectAllocatorTest.cpp ****     for (size_t i = 32; i < 256; objArr[i++] = objAlloc->allocateNewObject());
 4769              		.loc 2 230 42 discriminator 2
 4770 2160 13090A00 		mv	s2,s4
 230:src/kObjectAllocatorTest.cpp ****     for (size_t i = 32; i < 256; objArr[i++] = objAlloc->allocateNewObject());
 4771              		.loc 2 230 5 discriminator 2
 4772 2164 6FF05FFD 		j	.L311
GAS LISTING /tmp/cciR7THS.s 			page 119


 4773              	.LVL656:
 4774              	.L312:
 4775              	.LBE406:
 4776              	.LBB407:
 4777              	.LBB405:
  70:src/../h/kObjectAllocator.hpp ****         MemoryAllocator::instance()->kmem_free(((KObjectAllocator*) p)->objectVectors);
 4778              		.loc 1 70 9 is_stmt 1
  70:src/../h/kObjectAllocator.hpp ****         MemoryAllocator::instance()->kmem_free(((KObjectAllocator*) p)->objectVectors);
 4779              		.loc 1 70 47 is_stmt 0
 4780 2168 97000000 		call	_ZN15MemoryAllocator8instanceEv@plt
 4780      E7800000 
 4781              	.LVL657:
 4782 2170 83B58402 		ld	a1,40(s1)
 4783 2174 97000000 		call	_ZN15MemoryAllocator9kmem_freeEPv@plt
 4783      E7800000 
 4784              	.LVL658:
  71:src/../h/kObjectAllocator.hpp ****         MemoryAllocator::instance()->kmem_free(p);
 4785              		.loc 1 71 9 is_stmt 1
  71:src/../h/kObjectAllocator.hpp ****         MemoryAllocator::instance()->kmem_free(p);
 4786              		.loc 1 71 47 is_stmt 0
 4787 217c 97000000 		call	_ZN15MemoryAllocator8instanceEv@plt
 4787      E7800000 
 4788              	.LVL659:
 4789 2184 83B50402 		ld	a1,32(s1)
 4790 2188 97000000 		call	_ZN15MemoryAllocator9kmem_freeEPv@plt
 4790      E7800000 
 4791              	.LVL660:
  72:src/../h/kObjectAllocator.hpp ****     }
 4792              		.loc 1 72 9 is_stmt 1
  72:src/../h/kObjectAllocator.hpp ****     }
 4793              		.loc 1 72 47 is_stmt 0
 4794 2190 97000000 		call	_ZN15MemoryAllocator8instanceEv@plt
 4794      E7800000 
 4795              	.LVL661:
 4796 2198 93850400 		mv	a1,s1
 4797 219c 97000000 		call	_ZN15MemoryAllocator9kmem_freeEPv@plt
 4797      E7800000 
 4798              	.LVL662:
 4799              	.L309:
 4800              	.LBE405:
 4801              	.LBE407:
 226:src/kObjectAllocatorTest.cpp ****     { delete objAlloc; return false; }
 4802              		.loc 2 226 24 is_stmt 1 discriminator 2
 226:src/kObjectAllocatorTest.cpp ****     { delete objAlloc; return false; }
 4803              		.loc 2 226 31 is_stmt 0 discriminator 2
 4804 21a4 13050000 		li	a0,0
 4805 21a8 6FF01FDA 		j	.L363
 4806              	.L310:
 229:src/kObjectAllocatorTest.cpp ****     if (objAlloc->nextNonTakenByte != 4) { delete objAlloc; return false; }
 4807              		.loc 2 229 44 is_stmt 1 discriminator 1
 229:src/kObjectAllocatorTest.cpp ****     if (objAlloc->nextNonTakenByte != 4) { delete objAlloc; return false; }
 4808              		.loc 2 229 59 is_stmt 0 discriminator 1
 4809 21ac 63960402 		bnez	s1,.L315
 4810 21b0 6F00C006 		j	.L313
 4811              	.LVL663:
 4812              	.L372:
 4813              	.LBB408:
GAS LISTING /tmp/cciR7THS.s 			page 120


 4814              	.LBB409:
 4815              	.LBB410:
  69:src/../h/kObjectAllocator.hpp ****         MemoryAllocator::instance()->kmem_free(((KObjectAllocator*) p)->bitVectors);
 4816              		.loc 1 69 13 is_stmt 1
  69:src/../h/kObjectAllocator.hpp ****         MemoryAllocator::instance()->kmem_free(((KObjectAllocator*) p)->bitVectors);
 4817              		.loc 1 69 51 is_stmt 0
 4818 21b4 97000000 		call	_ZN15MemoryAllocator8instanceEv@plt
 4818      E7800000 
 4819              	.LVL664:
  69:src/../h/kObjectAllocator.hpp ****         MemoryAllocator::instance()->kmem_free(((KObjectAllocator*) p)->bitVectors);
 4820              		.loc 1 69 77
 4821 21bc 83B78402 		ld	a5,40(s1)
  69:src/../h/kObjectAllocator.hpp ****         MemoryAllocator::instance()->kmem_free(((KObjectAllocator*) p)->bitVectors);
 4822              		.loc 1 69 89
 4823 21c0 13973A00 		slli	a4,s5,3
 4824 21c4 B387E700 		add	a5,a5,a4
  69:src/../h/kObjectAllocator.hpp ****         MemoryAllocator::instance()->kmem_free(((KObjectAllocator*) p)->bitVectors);
 4825              		.loc 1 69 51
 4826 21c8 83B50700 		ld	a1,0(a5)
 4827 21cc 97000000 		call	_ZN15MemoryAllocator9kmem_freeEPv@plt
 4827      E7800000 
 4828              	.LVL665:
  68:src/../h/kObjectAllocator.hpp ****             MemoryAllocator::instance()->kmem_free(((KObjectAllocator*) p)->bitVectors[i]);
 4829              		.loc 1 68 9 is_stmt 1
 4830 21d4 938A1A00 		addi	s5,s5,1
 4831              	.LVL666:
 4832              	.L315:
  68:src/../h/kObjectAllocator.hpp ****             MemoryAllocator::instance()->kmem_free(((KObjectAllocator*) p)->bitVectors[i]);
 4833              		.loc 1 68 30
  68:src/../h/kObjectAllocator.hpp ****             MemoryAllocator::instance()->kmem_free(((KObjectAllocator*) p)->bitVectors[i]);
 4834              		.loc 1 68 57 is_stmt 0
 4835 21d8 83B70403 		ld	a5,48(s1)
  68:src/../h/kObjectAllocator.hpp ****             MemoryAllocator::instance()->kmem_free(((KObjectAllocator*) p)->bitVectors[i]);
 4836              		.loc 1 68 30
 4837 21dc E3ECFAFC 		bgtu	a5,s5,.L372
 4838              	.LBE410:
  70:src/../h/kObjectAllocator.hpp ****         MemoryAllocator::instance()->kmem_free(((KObjectAllocator*) p)->objectVectors);
 4839              		.loc 1 70 9 is_stmt 1
  70:src/../h/kObjectAllocator.hpp ****         MemoryAllocator::instance()->kmem_free(((KObjectAllocator*) p)->objectVectors);
 4840              		.loc 1 70 47 is_stmt 0
 4841 21e0 97000000 		call	_ZN15MemoryAllocator8instanceEv@plt
 4841      E7800000 
 4842              	.LVL667:
 4843 21e8 83B58402 		ld	a1,40(s1)
 4844 21ec 97000000 		call	_ZN15MemoryAllocator9kmem_freeEPv@plt
 4844      E7800000 
 4845              	.LVL668:
  71:src/../h/kObjectAllocator.hpp ****         MemoryAllocator::instance()->kmem_free(p);
 4846              		.loc 1 71 9 is_stmt 1
  71:src/../h/kObjectAllocator.hpp ****         MemoryAllocator::instance()->kmem_free(p);
 4847              		.loc 1 71 47 is_stmt 0
 4848 21f4 97000000 		call	_ZN15MemoryAllocator8instanceEv@plt
 4848      E7800000 
 4849              	.LVL669:
 4850 21fc 83B50402 		ld	a1,32(s1)
 4851 2200 97000000 		call	_ZN15MemoryAllocator9kmem_freeEPv@plt
 4851      E7800000 
GAS LISTING /tmp/cciR7THS.s 			page 121


 4852              	.LVL670:
  72:src/../h/kObjectAllocator.hpp ****     }
 4853              		.loc 1 72 9 is_stmt 1
  72:src/../h/kObjectAllocator.hpp ****     }
 4854              		.loc 1 72 47 is_stmt 0
 4855 2208 97000000 		call	_ZN15MemoryAllocator8instanceEv@plt
 4855      E7800000 
 4856              	.LVL671:
 4857 2210 93850400 		mv	a1,s1
 4858 2214 97000000 		call	_ZN15MemoryAllocator9kmem_freeEPv@plt
 4858      E7800000 
 4859              	.LVL672:
 4860              	.L313:
 4861              	.LBE409:
 4862              	.LBE408:
 229:src/kObjectAllocatorTest.cpp ****     if (objAlloc->nextNonTakenByte != 4) { delete objAlloc; return false; }
 4863              		.loc 2 229 61 is_stmt 1 discriminator 3
 229:src/kObjectAllocatorTest.cpp ****     if (objAlloc->nextNonTakenByte != 4) { delete objAlloc; return false; }
 4864              		.loc 2 229 68 is_stmt 0 discriminator 3
 4865 221c 13050000 		li	a0,0
 4866 2220 6FF09FD2 		j	.L363
 4867              	.LVL673:
 4868              	.L316:
 231:src/kObjectAllocatorTest.cpp ****     if (objAlloc->nextNonTakenByte != 32) { delete objAlloc; return false; }
 4869              		.loc 2 231 5 is_stmt 1
 231:src/kObjectAllocatorTest.cpp ****     if (objAlloc->nextNonTakenByte != 32) { delete objAlloc; return false; }
 4870              		.loc 2 231 19 is_stmt 0
 4871 2224 03B78403 		ld	a4,56(s1)
 231:src/kObjectAllocatorTest.cpp ****     if (objAlloc->nextNonTakenByte != 32) { delete objAlloc; return false; }
 4872              		.loc 2 231 5
 4873 2228 93070002 		li	a5,32
 4874 222c 630EF706 		beq	a4,a5,.L317
 231:src/kObjectAllocatorTest.cpp ****     if (objAlloc->nextNonTakenByte != 32) { delete objAlloc; return false; }
 4875              		.loc 2 231 45 is_stmt 1 discriminator 1
 231:src/kObjectAllocatorTest.cpp ****     if (objAlloc->nextNonTakenByte != 32) { delete objAlloc; return false; }
 4876              		.loc 2 231 60 is_stmt 0 discriminator 1
 4877 2230 63880406 		beqz	s1,.L318
 4878              	.L320:
 4879              	.LVL674:
 4880              	.LBB411:
 4881              	.LBB412:
 4882              	.LBB413:
  68:src/../h/kObjectAllocator.hpp ****             MemoryAllocator::instance()->kmem_free(((KObjectAllocator*) p)->bitVectors[i]);
 4883              		.loc 1 68 30 is_stmt 1
  68:src/../h/kObjectAllocator.hpp ****             MemoryAllocator::instance()->kmem_free(((KObjectAllocator*) p)->bitVectors[i]);
 4884              		.loc 1 68 57 is_stmt 0
 4885 2234 83B70403 		ld	a5,48(s1)
  68:src/../h/kObjectAllocator.hpp ****             MemoryAllocator::instance()->kmem_free(((KObjectAllocator*) p)->bitVectors[i]);
 4886              		.loc 1 68 30
 4887 2238 63F6FA02 		bleu	a5,s5,.L319
  69:src/../h/kObjectAllocator.hpp ****         MemoryAllocator::instance()->kmem_free(((KObjectAllocator*) p)->bitVectors);
 4888              		.loc 1 69 13 is_stmt 1
  69:src/../h/kObjectAllocator.hpp ****         MemoryAllocator::instance()->kmem_free(((KObjectAllocator*) p)->bitVectors);
 4889              		.loc 1 69 51 is_stmt 0
 4890 223c 97000000 		call	_ZN15MemoryAllocator8instanceEv@plt
 4890      E7800000 
 4891              	.LVL675:
GAS LISTING /tmp/cciR7THS.s 			page 122


  69:src/../h/kObjectAllocator.hpp ****         MemoryAllocator::instance()->kmem_free(((KObjectAllocator*) p)->bitVectors);
 4892              		.loc 1 69 77
 4893 2244 83B78402 		ld	a5,40(s1)
  69:src/../h/kObjectAllocator.hpp ****         MemoryAllocator::instance()->kmem_free(((KObjectAllocator*) p)->bitVectors);
 4894              		.loc 1 69 89
 4895 2248 13973A00 		slli	a4,s5,3
 4896 224c B387E700 		add	a5,a5,a4
  69:src/../h/kObjectAllocator.hpp ****         MemoryAllocator::instance()->kmem_free(((KObjectAllocator*) p)->bitVectors);
 4897              		.loc 1 69 51
 4898 2250 83B50700 		ld	a1,0(a5)
 4899 2254 97000000 		call	_ZN15MemoryAllocator9kmem_freeEPv@plt
 4899      E7800000 
 4900              	.LVL676:
  68:src/../h/kObjectAllocator.hpp ****             MemoryAllocator::instance()->kmem_free(((KObjectAllocator*) p)->bitVectors[i]);
 4901              		.loc 1 68 9 is_stmt 1
 4902 225c 938A1A00 		addi	s5,s5,1
 4903              	.LVL677:
 4904 2260 6FF05FFD 		j	.L320
 4905              	.L319:
 4906              	.LBE413:
  70:src/../h/kObjectAllocator.hpp ****         MemoryAllocator::instance()->kmem_free(((KObjectAllocator*) p)->objectVectors);
 4907              		.loc 1 70 9
  70:src/../h/kObjectAllocator.hpp ****         MemoryAllocator::instance()->kmem_free(((KObjectAllocator*) p)->objectVectors);
 4908              		.loc 1 70 47 is_stmt 0
 4909 2264 97000000 		call	_ZN15MemoryAllocator8instanceEv@plt
 4909      E7800000 
 4910              	.LVL678:
 4911 226c 83B58402 		ld	a1,40(s1)
 4912 2270 97000000 		call	_ZN15MemoryAllocator9kmem_freeEPv@plt
 4912      E7800000 
 4913              	.LVL679:
  71:src/../h/kObjectAllocator.hpp ****         MemoryAllocator::instance()->kmem_free(p);
 4914              		.loc 1 71 9 is_stmt 1
  71:src/../h/kObjectAllocator.hpp ****         MemoryAllocator::instance()->kmem_free(p);
 4915              		.loc 1 71 47 is_stmt 0
 4916 2278 97000000 		call	_ZN15MemoryAllocator8instanceEv@plt
 4916      E7800000 
 4917              	.LVL680:
 4918 2280 83B50402 		ld	a1,32(s1)
 4919 2284 97000000 		call	_ZN15MemoryAllocator9kmem_freeEPv@plt
 4919      E7800000 
 4920              	.LVL681:
  72:src/../h/kObjectAllocator.hpp ****     }
 4921              		.loc 1 72 9 is_stmt 1
  72:src/../h/kObjectAllocator.hpp ****     }
 4922              		.loc 1 72 47 is_stmt 0
 4923 228c 97000000 		call	_ZN15MemoryAllocator8instanceEv@plt
 4923      E7800000 
 4924              	.LVL682:
 4925 2294 93850400 		mv	a1,s1
 4926 2298 97000000 		call	_ZN15MemoryAllocator9kmem_freeEPv@plt
 4926      E7800000 
 4927              	.LVL683:
 4928              	.L318:
 4929              	.LBE412:
 4930              	.LBE411:
 231:src/kObjectAllocatorTest.cpp ****     if (objAlloc->nextNonTakenByte != 32) { delete objAlloc; return false; }
GAS LISTING /tmp/cciR7THS.s 			page 123


 4931              		.loc 2 231 62 is_stmt 1 discriminator 3
 231:src/kObjectAllocatorTest.cpp ****     if (objAlloc->nextNonTakenByte != 32) { delete objAlloc; return false; }
 4932              		.loc 2 231 69 is_stmt 0 discriminator 3
 4933 22a0 13050000 		li	a0,0
 4934 22a4 6FF05FCA 		j	.L363
 4935              	.L317:
 235:src/kObjectAllocatorTest.cpp ****     objAlloc->freeObject(objArr[7 * 8]);
 4936              		.loc 2 235 5 is_stmt 1
 235:src/kObjectAllocatorTest.cpp ****     objAlloc->freeObject(objArr[7 * 8]);
 4937              		.loc 2 235 25 is_stmt 0
 4938 22a8 83350498 		ld	a1,-1664(s0)
 4939 22ac 13850400 		mv	a0,s1
 4940 22b0 97000000 		call	_ZN16KObjectAllocator10freeObjectEPv@plt
 4940      E7800000 
 4941              	.LVL684:
 236:src/kObjectAllocatorTest.cpp ****     objArr[7 * 8] = objAlloc->allocateNewObject();
 4942              		.loc 2 236 5 is_stmt 1
 236:src/kObjectAllocatorTest.cpp ****     objArr[7 * 8] = objAlloc->allocateNewObject();
 4943              		.loc 2 236 48 is_stmt 0
 4944 22b8 13850400 		mv	a0,s1
 4945 22bc 97000000 		call	_ZN16KObjectAllocator17allocateNewObjectEv@plt
 4945      E7800000 
 4946              	.LVL685:
 4947 22c4 13090500 		mv	s2,a0
 4948              	.LVL686:
 237:src/kObjectAllocatorTest.cpp ****     if (getByteOfObject(objArr[7 * 8], objAlloc) != 7
 4949              		.loc 2 237 5 is_stmt 1
 237:src/kObjectAllocatorTest.cpp ****     if (getByteOfObject(objArr[7 * 8], objAlloc) != 7
 4950              		.loc 2 237 24 is_stmt 0
 4951 22c8 13860400 		mv	a2,s1
 4952 22cc 93050500 		mv	a1,a0
 4953 22d0 13850900 		mv	a0,s3
 4954 22d4 97000000 		call	_ZN20KObjectAllocatorTest15getByteOfObjectEPvP16KObjectAllocator
 4954      E7800000 
 4955              	.LVL687:
 238:src/kObjectAllocatorTest.cpp ****         || getBitOfObject(objArr[7 * 8], objAlloc) != 7)
 4956              		.loc 2 238 9
 4957 22dc 93077000 		li	a5,7
 4958 22e0 630CF502 		beq	a0,a5,.L373
 4959              	.L321:
 239:src/kObjectAllocatorTest.cpp ****     { delete objAlloc; return false; }
 4960              		.loc 2 239 7 is_stmt 1 discriminator 4
 239:src/kObjectAllocatorTest.cpp ****     { delete objAlloc; return false; }
 4961              		.loc 2 239 22 is_stmt 0 discriminator 4
 4962 22e4 6386040A 		beqz	s1,.L324
 4963              	.L326:
 4964              	.LVL688:
 4965              	.LBB414:
 4966              	.LBB415:
 4967              	.LBB416:
  68:src/../h/kObjectAllocator.hpp ****             MemoryAllocator::instance()->kmem_free(((KObjectAllocator*) p)->bitVectors[i]);
 4968              		.loc 1 68 30 is_stmt 1
  68:src/../h/kObjectAllocator.hpp ****             MemoryAllocator::instance()->kmem_free(((KObjectAllocator*) p)->bitVectors[i]);
 4969              		.loc 1 68 57 is_stmt 0
 4970 22e8 83B70403 		ld	a5,48(s1)
  68:src/../h/kObjectAllocator.hpp ****             MemoryAllocator::instance()->kmem_free(((KObjectAllocator*) p)->bitVectors[i]);
 4971              		.loc 1 68 30
GAS LISTING /tmp/cciR7THS.s 			page 124


 4972 22ec 63F4FA06 		bleu	a5,s5,.L325
  69:src/../h/kObjectAllocator.hpp ****         MemoryAllocator::instance()->kmem_free(((KObjectAllocator*) p)->bitVectors);
 4973              		.loc 1 69 13 is_stmt 1
  69:src/../h/kObjectAllocator.hpp ****         MemoryAllocator::instance()->kmem_free(((KObjectAllocator*) p)->bitVectors);
 4974              		.loc 1 69 51 is_stmt 0
 4975 22f0 97000000 		call	_ZN15MemoryAllocator8instanceEv@plt
 4975      E7800000 
 4976              	.LVL689:
  69:src/../h/kObjectAllocator.hpp ****         MemoryAllocator::instance()->kmem_free(((KObjectAllocator*) p)->bitVectors);
 4977              		.loc 1 69 77
 4978 22f8 83B78402 		ld	a5,40(s1)
  69:src/../h/kObjectAllocator.hpp ****         MemoryAllocator::instance()->kmem_free(((KObjectAllocator*) p)->bitVectors);
 4979              		.loc 1 69 89
 4980 22fc 13973A00 		slli	a4,s5,3
 4981 2300 B387E700 		add	a5,a5,a4
  69:src/../h/kObjectAllocator.hpp ****         MemoryAllocator::instance()->kmem_free(((KObjectAllocator*) p)->bitVectors);
 4982              		.loc 1 69 51
 4983 2304 83B50700 		ld	a1,0(a5)
 4984 2308 97000000 		call	_ZN15MemoryAllocator9kmem_freeEPv@plt
 4984      E7800000 
 4985              	.LVL690:
  68:src/../h/kObjectAllocator.hpp ****             MemoryAllocator::instance()->kmem_free(((KObjectAllocator*) p)->bitVectors[i]);
 4986              		.loc 1 68 9 is_stmt 1
 4987 2310 938A1A00 		addi	s5,s5,1
 4988              	.LVL691:
 4989 2314 6FF05FFD 		j	.L326
 4990              	.LVL692:
 4991              	.L373:
 4992              	.LBE416:
 4993              	.LBE415:
 4994              	.LBE414:
 238:src/kObjectAllocatorTest.cpp ****         || getBitOfObject(objArr[7 * 8], objAlloc) != 7)
 4995              		.loc 2 238 26 is_stmt 0 discriminator 2
 4996 2318 13860400 		mv	a2,s1
 4997 231c 93050900 		mv	a1,s2
 4998 2320 13850900 		mv	a0,s3
 4999 2324 97000000 		call	_ZN20KObjectAllocatorTest14getBitOfObjectEPvP16KObjectAllocator
 4999      E7800000 
 5000              	.LVL693:
 238:src/kObjectAllocatorTest.cpp ****         || getBitOfObject(objArr[7 * 8], objAlloc) != 7)
 5001              		.loc 2 238 9 discriminator 2
 5002 232c 93077000 		li	a5,7
 5003 2330 E31AF5FA 		bne	a0,a5,.L321
 240:src/kObjectAllocatorTest.cpp ****     if (objAlloc->nextNonTakenByte != 7) { delete objAlloc; return false; }
 5004              		.loc 2 240 5 is_stmt 1
 240:src/kObjectAllocatorTest.cpp ****     if (objAlloc->nextNonTakenByte != 7) { delete objAlloc; return false; }
 5005              		.loc 2 240 19 is_stmt 0
 5006 2334 03B78403 		ld	a4,56(s1)
 240:src/kObjectAllocatorTest.cpp ****     if (objAlloc->nextNonTakenByte != 7) { delete objAlloc; return false; }
 5007              		.loc 2 240 5
 5008 2338 6300F706 		beq	a4,a5,.L374
 240:src/kObjectAllocatorTest.cpp ****     if (objAlloc->nextNonTakenByte != 7) { delete objAlloc; return false; }
 5009              		.loc 2 240 44 is_stmt 1 discriminator 1
 240:src/kObjectAllocatorTest.cpp ****     if (objAlloc->nextNonTakenByte != 7) { delete objAlloc; return false; }
 5010              		.loc 2 240 59 is_stmt 0 discriminator 1
 5011 233c 63880400 		beqz	s1,.L327
 240:src/kObjectAllocatorTest.cpp ****     if (objAlloc->nextNonTakenByte != 7) { delete objAlloc; return false; }
GAS LISTING /tmp/cciR7THS.s 			page 125


 5012              		.loc 2 240 51 discriminator 2
 5013 2340 13850400 		mv	a0,s1
 5014 2344 97000000 		call	_ZN16KObjectAllocatordlEPv
 5014      E7800000 
 5015              	.LVL694:
 5016              	.L327:
 240:src/kObjectAllocatorTest.cpp ****     if (objAlloc->nextNonTakenByte != 7) { delete objAlloc; return false; }
 5017              		.loc 2 240 61 is_stmt 1 discriminator 3
 240:src/kObjectAllocatorTest.cpp ****     if (objAlloc->nextNonTakenByte != 7) { delete objAlloc; return false; }
 5018              		.loc 2 240 68 is_stmt 0 discriminator 3
 5019 234c 13050000 		li	a0,0
 5020 2350 6FF09FBF 		j	.L363
 5021              	.LVL695:
 5022              	.L325:
 5023              	.LBB418:
 5024              	.LBB417:
  70:src/../h/kObjectAllocator.hpp ****         MemoryAllocator::instance()->kmem_free(((KObjectAllocator*) p)->objectVectors);
 5025              		.loc 1 70 9 is_stmt 1
  70:src/../h/kObjectAllocator.hpp ****         MemoryAllocator::instance()->kmem_free(((KObjectAllocator*) p)->objectVectors);
 5026              		.loc 1 70 47 is_stmt 0
 5027 2354 97000000 		call	_ZN15MemoryAllocator8instanceEv@plt
 5027      E7800000 
 5028              	.LVL696:
 5029 235c 83B58402 		ld	a1,40(s1)
 5030 2360 97000000 		call	_ZN15MemoryAllocator9kmem_freeEPv@plt
 5030      E7800000 
 5031              	.LVL697:
  71:src/../h/kObjectAllocator.hpp ****         MemoryAllocator::instance()->kmem_free(p);
 5032              		.loc 1 71 9 is_stmt 1
  71:src/../h/kObjectAllocator.hpp ****         MemoryAllocator::instance()->kmem_free(p);
 5033              		.loc 1 71 47 is_stmt 0
 5034 2368 97000000 		call	_ZN15MemoryAllocator8instanceEv@plt
 5034      E7800000 
 5035              	.LVL698:
 5036 2370 83B50402 		ld	a1,32(s1)
 5037 2374 97000000 		call	_ZN15MemoryAllocator9kmem_freeEPv@plt
 5037      E7800000 
 5038              	.LVL699:
  72:src/../h/kObjectAllocator.hpp ****     }
 5039              		.loc 1 72 9 is_stmt 1
  72:src/../h/kObjectAllocator.hpp ****     }
 5040              		.loc 1 72 47 is_stmt 0
 5041 237c 97000000 		call	_ZN15MemoryAllocator8instanceEv@plt
 5041      E7800000 
 5042              	.LVL700:
 5043 2384 93850400 		mv	a1,s1
 5044 2388 97000000 		call	_ZN15MemoryAllocator9kmem_freeEPv@plt
 5044      E7800000 
 5045              	.LVL701:
 5046              	.L324:
 5047              	.LBE417:
 5048              	.LBE418:
 239:src/kObjectAllocatorTest.cpp ****     { delete objAlloc; return false; }
 5049              		.loc 2 239 24 is_stmt 1 discriminator 2
 239:src/kObjectAllocatorTest.cpp ****     { delete objAlloc; return false; }
 5050              		.loc 2 239 31 is_stmt 0 discriminator 2
 5051 2390 13050000 		li	a0,0
GAS LISTING /tmp/cciR7THS.s 			page 126


 5052 2394 6FF05FBB 		j	.L363
 5053              	.L374:
 242:src/kObjectAllocatorTest.cpp ****     objAlloc->freeObject(objArr[6 * 8 + 3]);
 5054              		.loc 2 242 5 is_stmt 1
 242:src/kObjectAllocatorTest.cpp ****     objAlloc->freeObject(objArr[6 * 8 + 3]);
 5055              		.loc 2 242 25 is_stmt 0
 5056 2398 83358495 		ld	a1,-1704(s0)
 5057 239c 13850400 		mv	a0,s1
 5058 23a0 97000000 		call	_ZN16KObjectAllocator10freeObjectEPv@plt
 5058      E7800000 
 5059              	.LVL702:
 243:src/kObjectAllocatorTest.cpp ****     objAlloc->freeObject(objArr[7 * 8 + 4]);
 5060              		.loc 2 243 5 is_stmt 1
 243:src/kObjectAllocatorTest.cpp ****     objAlloc->freeObject(objArr[7 * 8 + 4]);
 5061              		.loc 2 243 25 is_stmt 0
 5062 23a8 8335049A 		ld	a1,-1632(s0)
 5063 23ac 13850400 		mv	a0,s1
 5064 23b0 97000000 		call	_ZN16KObjectAllocator10freeObjectEPv@plt
 5064      E7800000 
 5065              	.LVL703:
 244:src/kObjectAllocatorTest.cpp ****     objAlloc->freeObject(objArr[31 * 8 + 5]);
 5066              		.loc 2 244 5 is_stmt 1
 244:src/kObjectAllocatorTest.cpp ****     objAlloc->freeObject(objArr[31 * 8 + 5]);
 5067              		.loc 2 244 25 is_stmt 0
 5068 23b8 833584FA 		ld	a1,-88(s0)
 5069 23bc 13850400 		mv	a0,s1
 5070 23c0 97000000 		call	_ZN16KObjectAllocator10freeObjectEPv@plt
 5070      E7800000 
 5071              	.LVL704:
 246:src/kObjectAllocatorTest.cpp ****     objArr[7 * 8 + 4] = objAlloc->allocateNewObject();
 5072              		.loc 2 246 5 is_stmt 1
 246:src/kObjectAllocatorTest.cpp ****     objArr[7 * 8 + 4] = objAlloc->allocateNewObject();
 5073              		.loc 2 246 52 is_stmt 0
 5074 23c8 13850400 		mv	a0,s1
 5075 23cc 97000000 		call	_ZN16KObjectAllocator17allocateNewObjectEv@plt
 5075      E7800000 
 5076              	.LVL705:
 5077 23d4 13090500 		mv	s2,a0
 247:src/kObjectAllocatorTest.cpp ****     if (getByteOfObject(objArr[7 * 8 + 4], objAlloc) != 7
 5078              		.loc 2 247 5 is_stmt 1
 247:src/kObjectAllocatorTest.cpp ****     if (getByteOfObject(objArr[7 * 8 + 4], objAlloc) != 7
 5079              		.loc 2 247 24 is_stmt 0
 5080 23d8 13860400 		mv	a2,s1
 5081 23dc 93050500 		mv	a1,a0
 5082 23e0 13850900 		mv	a0,s3
 5083 23e4 97000000 		call	_ZN20KObjectAllocatorTest15getByteOfObjectEPvP16KObjectAllocator
 5083      E7800000 
 5084              	.LVL706:
 248:src/kObjectAllocatorTest.cpp ****         || getBitOfObject(objArr[7 * 8 + 4], objAlloc) != 3)
 5085              		.loc 2 248 9
 5086 23ec 93077000 		li	a5,7
 5087 23f0 630EF500 		beq	a0,a5,.L375
 5088              	.L328:
 249:src/kObjectAllocatorTest.cpp ****     { delete objAlloc; return false; }
 5089              		.loc 2 249 7 is_stmt 1 discriminator 4
 249:src/kObjectAllocatorTest.cpp ****     { delete objAlloc; return false; }
 5090              		.loc 2 249 22 is_stmt 0 discriminator 4
GAS LISTING /tmp/cciR7THS.s 			page 127


 5091 23f4 63880400 		beqz	s1,.L331
 249:src/kObjectAllocatorTest.cpp ****     { delete objAlloc; return false; }
 5092              		.loc 2 249 14 discriminator 1
 5093 23f8 13850400 		mv	a0,s1
 5094 23fc 97000000 		call	_ZN16KObjectAllocatordlEPv
 5094      E7800000 
 5095              	.LVL707:
 5096              	.L331:
 249:src/kObjectAllocatorTest.cpp ****     { delete objAlloc; return false; }
 5097              		.loc 2 249 24 is_stmt 1 discriminator 2
 249:src/kObjectAllocatorTest.cpp ****     { delete objAlloc; return false; }
 5098              		.loc 2 249 31 is_stmt 0 discriminator 2
 5099 2404 13050000 		li	a0,0
 5100 2408 6FF01FB4 		j	.L363
 5101              	.L375:
 248:src/kObjectAllocatorTest.cpp ****         || getBitOfObject(objArr[7 * 8 + 4], objAlloc) != 3)
 5102              		.loc 2 248 26 discriminator 2
 5103 240c 13860400 		mv	a2,s1
 5104 2410 93050900 		mv	a1,s2
 5105 2414 13850900 		mv	a0,s3
 5106 2418 97000000 		call	_ZN20KObjectAllocatorTest14getBitOfObjectEPvP16KObjectAllocator
 5106      E7800000 
 5107              	.LVL708:
 248:src/kObjectAllocatorTest.cpp ****         || getBitOfObject(objArr[7 * 8 + 4], objAlloc) != 3)
 5108              		.loc 2 248 9 discriminator 2
 5109 2420 93073000 		li	a5,3
 5110 2424 E318F5FC 		bne	a0,a5,.L328
 250:src/kObjectAllocatorTest.cpp ****     if (objAlloc->nextNonTakenByte != 7) { delete objAlloc; return false; }
 5111              		.loc 2 250 5 is_stmt 1
 250:src/kObjectAllocatorTest.cpp ****     if (objAlloc->nextNonTakenByte != 7) { delete objAlloc; return false; }
 5112              		.loc 2 250 19 is_stmt 0
 5113 2428 03B78403 		ld	a4,56(s1)
 250:src/kObjectAllocatorTest.cpp ****     if (objAlloc->nextNonTakenByte != 7) { delete objAlloc; return false; }
 5114              		.loc 2 250 5
 5115 242c 93077000 		li	a5,7
 5116 2430 630EF700 		beq	a4,a5,.L376
 250:src/kObjectAllocatorTest.cpp ****     if (objAlloc->nextNonTakenByte != 7) { delete objAlloc; return false; }
 5117              		.loc 2 250 44 is_stmt 1 discriminator 1
 250:src/kObjectAllocatorTest.cpp ****     if (objAlloc->nextNonTakenByte != 7) { delete objAlloc; return false; }
 5118              		.loc 2 250 59 is_stmt 0 discriminator 1
 5119 2434 63880400 		beqz	s1,.L332
 250:src/kObjectAllocatorTest.cpp ****     if (objAlloc->nextNonTakenByte != 7) { delete objAlloc; return false; }
 5120              		.loc 2 250 51 discriminator 2
 5121 2438 13850400 		mv	a0,s1
 5122 243c 97000000 		call	_ZN16KObjectAllocatordlEPv
 5122      E7800000 
 5123              	.LVL709:
 5124              	.L332:
 250:src/kObjectAllocatorTest.cpp ****     if (objAlloc->nextNonTakenByte != 7) { delete objAlloc; return false; }
 5125              		.loc 2 250 61 is_stmt 1 discriminator 3
 250:src/kObjectAllocatorTest.cpp ****     if (objAlloc->nextNonTakenByte != 7) { delete objAlloc; return false; }
 5126              		.loc 2 250 68 is_stmt 0 discriminator 3
 5127 2444 13050000 		li	a0,0
 5128 2448 6FF01FB0 		j	.L363
 5129              	.L376:
 251:src/kObjectAllocatorTest.cpp ****     objAlloc->freeObject(objArr[3 * 8 + 5]);
 5130              		.loc 2 251 5 is_stmt 1
GAS LISTING /tmp/cciR7THS.s 			page 128


 251:src/kObjectAllocatorTest.cpp ****     objAlloc->freeObject(objArr[3 * 8 + 5]);
 5131              		.loc 2 251 25 is_stmt 0
 5132 244c 8335848A 		ld	a1,-1880(s0)
 5133 2450 13850400 		mv	a0,s1
 5134 2454 97000000 		call	_ZN16KObjectAllocator10freeObjectEPv@plt
 5134      E7800000 
 5135              	.LVL710:
 253:src/kObjectAllocatorTest.cpp ****     objArr[31 * 8 + 5] = objAlloc->allocateNewObject();
 5136              		.loc 2 253 5 is_stmt 1
 253:src/kObjectAllocatorTest.cpp ****     objArr[31 * 8 + 5] = objAlloc->allocateNewObject();
 5137              		.loc 2 253 53 is_stmt 0
 5138 245c 13850400 		mv	a0,s1
 5139 2460 97000000 		call	_ZN16KObjectAllocator17allocateNewObjectEv@plt
 5139      E7800000 
 5140              	.LVL711:
 5141 2468 13090500 		mv	s2,a0
 254:src/kObjectAllocatorTest.cpp ****     if (getByteOfObject(objArr[31 * 8 + 5], objAlloc) != 31
 5142              		.loc 2 254 5 is_stmt 1
 254:src/kObjectAllocatorTest.cpp ****     if (getByteOfObject(objArr[31 * 8 + 5], objAlloc) != 31
 5143              		.loc 2 254 24 is_stmt 0
 5144 246c 13860400 		mv	a2,s1
 5145 2470 93050500 		mv	a1,a0
 5146 2474 13850900 		mv	a0,s3
 5147 2478 97000000 		call	_ZN20KObjectAllocatorTest15getByteOfObjectEPvP16KObjectAllocator
 5147      E7800000 
 5148              	.LVL712:
 255:src/kObjectAllocatorTest.cpp ****         || getBitOfObject(objArr[31 * 8 + 5], objAlloc) != 2)
 5149              		.loc 2 255 9
 5150 2480 9307F001 		li	a5,31
 5151 2484 630EF500 		beq	a0,a5,.L377
 5152              	.L333:
 256:src/kObjectAllocatorTest.cpp ****     { delete objAlloc; return false; }
 5153              		.loc 2 256 7 is_stmt 1 discriminator 4
 256:src/kObjectAllocatorTest.cpp ****     { delete objAlloc; return false; }
 5154              		.loc 2 256 22 is_stmt 0 discriminator 4
 5155 2488 63880400 		beqz	s1,.L336
 256:src/kObjectAllocatorTest.cpp ****     { delete objAlloc; return false; }
 5156              		.loc 2 256 14 discriminator 1
 5157 248c 13850400 		mv	a0,s1
 5158 2490 97000000 		call	_ZN16KObjectAllocatordlEPv
 5158      E7800000 
 5159              	.LVL713:
 5160              	.L336:
 256:src/kObjectAllocatorTest.cpp ****     { delete objAlloc; return false; }
 5161              		.loc 2 256 24 is_stmt 1 discriminator 2
 256:src/kObjectAllocatorTest.cpp ****     { delete objAlloc; return false; }
 5162              		.loc 2 256 31 is_stmt 0 discriminator 2
 5163 2498 13050000 		li	a0,0
 5164 249c 6FF0DFAA 		j	.L363
 5165              	.L377:
 255:src/kObjectAllocatorTest.cpp ****         || getBitOfObject(objArr[31 * 8 + 5], objAlloc) != 2)
 5166              		.loc 2 255 26 discriminator 2
 5167 24a0 13860400 		mv	a2,s1
 5168 24a4 93050900 		mv	a1,s2
 5169 24a8 13850900 		mv	a0,s3
 5170 24ac 97000000 		call	_ZN20KObjectAllocatorTest14getBitOfObjectEPvP16KObjectAllocator
 5170      E7800000 
GAS LISTING /tmp/cciR7THS.s 			page 129


 5171              	.LVL714:
 255:src/kObjectAllocatorTest.cpp ****         || getBitOfObject(objArr[31 * 8 + 5], objAlloc) != 2)
 5172              		.loc 2 255 9 discriminator 2
 5173 24b4 93072000 		li	a5,2
 5174 24b8 E318F5FC 		bne	a0,a5,.L333
 257:src/kObjectAllocatorTest.cpp ****     if (objAlloc->nextNonTakenByte != 31) { delete objAlloc; return false; }
 5175              		.loc 2 257 5 is_stmt 1
 257:src/kObjectAllocatorTest.cpp ****     if (objAlloc->nextNonTakenByte != 31) { delete objAlloc; return false; }
 5176              		.loc 2 257 19 is_stmt 0
 5177 24bc 03B78403 		ld	a4,56(s1)
 257:src/kObjectAllocatorTest.cpp ****     if (objAlloc->nextNonTakenByte != 31) { delete objAlloc; return false; }
 5178              		.loc 2 257 5
 5179 24c0 9307F001 		li	a5,31
 5180 24c4 630EF700 		beq	a4,a5,.L378
 257:src/kObjectAllocatorTest.cpp ****     if (objAlloc->nextNonTakenByte != 31) { delete objAlloc; return false; }
 5181              		.loc 2 257 45 is_stmt 1 discriminator 1
 257:src/kObjectAllocatorTest.cpp ****     if (objAlloc->nextNonTakenByte != 31) { delete objAlloc; return false; }
 5182              		.loc 2 257 60 is_stmt 0 discriminator 1
 5183 24c8 63880400 		beqz	s1,.L337
 257:src/kObjectAllocatorTest.cpp ****     if (objAlloc->nextNonTakenByte != 31) { delete objAlloc; return false; }
 5184              		.loc 2 257 52 discriminator 2
 5185 24cc 13850400 		mv	a0,s1
 5186 24d0 97000000 		call	_ZN16KObjectAllocatordlEPv
 5186      E7800000 
 5187              	.LVL715:
 5188              	.L337:
 257:src/kObjectAllocatorTest.cpp ****     if (objAlloc->nextNonTakenByte != 31) { delete objAlloc; return false; }
 5189              		.loc 2 257 62 is_stmt 1 discriminator 3
 257:src/kObjectAllocatorTest.cpp ****     if (objAlloc->nextNonTakenByte != 31) { delete objAlloc; return false; }
 5190              		.loc 2 257 69 is_stmt 0 discriminator 3
 5191 24d8 13050000 		li	a0,0
 5192 24dc 6FF0DFA6 		j	.L363
 5193              	.L378:
 259:src/kObjectAllocatorTest.cpp ****     objArr[3 * 8 + 5] = objAlloc->allocateNewObject();
 5194              		.loc 2 259 5 is_stmt 1
 259:src/kObjectAllocatorTest.cpp ****     objArr[3 * 8 + 5] = objAlloc->allocateNewObject();
 5195              		.loc 2 259 52 is_stmt 0
 5196 24e0 13850400 		mv	a0,s1
 5197 24e4 97000000 		call	_ZN16KObjectAllocator17allocateNewObjectEv@plt
 5197      E7800000 
 5198              	.LVL716:
 5199 24ec 13090500 		mv	s2,a0
 260:src/kObjectAllocatorTest.cpp ****     if (getByteOfObject(objArr[3 * 8 + 5], objAlloc) != 3 || getBitOfObject(objArr[3 * 8 + 5], objA
 5200              		.loc 2 260 5 is_stmt 1
 260:src/kObjectAllocatorTest.cpp ****     if (getByteOfObject(objArr[3 * 8 + 5], objAlloc) != 3 || getBitOfObject(objArr[3 * 8 + 5], objA
 5201              		.loc 2 260 24 is_stmt 0
 5202 24f0 13860400 		mv	a2,s1
 5203 24f4 93050500 		mv	a1,a0
 5204 24f8 13850900 		mv	a0,s3
 5205 24fc 97000000 		call	_ZN20KObjectAllocatorTest15getByteOfObjectEPvP16KObjectAllocator
 5205      E7800000 
 5206              	.LVL717:
 260:src/kObjectAllocatorTest.cpp ****     if (getByteOfObject(objArr[3 * 8 + 5], objAlloc) != 3 || getBitOfObject(objArr[3 * 8 + 5], objA
 5207              		.loc 2 260 59
 5208 2504 93073000 		li	a5,3
 5209 2508 6304F502 		beq	a0,a5,.L379
 5210              	.L338:
GAS LISTING /tmp/cciR7THS.s 			page 130


 261:src/kObjectAllocatorTest.cpp ****         if (objAlloc->nextNonTakenByte != 3) { delete objAlloc; return false; }
 5211              		.loc 2 261 9 is_stmt 1 discriminator 5
 261:src/kObjectAllocatorTest.cpp ****         if (objAlloc->nextNonTakenByte != 3) { delete objAlloc; return false; }
 5212              		.loc 2 261 23 is_stmt 0 discriminator 5
 5213 250c 03B78403 		ld	a4,56(s1)
 261:src/kObjectAllocatorTest.cpp ****         if (objAlloc->nextNonTakenByte != 3) { delete objAlloc; return false; }
 5214              		.loc 2 261 9 discriminator 5
 5215 2510 93073000 		li	a5,3
 5216 2514 630CF702 		beq	a4,a5,.L339
 261:src/kObjectAllocatorTest.cpp ****         if (objAlloc->nextNonTakenByte != 3) { delete objAlloc; return false; }
 5217              		.loc 2 261 48 is_stmt 1 discriminator 1
 261:src/kObjectAllocatorTest.cpp ****         if (objAlloc->nextNonTakenByte != 3) { delete objAlloc; return false; }
 5218              		.loc 2 261 63 is_stmt 0 discriminator 1
 5219 2518 63880400 		beqz	s1,.L340
 261:src/kObjectAllocatorTest.cpp ****         if (objAlloc->nextNonTakenByte != 3) { delete objAlloc; return false; }
 5220              		.loc 2 261 55 discriminator 2
 5221 251c 13850400 		mv	a0,s1
 5222 2520 97000000 		call	_ZN16KObjectAllocatordlEPv
 5222      E7800000 
 5223              	.LVL718:
 5224              	.L340:
 261:src/kObjectAllocatorTest.cpp ****         if (objAlloc->nextNonTakenByte != 3) { delete objAlloc; return false; }
 5225              		.loc 2 261 65 is_stmt 1 discriminator 3
 261:src/kObjectAllocatorTest.cpp ****         if (objAlloc->nextNonTakenByte != 3) { delete objAlloc; return false; }
 5226              		.loc 2 261 72 is_stmt 0 discriminator 3
 5227 2528 13050000 		li	a0,0
 5228 252c 6FF0DFA1 		j	.L363
 5229              	.L379:
 260:src/kObjectAllocatorTest.cpp ****     if (getByteOfObject(objArr[3 * 8 + 5], objAlloc) != 3 || getBitOfObject(objArr[3 * 8 + 5], objA
 5230              		.loc 2 260 76 discriminator 3
 5231 2530 13860400 		mv	a2,s1
 5232 2534 93050900 		mv	a1,s2
 5233 2538 13850900 		mv	a0,s3
 5234 253c 97000000 		call	_ZN20KObjectAllocatorTest14getBitOfObjectEPvP16KObjectAllocator
 5234      E7800000 
 5235              	.LVL719:
 260:src/kObjectAllocatorTest.cpp ****     if (getByteOfObject(objArr[3 * 8 + 5], objAlloc) != 3 || getBitOfObject(objArr[3 * 8 + 5], objA
 5236              		.loc 2 260 59 discriminator 3
 5237 2544 93072000 		li	a5,2
 5238 2548 E312F5FC 		bne	a0,a5,.L338
 5239              	.L339:
 263:src/kObjectAllocatorTest.cpp ****     objArr[6 * 8 + 3] = objAlloc->allocateNewObject();
 5240              		.loc 2 263 5 is_stmt 1
 263:src/kObjectAllocatorTest.cpp ****     objArr[6 * 8 + 3] = objAlloc->allocateNewObject();
 5241              		.loc 2 263 52 is_stmt 0
 5242 254c 13850400 		mv	a0,s1
 5243 2550 97000000 		call	_ZN16KObjectAllocator17allocateNewObjectEv@plt
 5243      E7800000 
 5244              	.LVL720:
 5245 2558 13090500 		mv	s2,a0
 264:src/kObjectAllocatorTest.cpp ****     if (getByteOfObject(objArr[6 * 8 + 3], objAlloc) != 6
 5246              		.loc 2 264 5 is_stmt 1
 264:src/kObjectAllocatorTest.cpp ****     if (getByteOfObject(objArr[6 * 8 + 3], objAlloc) != 6
 5247              		.loc 2 264 24 is_stmt 0
 5248 255c 13860400 		mv	a2,s1
 5249 2560 93050500 		mv	a1,a0
 5250 2564 13850900 		mv	a0,s3
GAS LISTING /tmp/cciR7THS.s 			page 131


 5251 2568 97000000 		call	_ZN20KObjectAllocatorTest15getByteOfObjectEPvP16KObjectAllocator
 5251      E7800000 
 5252              	.LVL721:
 265:src/kObjectAllocatorTest.cpp ****         || getBitOfObject(objArr[6 * 8 + 3], objAlloc) != 4)
 5253              		.loc 2 265 9
 5254 2570 93076000 		li	a5,6
 5255 2574 630EF500 		beq	a0,a5,.L380
 5256              	.L341:
 266:src/kObjectAllocatorTest.cpp ****     { delete objAlloc; return false; }
 5257              		.loc 2 266 7 is_stmt 1 discriminator 4
 266:src/kObjectAllocatorTest.cpp ****     { delete objAlloc; return false; }
 5258              		.loc 2 266 22 is_stmt 0 discriminator 4
 5259 2578 63880400 		beqz	s1,.L344
 266:src/kObjectAllocatorTest.cpp ****     { delete objAlloc; return false; }
 5260              		.loc 2 266 14 discriminator 1
 5261 257c 13850400 		mv	a0,s1
 5262 2580 97000000 		call	_ZN16KObjectAllocatordlEPv
 5262      E7800000 
 5263              	.LVL722:
 5264              	.L344:
 266:src/kObjectAllocatorTest.cpp ****     { delete objAlloc; return false; }
 5265              		.loc 2 266 24 is_stmt 1 discriminator 2
 266:src/kObjectAllocatorTest.cpp ****     { delete objAlloc; return false; }
 5266              		.loc 2 266 31 is_stmt 0 discriminator 2
 5267 2588 13050000 		li	a0,0
 5268 258c 6FF0DF9B 		j	.L363
 5269              	.L380:
 265:src/kObjectAllocatorTest.cpp ****         || getBitOfObject(objArr[6 * 8 + 3], objAlloc) != 4)
 5270              		.loc 2 265 26 discriminator 2
 5271 2590 13860400 		mv	a2,s1
 5272 2594 93050900 		mv	a1,s2
 5273 2598 13850900 		mv	a0,s3
 5274 259c 97000000 		call	_ZN20KObjectAllocatorTest14getBitOfObjectEPvP16KObjectAllocator
 5274      E7800000 
 5275              	.LVL723:
 265:src/kObjectAllocatorTest.cpp ****         || getBitOfObject(objArr[6 * 8 + 3], objAlloc) != 4)
 5276              		.loc 2 265 9 discriminator 2
 5277 25a4 93074000 		li	a5,4
 5278 25a8 E318F5FC 		bne	a0,a5,.L341
 267:src/kObjectAllocatorTest.cpp ****     if (objAlloc->nextNonTakenByte != 6) { delete objAlloc; return false; }
 5279              		.loc 2 267 5 is_stmt 1
 267:src/kObjectAllocatorTest.cpp ****     if (objAlloc->nextNonTakenByte != 6) { delete objAlloc; return false; }
 5280              		.loc 2 267 19 is_stmt 0
 5281 25ac 03B78403 		ld	a4,56(s1)
 267:src/kObjectAllocatorTest.cpp ****     if (objAlloc->nextNonTakenByte != 6) { delete objAlloc; return false; }
 5282              		.loc 2 267 5
 5283 25b0 93076000 		li	a5,6
 5284 25b4 6318F70E 		bne	a4,a5,.L342
 5285              	.LBB419:
 269:src/kObjectAllocatorTest.cpp ****     for (int i = 0; i < 3; ++i) {
 5286              		.loc 2 269 14
 5287 25b8 130A0000 		li	s4,0
 5288              	.L343:
 5289              	.LVL724:
 269:src/kObjectAllocatorTest.cpp ****     for (int i = 0; i < 3; ++i) {
 5290              		.loc 2 269 23 is_stmt 1 discriminator 1
 5291 25bc 93072000 		li	a5,2
GAS LISTING /tmp/cciR7THS.s 			page 132


 5292 25c0 63CE4715 		bgt	s4,a5,.L346
 270:src/kObjectAllocatorTest.cpp ****         objAlloc->freeObject(objArr[255]);
 5293              		.loc 2 270 9
 270:src/kObjectAllocatorTest.cpp ****         objAlloc->freeObject(objArr[255]);
 5294              		.loc 2 270 29 is_stmt 0
 5295 25c4 833584FB 		ld	a1,-72(s0)
 5296 25c8 13850400 		mv	a0,s1
 5297 25cc 97000000 		call	_ZN16KObjectAllocator10freeObjectEPv@plt
 5297      E7800000 
 5298              	.LVL725:
 271:src/kObjectAllocatorTest.cpp ****         objArr[255] = objAlloc->allocateNewObject();
 5299              		.loc 2 271 9 is_stmt 1
 271:src/kObjectAllocatorTest.cpp ****         objArr[255] = objAlloc->allocateNewObject();
 5300              		.loc 2 271 50 is_stmt 0
 5301 25d4 13850400 		mv	a0,s1
 5302 25d8 97000000 		call	_ZN16KObjectAllocator17allocateNewObjectEv@plt
 5302      E7800000 
 5303              	.LVL726:
 5304 25e0 13090500 		mv	s2,a0
 271:src/kObjectAllocatorTest.cpp ****         objArr[255] = objAlloc->allocateNewObject();
 5305              		.loc 2 271 21
 5306 25e4 233CA4FA 		sd	a0,-72(s0)
 272:src/kObjectAllocatorTest.cpp ****         if (getByteOfObject(objArr[255], objAlloc) != 31
 5307              		.loc 2 272 9 is_stmt 1
 272:src/kObjectAllocatorTest.cpp ****         if (getByteOfObject(objArr[255], objAlloc) != 31
 5308              		.loc 2 272 28 is_stmt 0
 5309 25e8 13860400 		mv	a2,s1
 5310 25ec 93050500 		mv	a1,a0
 5311 25f0 13850900 		mv	a0,s3
 5312 25f4 97000000 		call	_ZN20KObjectAllocatorTest15getByteOfObjectEPvP16KObjectAllocator
 5312      E7800000 
 5313              	.LVL727:
 273:src/kObjectAllocatorTest.cpp ****             || getBitOfObject(objArr[255], objAlloc) != 0)
 5314              		.loc 2 273 13
 5315 25fc 9307F001 		li	a5,31
 5316 2600 631EF50A 		bne	a0,a5,.L347
 273:src/kObjectAllocatorTest.cpp ****             || getBitOfObject(objArr[255], objAlloc) != 0)
 5317              		.loc 2 273 30 discriminator 2
 5318 2604 13860400 		mv	a2,s1
 5319 2608 93050900 		mv	a1,s2
 5320 260c 13850900 		mv	a0,s3
 5321 2610 97000000 		call	_ZN20KObjectAllocatorTest14getBitOfObjectEPvP16KObjectAllocator
 5321      E7800000 
 5322              	.LVL728:
 273:src/kObjectAllocatorTest.cpp ****             || getBitOfObject(objArr[255], objAlloc) != 0)
 5323              		.loc 2 273 13 discriminator 2
 5324 2618 6312050A 		bnez	a0,.L347
 275:src/kObjectAllocatorTest.cpp ****         if (objAlloc->nextNonTakenByte != 32) { delete objAlloc; return false; }
 5325              		.loc 2 275 9 is_stmt 1
 275:src/kObjectAllocatorTest.cpp ****         if (objAlloc->nextNonTakenByte != 32) { delete objAlloc; return false; }
 5326              		.loc 2 275 23 is_stmt 0
 5327 261c 03B78403 		ld	a4,56(s1)
 275:src/kObjectAllocatorTest.cpp ****         if (objAlloc->nextNonTakenByte != 32) { delete objAlloc; return false; }
 5328              		.loc 2 275 9
 5329 2620 93070002 		li	a5,32
 5330 2624 6318F70A 		bne	a4,a5,.L381
 277:src/kObjectAllocatorTest.cpp ****         objAlloc->freeObject(objArr[1]);
GAS LISTING /tmp/cciR7THS.s 			page 133


 5331              		.loc 2 277 9 is_stmt 1
 277:src/kObjectAllocatorTest.cpp ****         objAlloc->freeObject(objArr[1]);
 5332              		.loc 2 277 29 is_stmt 0
 5333 2628 B7FAFFFF 		li	s5,-4096
 5334 262c 93878A7C 		addi	a5,s5,1992
 5335 2630 B3878700 		add	a5,a5,s0
 5336 2634 83B50700 		ld	a1,0(a5)
 5337 2638 13850400 		mv	a0,s1
 5338 263c 97000000 		call	_ZN16KObjectAllocator10freeObjectEPv@plt
 5338      E7800000 
 5339              	.LVL729:
 278:src/kObjectAllocatorTest.cpp ****         objArr[1] = objAlloc->allocateNewObject();
 5340              		.loc 2 278 9 is_stmt 1
 278:src/kObjectAllocatorTest.cpp ****         objArr[1] = objAlloc->allocateNewObject();
 5341              		.loc 2 278 48 is_stmt 0
 5342 2644 13850400 		mv	a0,s1
 5343 2648 97000000 		call	_ZN16KObjectAllocator17allocateNewObjectEv@plt
 5343      E7800000 
 5344              	.LVL730:
 5345 2650 13090500 		mv	s2,a0
 278:src/kObjectAllocatorTest.cpp ****         objArr[1] = objAlloc->allocateNewObject();
 5346              		.loc 2 278 19
 5347 2654 93878A7C 		addi	a5,s5,1992
 5348 2658 B3878700 		add	a5,a5,s0
 5349 265c 23B0A700 		sd	a0,0(a5)
 279:src/kObjectAllocatorTest.cpp ****         if (getByteOfObject(objArr[1], objAlloc) != 0
 5350              		.loc 2 279 9 is_stmt 1
 279:src/kObjectAllocatorTest.cpp ****         if (getByteOfObject(objArr[1], objAlloc) != 0
 5351              		.loc 2 279 28 is_stmt 0
 5352 2660 13860400 		mv	a2,s1
 5353 2664 93050500 		mv	a1,a0
 5354 2668 13850900 		mv	a0,s3
 5355 266c 97000000 		call	_ZN20KObjectAllocatorTest15getByteOfObjectEPvP16KObjectAllocator
 5355      E7800000 
 5356              	.LVL731:
 280:src/kObjectAllocatorTest.cpp ****             || getBitOfObject(objArr[1], objAlloc) != 6)
 5357              		.loc 2 280 13
 5358 2674 631C0506 		bnez	a0,.L352
 280:src/kObjectAllocatorTest.cpp ****             || getBitOfObject(objArr[1], objAlloc) != 6)
 5359              		.loc 2 280 30 discriminator 2
 5360 2678 13860400 		mv	a2,s1
 5361 267c 93050900 		mv	a1,s2
 5362 2680 13850900 		mv	a0,s3
 5363 2684 97000000 		call	_ZN20KObjectAllocatorTest14getBitOfObjectEPvP16KObjectAllocator
 5363      E7800000 
 5364              	.LVL732:
 280:src/kObjectAllocatorTest.cpp ****             || getBitOfObject(objArr[1], objAlloc) != 6)
 5365              		.loc 2 280 13 discriminator 2
 5366 268c 93076000 		li	a5,6
 5367 2690 631EF504 		bne	a0,a5,.L352
 282:src/kObjectAllocatorTest.cpp ****         if (objAlloc->nextNonTakenByte != 0) { delete objAlloc; return false; }
 5368              		.loc 2 282 9 is_stmt 1
 282:src/kObjectAllocatorTest.cpp ****         if (objAlloc->nextNonTakenByte != 0) { delete objAlloc; return false; }
 5369              		.loc 2 282 23 is_stmt 0
 5370 2694 83B78403 		ld	a5,56(s1)
 282:src/kObjectAllocatorTest.cpp ****         if (objAlloc->nextNonTakenByte != 0) { delete objAlloc; return false; }
 5371              		.loc 2 282 9
GAS LISTING /tmp/cciR7THS.s 			page 134


 5372 2698 63960706 		bnez	a5,.L382
 269:src/kObjectAllocatorTest.cpp ****     for (int i = 0; i < 3; ++i) {
 5373              		.loc 2 269 5 is_stmt 1 discriminator 2
 5374 269c 1B0A1A00 		addiw	s4,s4,1
 5375              	.LVL733:
 5376 26a0 6FF0DFF1 		j	.L343
 5377              	.L342:
 5378              	.LBE419:
 267:src/kObjectAllocatorTest.cpp ****     if (objAlloc->nextNonTakenByte != 6) { delete objAlloc; return false; }
 5379              		.loc 2 267 44 discriminator 1
 267:src/kObjectAllocatorTest.cpp ****     if (objAlloc->nextNonTakenByte != 6) { delete objAlloc; return false; }
 5380              		.loc 2 267 59 is_stmt 0 discriminator 1
 5381 26a4 63880400 		beqz	s1,.L345
 267:src/kObjectAllocatorTest.cpp ****     if (objAlloc->nextNonTakenByte != 6) { delete objAlloc; return false; }
 5382              		.loc 2 267 51 discriminator 2
 5383 26a8 13850400 		mv	a0,s1
 5384 26ac 97000000 		call	_ZN16KObjectAllocatordlEPv
 5384      E7800000 
 5385              	.LVL734:
 5386              	.L345:
 267:src/kObjectAllocatorTest.cpp ****     if (objAlloc->nextNonTakenByte != 6) { delete objAlloc; return false; }
 5387              		.loc 2 267 61 is_stmt 1 discriminator 3
 267:src/kObjectAllocatorTest.cpp ****     if (objAlloc->nextNonTakenByte != 6) { delete objAlloc; return false; }
 5388              		.loc 2 267 68 is_stmt 0 discriminator 3
 5389 26b4 13050000 		li	a0,0
 5390 26b8 6FF01F89 		j	.L363
 5391              	.LVL735:
 5392              	.L347:
 5393              	.LBB420:
 274:src/kObjectAllocatorTest.cpp ****         { delete objAlloc; return false; }
 5394              		.loc 2 274 11 is_stmt 1 discriminator 4
 274:src/kObjectAllocatorTest.cpp ****         { delete objAlloc; return false; }
 5395              		.loc 2 274 26 is_stmt 0 discriminator 4
 5396 26bc 63880400 		beqz	s1,.L350
 274:src/kObjectAllocatorTest.cpp ****         { delete objAlloc; return false; }
 5397              		.loc 2 274 18 discriminator 1
 5398 26c0 13850400 		mv	a0,s1
 5399 26c4 97000000 		call	_ZN16KObjectAllocatordlEPv
 5399      E7800000 
 5400              	.LVL736:
 5401              	.L350:
 274:src/kObjectAllocatorTest.cpp ****         { delete objAlloc; return false; }
 5402              		.loc 2 274 28 is_stmt 1 discriminator 2
 274:src/kObjectAllocatorTest.cpp ****         { delete objAlloc; return false; }
 5403              		.loc 2 274 35 is_stmt 0 discriminator 2
 5404 26cc 13050000 		li	a0,0
 5405 26d0 6FF09F87 		j	.L363
 5406              	.L381:
 275:src/kObjectAllocatorTest.cpp ****         if (objAlloc->nextNonTakenByte != 32) { delete objAlloc; return false; }
 5407              		.loc 2 275 49 is_stmt 1 discriminator 1
 275:src/kObjectAllocatorTest.cpp ****         if (objAlloc->nextNonTakenByte != 32) { delete objAlloc; return false; }
 5408              		.loc 2 275 64 is_stmt 0 discriminator 1
 5409 26d4 63880400 		beqz	s1,.L351
 275:src/kObjectAllocatorTest.cpp ****         if (objAlloc->nextNonTakenByte != 32) { delete objAlloc; return false; }
 5410              		.loc 2 275 56 discriminator 2
 5411 26d8 13850400 		mv	a0,s1
 5412 26dc 97000000 		call	_ZN16KObjectAllocatordlEPv
GAS LISTING /tmp/cciR7THS.s 			page 135


 5412      E7800000 
 5413              	.LVL737:
 5414              	.L351:
 275:src/kObjectAllocatorTest.cpp ****         if (objAlloc->nextNonTakenByte != 32) { delete objAlloc; return false; }
 5415              		.loc 2 275 66 is_stmt 1 discriminator 3
 275:src/kObjectAllocatorTest.cpp ****         if (objAlloc->nextNonTakenByte != 32) { delete objAlloc; return false; }
 5416              		.loc 2 275 73 is_stmt 0 discriminator 3
 5417 26e4 13050000 		li	a0,0
 5418 26e8 6FF01F86 		j	.L363
 5419              	.L352:
 281:src/kObjectAllocatorTest.cpp ****         { delete objAlloc; return false; }
 5420              		.loc 2 281 11 is_stmt 1 discriminator 4
 281:src/kObjectAllocatorTest.cpp ****         { delete objAlloc; return false; }
 5421              		.loc 2 281 26 is_stmt 0 discriminator 4
 5422 26ec 63880400 		beqz	s1,.L355
 281:src/kObjectAllocatorTest.cpp ****         { delete objAlloc; return false; }
 5423              		.loc 2 281 18 discriminator 1
 5424 26f0 13850400 		mv	a0,s1
 5425 26f4 97000000 		call	_ZN16KObjectAllocatordlEPv
 5425      E7800000 
 5426              	.LVL738:
 5427              	.L355:
 281:src/kObjectAllocatorTest.cpp ****         { delete objAlloc; return false; }
 5428              		.loc 2 281 28 is_stmt 1 discriminator 2
 281:src/kObjectAllocatorTest.cpp ****         { delete objAlloc; return false; }
 5429              		.loc 2 281 35 is_stmt 0 discriminator 2
 5430 26fc 13050000 		li	a0,0
 5431 2700 6FF09F84 		j	.L363
 5432              	.L382:
 282:src/kObjectAllocatorTest.cpp ****         if (objAlloc->nextNonTakenByte != 0) { delete objAlloc; return false; }
 5433              		.loc 2 282 48 is_stmt 1 discriminator 1
 282:src/kObjectAllocatorTest.cpp ****         if (objAlloc->nextNonTakenByte != 0) { delete objAlloc; return false; }
 5434              		.loc 2 282 63 is_stmt 0 discriminator 1
 5435 2704 63880400 		beqz	s1,.L356
 282:src/kObjectAllocatorTest.cpp ****         if (objAlloc->nextNonTakenByte != 0) { delete objAlloc; return false; }
 5436              		.loc 2 282 55 discriminator 2
 5437 2708 13850400 		mv	a0,s1
 5438 270c 97000000 		call	_ZN16KObjectAllocatordlEPv
 5438      E7800000 
 5439              	.LVL739:
 5440              	.L356:
 282:src/kObjectAllocatorTest.cpp ****         if (objAlloc->nextNonTakenByte != 0) { delete objAlloc; return false; }
 5441              		.loc 2 282 65 is_stmt 1 discriminator 3
 282:src/kObjectAllocatorTest.cpp ****         if (objAlloc->nextNonTakenByte != 0) { delete objAlloc; return false; }
 5442              		.loc 2 282 72 is_stmt 0 discriminator 3
 5443 2714 13050000 		li	a0,0
 5444 2718 6FF01F83 		j	.L363
 5445              	.L346:
 5446              	.LBE420:
 284:src/kObjectAllocatorTest.cpp ****     delete objAlloc;
 5447              		.loc 2 284 5 is_stmt 1
 284:src/kObjectAllocatorTest.cpp ****     delete objAlloc;
 5448              		.loc 2 284 20 is_stmt 0
 5449 271c 638C0400 		beqz	s1,.L361
 284:src/kObjectAllocatorTest.cpp ****     delete objAlloc;
 5450              		.loc 2 284 12 discriminator 1
 5451 2720 13850400 		mv	a0,s1
GAS LISTING /tmp/cciR7THS.s 			page 136


 5452 2724 97000000 		call	_ZN16KObjectAllocatordlEPv
 5452      E7800000 
 5453              	.LVL740:
 5454              	.LEHE14:
 285:src/kObjectAllocatorTest.cpp ****     return true;
 5455              		.loc 2 285 12 discriminator 1
 5456 272c 13051000 		li	a0,1
 5457 2730 6FF09F81 		j	.L363
 5458              	.L361:
 285:src/kObjectAllocatorTest.cpp ****     return true;
 5459              		.loc 2 285 12
 5460 2734 13051000 		li	a0,1
 5461 2738 6FF01F81 		j	.L363
 5462              	.LVL741:
 5463              	.L362:
 5464 273c 13090500 		mv	s2,a0
 219:src/kObjectAllocatorTest.cpp ****     KObjectAllocator* objAlloc = new KObjectAllocator(size, 5);
 5465              		.loc 2 219 62
 5466 2740 13850400 		mv	a0,s1
 5467 2744 97000000 		call	_ZN16KObjectAllocatordlEPv
 5467      E7800000 
 5468              	.LVL742:
 5469 274c 13050900 		mv	a0,s2
 5470              	.LEHB15:
 5471 2750 97000000 		call	_Unwind_Resume@plt
 5471      E7800000 
 5472              	.LVL743:
 5473              	.LEHE15:
 5474              		.cfi_endproc
 5475              	.LFE30:
 5476              		.section	.gcc_except_table
 5477              	.LLSDA30:
 5478 00a8 FF       		.byte	0xff
 5479 00a9 FF       		.byte	0xff
 5480 00aa 03       		.byte	0x3
 5481 00ab 34       		.byte	0x34
 5482 00ac 00000000 		.4byte	.LEHB12-.LFB30
 5483 00b0 00000000 		.4byte	.LEHE12-.LEHB12
 5484 00b4 00000000 		.4byte	0
 5485 00b8 00       		.byte	0
 5486 00b9 00000000 		.4byte	.LEHB13-.LFB30
 5487 00bd 00000000 		.4byte	.LEHE13-.LEHB13
 5488 00c1 00000000 		.4byte	.L362-.LFB30
 5489 00c5 00       		.byte	0
 5490 00c6 00000000 		.4byte	.LEHB14-.LFB30
 5491 00ca 00000000 		.4byte	.LEHE14-.LEHB14
 5492 00ce 00000000 		.4byte	0
 5493 00d2 00       		.byte	0
 5494 00d3 00000000 		.4byte	.LEHB15-.LFB30
 5495 00d7 00000000 		.4byte	.LEHE15-.LEHB15
 5496 00db 00000000 		.4byte	0
 5497 00df 00       		.byte	0
 5498              		.text
 5500              		.align	2
 5501              		.globl	_ZN20KObjectAllocatorTest4testEmm
 5503              	_ZN20KObjectAllocatorTest4testEmm:
 5504              	.LFB22:
GAS LISTING /tmp/cciR7THS.s 			page 137


  16:src/kObjectAllocatorTest.cpp **** bool KObjectAllocatorTest::test(size_t i, size_t size) {
 5505              		.loc 2 16 56 is_stmt 1
 5506              		.cfi_startproc
 5507              	.LVL744:
 5508 2758 130101FF 		addi	sp,sp,-16
 5509              		.cfi_def_cfa_offset 16
 5510 275c 23341100 		sd	ra,8(sp)
 5511 2760 23308100 		sd	s0,0(sp)
 5512              		.cfi_offset 1, -8
 5513              		.cfi_offset 8, -16
 5514 2764 13040101 		addi	s0,sp,16
 5515              		.cfi_def_cfa 8, 0
 5516 2768 93870500 		mv	a5,a1
 5517 276c 93050600 		mv	a1,a2
 5518              	.LVL745:
  17:src/kObjectAllocatorTest.cpp ****     switch (i) {
 5519              		.loc 2 17 5
 5520 2770 13072000 		li	a4,2
 5521 2774 638EE704 		beq	a5,a4,.L384
 5522 2778 6362F702 		bgtu	a5,a4,.L385
 5523 277c 63840704 		beqz	a5,.L386
 5524 2780 13071000 		li	a4,1
 5525 2784 6398E700 		bne	a5,a4,.L391
  18:src/kObjectAllocatorTest.cpp ****         case 0: return test0(size); break;
 5526              		.loc 2 18 37
  19:src/kObjectAllocatorTest.cpp ****         case 1: return test1(size); break;
 5527              		.loc 2 19 9
  19:src/kObjectAllocatorTest.cpp ****         case 1: return test1(size); break;
 5528              		.loc 2 19 17
  19:src/kObjectAllocatorTest.cpp ****         case 1: return test1(size); break;
 5529              		.loc 2 19 29 is_stmt 0
 5530 2788 97000000 		call	_ZN20KObjectAllocatorTest5test1Em
 5530      E7800000 
 5531              	.LVL746:
  19:src/kObjectAllocatorTest.cpp ****         case 1: return test1(size); break;
 5532              		.loc 2 19 34
 5533 2790 6F004002 		j	.L388
 5534              	.LVL747:
 5535              	.L391:
  17:src/kObjectAllocatorTest.cpp ****     switch (i) {
 5536              		.loc 2 17 5
 5537 2794 13050000 		li	a0,0
 5538              	.LVL748:
 5539 2798 6F00C001 		j	.L388
 5540              	.LVL749:
 5541              	.L385:
 5542 279c 13073000 		li	a4,3
 5543 27a0 6398E700 		bne	a5,a4,.L392
  20:src/kObjectAllocatorTest.cpp ****         case 2: return test2(size); break;
 5544              		.loc 2 20 37 is_stmt 1
  21:src/kObjectAllocatorTest.cpp ****         case 3: return test3(size); break;
 5545              		.loc 2 21 9
  21:src/kObjectAllocatorTest.cpp ****         case 3: return test3(size); break;
 5546              		.loc 2 21 17
  21:src/kObjectAllocatorTest.cpp ****         case 3: return test3(size); break;
 5547              		.loc 2 21 29 is_stmt 0
 5548 27a4 97000000 		call	_ZN20KObjectAllocatorTest5test3Em
GAS LISTING /tmp/cciR7THS.s 			page 138


 5548      E7800000 
 5549              	.LVL750:
  21:src/kObjectAllocatorTest.cpp ****         case 3: return test3(size); break;
 5550              		.loc 2 21 34
 5551 27ac 6F008000 		j	.L388
 5552              	.LVL751:
 5553              	.L392:
  17:src/kObjectAllocatorTest.cpp ****     switch (i) {
 5554              		.loc 2 17 5
 5555 27b0 13050000 		li	a0,0
 5556              	.LVL752:
 5557              	.L388:
  25:src/kObjectAllocatorTest.cpp **** }
 5558              		.loc 2 25 1
 5559 27b4 83308100 		ld	ra,8(sp)
 5560              		.cfi_remember_state
 5561              		.cfi_restore 1
 5562 27b8 03340100 		ld	s0,0(sp)
 5563              		.cfi_restore 8
 5564              		.cfi_def_cfa 2, 16
 5565 27bc 13010101 		addi	sp,sp,16
 5566              		.cfi_def_cfa_offset 0
 5567 27c0 67800000 		jr	ra
 5568              	.LVL753:
 5569              	.L386:
 5570              		.cfi_restore_state
  18:src/kObjectAllocatorTest.cpp ****         case 0: return test0(size); break;
 5571              		.loc 2 18 9 is_stmt 1
  18:src/kObjectAllocatorTest.cpp ****         case 0: return test0(size); break;
 5572              		.loc 2 18 17
  18:src/kObjectAllocatorTest.cpp ****         case 0: return test0(size); break;
 5573              		.loc 2 18 29 is_stmt 0
 5574 27c4 97000000 		call	_ZN20KObjectAllocatorTest5test0Em
 5574      E7800000 
 5575              	.LVL754:
  18:src/kObjectAllocatorTest.cpp ****         case 0: return test0(size); break;
 5576              		.loc 2 18 34
 5577 27cc 6FF09FFE 		j	.L388
 5578              	.LVL755:
 5579              	.L384:
  19:src/kObjectAllocatorTest.cpp ****         case 1: return test1(size); break;
 5580              		.loc 2 19 37 is_stmt 1
  20:src/kObjectAllocatorTest.cpp ****         case 2: return test2(size); break;
 5581              		.loc 2 20 9
  20:src/kObjectAllocatorTest.cpp ****         case 2: return test2(size); break;
 5582              		.loc 2 20 17
  20:src/kObjectAllocatorTest.cpp ****         case 2: return test2(size); break;
 5583              		.loc 2 20 29 is_stmt 0
 5584 27d0 97000000 		call	_ZN20KObjectAllocatorTest5test2Em
 5584      E7800000 
 5585              	.LVL756:
  20:src/kObjectAllocatorTest.cpp ****         case 2: return test2(size); break;
 5586              		.loc 2 20 34
 5587 27d8 6FF0DFFD 		j	.L388
 5588              		.cfi_endproc
 5589              	.LFE22:
 5591              		.section	.rodata.str1.8
GAS LISTING /tmp/cciR7THS.s 			page 139


 5592 005d 000000   		.align	3
 5593              	.LC3:
 5594 0060 4661696C 		.string	"Failed KObjectAllocator test "
 5594      6564204B 
 5594      4F626A65 
 5594      6374416C 
 5594      6C6F6361 
 5595 007e 0000     		.align	3
 5596              	.LC4:
 5597 0080 0A00     		.string	"\n"
 5598 0082 00000000 		.align	3
 5598      0000
 5599              	.LC5:
 5600 0088 50617373 		.string	"Passed "
 5600      65642000 
 5601              		.text
 5602              		.align	2
 5603              		.globl	_ZN20KObjectAllocatorTest8runTestsEv
 5605              	_ZN20KObjectAllocatorTest8runTestsEv:
 5606              	.LFB21:
   4:src/kObjectAllocatorTest.cpp **** bool KObjectAllocatorTest::runTests() {
 5607              		.loc 2 4 39 is_stmt 1
 5608              		.cfi_startproc
 5609              	.LVL757:
 5610 27dc 130101FC 		addi	sp,sp,-64
 5611              		.cfi_def_cfa_offset 64
 5612 27e0 233C1102 		sd	ra,56(sp)
 5613 27e4 23388102 		sd	s0,48(sp)
 5614 27e8 23349102 		sd	s1,40(sp)
 5615 27ec 23302103 		sd	s2,32(sp)
 5616 27f0 233C3101 		sd	s3,24(sp)
 5617 27f4 23384101 		sd	s4,16(sp)
 5618 27f8 23345101 		sd	s5,8(sp)
 5619 27fc 23306101 		sd	s6,0(sp)
 5620              		.cfi_offset 1, -8
 5621              		.cfi_offset 8, -16
 5622              		.cfi_offset 9, -24
 5623              		.cfi_offset 18, -32
 5624              		.cfi_offset 19, -40
 5625              		.cfi_offset 20, -48
 5626              		.cfi_offset 21, -56
 5627              		.cfi_offset 22, -64
 5628 2800 13040104 		addi	s0,sp,64
 5629              		.cfi_def_cfa 8, 0
 5630 2804 93090500 		mv	s3,a0
   5:src/kObjectAllocatorTest.cpp ****     for (size_t size : sizes)
 5631              		.loc 2 5 5
 5632              	.LBB421:
   5:src/kObjectAllocatorTest.cpp ****     for (size_t size : sizes)
 5633              		.loc 2 5 24 is_stmt 0
 5634 2808 930A8500 		addi	s5,a0,8
 5635              	.LVL758:
 5636 280c 130B0504 		addi	s6,a0,64
 5637              	.LVL759:
 5638              	.L399:
   5:src/kObjectAllocatorTest.cpp ****     for (size_t size : sizes)
 5639              		.loc 2 5 24 is_stmt 1 discriminator 1
GAS LISTING /tmp/cciR7THS.s 			page 140


 5640 2810 63886A0D 		beq	s5,s6,.L400
 5641              	.LBB422:
   5:src/kObjectAllocatorTest.cpp ****     for (size_t size : sizes)
 5642              		.loc 2 5 17 is_stmt 0 discriminator 2
 5643 2814 03BA0A00 		ld	s4,0(s5)
 5644              	.LVL760:
   6:src/kObjectAllocatorTest.cpp ****     for (size_t i = 0; i < numberOfTests; ++i) {
 5645              		.loc 2 6 5 is_stmt 1 discriminator 2
 5646              	.LBB423:
   6:src/kObjectAllocatorTest.cpp ****     for (size_t i = 0; i < numberOfTests; ++i) {
 5647              		.loc 2 6 17 is_stmt 0 discriminator 2
 5648 2818 93040000 		li	s1,0
 5649 281c 6F000007 		j	.L398
 5650              	.LVL761:
 5651              	.L402:
   8:src/kObjectAllocatorTest.cpp ****             printString("Failed KObjectAllocator test ");
 5652              		.loc 2 8 13 is_stmt 1
   8:src/kObjectAllocatorTest.cpp ****             printString("Failed KObjectAllocator test ");
 5653              		.loc 2 8 24 is_stmt 0
 5654 2820 17050000 		lla	a0,.LC3
 5654      13050500 
 5655 2828 97000000 		call	_Z11printStringPKc@plt
 5655      E7800000 
 5656              	.LVL762:
   9:src/kObjectAllocatorTest.cpp ****             printInteger(i); printString("\n"); return false;
 5657              		.loc 2 9 13 is_stmt 1
   9:src/kObjectAllocatorTest.cpp ****             printInteger(i); printString("\n"); return false;
 5658              		.loc 2 9 25 is_stmt 0
 5659 2830 13850400 		mv	a0,s1
 5660 2834 97000000 		call	_Z12printIntegerm@plt
 5660      E7800000 
 5661              	.LVL763:
   9:src/kObjectAllocatorTest.cpp ****             printInteger(i); printString("\n"); return false;
 5662              		.loc 2 9 30 is_stmt 1
   9:src/kObjectAllocatorTest.cpp ****             printInteger(i); printString("\n"); return false;
 5663              		.loc 2 9 41 is_stmt 0
 5664 283c 17050000 		lla	a0,.LC4
 5664      13050500 
 5665 2844 97000000 		call	_Z11printStringPKc@plt
 5665      E7800000 
 5666              	.LVL764:
   9:src/kObjectAllocatorTest.cpp ****             printInteger(i); printString("\n"); return false;
 5667              		.loc 2 9 49 is_stmt 1
 5668              	.L394:
 5669              	.LBE423:
 5670              	.LBE422:
 5671              	.LBE421:
  14:src/kObjectAllocatorTest.cpp **** }
 5672              		.loc 2 14 1 is_stmt 0
 5673 284c 13050900 		mv	a0,s2
 5674 2850 83308103 		ld	ra,56(sp)
 5675              		.cfi_remember_state
 5676              		.cfi_restore 1
 5677 2854 03340103 		ld	s0,48(sp)
 5678              		.cfi_restore 8
 5679              		.cfi_def_cfa 2, 64
 5680 2858 83348102 		ld	s1,40(sp)
GAS LISTING /tmp/cciR7THS.s 			page 141


 5681              		.cfi_restore 9
 5682 285c 03390102 		ld	s2,32(sp)
 5683              		.cfi_restore 18
 5684 2860 83398101 		ld	s3,24(sp)
 5685              		.cfi_restore 19
 5686              	.LVL765:
 5687 2864 033A0101 		ld	s4,16(sp)
 5688              		.cfi_restore 20
 5689 2868 833A8100 		ld	s5,8(sp)
 5690              		.cfi_restore 21
 5691              	.LVL766:
 5692 286c 033B0100 		ld	s6,0(sp)
 5693              		.cfi_restore 22
 5694              	.LVL767:
 5695 2870 13010104 		addi	sp,sp,64
 5696              		.cfi_def_cfa_offset 0
 5697 2874 67800000 		jr	ra
 5698              	.LVL768:
 5699              	.L403:
 5700              		.cfi_restore_state
 5701              	.LBB426:
 5702              	.LBB425:
 5703              	.LBB424:
  11:src/kObjectAllocatorTest.cpp ****         if (i != 0 && (i + 1) % 10 == 0) printString("\n");
 5704              		.loc 2 11 42 is_stmt 1 discriminator 2
  11:src/kObjectAllocatorTest.cpp ****         if (i != 0 && (i + 1) % 10 == 0) printString("\n");
 5705              		.loc 2 11 53 is_stmt 0 discriminator 2
 5706 2878 17050000 		lla	a0,.LC4
 5706      13050500 
 5707 2880 97000000 		call	_Z11printStringPKc@plt
 5707      E7800000 
 5708              	.LVL769:
 5709              	.L397:
   6:src/kObjectAllocatorTest.cpp ****     for (size_t i = 0; i < numberOfTests; ++i) {
 5710              		.loc 2 6 5 is_stmt 1 discriminator 2
 5711 2888 93841400 		addi	s1,s1,1
 5712              	.LVL770:
 5713              	.L398:
   6:src/kObjectAllocatorTest.cpp ****     for (size_t i = 0; i < numberOfTests; ++i) {
 5714              		.loc 2 6 26 discriminator 1
   6:src/kObjectAllocatorTest.cpp ****     for (size_t i = 0; i < numberOfTests; ++i) {
 5715              		.loc 2 6 28 is_stmt 0 discriminator 1
 5716 288c 83B70900 		ld	a5,0(s3)
   6:src/kObjectAllocatorTest.cpp ****     for (size_t i = 0; i < numberOfTests; ++i) {
 5717              		.loc 2 6 26 discriminator 1
 5718 2890 63F4F404 		bleu	a5,s1,.L395
   7:src/kObjectAllocatorTest.cpp ****         if (!test(i, size)) {
 5719              		.loc 2 7 9 is_stmt 1
   7:src/kObjectAllocatorTest.cpp ****         if (!test(i, size)) {
 5720              		.loc 2 7 18 is_stmt 0
 5721 2894 13060A00 		mv	a2,s4
 5722 2898 93850400 		mv	a1,s1
 5723 289c 13850900 		mv	a0,s3
 5724 28a0 97000000 		call	_ZN20KObjectAllocatorTest4testEmm
 5724      E7800000 
 5725              	.LVL771:
 5726 28a8 13090500 		mv	s2,a0
GAS LISTING /tmp/cciR7THS.s 			page 142


   7:src/kObjectAllocatorTest.cpp ****         if (!test(i, size)) {
 5727              		.loc 2 7 9
 5728 28ac E30A05F6 		beqz	a0,.L402
  10:src/kObjectAllocatorTest.cpp ****         } else printString("Passed ");
 5729              		.loc 2 10 16 is_stmt 1
  10:src/kObjectAllocatorTest.cpp ****         } else printString("Passed ");
 5730              		.loc 2 10 27 is_stmt 0
 5731 28b0 17050000 		lla	a0,.LC5
 5731      13050500 
 5732 28b8 97000000 		call	_Z11printStringPKc@plt
 5732      E7800000 
 5733              	.LVL772:
  11:src/kObjectAllocatorTest.cpp ****         if (i != 0 && (i + 1) % 10 == 0) printString("\n");
 5734              		.loc 2 11 9 is_stmt 1
 5735 28c0 E38404FC 		beqz	s1,.L397
  11:src/kObjectAllocatorTest.cpp ****         if (i != 0 && (i + 1) % 10 == 0) printString("\n");
 5736              		.loc 2 11 26 is_stmt 0 discriminator 1
 5737 28c4 93871400 		addi	a5,s1,1
  11:src/kObjectAllocatorTest.cpp ****         if (i != 0 && (i + 1) % 10 == 0) printString("\n");
 5738              		.loc 2 11 31 discriminator 1
 5739 28c8 1307A000 		li	a4,10
 5740 28cc B3F7E702 		remu	a5,a5,a4
  11:src/kObjectAllocatorTest.cpp ****         if (i != 0 && (i + 1) % 10 == 0) printString("\n");
 5741              		.loc 2 11 20 discriminator 1
 5742 28d0 E39C07FA 		bnez	a5,.L397
 5743 28d4 6FF05FFA 		j	.L403
 5744              	.L395:
 5745              	.LBE424:
 5746              	.LBE425:
   5:src/kObjectAllocatorTest.cpp ****     for (size_t size : sizes)
 5747              		.loc 2 5 5 is_stmt 1 discriminator 3
 5748 28d8 938A8A00 		addi	s5,s5,8
 5749              	.LVL773:
 5750 28dc 6FF05FF3 		j	.L399
 5751              	.LVL774:
 5752              	.L400:
 5753              	.LBE426:
  13:src/kObjectAllocatorTest.cpp ****     return true;
 5754              		.loc 2 13 12 is_stmt 0
 5755 28e0 13091000 		li	s2,1
 5756 28e4 6FF09FF6 		j	.L394
 5757              		.cfi_endproc
 5758              	.LFE21:
 5760              		.section	.rodata
 5761              		.align	3
 5762              		.set	.LANCHOR0,. + 0
 5763              	.LC0:
 5764 0000 01       		.byte	1
 5765 0001 01       		.byte	1
 5766 0002 01       		.byte	1
 5767 0003 01       		.byte	1
 5768 0004 00       		.byte	0
 5769 0005 01       		.byte	1
 5770 0006 01       		.byte	1
 5771 0007 00       		.byte	0
 5772 0008 01       		.byte	1
 5773 0009 01       		.byte	1
GAS LISTING /tmp/cciR7THS.s 			page 143


 5774 000a 00       		.byte	0
 5775 000b 00       		.byte	0
 5776 000c 00       		.byte	0
 5777 000d 00       		.byte	0
 5778 000e 00       		.byte	0
 5779 000f 00       		.byte	0
 5780              		.text
 5781              	.Letext0:
 5782              		.file 3 "src/../h/../lib/hw.h"
 5783              		.file 4 "src/../h/memoryAllocator.hpp"
 5784              		.file 5 "src/../h/kObjectAllocatorTest.hpp"
 5785              		.file 6 "src/../h/print.hpp"
 15699              		.align	3
 15702              	DW.ref.__gxx_personality_v0:
 15703 0000 00000000 		.dword	__gxx_personality_v0
 15703      00000000 
 15704              		.ident	"GCC: (Ubuntu 9.4.0-1ubuntu1~20.04) 9.4.0"
 15705              		.section	.note.GNU-stack,"",@progbits
GAS LISTING /tmp/cciR7THS.s 			page 144


DEFINED SYMBOLS
                            *ABS*:0000000000000000 kObjectAllocatorTest.cpp
     /tmp/cciR7THS.s:10     .text._ZN16KObjectAllocatordlEPv:0000000000000000 _ZN16KObjectAllocatordlEPv
     /tmp/cciR7THS.s:14     .text._ZN16KObjectAllocatordlEPv:0000000000000000 .L0 
     /tmp/cciR7THS.s:16     .text._ZN16KObjectAllocatordlEPv:0000000000000000 .L0 
     /tmp/cciR7THS.s:17     .text._ZN16KObjectAllocatordlEPv:0000000000000004 .L0 
     /tmp/cciR7THS.s:22     .text._ZN16KObjectAllocatordlEPv:0000000000000014 .L0 
     /tmp/cciR7THS.s:23     .text._ZN16KObjectAllocatordlEPv:0000000000000014 .L0 
     /tmp/cciR7THS.s:24     .text._ZN16KObjectAllocatordlEPv:0000000000000014 .L0 
     /tmp/cciR7THS.s:25     .text._ZN16KObjectAllocatordlEPv:0000000000000014 .L0 
     /tmp/cciR7THS.s:27     .text._ZN16KObjectAllocatordlEPv:0000000000000018 .L0 
     /tmp/cciR7THS.s:32     .text._ZN16KObjectAllocatordlEPv:000000000000001c .L0 
     /tmp/cciR7THS.s:33     .text._ZN16KObjectAllocatordlEPv:000000000000001c .L0 
     /tmp/cciR7THS.s:37     .text._ZN16KObjectAllocatordlEPv:0000000000000020 .L0 
     /tmp/cciR7THS.s:38     .text._ZN16KObjectAllocatordlEPv:0000000000000020 .L0 
     /tmp/cciR7THS.s:40     .text._ZN16KObjectAllocatordlEPv:0000000000000024 .L0 
     /tmp/cciR7THS.s:42     .text._ZN16KObjectAllocatordlEPv:0000000000000028 .L0 
     /tmp/cciR7THS.s:43     .text._ZN16KObjectAllocatordlEPv:0000000000000028 .L0 
     /tmp/cciR7THS.s:46     .text._ZN16KObjectAllocatordlEPv:0000000000000030 .L0 
     /tmp/cciR7THS.s:48     .text._ZN16KObjectAllocatordlEPv:0000000000000034 .L0 
     /tmp/cciR7THS.s:51     .text._ZN16KObjectAllocatordlEPv:000000000000003c .L0 
     /tmp/cciR7THS.s:55     .text._ZN16KObjectAllocatordlEPv:0000000000000048 .L0 
     /tmp/cciR7THS.s:61     .text._ZN16KObjectAllocatordlEPv:0000000000000050 .L0 
     /tmp/cciR7THS.s:62     .text._ZN16KObjectAllocatordlEPv:0000000000000050 .L0 
     /tmp/cciR7THS.s:68     .text._ZN16KObjectAllocatordlEPv:0000000000000064 .L0 
     /tmp/cciR7THS.s:69     .text._ZN16KObjectAllocatordlEPv:0000000000000064 .L0 
     /tmp/cciR7THS.s:75     .text._ZN16KObjectAllocatordlEPv:0000000000000078 .L0 
     /tmp/cciR7THS.s:76     .text._ZN16KObjectAllocatordlEPv:0000000000000078 .L0 
     /tmp/cciR7THS.s:82     .text._ZN16KObjectAllocatordlEPv:000000000000008c .L0 
     /tmp/cciR7THS.s:83     .text._ZN16KObjectAllocatordlEPv:0000000000000090 .L0 
     /tmp/cciR7THS.s:85     .text._ZN16KObjectAllocatordlEPv:0000000000000094 .L0 
     /tmp/cciR7THS.s:86     .text._ZN16KObjectAllocatordlEPv:0000000000000094 .L0 
     /tmp/cciR7THS.s:88     .text._ZN16KObjectAllocatordlEPv:0000000000000098 .L0 
     /tmp/cciR7THS.s:91     .text._ZN16KObjectAllocatordlEPv:000000000000009c .L0 
     /tmp/cciR7THS.s:94     .text._ZN16KObjectAllocatordlEPv:00000000000000a0 .L0 
     /tmp/cciR7THS.s:96     .text._ZN16KObjectAllocatordlEPv:00000000000000a4 .L0 
     /tmp/cciR7THS.s:107    .text:0000000000000000 _ZN20KObjectAllocatorTest15getValueOfBitAtEmmP16KObjectAllocator
     /tmp/cciR7THS.s:111    .text:0000000000000000 .L0 
     /tmp/cciR7THS.s:113    .text:0000000000000000 .L0 
     /tmp/cciR7THS.s:115    .text:0000000000000000 .L0 
     /tmp/cciR7THS.s:116    .text:0000000000000000 .L0 
     /tmp/cciR7THS.s:121    .text:0000000000000008 .L0 
     /tmp/cciR7THS.s:125    .text:000000000000000c .L0 
     /tmp/cciR7THS.s:126    .text:000000000000000c .L0 
     /tmp/cciR7THS.s:128    .text:0000000000000010 .L0 
     /tmp/cciR7THS.s:130    .text:0000000000000014 .L0 
     /tmp/cciR7THS.s:131    .text:0000000000000014 .L0 
     /tmp/cciR7THS.s:133    .text:0000000000000018 .L0 
     /tmp/cciR7THS.s:135    .text:000000000000001c .L0 
     /tmp/cciR7THS.s:137    .text:0000000000000020 .L0 
     /tmp/cciR7THS.s:139    .text:0000000000000024 .L0 
     /tmp/cciR7THS.s:141    .text:0000000000000028 .L0 
     /tmp/cciR7THS.s:143    .text:000000000000002c .L0 
     /tmp/cciR7THS.s:144    .text:000000000000002c .L0 
     /tmp/cciR7THS.s:146    .text:0000000000000030 .L0 
     /tmp/cciR7THS.s:151    .text:000000000000003c .L0 
     /tmp/cciR7THS.s:154    .text:0000000000000040 .L0 
GAS LISTING /tmp/cciR7THS.s 			page 145


     /tmp/cciR7THS.s:157    .text:0000000000000048 .L0 
     /tmp/cciR7THS.s:160    .text:000000000000004c .L0 
     /tmp/cciR7THS.s:163    .text:0000000000000050 .L0 
     /tmp/cciR7THS.s:167    .text:0000000000000054 .L0 
     /tmp/cciR7THS.s:168    .text:0000000000000058 .L0 
     /tmp/cciR7THS.s:171    .text:0000000000000060 .L0 
     /tmp/cciR7THS.s:172    .text:0000000000000060 .L0 
     /tmp/cciR7THS.s:174    .text:0000000000000064 .L0 
     /tmp/cciR7THS.s:176    .text:0000000000000064 .L0 
     /tmp/cciR7THS.s:177    .text:0000000000000064 .L0 
     /tmp/cciR7THS.s:181    .text:0000000000000074 .L0 
     /tmp/cciR7THS.s:182    .text:0000000000000074 .L0 
     /tmp/cciR7THS.s:184    .text:0000000000000078 .L0 
     /tmp/cciR7THS.s:185    .text:000000000000007c .L0 
     /tmp/cciR7THS.s:187    .text:0000000000000080 .L0 
     /tmp/cciR7THS.s:188    .text:0000000000000080 .L0 
     /tmp/cciR7THS.s:190    .text:0000000000000084 .L0 
     /tmp/cciR7THS.s:192    .text:0000000000000088 .L0 
     /tmp/cciR7THS.s:203    .text:0000000000000088 _ZN20KObjectAllocatorTest15getByteOfObjectEPvP16KObjectAllocator
     /tmp/cciR7THS.s:206    .text:0000000000000088 .L0 
     /tmp/cciR7THS.s:208    .text:0000000000000088 .L0 
     /tmp/cciR7THS.s:210    .text:0000000000000088 .L0 
     /tmp/cciR7THS.s:211    .text:0000000000000088 .L0 
     /tmp/cciR7THS.s:216    .text:0000000000000090 .L0 
     /tmp/cciR7THS.s:220    .text:0000000000000094 .L0 
     /tmp/cciR7THS.s:221    .text:0000000000000094 .L0 
     /tmp/cciR7THS.s:223    .text:0000000000000098 .L0 
     /tmp/cciR7THS.s:226    .text:000000000000009c .L0 
     /tmp/cciR7THS.s:227    .text:000000000000009c .L0 
     /tmp/cciR7THS.s:229    .text:00000000000000a0 .L0 
     /tmp/cciR7THS.s:233    .text:00000000000000ac .L0 
     /tmp/cciR7THS.s:235    .text:00000000000000b0 .L0 
     /tmp/cciR7THS.s:236    .text:00000000000000b0 .L0 
     /tmp/cciR7THS.s:239    .text:00000000000000b4 .L0 
     /tmp/cciR7THS.s:240    .text:00000000000000b4 .L0 
     /tmp/cciR7THS.s:242    .text:00000000000000b8 .L0 
     /tmp/cciR7THS.s:245    .text:00000000000000bc .L0 
     /tmp/cciR7THS.s:248    .text:00000000000000c0 .L0 
     /tmp/cciR7THS.s:249    .text:00000000000000c0 .L0 
     /tmp/cciR7THS.s:251    .text:00000000000000c4 .L0 
     /tmp/cciR7THS.s:253    .text:00000000000000c8 .L0 
     /tmp/cciR7THS.s:254    .text:00000000000000c8 .L0 
     /tmp/cciR7THS.s:257    .text:00000000000000cc .L0 
     /tmp/cciR7THS.s:262    .text:00000000000000d0 .L0 
     /tmp/cciR7THS.s:266    .text:00000000000000d4 .L0 
     /tmp/cciR7THS.s:267    .text:00000000000000d8 .L0 
     /tmp/cciR7THS.s:270    .text:00000000000000e0 .L0 
     /tmp/cciR7THS.s:271    .text:00000000000000e0 .L0 
     /tmp/cciR7THS.s:273    .text:00000000000000e4 .L0 
     /tmp/cciR7THS.s:275    .text:00000000000000e4 .L0 
     /tmp/cciR7THS.s:276    .text:00000000000000e4 .L0 
     /tmp/cciR7THS.s:280    .text:00000000000000f4 .L0 
     /tmp/cciR7THS.s:281    .text:00000000000000f4 .L0 
     /tmp/cciR7THS.s:283    .text:00000000000000f8 .L0 
     /tmp/cciR7THS.s:284    .text:00000000000000fc .L0 
     /tmp/cciR7THS.s:286    .text:0000000000000100 .L0 
     /tmp/cciR7THS.s:287    .text:0000000000000100 .L0 
GAS LISTING /tmp/cciR7THS.s 			page 146


     /tmp/cciR7THS.s:289    .text:0000000000000104 .L0 
     /tmp/cciR7THS.s:291    .text:0000000000000108 .L0 
     /tmp/cciR7THS.s:297    .text:0000000000000108 _ZN20KObjectAllocatorTest14getBitOfObjectEPvP16KObjectAllocator
     /tmp/cciR7THS.s:300    .text:0000000000000108 .L0 
     /tmp/cciR7THS.s:302    .text:0000000000000108 .L0 
     /tmp/cciR7THS.s:304    .text:0000000000000108 .L0 
     /tmp/cciR7THS.s:305    .text:0000000000000108 .L0 
     /tmp/cciR7THS.s:310    .text:0000000000000110 .L0 
     /tmp/cciR7THS.s:314    .text:0000000000000114 .L0 
     /tmp/cciR7THS.s:315    .text:0000000000000114 .L0 
     /tmp/cciR7THS.s:317    .text:0000000000000118 .L0 
     /tmp/cciR7THS.s:320    .text:000000000000011c .L0 
     /tmp/cciR7THS.s:321    .text:000000000000011c .L0 
     /tmp/cciR7THS.s:323    .text:0000000000000120 .L0 
     /tmp/cciR7THS.s:327    .text:000000000000012c .L0 
     /tmp/cciR7THS.s:329    .text:0000000000000130 .L0 
     /tmp/cciR7THS.s:330    .text:0000000000000130 .L0 
     /tmp/cciR7THS.s:333    .text:0000000000000134 .L0 
     /tmp/cciR7THS.s:334    .text:0000000000000134 .L0 
     /tmp/cciR7THS.s:336    .text:0000000000000138 .L0 
     /tmp/cciR7THS.s:339    .text:000000000000013c .L0 
     /tmp/cciR7THS.s:342    .text:0000000000000140 .L0 
     /tmp/cciR7THS.s:343    .text:0000000000000140 .L0 
     /tmp/cciR7THS.s:345    .text:0000000000000144 .L0 
     /tmp/cciR7THS.s:347    .text:0000000000000148 .L0 
     /tmp/cciR7THS.s:348    .text:0000000000000148 .L0 
     /tmp/cciR7THS.s:351    .text:000000000000014c .L0 
     /tmp/cciR7THS.s:352    .text:000000000000014c .L0 
     /tmp/cciR7THS.s:359    .text:0000000000000154 .L0 
     /tmp/cciR7THS.s:363    .text:0000000000000158 .L0 
     /tmp/cciR7THS.s:364    .text:000000000000015c .L0 
     /tmp/cciR7THS.s:367    .text:0000000000000164 .L0 
     /tmp/cciR7THS.s:368    .text:0000000000000164 .L0 
     /tmp/cciR7THS.s:370    .text:0000000000000168 .L0 
     /tmp/cciR7THS.s:372    .text:0000000000000168 .L0 
     /tmp/cciR7THS.s:373    .text:0000000000000168 .L0 
     /tmp/cciR7THS.s:377    .text:0000000000000178 .L0 
     /tmp/cciR7THS.s:378    .text:0000000000000178 .L0 
     /tmp/cciR7THS.s:380    .text:000000000000017c .L0 
     /tmp/cciR7THS.s:381    .text:0000000000000180 .L0 
     /tmp/cciR7THS.s:383    .text:0000000000000184 .L0 
     /tmp/cciR7THS.s:384    .text:0000000000000184 .L0 
     /tmp/cciR7THS.s:386    .text:0000000000000188 .L0 
     /tmp/cciR7THS.s:388    .text:000000000000018c .L0 
     /tmp/cciR7THS.s:394    .text:000000000000018c _ZN20KObjectAllocatorTest11getObjectAtEmmP16KObjectAllocator
     /tmp/cciR7THS.s:397    .text:000000000000018c .L0 
     /tmp/cciR7THS.s:399    .text:000000000000018c .L0 
     /tmp/cciR7THS.s:401    .text:000000000000018c .L0 
     /tmp/cciR7THS.s:402    .text:000000000000018c .L0 
     /tmp/cciR7THS.s:407    .text:0000000000000194 .L0 
     /tmp/cciR7THS.s:411    .text:0000000000000198 .L0 
     /tmp/cciR7THS.s:412    .text:0000000000000198 .L0 
     /tmp/cciR7THS.s:414    .text:000000000000019c .L0 
     /tmp/cciR7THS.s:416    .text:00000000000001a0 .L0 
     /tmp/cciR7THS.s:417    .text:00000000000001a0 .L0 
     /tmp/cciR7THS.s:419    .text:00000000000001a4 .L0 
     /tmp/cciR7THS.s:421    .text:00000000000001a8 .L0 
GAS LISTING /tmp/cciR7THS.s 			page 147


     /tmp/cciR7THS.s:423    .text:00000000000001ac .L0 
     /tmp/cciR7THS.s:425    .text:00000000000001b0 .L0 
     /tmp/cciR7THS.s:427    .text:00000000000001b4 .L0 
     /tmp/cciR7THS.s:429    .text:00000000000001b8 .L0 
     /tmp/cciR7THS.s:430    .text:00000000000001b8 .L0 
     /tmp/cciR7THS.s:432    .text:00000000000001bc .L0 
     /tmp/cciR7THS.s:437    .text:00000000000001c8 .L0 
     /tmp/cciR7THS.s:440    .text:00000000000001cc .L0 
     /tmp/cciR7THS.s:442    .text:00000000000001d0 .L0 
     /tmp/cciR7THS.s:446    .text:00000000000001d8 .L0 
     /tmp/cciR7THS.s:448    .text:00000000000001dc .L0 
     /tmp/cciR7THS.s:450    .text:00000000000001e0 .L0 
     /tmp/cciR7THS.s:453    .text:00000000000001e4 .L0 
     /tmp/cciR7THS.s:457    .text:00000000000001e8 .L0 
     /tmp/cciR7THS.s:458    .text:00000000000001ec .L0 
     /tmp/cciR7THS.s:461    .text:00000000000001f4 .L0 
     /tmp/cciR7THS.s:462    .text:00000000000001f4 .L0 
     /tmp/cciR7THS.s:464    .text:00000000000001f8 .L0 
     /tmp/cciR7THS.s:466    .text:00000000000001f8 .L0 
     /tmp/cciR7THS.s:467    .text:00000000000001f8 .L0 
     /tmp/cciR7THS.s:472    .text:0000000000000208 .L0 
     /tmp/cciR7THS.s:473    .text:0000000000000208 .L0 
     /tmp/cciR7THS.s:475    .text:000000000000020c .L0 
     /tmp/cciR7THS.s:476    .text:0000000000000210 .L0 
     /tmp/cciR7THS.s:478    .text:0000000000000214 .L0 
     /tmp/cciR7THS.s:479    .text:0000000000000214 .L0 
     /tmp/cciR7THS.s:481    .text:0000000000000218 .L0 
     /tmp/cciR7THS.s:483    .text:000000000000021c .L0 
     /tmp/cciR7THS.s:489    .text:000000000000021c _ZN20KObjectAllocatorTest5test0Em
     /tmp/cciR7THS.s:492    .text:000000000000021c .L0 
     /tmp/cciR7THS.s:15702  .data.rel.local.DW.ref.__gxx_personality_v0:0000000000000000 DW.ref.__gxx_personality_v0
     /tmp/cciR7THS.s:496    .text:000000000000021c .L0 
     /tmp/cciR7THS.s:497    .text:0000000000000220 .L0 
     /tmp/cciR7THS.s:507    .text:0000000000000244 .L0 
     /tmp/cciR7THS.s:508    .text:0000000000000244 .L0 
     /tmp/cciR7THS.s:509    .text:0000000000000244 .L0 
     /tmp/cciR7THS.s:510    .text:0000000000000244 .L0 
     /tmp/cciR7THS.s:511    .text:0000000000000244 .L0 
     /tmp/cciR7THS.s:512    .text:0000000000000244 .L0 
     /tmp/cciR7THS.s:513    .text:0000000000000244 .L0 
     /tmp/cciR7THS.s:514    .text:0000000000000244 .L0 
     /tmp/cciR7THS.s:515    .text:0000000000000244 .L0 
     /tmp/cciR7THS.s:517    .text:0000000000000248 .L0 
     /tmp/cciR7THS.s:524    .text:0000000000000250 .L0 
     /tmp/cciR7THS.s:526    .text:0000000000000250 .L0 
     /tmp/cciR7THS.s:527    .text:0000000000000250 .L0 
     /tmp/cciR7THS.s:540    .text:0000000000000268 .L0 
     /tmp/cciR7THS.s:550    .text:0000000000000284 .L0 
     /tmp/cciR7THS.s:551    .text:0000000000000284 .L0 
     /tmp/cciR7THS.s:554    .text:000000000000028c .L0 
     /tmp/cciR7THS.s:556    .text:0000000000000290 .L0 
     /tmp/cciR7THS.s:560    .text:000000000000029c .L0 
     /tmp/cciR7THS.s:562    .text:00000000000002a0 .L0 
     /tmp/cciR7THS.s:563    .text:00000000000002a0 .L0 
     /tmp/cciR7THS.s:566    .text:00000000000002a8 .L0 
     /tmp/cciR7THS.s:568    .text:00000000000002ac .L0 
     /tmp/cciR7THS.s:572    .text:00000000000002b8 .L0 
GAS LISTING /tmp/cciR7THS.s 			page 148


     /tmp/cciR7THS.s:574    .text:00000000000002bc .L0 
     /tmp/cciR7THS.s:575    .text:00000000000002bc .L0 
     /tmp/cciR7THS.s:577    .text:00000000000002c0 .L0 
     /tmp/cciR7THS.s:579    .text:00000000000002c4 .L0 
     /tmp/cciR7THS.s:583    .text:00000000000002cc .L0 
     /tmp/cciR7THS.s:585    .text:00000000000002d0 .L0 
     /tmp/cciR7THS.s:587    .text:00000000000002d4 .L0 
     /tmp/cciR7THS.s:589    .text:00000000000002d8 .L0 
     /tmp/cciR7THS.s:590    .text:00000000000002d8 .L0 
     /tmp/cciR7THS.s:592    .text:00000000000002dc .L0 
     /tmp/cciR7THS.s:594    .text:00000000000002e0 .L0 
     /tmp/cciR7THS.s:595    .text:00000000000002e0 .L0 
     /tmp/cciR7THS.s:600    .text:00000000000002ec .L0 
     /tmp/cciR7THS.s:604    .text:00000000000002f4 .L0 
     /tmp/cciR7THS.s:606    .text:00000000000002f8 .L0 
     /tmp/cciR7THS.s:608    .text:00000000000002fc .L0 
     /tmp/cciR7THS.s:610    .text:0000000000000300 .L0 
     /tmp/cciR7THS.s:612    .text:0000000000000304 .L0 
     /tmp/cciR7THS.s:617    .text:0000000000000310 .L0 
     /tmp/cciR7THS.s:619    .text:0000000000000314 .L0 
     /tmp/cciR7THS.s:620    .text:0000000000000314 .L0 
     /tmp/cciR7THS.s:622    .text:0000000000000318 .L0 
     /tmp/cciR7THS.s:624    .text:000000000000031c .L0 
     /tmp/cciR7THS.s:626    .text:0000000000000320 .L0 
     /tmp/cciR7THS.s:628    .text:0000000000000324 .L0 
     /tmp/cciR7THS.s:630    .text:0000000000000328 .L0 
     /tmp/cciR7THS.s:634    .text:000000000000032c .L0 
     /tmp/cciR7THS.s:635    .text:000000000000032c .L0 
     /tmp/cciR7THS.s:639    .text:0000000000000330 .L0 
     /tmp/cciR7THS.s:640    .text:0000000000000330 .L0 
     /tmp/cciR7THS.s:642    .text:0000000000000334 .L0 
     /tmp/cciR7THS.s:644    .text:0000000000000338 .L0 
     /tmp/cciR7THS.s:645    .text:0000000000000338 .L0 
     /tmp/cciR7THS.s:647    .text:000000000000033c .L0 
     /tmp/cciR7THS.s:650    .text:0000000000000340 .L0 
     /tmp/cciR7THS.s:652    .text:0000000000000344 .L0 
     /tmp/cciR7THS.s:654    .text:0000000000000348 .L0 
     /tmp/cciR7THS.s:657    .text:000000000000034c .L0 
     /tmp/cciR7THS.s:667    .text:0000000000000350 .L0 
     /tmp/cciR7THS.s:668    .text:0000000000000350 .L0 
     /tmp/cciR7THS.s:669    .text:0000000000000350 .L0 
     /tmp/cciR7THS.s:674    .text:0000000000000354 .L0 
     /tmp/cciR7THS.s:677    .text:000000000000035c .L0 
     /tmp/cciR7THS.s:678    .text:000000000000035c .L0 
     /tmp/cciR7THS.s:683    .text:0000000000000360 .L0 
     /tmp/cciR7THS.s:690    .text:0000000000000368 .L0 
     /tmp/cciR7THS.s:691    .text:0000000000000368 .L0 
     /tmp/cciR7THS.s:694    .text:0000000000000370 .L0 
     /tmp/cciR7THS.s:696    .text:0000000000000374 .L0 
     /tmp/cciR7THS.s:699    .text:000000000000037c .L0 
     /tmp/cciR7THS.s:703    .text:0000000000000388 .L0 
     /tmp/cciR7THS.s:707    .text:000000000000038c .L0 
     /tmp/cciR7THS.s:708    .text:000000000000038c .L0 
     /tmp/cciR7THS.s:710    .text:0000000000000390 .L0 
     /tmp/cciR7THS.s:713    .text:0000000000000394 .L0 
     /tmp/cciR7THS.s:714    .text:0000000000000394 .L0 
     /tmp/cciR7THS.s:720    .text:00000000000003a8 .L0 
GAS LISTING /tmp/cciR7THS.s 			page 149


     /tmp/cciR7THS.s:721    .text:00000000000003a8 .L0 
     /tmp/cciR7THS.s:727    .text:00000000000003bc .L0 
     /tmp/cciR7THS.s:728    .text:00000000000003bc .L0 
     /tmp/cciR7THS.s:737    .text:00000000000003d0 .L0 
     /tmp/cciR7THS.s:738    .text:00000000000003d0 .L0 
     /tmp/cciR7THS.s:741    .text:00000000000003d4 .L0 
     /tmp/cciR7THS.s:743    .text:00000000000003dc .L0 
     /tmp/cciR7THS.s:744    .text:00000000000003dc .L0 
     /tmp/cciR7THS.s:746    .text:00000000000003e0 .L0 
     /tmp/cciR7THS.s:747    .text:00000000000003e0 .L0 
     /tmp/cciR7THS.s:749    .text:00000000000003e4 .L0 
     /tmp/cciR7THS.s:752    .text:00000000000003e8 .L0 
     /tmp/cciR7THS.s:754    .text:00000000000003ec .L0 
     /tmp/cciR7THS.s:757    .text:00000000000003f0 .L0 
     /tmp/cciR7THS.s:759    .text:00000000000003f4 .L0 
     /tmp/cciR7THS.s:761    .text:00000000000003f8 .L0 
     /tmp/cciR7THS.s:763    .text:00000000000003fc .L0 
     /tmp/cciR7THS.s:765    .text:0000000000000400 .L0 
     /tmp/cciR7THS.s:769    .text:0000000000000404 .L0 
     /tmp/cciR7THS.s:773    .text:0000000000000404 .L0 
     /tmp/cciR7THS.s:774    .text:0000000000000404 .L0 
     /tmp/cciR7THS.s:775    .text:0000000000000404 .L0 
     /tmp/cciR7THS.s:780    .text:0000000000000408 .L0 
     /tmp/cciR7THS.s:783    .text:0000000000000410 .L0 
     /tmp/cciR7THS.s:784    .text:0000000000000410 .L0 
     /tmp/cciR7THS.s:789    .text:0000000000000414 .L0 
     /tmp/cciR7THS.s:795    .text:000000000000041c .L0 
     /tmp/cciR7THS.s:796    .text:000000000000041c .L0 
     /tmp/cciR7THS.s:799    .text:0000000000000424 .L0 
     /tmp/cciR7THS.s:801    .text:0000000000000428 .L0 
     /tmp/cciR7THS.s:804    .text:0000000000000430 .L0 
     /tmp/cciR7THS.s:808    .text:000000000000043c .L0 
     /tmp/cciR7THS.s:812    .text:0000000000000440 .L0 
     /tmp/cciR7THS.s:813    .text:0000000000000440 .L0 
     /tmp/cciR7THS.s:815    .text:0000000000000444 .L0 
     /tmp/cciR7THS.s:818    .text:0000000000000448 .L0 
     /tmp/cciR7THS.s:819    .text:0000000000000448 .L0 
     /tmp/cciR7THS.s:825    .text:000000000000045c .L0 
     /tmp/cciR7THS.s:826    .text:000000000000045c .L0 
     /tmp/cciR7THS.s:832    .text:0000000000000470 .L0 
     /tmp/cciR7THS.s:833    .text:0000000000000470 .L0 
     /tmp/cciR7THS.s:842    .text:0000000000000484 .L0 
     /tmp/cciR7THS.s:843    .text:0000000000000484 .L0 
     /tmp/cciR7THS.s:850    .text:000000000000048c .L0 
     /tmp/cciR7THS.s:851    .text:000000000000048c .L0 
     /tmp/cciR7THS.s:852    .text:000000000000048c .L0 
     /tmp/cciR7THS.s:857    .text:0000000000000490 .L0 
     /tmp/cciR7THS.s:859    .text:0000000000000494 .L0 
     /tmp/cciR7THS.s:860    .text:0000000000000494 .L0 
     /tmp/cciR7THS.s:865    .text:0000000000000498 .L0 
     /tmp/cciR7THS.s:869    .text:000000000000049c .L0 
     /tmp/cciR7THS.s:870    .text:000000000000049c .L0 
     /tmp/cciR7THS.s:872    .text:00000000000004a0 .L0 
     /tmp/cciR7THS.s:874    .text:00000000000004a4 .L0 
     /tmp/cciR7THS.s:875    .text:00000000000004a4 .L0 
     /tmp/cciR7THS.s:878    .text:00000000000004ac .L0 
     /tmp/cciR7THS.s:880    .text:00000000000004b0 .L0 
GAS LISTING /tmp/cciR7THS.s 			page 150


     /tmp/cciR7THS.s:883    .text:00000000000004b8 .L0 
     /tmp/cciR7THS.s:887    .text:00000000000004c4 .L0 
     /tmp/cciR7THS.s:893    .text:00000000000004cc .L0 
     /tmp/cciR7THS.s:894    .text:00000000000004cc .L0 
     /tmp/cciR7THS.s:900    .text:00000000000004e0 .L0 
     /tmp/cciR7THS.s:901    .text:00000000000004e0 .L0 
     /tmp/cciR7THS.s:907    .text:00000000000004f4 .L0 
     /tmp/cciR7THS.s:908    .text:00000000000004f4 .L0 
     /tmp/cciR7THS.s:917    .text:0000000000000508 .L0 
     /tmp/cciR7THS.s:918    .text:0000000000000508 .L0 
     /tmp/cciR7THS.s:924    .text:0000000000000510 .L0 
     /tmp/cciR7THS.s:928    .text:0000000000000514 .L0 
     /tmp/cciR7THS.s:931    .text:000000000000051c .L0 
     /tmp/cciR7THS.s:932    .text:000000000000051c .L0 
     /tmp/cciR7THS.s:935    .text:0000000000000520 .L0 
     /tmp/cciR7THS.s:939    .text:000000000000052c .L0 
     /tmp/cciR7THS.s:944    .text:000000000000053c .L0 
     /tmp/cciR7THS.s:946    .text:0000000000000540 .L0 
     /tmp/cciR7THS.s:952    .text:0000000000000544 .L0 
     /tmp/cciR7THS.s:955    .text:0000000000000548 .L0 
     /tmp/cciR7THS.s:958    .text:000000000000054c .L0 
     /tmp/cciR7THS.s:965    .text:0000000000000554 .L0 
     /tmp/cciR7THS.s:966    .text:0000000000000554 .L0 
     /tmp/cciR7THS.s:971    .text:0000000000000558 .L0 
     /tmp/cciR7THS.s:975    .text:000000000000055c .L0 
     /tmp/cciR7THS.s:976    .text:000000000000055c .L0 
     /tmp/cciR7THS.s:978    .text:0000000000000560 .L0 
     /tmp/cciR7THS.s:980    .text:0000000000000564 .L0 
     /tmp/cciR7THS.s:981    .text:0000000000000564 .L0 
     /tmp/cciR7THS.s:984    .text:000000000000056c .L0 
     /tmp/cciR7THS.s:986    .text:0000000000000570 .L0 
     /tmp/cciR7THS.s:989    .text:0000000000000578 .L0 
     /tmp/cciR7THS.s:993    .text:0000000000000584 .L0 
     /tmp/cciR7THS.s:999    .text:000000000000058c .L0 
     /tmp/cciR7THS.s:1000   .text:000000000000058c .L0 
     /tmp/cciR7THS.s:1006   .text:00000000000005a0 .L0 
     /tmp/cciR7THS.s:1007   .text:00000000000005a0 .L0 
     /tmp/cciR7THS.s:1013   .text:00000000000005b4 .L0 
     /tmp/cciR7THS.s:1014   .text:00000000000005b4 .L0 
     /tmp/cciR7THS.s:1023   .text:00000000000005c8 .L0 
     /tmp/cciR7THS.s:1024   .text:00000000000005c8 .L0 
     /tmp/cciR7THS.s:1029   .text:00000000000005d0 .L0 
     /tmp/cciR7THS.s:1030   .text:00000000000005d0 .L0 
     /tmp/cciR7THS.s:1035   .text:00000000000005d4 .L0 
     /tmp/cciR7THS.s:1039   .text:00000000000005d8 .L0 
     /tmp/cciR7THS.s:1040   .text:00000000000005d8 .L0 
     /tmp/cciR7THS.s:1042   .text:00000000000005dc .L0 
     /tmp/cciR7THS.s:1044   .text:00000000000005e0 .L0 
     /tmp/cciR7THS.s:1045   .text:00000000000005e0 .L0 
     /tmp/cciR7THS.s:1048   .text:00000000000005e8 .L0 
     /tmp/cciR7THS.s:1050   .text:00000000000005ec .L0 
     /tmp/cciR7THS.s:1053   .text:00000000000005f4 .L0 
     /tmp/cciR7THS.s:1057   .text:0000000000000600 .L0 
     /tmp/cciR7THS.s:1063   .text:0000000000000608 .L0 
     /tmp/cciR7THS.s:1064   .text:0000000000000608 .L0 
     /tmp/cciR7THS.s:1070   .text:000000000000061c .L0 
     /tmp/cciR7THS.s:1071   .text:000000000000061c .L0 
GAS LISTING /tmp/cciR7THS.s 			page 151


     /tmp/cciR7THS.s:1077   .text:0000000000000630 .L0 
     /tmp/cciR7THS.s:1078   .text:0000000000000630 .L0 
     /tmp/cciR7THS.s:1087   .text:0000000000000644 .L0 
     /tmp/cciR7THS.s:1088   .text:0000000000000644 .L0 
     /tmp/cciR7THS.s:1093   .text:000000000000064c .L0 
     /tmp/cciR7THS.s:1094   .text:000000000000064c .L0 
     /tmp/cciR7THS.s:1099   .text:0000000000000650 .L0 
     /tmp/cciR7THS.s:1105   .text:0000000000000658 .L0 
     /tmp/cciR7THS.s:1106   .text:0000000000000658 .L0 
     /tmp/cciR7THS.s:1109   .text:0000000000000660 .L0 
     /tmp/cciR7THS.s:1111   .text:0000000000000664 .L0 
     /tmp/cciR7THS.s:1114   .text:000000000000066c .L0 
     /tmp/cciR7THS.s:1118   .text:0000000000000678 .L0 
     /tmp/cciR7THS.s:1122   .text:000000000000067c .L0 
     /tmp/cciR7THS.s:1123   .text:000000000000067c .L0 
     /tmp/cciR7THS.s:1125   .text:0000000000000680 .L0 
     /tmp/cciR7THS.s:1128   .text:0000000000000684 .L0 
     /tmp/cciR7THS.s:1129   .text:0000000000000684 .L0 
     /tmp/cciR7THS.s:1135   .text:0000000000000698 .L0 
     /tmp/cciR7THS.s:1136   .text:0000000000000698 .L0 
     /tmp/cciR7THS.s:1142   .text:00000000000006ac .L0 
     /tmp/cciR7THS.s:1143   .text:00000000000006ac .L0 
     /tmp/cciR7THS.s:1151   .text:00000000000006c0 .L0 
     /tmp/cciR7THS.s:1152   .text:00000000000006c0 .L0 
     /tmp/cciR7THS.s:1156   .text:00000000000006c4 .L0 
     /tmp/cciR7THS.s:1159   .text:00000000000006c8 .L0 
     /tmp/cciR7THS.s:1160   .text:00000000000006c8 .L0 
     /tmp/cciR7THS.s:1164   .text:00000000000006cc .L0 
     /tmp/cciR7THS.s:1168   .text:00000000000006d0 .L0 
     /tmp/cciR7THS.s:1172   .text:00000000000006d4 .L0 
     /tmp/cciR7THS.s:1176   .text:00000000000006dc .L0 
     /tmp/cciR7THS.s:1177   .text:00000000000006dc .L0 
     /tmp/cciR7THS.s:1182   .text:00000000000006ec .L0 
     /tmp/cciR7THS.s:1189   .text:0000000000000704 .L0 
     /tmp/cciR7THS.s:1191   .text:0000000000000708 .L0 
     /tmp/cciR7THS.s:1192   .text:0000000000000708 .L0 
     /tmp/cciR7THS.s:1200   .text:0000000000000720 .L0 
     /tmp/cciR7THS.s:1201   .text:0000000000000720 .L0 
     /tmp/cciR7THS.s:1208   .text:0000000000000734 .L0 
     /tmp/cciR7THS.s:1210   .text:0000000000000738 .L0 
     /tmp/cciR7THS.s:1212   .text:000000000000073c .L0 
     /tmp/cciR7THS.s:1213   .text:000000000000073c .L0 
     /tmp/cciR7THS.s:1222   .text:0000000000000758 .L0 
     /tmp/cciR7THS.s:1224   .text:000000000000075c .L0 
     /tmp/cciR7THS.s:1232   .text:0000000000000764 .L0 
     /tmp/cciR7THS.s:1237   .text:000000000000076c .L0 
     /tmp/cciR7THS.s:1238   .text:000000000000076c .L0 
     /tmp/cciR7THS.s:1243   .text:0000000000000770 .L0 
     /tmp/cciR7THS.s:1247   .text:0000000000000774 .L0 
     /tmp/cciR7THS.s:1248   .text:0000000000000774 .L0 
     /tmp/cciR7THS.s:1250   .text:0000000000000778 .L0 
     /tmp/cciR7THS.s:1252   .text:000000000000077c .L0 
     /tmp/cciR7THS.s:1253   .text:000000000000077c .L0 
     /tmp/cciR7THS.s:1256   .text:0000000000000784 .L0 
     /tmp/cciR7THS.s:1258   .text:0000000000000788 .L0 
     /tmp/cciR7THS.s:1261   .text:0000000000000790 .L0 
     /tmp/cciR7THS.s:1265   .text:000000000000079c .L0 
GAS LISTING /tmp/cciR7THS.s 			page 152


     /tmp/cciR7THS.s:1271   .text:00000000000007a4 .L0 
     /tmp/cciR7THS.s:1272   .text:00000000000007a4 .L0 
     /tmp/cciR7THS.s:1278   .text:00000000000007b8 .L0 
     /tmp/cciR7THS.s:1279   .text:00000000000007b8 .L0 
     /tmp/cciR7THS.s:1285   .text:00000000000007cc .L0 
     /tmp/cciR7THS.s:1286   .text:00000000000007cc .L0 
     /tmp/cciR7THS.s:1295   .text:00000000000007e0 .L0 
     /tmp/cciR7THS.s:1296   .text:00000000000007e0 .L0 
     /tmp/cciR7THS.s:1302   .text:00000000000007e8 .L0 
     /tmp/cciR7THS.s:1305   .text:00000000000007ec .L0 
     /tmp/cciR7THS.s:1306   .text:00000000000007ec .L0 
     /tmp/cciR7THS.s:1310   .text:00000000000007f0 .L0 
     /tmp/cciR7THS.s:1313   .text:00000000000007f4 .L0 
     /tmp/cciR7THS.s:1317   .text:00000000000007f8 .L0 
     /tmp/cciR7THS.s:1320   .text:0000000000000800 .L0 
     /tmp/cciR7THS.s:1321   .text:0000000000000800 .L0 
     /tmp/cciR7THS.s:1328   .text:0000000000000818 .L0 
     /tmp/cciR7THS.s:1330   .text:000000000000081c .L0 
     /tmp/cciR7THS.s:1335   .text:0000000000000824 .L0 
     /tmp/cciR7THS.s:1336   .text:0000000000000824 .L0 
     /tmp/cciR7THS.s:1341   .text:0000000000000834 .L0 
     /tmp/cciR7THS.s:1342   .text:0000000000000834 .L0 
     /tmp/cciR7THS.s:1347   .text:0000000000000844 .L0 
     /tmp/cciR7THS.s:1348   .text:0000000000000844 .L0 
     /tmp/cciR7THS.s:1353   .text:0000000000000854 .L0 
     /tmp/cciR7THS.s:1354   .text:0000000000000854 .L0 
     /tmp/cciR7THS.s:1360   .text:0000000000000864 .L0 
     /tmp/cciR7THS.s:1361   .text:0000000000000864 .L0 
     /tmp/cciR7THS.s:1368   .text:000000000000087c .L0 
     /tmp/cciR7THS.s:1370   .text:0000000000000880 .L0 
     /tmp/cciR7THS.s:1371   .text:0000000000000880 .L0 
     /tmp/cciR7THS.s:1376   .text:0000000000000884 .L0 
     /tmp/cciR7THS.s:1381   .text:000000000000088c .L0 
     /tmp/cciR7THS.s:1382   .text:000000000000088c .L0 
     /tmp/cciR7THS.s:1385   .text:0000000000000894 .L0 
     /tmp/cciR7THS.s:1387   .text:0000000000000898 .L0 
     /tmp/cciR7THS.s:1390   .text:00000000000008a0 .L0 
     /tmp/cciR7THS.s:1394   .text:00000000000008ac .L0 
     /tmp/cciR7THS.s:1398   .text:00000000000008b0 .L0 
     /tmp/cciR7THS.s:1399   .text:00000000000008b0 .L0 
     /tmp/cciR7THS.s:1401   .text:00000000000008b4 .L0 
     /tmp/cciR7THS.s:1404   .text:00000000000008b8 .L0 
     /tmp/cciR7THS.s:1405   .text:00000000000008b8 .L0 
     /tmp/cciR7THS.s:1411   .text:00000000000008cc .L0 
     /tmp/cciR7THS.s:1412   .text:00000000000008cc .L0 
     /tmp/cciR7THS.s:1418   .text:00000000000008e0 .L0 
     /tmp/cciR7THS.s:1419   .text:00000000000008e0 .L0 
     /tmp/cciR7THS.s:1428   .text:00000000000008f4 .L0 
     /tmp/cciR7THS.s:1429   .text:00000000000008f4 .L0 
     /tmp/cciR7THS.s:1435   .text:00000000000008fc .L0 
     /tmp/cciR7THS.s:1436   .text:00000000000008fc .L0 
     /tmp/cciR7THS.s:1444   .text:0000000000000914 .L0 
     /tmp/cciR7THS.s:1445   .text:0000000000000914 .L0 
     /tmp/cciR7THS.s:1454   .text:000000000000092c .L0 
     /tmp/cciR7THS.s:1457   .text:0000000000000934 .L0 
     /tmp/cciR7THS.s:1461   .text:000000000000093c .L0 
     /tmp/cciR7THS.s:1462   .text:000000000000093c .L0 
GAS LISTING /tmp/cciR7THS.s 			page 153


     /tmp/cciR7THS.s:1467   .text:0000000000000940 .L0 
     /tmp/cciR7THS.s:1472   .text:0000000000000948 .L0 
     /tmp/cciR7THS.s:1473   .text:0000000000000948 .L0 
     /tmp/cciR7THS.s:1476   .text:0000000000000950 .L0 
     /tmp/cciR7THS.s:1478   .text:0000000000000954 .L0 
     /tmp/cciR7THS.s:1481   .text:000000000000095c .L0 
     /tmp/cciR7THS.s:1485   .text:0000000000000968 .L0 
     /tmp/cciR7THS.s:1489   .text:000000000000096c .L0 
     /tmp/cciR7THS.s:1490   .text:000000000000096c .L0 
     /tmp/cciR7THS.s:1492   .text:0000000000000970 .L0 
     /tmp/cciR7THS.s:1495   .text:0000000000000974 .L0 
     /tmp/cciR7THS.s:1496   .text:0000000000000974 .L0 
     /tmp/cciR7THS.s:1502   .text:0000000000000988 .L0 
     /tmp/cciR7THS.s:1503   .text:0000000000000988 .L0 
     /tmp/cciR7THS.s:1509   .text:000000000000099c .L0 
     /tmp/cciR7THS.s:1510   .text:000000000000099c .L0 
     /tmp/cciR7THS.s:1519   .text:00000000000009b0 .L0 
     /tmp/cciR7THS.s:1520   .text:00000000000009b0 .L0 
     /tmp/cciR7THS.s:1526   .text:00000000000009b8 .L0 
     /tmp/cciR7THS.s:1527   .text:00000000000009b8 .L0 
     /tmp/cciR7THS.s:1534   .text:00000000000009d0 .L0 
     /tmp/cciR7THS.s:1535   .text:00000000000009d0 .L0 
     /tmp/cciR7THS.s:1537   .text:00000000000009d0 .L0 
     /tmp/cciR7THS.s:1538   .text:00000000000009d0 .L0 
     /tmp/cciR7THS.s:1541   .text:00000000000009d4 .L0 
     /tmp/cciR7THS.s:1547   .text:00000000000009dc .L0 
     /tmp/cciR7THS.s:1548   .text:00000000000009dc .L0 
     /tmp/cciR7THS.s:1550   .text:00000000000009e0 .L0 
     /tmp/cciR7THS.s:1555   .text:00000000000009ec .L0 
     /tmp/cciR7THS.s:1556   .text:00000000000009ec .L0 
     /tmp/cciR7THS.s:1562   .text:00000000000009f4 .L0 
     /tmp/cciR7THS.s:1565   .text:00000000000009f8 .L0 
     /tmp/cciR7THS.s:1566   .text:00000000000009f8 .L0 
     /tmp/cciR7THS.s:1570   .text:00000000000009fc .L0 
     /tmp/cciR7THS.s:1573   .text:0000000000000a00 .L0 
     /tmp/cciR7THS.s:1577   .text:0000000000000a04 .L0 
     /tmp/cciR7THS.s:1580   .text:0000000000000a0c .L0 
     /tmp/cciR7THS.s:1581   .text:0000000000000a0c .L0 
     /tmp/cciR7THS.s:1585   .text:0000000000000a18 .L0 
     /tmp/cciR7THS.s:1592   .text:0000000000000a30 .L0 
     /tmp/cciR7THS.s:1594   .text:0000000000000a34 .L0 
     /tmp/cciR7THS.s:1599   .text:0000000000000a3c .L0 
     /tmp/cciR7THS.s:1600   .text:0000000000000a3c .L0 
     /tmp/cciR7THS.s:1605   .text:0000000000000a40 .L0 
     /tmp/cciR7THS.s:1611   .text:0000000000000a48 .L0 
     /tmp/cciR7THS.s:1612   .text:0000000000000a48 .L0 
     /tmp/cciR7THS.s:1615   .text:0000000000000a50 .L0 
     /tmp/cciR7THS.s:1617   .text:0000000000000a54 .L0 
     /tmp/cciR7THS.s:1620   .text:0000000000000a5c .L0 
     /tmp/cciR7THS.s:1624   .text:0000000000000a68 .L0 
     /tmp/cciR7THS.s:1628   .text:0000000000000a6c .L0 
     /tmp/cciR7THS.s:1629   .text:0000000000000a6c .L0 
     /tmp/cciR7THS.s:1631   .text:0000000000000a70 .L0 
     /tmp/cciR7THS.s:1634   .text:0000000000000a74 .L0 
     /tmp/cciR7THS.s:1635   .text:0000000000000a74 .L0 
     /tmp/cciR7THS.s:1641   .text:0000000000000a88 .L0 
     /tmp/cciR7THS.s:1642   .text:0000000000000a88 .L0 
GAS LISTING /tmp/cciR7THS.s 			page 154


     /tmp/cciR7THS.s:1648   .text:0000000000000a9c .L0 
     /tmp/cciR7THS.s:1649   .text:0000000000000a9c .L0 
     /tmp/cciR7THS.s:1658   .text:0000000000000ab0 .L0 
     /tmp/cciR7THS.s:1663   .text:0000000000000ab4 .L0 
     /tmp/cciR7THS.s:1669   .text:0000000000000ab8 .L0 
     /tmp/cciR7THS.s:1677   .text:0000000000000ac4 .L0 
     /tmp/cciR7THS.s:1685   .text:0000000000000adc .L0 
     /tmp/cciR7THS.s:1715   .text:0000000000000adc _ZN20KObjectAllocatorTest5test1Em
     /tmp/cciR7THS.s:1718   .text:0000000000000adc .L0 
     /tmp/cciR7THS.s:1722   .text:0000000000000adc .L0 
     /tmp/cciR7THS.s:1723   .text:0000000000000ae0 .L0 
     /tmp/cciR7THS.s:1731   .text:0000000000000afc .L0 
     /tmp/cciR7THS.s:1732   .text:0000000000000afc .L0 
     /tmp/cciR7THS.s:1733   .text:0000000000000afc .L0 
     /tmp/cciR7THS.s:1734   .text:0000000000000afc .L0 
     /tmp/cciR7THS.s:1735   .text:0000000000000afc .L0 
     /tmp/cciR7THS.s:1736   .text:0000000000000afc .L0 
     /tmp/cciR7THS.s:1737   .text:0000000000000afc .L0 
     /tmp/cciR7THS.s:1739   .text:0000000000000b00 .L0 
     /tmp/cciR7THS.s:1747   .text:0000000000000b0c .L0 
     /tmp/cciR7THS.s:1749   .text:0000000000000b0c .L0 
     /tmp/cciR7THS.s:1750   .text:0000000000000b0c .L0 
     /tmp/cciR7THS.s:1764   .text:0000000000000b24 .L0 
     /tmp/cciR7THS.s:1774   .text:0000000000000b40 .L0 
     /tmp/cciR7THS.s:1775   .text:0000000000000b40 .L0 
     /tmp/cciR7THS.s:1778   .text:0000000000000b48 .L0 
     /tmp/cciR7THS.s:1780   .text:0000000000000b4c .L0 
     /tmp/cciR7THS.s:1784   .text:0000000000000b58 .L0 
     /tmp/cciR7THS.s:1786   .text:0000000000000b5c .L0 
     /tmp/cciR7THS.s:1787   .text:0000000000000b5c .L0 
     /tmp/cciR7THS.s:1790   .text:0000000000000b64 .L0 
     /tmp/cciR7THS.s:1792   .text:0000000000000b68 .L0 
     /tmp/cciR7THS.s:1796   .text:0000000000000b74 .L0 
     /tmp/cciR7THS.s:1798   .text:0000000000000b78 .L0 
     /tmp/cciR7THS.s:1799   .text:0000000000000b78 .L0 
     /tmp/cciR7THS.s:1801   .text:0000000000000b7c .L0 
     /tmp/cciR7THS.s:1803   .text:0000000000000b80 .L0 
     /tmp/cciR7THS.s:1807   .text:0000000000000b88 .L0 
     /tmp/cciR7THS.s:1809   .text:0000000000000b8c .L0 
     /tmp/cciR7THS.s:1811   .text:0000000000000b90 .L0 
     /tmp/cciR7THS.s:1813   .text:0000000000000b94 .L0 
     /tmp/cciR7THS.s:1814   .text:0000000000000b94 .L0 
     /tmp/cciR7THS.s:1816   .text:0000000000000b98 .L0 
     /tmp/cciR7THS.s:1818   .text:0000000000000b9c .L0 
     /tmp/cciR7THS.s:1819   .text:0000000000000b9c .L0 
     /tmp/cciR7THS.s:1824   .text:0000000000000ba8 .L0 
     /tmp/cciR7THS.s:1828   .text:0000000000000bb0 .L0 
     /tmp/cciR7THS.s:1830   .text:0000000000000bb4 .L0 
     /tmp/cciR7THS.s:1832   .text:0000000000000bb8 .L0 
     /tmp/cciR7THS.s:1834   .text:0000000000000bbc .L0 
     /tmp/cciR7THS.s:1836   .text:0000000000000bc0 .L0 
     /tmp/cciR7THS.s:1841   .text:0000000000000bcc .L0 
     /tmp/cciR7THS.s:1843   .text:0000000000000bd0 .L0 
     /tmp/cciR7THS.s:1844   .text:0000000000000bd0 .L0 
     /tmp/cciR7THS.s:1846   .text:0000000000000bd4 .L0 
     /tmp/cciR7THS.s:1848   .text:0000000000000bd8 .L0 
     /tmp/cciR7THS.s:1850   .text:0000000000000bdc .L0 
GAS LISTING /tmp/cciR7THS.s 			page 155


     /tmp/cciR7THS.s:1852   .text:0000000000000be0 .L0 
     /tmp/cciR7THS.s:1854   .text:0000000000000be4 .L0 
     /tmp/cciR7THS.s:1858   .text:0000000000000be8 .L0 
     /tmp/cciR7THS.s:1859   .text:0000000000000be8 .L0 
     /tmp/cciR7THS.s:1863   .text:0000000000000bec .L0 
     /tmp/cciR7THS.s:1864   .text:0000000000000bec .L0 
     /tmp/cciR7THS.s:1866   .text:0000000000000bf0 .L0 
     /tmp/cciR7THS.s:1868   .text:0000000000000bf4 .L0 
     /tmp/cciR7THS.s:1869   .text:0000000000000bf4 .L0 
     /tmp/cciR7THS.s:1871   .text:0000000000000bf8 .L0 
     /tmp/cciR7THS.s:1874   .text:0000000000000bfc .L0 
     /tmp/cciR7THS.s:1876   .text:0000000000000c00 .L0 
     /tmp/cciR7THS.s:1878   .text:0000000000000c04 .L0 
     /tmp/cciR7THS.s:1881   .text:0000000000000c08 .L0 
     /tmp/cciR7THS.s:1892   .text:0000000000000c0c .L0 
     /tmp/cciR7THS.s:1893   .text:0000000000000c0c .L0 
     /tmp/cciR7THS.s:1894   .text:0000000000000c0c .L0 
     /tmp/cciR7THS.s:1899   .text:0000000000000c10 .L0 
     /tmp/cciR7THS.s:1902   .text:0000000000000c18 .L0 
     /tmp/cciR7THS.s:1903   .text:0000000000000c18 .L0 
     /tmp/cciR7THS.s:1908   .text:0000000000000c1c .L0 
     /tmp/cciR7THS.s:1912   .text:0000000000000c20 .L0 
     /tmp/cciR7THS.s:1913   .text:0000000000000c20 .L0 
     /tmp/cciR7THS.s:1915   .text:0000000000000c24 .L0 
     /tmp/cciR7THS.s:1918   .text:0000000000000c28 .L0 
     /tmp/cciR7THS.s:1919   .text:0000000000000c28 .L0 
     /tmp/cciR7THS.s:1922   .text:0000000000000c30 .L0 
     /tmp/cciR7THS.s:1924   .text:0000000000000c34 .L0 
     /tmp/cciR7THS.s:1927   .text:0000000000000c3c .L0 
     /tmp/cciR7THS.s:1931   .text:0000000000000c48 .L0 
     /tmp/cciR7THS.s:1937   .text:0000000000000c50 .L0 
     /tmp/cciR7THS.s:1938   .text:0000000000000c50 .L0 
     /tmp/cciR7THS.s:1944   .text:0000000000000c64 .L0 
     /tmp/cciR7THS.s:1945   .text:0000000000000c64 .L0 
     /tmp/cciR7THS.s:1951   .text:0000000000000c78 .L0 
     /tmp/cciR7THS.s:1952   .text:0000000000000c78 .L0 
     /tmp/cciR7THS.s:1961   .text:0000000000000c8c .L0 
     /tmp/cciR7THS.s:1962   .text:0000000000000c8c .L0 
     /tmp/cciR7THS.s:1965   .text:0000000000000c90 .L0 
     /tmp/cciR7THS.s:1966   .text:0000000000000c94 .L0 
     /tmp/cciR7THS.s:1967   .text:0000000000000c94 .L0 
     /tmp/cciR7THS.s:1969   .text:0000000000000c98 .L0 
     /tmp/cciR7THS.s:1971   .text:0000000000000c9c .L0 
     /tmp/cciR7THS.s:1973   .text:0000000000000ca0 .L0 
     /tmp/cciR7THS.s:1976   .text:0000000000000ca4 .L0 
     /tmp/cciR7THS.s:1978   .text:0000000000000ca8 .L0 
     /tmp/cciR7THS.s:1981   .text:0000000000000cac .L0 
     /tmp/cciR7THS.s:1983   .text:0000000000000cb0 .L0 
     /tmp/cciR7THS.s:1985   .text:0000000000000cb4 .L0 
     /tmp/cciR7THS.s:1989   .text:0000000000000cb8 .L0 
     /tmp/cciR7THS.s:1993   .text:0000000000000cb8 .L0 
     /tmp/cciR7THS.s:1994   .text:0000000000000cb8 .L0 
     /tmp/cciR7THS.s:1995   .text:0000000000000cb8 .L0 
     /tmp/cciR7THS.s:2000   .text:0000000000000cbc .L0 
     /tmp/cciR7THS.s:2003   .text:0000000000000cc4 .L0 
     /tmp/cciR7THS.s:2004   .text:0000000000000cc4 .L0 
     /tmp/cciR7THS.s:2009   .text:0000000000000cc8 .L0 
GAS LISTING /tmp/cciR7THS.s 			page 156


     /tmp/cciR7THS.s:2013   .text:0000000000000ccc .L0 
     /tmp/cciR7THS.s:2014   .text:0000000000000ccc .L0 
     /tmp/cciR7THS.s:2016   .text:0000000000000cd0 .L0 
     /tmp/cciR7THS.s:2018   .text:0000000000000cd4 .L0 
     /tmp/cciR7THS.s:2019   .text:0000000000000cd4 .L0 
     /tmp/cciR7THS.s:2022   .text:0000000000000cdc .L0 
     /tmp/cciR7THS.s:2024   .text:0000000000000ce0 .L0 
     /tmp/cciR7THS.s:2027   .text:0000000000000ce8 .L0 
     /tmp/cciR7THS.s:2031   .text:0000000000000cf4 .L0 
     /tmp/cciR7THS.s:2037   .text:0000000000000cfc .L0 
     /tmp/cciR7THS.s:2038   .text:0000000000000cfc .L0 
     /tmp/cciR7THS.s:2044   .text:0000000000000d10 .L0 
     /tmp/cciR7THS.s:2045   .text:0000000000000d10 .L0 
     /tmp/cciR7THS.s:2051   .text:0000000000000d24 .L0 
     /tmp/cciR7THS.s:2052   .text:0000000000000d24 .L0 
     /tmp/cciR7THS.s:2061   .text:0000000000000d38 .L0 
     /tmp/cciR7THS.s:2062   .text:0000000000000d38 .L0 
     /tmp/cciR7THS.s:2069   .text:0000000000000d40 .L0 
     /tmp/cciR7THS.s:2070   .text:0000000000000d40 .L0 
     /tmp/cciR7THS.s:2071   .text:0000000000000d40 .L0 
     /tmp/cciR7THS.s:2076   .text:0000000000000d44 .L0 
     /tmp/cciR7THS.s:2078   .text:0000000000000d48 .L0 
     /tmp/cciR7THS.s:2079   .text:0000000000000d48 .L0 
     /tmp/cciR7THS.s:2084   .text:0000000000000d4c .L0 
     /tmp/cciR7THS.s:2088   .text:0000000000000d50 .L0 
     /tmp/cciR7THS.s:2089   .text:0000000000000d50 .L0 
     /tmp/cciR7THS.s:2091   .text:0000000000000d54 .L0 
     /tmp/cciR7THS.s:2093   .text:0000000000000d58 .L0 
     /tmp/cciR7THS.s:2094   .text:0000000000000d58 .L0 
     /tmp/cciR7THS.s:2097   .text:0000000000000d60 .L0 
     /tmp/cciR7THS.s:2099   .text:0000000000000d64 .L0 
     /tmp/cciR7THS.s:2102   .text:0000000000000d6c .L0 
     /tmp/cciR7THS.s:2106   .text:0000000000000d78 .L0 
     /tmp/cciR7THS.s:2112   .text:0000000000000d80 .L0 
     /tmp/cciR7THS.s:2113   .text:0000000000000d80 .L0 
     /tmp/cciR7THS.s:2119   .text:0000000000000d94 .L0 
     /tmp/cciR7THS.s:2120   .text:0000000000000d94 .L0 
     /tmp/cciR7THS.s:2126   .text:0000000000000da8 .L0 
     /tmp/cciR7THS.s:2127   .text:0000000000000da8 .L0 
     /tmp/cciR7THS.s:2136   .text:0000000000000dbc .L0 
     /tmp/cciR7THS.s:2137   .text:0000000000000dbc .L0 
     /tmp/cciR7THS.s:2143   .text:0000000000000dc4 .L0 
     /tmp/cciR7THS.s:2147   .text:0000000000000dc8 .L0 
     /tmp/cciR7THS.s:2150   .text:0000000000000dd0 .L0 
     /tmp/cciR7THS.s:2151   .text:0000000000000dd0 .L0 
     /tmp/cciR7THS.s:2154   .text:0000000000000dd4 .L0 
     /tmp/cciR7THS.s:2158   .text:0000000000000de0 .L0 
     /tmp/cciR7THS.s:2165   .text:0000000000000df8 .L0 
     /tmp/cciR7THS.s:2167   .text:0000000000000dfc .L0 
     /tmp/cciR7THS.s:2172   .text:0000000000000e00 .L0 
     /tmp/cciR7THS.s:2173   .text:0000000000000e00 .L0 
     /tmp/cciR7THS.s:2184   .text:0000000000000e24 .L0 
     /tmp/cciR7THS.s:2188   .text:0000000000000e2c .L0 
     /tmp/cciR7THS.s:2189   .text:0000000000000e2c .L0 
     /tmp/cciR7THS.s:2194   .text:0000000000000e30 .L0 
     /tmp/cciR7THS.s:2198   .text:0000000000000e34 .L0 
     /tmp/cciR7THS.s:2199   .text:0000000000000e34 .L0 
GAS LISTING /tmp/cciR7THS.s 			page 157


     /tmp/cciR7THS.s:2201   .text:0000000000000e38 .L0 
     /tmp/cciR7THS.s:2203   .text:0000000000000e3c .L0 
     /tmp/cciR7THS.s:2204   .text:0000000000000e3c .L0 
     /tmp/cciR7THS.s:2207   .text:0000000000000e44 .L0 
     /tmp/cciR7THS.s:2209   .text:0000000000000e48 .L0 
     /tmp/cciR7THS.s:2212   .text:0000000000000e50 .L0 
     /tmp/cciR7THS.s:2216   .text:0000000000000e5c .L0 
     /tmp/cciR7THS.s:2225   .text:0000000000000e64 .L0 
     /tmp/cciR7THS.s:2232   .text:0000000000000e7c .L0 
     /tmp/cciR7THS.s:2234   .text:0000000000000e80 .L0 
     /tmp/cciR7THS.s:2235   .text:0000000000000e80 .L0 
     /tmp/cciR7THS.s:2237   .text:0000000000000e84 .L0 
     /tmp/cciR7THS.s:2241   .text:0000000000000e8c .L0 
     /tmp/cciR7THS.s:2245   .text:0000000000000e90 .L0 
     /tmp/cciR7THS.s:2248   .text:0000000000000e98 .L0 
     /tmp/cciR7THS.s:2249   .text:0000000000000e98 .L0 
     /tmp/cciR7THS.s:2252   .text:0000000000000e9c .L0 
     /tmp/cciR7THS.s:2256   .text:0000000000000ea8 .L0 
     /tmp/cciR7THS.s:2263   .text:0000000000000ec0 .L0 
     /tmp/cciR7THS.s:2265   .text:0000000000000ec4 .L0 
     /tmp/cciR7THS.s:2272   .text:0000000000000ec8 .L0 
     /tmp/cciR7THS.s:2273   .text:0000000000000ec8 .L0 
     /tmp/cciR7THS.s:2279   .text:0000000000000edc .L0 
     /tmp/cciR7THS.s:2280   .text:0000000000000edc .L0 
     /tmp/cciR7THS.s:2286   .text:0000000000000ef0 .L0 
     /tmp/cciR7THS.s:2287   .text:0000000000000ef0 .L0 
     /tmp/cciR7THS.s:2296   .text:0000000000000f04 .L0 
     /tmp/cciR7THS.s:2297   .text:0000000000000f04 .L0 
     /tmp/cciR7THS.s:2301   .text:0000000000000f0c .L0 
     /tmp/cciR7THS.s:2302   .text:0000000000000f0c .L0 
     /tmp/cciR7THS.s:2310   .text:0000000000000f14 .L0 
     /tmp/cciR7THS.s:2311   .text:0000000000000f14 .L0 
     /tmp/cciR7THS.s:2314   .text:0000000000000f1c .L0 
     /tmp/cciR7THS.s:2316   .text:0000000000000f20 .L0 
     /tmp/cciR7THS.s:2319   .text:0000000000000f28 .L0 
     /tmp/cciR7THS.s:2323   .text:0000000000000f34 .L0 
     /tmp/cciR7THS.s:2327   .text:0000000000000f38 .L0 
     /tmp/cciR7THS.s:2328   .text:0000000000000f38 .L0 
     /tmp/cciR7THS.s:2330   .text:0000000000000f3c .L0 
     /tmp/cciR7THS.s:2333   .text:0000000000000f40 .L0 
     /tmp/cciR7THS.s:2334   .text:0000000000000f40 .L0 
     /tmp/cciR7THS.s:2340   .text:0000000000000f54 .L0 
     /tmp/cciR7THS.s:2341   .text:0000000000000f54 .L0 
     /tmp/cciR7THS.s:2347   .text:0000000000000f68 .L0 
     /tmp/cciR7THS.s:2348   .text:0000000000000f68 .L0 
     /tmp/cciR7THS.s:2357   .text:0000000000000f7c .L0 
     /tmp/cciR7THS.s:2358   .text:0000000000000f7c .L0 
     /tmp/cciR7THS.s:2363   .text:0000000000000f84 .L0 
     /tmp/cciR7THS.s:2364   .text:0000000000000f84 .L0 
     /tmp/cciR7THS.s:2366   .text:0000000000000f88 .L0 
     /tmp/cciR7THS.s:2369   .text:0000000000000f90 .L0 
     /tmp/cciR7THS.s:2370   .text:0000000000000f90 .L0 
     /tmp/cciR7THS.s:2377   .text:0000000000000f94 .L0 
     /tmp/cciR7THS.s:2378   .text:0000000000000f94 .L0 
     /tmp/cciR7THS.s:2380   .text:0000000000000f98 .L0 
     /tmp/cciR7THS.s:2382   .text:0000000000000f9c .L0 
     /tmp/cciR7THS.s:2383   .text:0000000000000f9c .L0 
GAS LISTING /tmp/cciR7THS.s 			page 158


     /tmp/cciR7THS.s:2386   .text:0000000000000fa4 .L0 
     /tmp/cciR7THS.s:2388   .text:0000000000000fa8 .L0 
     /tmp/cciR7THS.s:2391   .text:0000000000000fb0 .L0 
     /tmp/cciR7THS.s:2395   .text:0000000000000fbc .L0 
     /tmp/cciR7THS.s:2401   .text:0000000000000fc4 .L0 
     /tmp/cciR7THS.s:2402   .text:0000000000000fc4 .L0 
     /tmp/cciR7THS.s:2408   .text:0000000000000fd8 .L0 
     /tmp/cciR7THS.s:2409   .text:0000000000000fd8 .L0 
     /tmp/cciR7THS.s:2415   .text:0000000000000fec .L0 
     /tmp/cciR7THS.s:2416   .text:0000000000000fec .L0 
     /tmp/cciR7THS.s:2425   .text:0000000000001000 .L0 
     /tmp/cciR7THS.s:2426   .text:0000000000001000 .L0 
     /tmp/cciR7THS.s:2430   .text:0000000000001008 .L0 
     /tmp/cciR7THS.s:2431   .text:0000000000001008 .L0 
     /tmp/cciR7THS.s:2439   .text:0000000000001024 .L0 
     /tmp/cciR7THS.s:2440   .text:0000000000001024 .L0 
     /tmp/cciR7THS.s:2446   .text:0000000000001034 .L0 
     /tmp/cciR7THS.s:2447   .text:0000000000001034 .L0 
     /tmp/cciR7THS.s:2453   .text:0000000000001048 .L0 
     /tmp/cciR7THS.s:2457   .text:0000000000001050 .L0 
     /tmp/cciR7THS.s:2458   .text:0000000000001050 .L0 
     /tmp/cciR7THS.s:2465   .text:0000000000001054 .L0 
     /tmp/cciR7THS.s:2466   .text:0000000000001054 .L0 
     /tmp/cciR7THS.s:2468   .text:0000000000001058 .L0 
     /tmp/cciR7THS.s:2470   .text:000000000000105c .L0 
     /tmp/cciR7THS.s:2471   .text:000000000000105c .L0 
     /tmp/cciR7THS.s:2474   .text:0000000000001064 .L0 
     /tmp/cciR7THS.s:2476   .text:0000000000001068 .L0 
     /tmp/cciR7THS.s:2479   .text:0000000000001070 .L0 
     /tmp/cciR7THS.s:2483   .text:000000000000107c .L0 
     /tmp/cciR7THS.s:2492   .text:0000000000001084 .L0 
     /tmp/cciR7THS.s:2498   .text:0000000000001098 .L0 
     /tmp/cciR7THS.s:2501   .text:00000000000010a0 .L0 
     /tmp/cciR7THS.s:2502   .text:00000000000010a0 .L0 
     /tmp/cciR7THS.s:2504   .text:00000000000010a4 .L0 
     /tmp/cciR7THS.s:2506   .text:00000000000010a8 .L0 
     /tmp/cciR7THS.s:2507   .text:00000000000010a8 .L0 
     /tmp/cciR7THS.s:2509   .text:00000000000010ac .L0 
     /tmp/cciR7THS.s:2514   .text:00000000000010b8 .L0 
     /tmp/cciR7THS.s:2515   .text:00000000000010b8 .L0 
     /tmp/cciR7THS.s:2522   .text:00000000000010c0 .L0 
     /tmp/cciR7THS.s:2523   .text:00000000000010c0 .L0 
     /tmp/cciR7THS.s:2529   .text:00000000000010d4 .L0 
     /tmp/cciR7THS.s:2530   .text:00000000000010d4 .L0 
     /tmp/cciR7THS.s:2536   .text:00000000000010e8 .L0 
     /tmp/cciR7THS.s:2537   .text:00000000000010e8 .L0 
     /tmp/cciR7THS.s:2546   .text:00000000000010fc .L0 
     /tmp/cciR7THS.s:2547   .text:00000000000010fc .L0 
     /tmp/cciR7THS.s:2551   .text:0000000000001104 .L0 
     /tmp/cciR7THS.s:2552   .text:0000000000001104 .L0 
     /tmp/cciR7THS.s:2560   .text:0000000000001120 .L0 
     /tmp/cciR7THS.s:2561   .text:0000000000001120 .L0 
     /tmp/cciR7THS.s:2566   .text:0000000000001130 .L0 
     /tmp/cciR7THS.s:2567   .text:0000000000001130 .L0 
     /tmp/cciR7THS.s:2572   .text:0000000000001140 .L0 
     /tmp/cciR7THS.s:2573   .text:0000000000001140 .L0 
     /tmp/cciR7THS.s:2578   .text:0000000000001150 .L0 
GAS LISTING /tmp/cciR7THS.s 			page 159


     /tmp/cciR7THS.s:2579   .text:0000000000001150 .L0 
     /tmp/cciR7THS.s:2585   .text:0000000000001164 .L0 
     /tmp/cciR7THS.s:2589   .text:000000000000116c .L0 
     /tmp/cciR7THS.s:2590   .text:000000000000116c .L0 
     /tmp/cciR7THS.s:2592   .text:0000000000001170 .L0 
     /tmp/cciR7THS.s:2597   .text:000000000000117c .L0 
     /tmp/cciR7THS.s:2598   .text:000000000000117c .L0 
     /tmp/cciR7THS.s:2602   .text:0000000000001184 .L0 
     /tmp/cciR7THS.s:2608   .text:0000000000001198 .L0 
     /tmp/cciR7THS.s:2611   .text:00000000000011a0 .L0 
     /tmp/cciR7THS.s:2612   .text:00000000000011a0 .L0 
     /tmp/cciR7THS.s:2614   .text:00000000000011a4 .L0 
     /tmp/cciR7THS.s:2617   .text:00000000000011ac .L0 
     /tmp/cciR7THS.s:2618   .text:00000000000011ac .L0 
     /tmp/cciR7THS.s:2620   .text:00000000000011b0 .L0 
     /tmp/cciR7THS.s:2625   .text:00000000000011bc .L0 
     /tmp/cciR7THS.s:2626   .text:00000000000011bc .L0 
     /tmp/cciR7THS.s:2630   .text:00000000000011c4 .L0 
     /tmp/cciR7THS.s:2631   .text:00000000000011c4 .L0 
     /tmp/cciR7THS.s:2639   .text:00000000000011e0 .L0 
     /tmp/cciR7THS.s:2640   .text:00000000000011e0 .L0 
     /tmp/cciR7THS.s:2645   .text:00000000000011f0 .L0 
     /tmp/cciR7THS.s:2646   .text:00000000000011f0 .L0 
     /tmp/cciR7THS.s:2652   .text:0000000000001204 .L0 
     /tmp/cciR7THS.s:2656   .text:000000000000120c .L0 
     /tmp/cciR7THS.s:2657   .text:000000000000120c .L0 
     /tmp/cciR7THS.s:2659   .text:0000000000001210 .L0 
     /tmp/cciR7THS.s:2664   .text:000000000000121c .L0 
     /tmp/cciR7THS.s:2665   .text:000000000000121c .L0 
     /tmp/cciR7THS.s:2669   .text:0000000000001224 .L0 
     /tmp/cciR7THS.s:2675   .text:0000000000001238 .L0 
     /tmp/cciR7THS.s:2678   .text:0000000000001240 .L0 
     /tmp/cciR7THS.s:2679   .text:0000000000001240 .L0 
     /tmp/cciR7THS.s:2681   .text:0000000000001244 .L0 
     /tmp/cciR7THS.s:2684   .text:000000000000124c .L0 
     /tmp/cciR7THS.s:2685   .text:000000000000124c .L0 
     /tmp/cciR7THS.s:2687   .text:0000000000001250 .L0 
     /tmp/cciR7THS.s:2692   .text:000000000000125c .L0 
     /tmp/cciR7THS.s:2693   .text:000000000000125c .L0 
     /tmp/cciR7THS.s:2697   .text:0000000000001264 .L0 
     /tmp/cciR7THS.s:2698   .text:0000000000001264 .L0 
     /tmp/cciR7THS.s:2703   .text:0000000000001274 .L0 
     /tmp/cciR7THS.s:2704   .text:0000000000001274 .L0 
     /tmp/cciR7THS.s:2710   .text:0000000000001288 .L0 
     /tmp/cciR7THS.s:2714   .text:0000000000001290 .L0 
     /tmp/cciR7THS.s:2715   .text:0000000000001290 .L0 
     /tmp/cciR7THS.s:2717   .text:0000000000001294 .L0 
     /tmp/cciR7THS.s:2720   .text:000000000000129c .L0 
     /tmp/cciR7THS.s:2721   .text:000000000000129c .L0 
     /tmp/cciR7THS.s:2723   .text:00000000000012a0 .L0 
     /tmp/cciR7THS.s:2728   .text:00000000000012ac .L0 
     /tmp/cciR7THS.s:2729   .text:00000000000012ac .L0 
     /tmp/cciR7THS.s:2733   .text:00000000000012b4 .L0 
     /tmp/cciR7THS.s:2739   .text:00000000000012c8 .L0 
     /tmp/cciR7THS.s:2743   .text:00000000000012d0 .L0 
     /tmp/cciR7THS.s:2744   .text:00000000000012d0 .L0 
     /tmp/cciR7THS.s:2749   .text:00000000000012e0 .L0 
GAS LISTING /tmp/cciR7THS.s 			page 160


     /tmp/cciR7THS.s:2750   .text:00000000000012e0 .L0 
     /tmp/cciR7THS.s:2756   .text:00000000000012f4 .L0 
     /tmp/cciR7THS.s:2760   .text:00000000000012fc .L0 
     /tmp/cciR7THS.s:2761   .text:00000000000012fc .L0 
     /tmp/cciR7THS.s:2763   .text:0000000000001300 .L0 
     /tmp/cciR7THS.s:2768   .text:000000000000130c .L0 
     /tmp/cciR7THS.s:2769   .text:000000000000130c .L0 
     /tmp/cciR7THS.s:2773   .text:0000000000001314 .L0 
     /tmp/cciR7THS.s:2779   .text:0000000000001328 .L0 
     /tmp/cciR7THS.s:2782   .text:0000000000001330 .L0 
     /tmp/cciR7THS.s:2783   .text:0000000000001330 .L0 
     /tmp/cciR7THS.s:2785   .text:0000000000001334 .L0 
     /tmp/cciR7THS.s:2789   .text:000000000000133c .L0 
     /tmp/cciR7THS.s:2793   .text:0000000000001340 .L0 
     /tmp/cciR7THS.s:2796   .text:0000000000001348 .L0 
     /tmp/cciR7THS.s:2797   .text:0000000000001348 .L0 
     /tmp/cciR7THS.s:2802   .text:0000000000001358 .L0 
     /tmp/cciR7THS.s:2803   .text:0000000000001358 .L0 
     /tmp/cciR7THS.s:2808   .text:0000000000001368 .L0 
     /tmp/cciR7THS.s:2810   .text:000000000000136c .L0 
     /tmp/cciR7THS.s:2811   .text:000000000000136c .L0 
     /tmp/cciR7THS.s:2817   .text:0000000000001380 .L0 
     /tmp/cciR7THS.s:2820   .text:0000000000001388 .L0 
     /tmp/cciR7THS.s:2826   .text:000000000000139c .L0 
     /tmp/cciR7THS.s:2828   .text:00000000000013a0 .L0 
     /tmp/cciR7THS.s:2829   .text:00000000000013a0 .L0 
     /tmp/cciR7THS.s:2831   .text:00000000000013a4 .L0 
     /tmp/cciR7THS.s:2834   .text:00000000000013ac .L0 
     /tmp/cciR7THS.s:2835   .text:00000000000013ac .L0 
     /tmp/cciR7THS.s:2843   .text:00000000000013c8 .L0 
     /tmp/cciR7THS.s:2844   .text:00000000000013c8 .L0 
     /tmp/cciR7THS.s:2849   .text:00000000000013d8 .L0 
     /tmp/cciR7THS.s:2851   .text:00000000000013dc .L0 
     /tmp/cciR7THS.s:2852   .text:00000000000013dc .L0 
     /tmp/cciR7THS.s:2858   .text:00000000000013f0 .L0 
     /tmp/cciR7THS.s:2860   .text:00000000000013f4 .L0 
     /tmp/cciR7THS.s:2866   .text:0000000000001408 .L0 
     /tmp/cciR7THS.s:2869   .text:0000000000001410 .L0 
     /tmp/cciR7THS.s:2870   .text:0000000000001410 .L0 
     /tmp/cciR7THS.s:2872   .text:0000000000001414 .L0 
     /tmp/cciR7THS.s:2874   .text:0000000000001418 .L0 
     /tmp/cciR7THS.s:2880   .text:0000000000001420 .L0 
     /tmp/cciR7THS.s:2881   .text:0000000000001420 .L0 
     /tmp/cciR7THS.s:2883   .text:0000000000001424 .L0 
     /tmp/cciR7THS.s:2888   .text:0000000000001430 .L0 
     /tmp/cciR7THS.s:2889   .text:0000000000001430 .L0 
     /tmp/cciR7THS.s:2895   .text:0000000000001438 .L0 
     /tmp/cciR7THS.s:2896   .text:0000000000001438 .L0 
     /tmp/cciR7THS.s:2898   .text:000000000000143c .L0 
     /tmp/cciR7THS.s:2903   .text:0000000000001448 .L0 
     /tmp/cciR7THS.s:2904   .text:0000000000001448 .L0 
     /tmp/cciR7THS.s:2908   .text:0000000000001450 .L0 
     /tmp/cciR7THS.s:2909   .text:0000000000001450 .L0 
     /tmp/cciR7THS.s:2911   .text:0000000000001454 .L0 
     /tmp/cciR7THS.s:2916   .text:0000000000001460 .L0 
     /tmp/cciR7THS.s:2917   .text:0000000000001460 .L0 
     /tmp/cciR7THS.s:2921   .text:0000000000001468 .L0 
GAS LISTING /tmp/cciR7THS.s 			page 161


     /tmp/cciR7THS.s:2922   .text:0000000000001468 .L0 
     /tmp/cciR7THS.s:2924   .text:000000000000146c .L0 
     /tmp/cciR7THS.s:2929   .text:0000000000001478 .L0 
     /tmp/cciR7THS.s:2930   .text:0000000000001478 .L0 
     /tmp/cciR7THS.s:2934   .text:0000000000001480 .L0 
     /tmp/cciR7THS.s:2935   .text:0000000000001480 .L0 
     /tmp/cciR7THS.s:2937   .text:0000000000001484 .L0 
     /tmp/cciR7THS.s:2942   .text:0000000000001490 .L0 
     /tmp/cciR7THS.s:2943   .text:0000000000001490 .L0 
     /tmp/cciR7THS.s:2948   .text:0000000000001498 .L0 
     /tmp/cciR7THS.s:2949   .text:0000000000001498 .L0 
     /tmp/cciR7THS.s:2951   .text:000000000000149c .L0 
     /tmp/cciR7THS.s:2956   .text:00000000000014a8 .L0 
     /tmp/cciR7THS.s:2960   .text:00000000000014b0 .L0 
     /tmp/cciR7THS.s:2967   .text:00000000000014bc .L0 
     /tmp/cciR7THS.s:2975   .text:00000000000014d4 .L0 
     /tmp/cciR7THS.s:3004   .text:00000000000014d4 _ZN20KObjectAllocatorTest5test2Em
     /tmp/cciR7THS.s:3007   .text:00000000000014d4 .L0 
     /tmp/cciR7THS.s:3011   .text:00000000000014d4 .L0 
     /tmp/cciR7THS.s:3012   .text:00000000000014d8 .L0 
     /tmp/cciR7THS.s:3023   .text:0000000000001500 .L0 
     /tmp/cciR7THS.s:3024   .text:0000000000001500 .L0 
     /tmp/cciR7THS.s:3025   .text:0000000000001500 .L0 
     /tmp/cciR7THS.s:3026   .text:0000000000001500 .L0 
     /tmp/cciR7THS.s:3027   .text:0000000000001500 .L0 
     /tmp/cciR7THS.s:3028   .text:0000000000001500 .L0 
     /tmp/cciR7THS.s:3029   .text:0000000000001500 .L0 
     /tmp/cciR7THS.s:3030   .text:0000000000001500 .L0 
     /tmp/cciR7THS.s:3031   .text:0000000000001500 .L0 
     /tmp/cciR7THS.s:3032   .text:0000000000001500 .L0 
     /tmp/cciR7THS.s:3034   .text:0000000000001504 .L0 
     /tmp/cciR7THS.s:3041   .text:000000000000150c .L0 
     /tmp/cciR7THS.s:3043   .text:000000000000150c .L0 
     /tmp/cciR7THS.s:3044   .text:000000000000150c .L0 
     /tmp/cciR7THS.s:3057   .text:0000000000001524 .L0 
     /tmp/cciR7THS.s:3067   .text:0000000000001540 .L0 
     /tmp/cciR7THS.s:3068   .text:0000000000001540 .L0 
     /tmp/cciR7THS.s:3071   .text:0000000000001548 .L0 
     /tmp/cciR7THS.s:3073   .text:000000000000154c .L0 
     /tmp/cciR7THS.s:3077   .text:0000000000001558 .L0 
     /tmp/cciR7THS.s:3079   .text:000000000000155c .L0 
     /tmp/cciR7THS.s:3080   .text:000000000000155c .L0 
     /tmp/cciR7THS.s:3083   .text:0000000000001564 .L0 
     /tmp/cciR7THS.s:3085   .text:0000000000001568 .L0 
     /tmp/cciR7THS.s:3089   .text:0000000000001574 .L0 
     /tmp/cciR7THS.s:3091   .text:0000000000001578 .L0 
     /tmp/cciR7THS.s:3092   .text:0000000000001578 .L0 
     /tmp/cciR7THS.s:3094   .text:000000000000157c .L0 
     /tmp/cciR7THS.s:3096   .text:0000000000001580 .L0 
     /tmp/cciR7THS.s:3100   .text:0000000000001588 .L0 
     /tmp/cciR7THS.s:3102   .text:000000000000158c .L0 
     /tmp/cciR7THS.s:3104   .text:0000000000001590 .L0 
     /tmp/cciR7THS.s:3106   .text:0000000000001594 .L0 
     /tmp/cciR7THS.s:3107   .text:0000000000001594 .L0 
     /tmp/cciR7THS.s:3109   .text:0000000000001598 .L0 
     /tmp/cciR7THS.s:3111   .text:000000000000159c .L0 
     /tmp/cciR7THS.s:3112   .text:000000000000159c .L0 
GAS LISTING /tmp/cciR7THS.s 			page 162


     /tmp/cciR7THS.s:3117   .text:00000000000015a8 .L0 
     /tmp/cciR7THS.s:3121   .text:00000000000015b0 .L0 
     /tmp/cciR7THS.s:3123   .text:00000000000015b4 .L0 
     /tmp/cciR7THS.s:3125   .text:00000000000015b8 .L0 
     /tmp/cciR7THS.s:3127   .text:00000000000015bc .L0 
     /tmp/cciR7THS.s:3129   .text:00000000000015c0 .L0 
     /tmp/cciR7THS.s:3134   .text:00000000000015cc .L0 
     /tmp/cciR7THS.s:3136   .text:00000000000015d0 .L0 
     /tmp/cciR7THS.s:3137   .text:00000000000015d0 .L0 
     /tmp/cciR7THS.s:3139   .text:00000000000015d4 .L0 
     /tmp/cciR7THS.s:3141   .text:00000000000015d8 .L0 
     /tmp/cciR7THS.s:3143   .text:00000000000015dc .L0 
     /tmp/cciR7THS.s:3145   .text:00000000000015e0 .L0 
     /tmp/cciR7THS.s:3147   .text:00000000000015e4 .L0 
     /tmp/cciR7THS.s:3151   .text:00000000000015e8 .L0 
     /tmp/cciR7THS.s:3152   .text:00000000000015e8 .L0 
     /tmp/cciR7THS.s:3156   .text:00000000000015ec .L0 
     /tmp/cciR7THS.s:3157   .text:00000000000015ec .L0 
     /tmp/cciR7THS.s:3159   .text:00000000000015f0 .L0 
     /tmp/cciR7THS.s:3161   .text:00000000000015f4 .L0 
     /tmp/cciR7THS.s:3162   .text:00000000000015f4 .L0 
     /tmp/cciR7THS.s:3164   .text:00000000000015f8 .L0 
     /tmp/cciR7THS.s:3167   .text:00000000000015fc .L0 
     /tmp/cciR7THS.s:3169   .text:0000000000001600 .L0 
     /tmp/cciR7THS.s:3171   .text:0000000000001604 .L0 
     /tmp/cciR7THS.s:3174   .text:0000000000001608 .L0 
     /tmp/cciR7THS.s:3184   .text:000000000000160c .L0 
     /tmp/cciR7THS.s:3185   .text:000000000000160c .L0 
     /tmp/cciR7THS.s:3186   .text:000000000000160c .L0 
     /tmp/cciR7THS.s:3191   .text:0000000000001610 .L0 
     /tmp/cciR7THS.s:3194   .text:0000000000001618 .L0 
     /tmp/cciR7THS.s:3195   .text:0000000000001618 .L0 
     /tmp/cciR7THS.s:3200   .text:000000000000161c .L0 
     /tmp/cciR7THS.s:3207   .text:0000000000001624 .L0 
     /tmp/cciR7THS.s:3208   .text:0000000000001624 .L0 
     /tmp/cciR7THS.s:3211   .text:000000000000162c .L0 
     /tmp/cciR7THS.s:3213   .text:0000000000001630 .L0 
     /tmp/cciR7THS.s:3216   .text:0000000000001638 .L0 
     /tmp/cciR7THS.s:3220   .text:0000000000001644 .L0 
     /tmp/cciR7THS.s:3224   .text:0000000000001648 .L0 
     /tmp/cciR7THS.s:3225   .text:0000000000001648 .L0 
     /tmp/cciR7THS.s:3227   .text:000000000000164c .L0 
     /tmp/cciR7THS.s:3230   .text:0000000000001650 .L0 
     /tmp/cciR7THS.s:3231   .text:0000000000001650 .L0 
     /tmp/cciR7THS.s:3237   .text:0000000000001664 .L0 
     /tmp/cciR7THS.s:3238   .text:0000000000001664 .L0 
     /tmp/cciR7THS.s:3244   .text:0000000000001678 .L0 
     /tmp/cciR7THS.s:3245   .text:0000000000001678 .L0 
     /tmp/cciR7THS.s:3254   .text:000000000000168c .L0 
     /tmp/cciR7THS.s:3255   .text:000000000000168c .L0 
     /tmp/cciR7THS.s:3258   .text:0000000000001690 .L0 
     /tmp/cciR7THS.s:3260   .text:0000000000001698 .L0 
     /tmp/cciR7THS.s:3261   .text:0000000000001698 .L0 
     /tmp/cciR7THS.s:3263   .text:000000000000169c .L0 
     /tmp/cciR7THS.s:3264   .text:000000000000169c .L0 
     /tmp/cciR7THS.s:3266   .text:00000000000016a0 .L0 
     /tmp/cciR7THS.s:3269   .text:00000000000016a4 .L0 
GAS LISTING /tmp/cciR7THS.s 			page 163


     /tmp/cciR7THS.s:3271   .text:00000000000016a8 .L0 
     /tmp/cciR7THS.s:3274   .text:00000000000016ac .L0 
     /tmp/cciR7THS.s:3276   .text:00000000000016b0 .L0 
     /tmp/cciR7THS.s:3278   .text:00000000000016b4 .L0 
     /tmp/cciR7THS.s:3280   .text:00000000000016b8 .L0 
     /tmp/cciR7THS.s:3282   .text:00000000000016bc .L0 
     /tmp/cciR7THS.s:3284   .text:00000000000016c0 .L0 
     /tmp/cciR7THS.s:3288   .text:00000000000016c4 .L0 
     /tmp/cciR7THS.s:3292   .text:00000000000016c4 .L0 
     /tmp/cciR7THS.s:3293   .text:00000000000016c4 .L0 
     /tmp/cciR7THS.s:3294   .text:00000000000016c4 .L0 
     /tmp/cciR7THS.s:3299   .text:00000000000016c8 .L0 
     /tmp/cciR7THS.s:3302   .text:00000000000016d0 .L0 
     /tmp/cciR7THS.s:3303   .text:00000000000016d0 .L0 
     /tmp/cciR7THS.s:3308   .text:00000000000016d4 .L0 
     /tmp/cciR7THS.s:3314   .text:00000000000016dc .L0 
     /tmp/cciR7THS.s:3315   .text:00000000000016dc .L0 
     /tmp/cciR7THS.s:3318   .text:00000000000016e4 .L0 
     /tmp/cciR7THS.s:3320   .text:00000000000016e8 .L0 
     /tmp/cciR7THS.s:3323   .text:00000000000016f0 .L0 
     /tmp/cciR7THS.s:3327   .text:00000000000016fc .L0 
     /tmp/cciR7THS.s:3331   .text:0000000000001700 .L0 
     /tmp/cciR7THS.s:3332   .text:0000000000001700 .L0 
     /tmp/cciR7THS.s:3334   .text:0000000000001704 .L0 
     /tmp/cciR7THS.s:3337   .text:0000000000001708 .L0 
     /tmp/cciR7THS.s:3338   .text:0000000000001708 .L0 
     /tmp/cciR7THS.s:3344   .text:000000000000171c .L0 
     /tmp/cciR7THS.s:3345   .text:000000000000171c .L0 
     /tmp/cciR7THS.s:3351   .text:0000000000001730 .L0 
     /tmp/cciR7THS.s:3352   .text:0000000000001730 .L0 
     /tmp/cciR7THS.s:3361   .text:0000000000001744 .L0 
     /tmp/cciR7THS.s:3362   .text:0000000000001744 .L0 
     /tmp/cciR7THS.s:3369   .text:000000000000174c .L0 
     /tmp/cciR7THS.s:3370   .text:000000000000174c .L0 
     /tmp/cciR7THS.s:3371   .text:000000000000174c .L0 
     /tmp/cciR7THS.s:3376   .text:0000000000001750 .L0 
     /tmp/cciR7THS.s:3378   .text:0000000000001754 .L0 
     /tmp/cciR7THS.s:3379   .text:0000000000001754 .L0 
     /tmp/cciR7THS.s:3384   .text:0000000000001758 .L0 
     /tmp/cciR7THS.s:3388   .text:000000000000175c .L0 
     /tmp/cciR7THS.s:3389   .text:000000000000175c .L0 
     /tmp/cciR7THS.s:3391   .text:0000000000001760 .L0 
     /tmp/cciR7THS.s:3393   .text:0000000000001764 .L0 
     /tmp/cciR7THS.s:3394   .text:0000000000001764 .L0 
     /tmp/cciR7THS.s:3397   .text:000000000000176c .L0 
     /tmp/cciR7THS.s:3399   .text:0000000000001770 .L0 
     /tmp/cciR7THS.s:3402   .text:0000000000001778 .L0 
     /tmp/cciR7THS.s:3406   .text:0000000000001784 .L0 
     /tmp/cciR7THS.s:3412   .text:000000000000178c .L0 
     /tmp/cciR7THS.s:3413   .text:000000000000178c .L0 
     /tmp/cciR7THS.s:3419   .text:00000000000017a0 .L0 
     /tmp/cciR7THS.s:3420   .text:00000000000017a0 .L0 
     /tmp/cciR7THS.s:3426   .text:00000000000017b4 .L0 
     /tmp/cciR7THS.s:3427   .text:00000000000017b4 .L0 
     /tmp/cciR7THS.s:3436   .text:00000000000017c8 .L0 
     /tmp/cciR7THS.s:3437   .text:00000000000017c8 .L0 
     /tmp/cciR7THS.s:3443   .text:00000000000017d0 .L0 
GAS LISTING /tmp/cciR7THS.s 			page 164


     /tmp/cciR7THS.s:3447   .text:00000000000017d4 .L0 
     /tmp/cciR7THS.s:3450   .text:00000000000017dc .L0 
     /tmp/cciR7THS.s:3451   .text:00000000000017dc .L0 
     /tmp/cciR7THS.s:3454   .text:00000000000017e0 .L0 
     /tmp/cciR7THS.s:3458   .text:00000000000017ec .L0 
     /tmp/cciR7THS.s:3463   .text:00000000000017fc .L0 
     /tmp/cciR7THS.s:3465   .text:0000000000001800 .L0 
     /tmp/cciR7THS.s:3471   .text:0000000000001804 .L0 
     /tmp/cciR7THS.s:3474   .text:0000000000001808 .L0 
     /tmp/cciR7THS.s:3477   .text:000000000000180c .L0 
     /tmp/cciR7THS.s:3484   .text:0000000000001814 .L0 
     /tmp/cciR7THS.s:3485   .text:0000000000001814 .L0 
     /tmp/cciR7THS.s:3490   .text:0000000000001818 .L0 
     /tmp/cciR7THS.s:3494   .text:000000000000181c .L0 
     /tmp/cciR7THS.s:3495   .text:000000000000181c .L0 
     /tmp/cciR7THS.s:3497   .text:0000000000001820 .L0 
     /tmp/cciR7THS.s:3499   .text:0000000000001824 .L0 
     /tmp/cciR7THS.s:3500   .text:0000000000001824 .L0 
     /tmp/cciR7THS.s:3503   .text:000000000000182c .L0 
     /tmp/cciR7THS.s:3505   .text:0000000000001830 .L0 
     /tmp/cciR7THS.s:3508   .text:0000000000001838 .L0 
     /tmp/cciR7THS.s:3512   .text:0000000000001844 .L0 
     /tmp/cciR7THS.s:3518   .text:000000000000184c .L0 
     /tmp/cciR7THS.s:3519   .text:000000000000184c .L0 
     /tmp/cciR7THS.s:3525   .text:0000000000001860 .L0 
     /tmp/cciR7THS.s:3526   .text:0000000000001860 .L0 
     /tmp/cciR7THS.s:3532   .text:0000000000001874 .L0 
     /tmp/cciR7THS.s:3533   .text:0000000000001874 .L0 
     /tmp/cciR7THS.s:3542   .text:0000000000001888 .L0 
     /tmp/cciR7THS.s:3543   .text:0000000000001888 .L0 
     /tmp/cciR7THS.s:3548   .text:0000000000001890 .L0 
     /tmp/cciR7THS.s:3549   .text:0000000000001890 .L0 
     /tmp/cciR7THS.s:3554   .text:0000000000001894 .L0 
     /tmp/cciR7THS.s:3558   .text:0000000000001898 .L0 
     /tmp/cciR7THS.s:3559   .text:0000000000001898 .L0 
     /tmp/cciR7THS.s:3561   .text:000000000000189c .L0 
     /tmp/cciR7THS.s:3563   .text:00000000000018a0 .L0 
     /tmp/cciR7THS.s:3564   .text:00000000000018a0 .L0 
     /tmp/cciR7THS.s:3567   .text:00000000000018a8 .L0 
     /tmp/cciR7THS.s:3569   .text:00000000000018ac .L0 
     /tmp/cciR7THS.s:3572   .text:00000000000018b4 .L0 
     /tmp/cciR7THS.s:3576   .text:00000000000018c0 .L0 
     /tmp/cciR7THS.s:3582   .text:00000000000018c8 .L0 
     /tmp/cciR7THS.s:3583   .text:00000000000018c8 .L0 
     /tmp/cciR7THS.s:3589   .text:00000000000018dc .L0 
     /tmp/cciR7THS.s:3590   .text:00000000000018dc .L0 
     /tmp/cciR7THS.s:3596   .text:00000000000018f0 .L0 
     /tmp/cciR7THS.s:3597   .text:00000000000018f0 .L0 
     /tmp/cciR7THS.s:3606   .text:0000000000001904 .L0 
     /tmp/cciR7THS.s:3607   .text:0000000000001904 .L0 
     /tmp/cciR7THS.s:3612   .text:000000000000190c .L0 
     /tmp/cciR7THS.s:3613   .text:000000000000190c .L0 
     /tmp/cciR7THS.s:3618   .text:0000000000001910 .L0 
     /tmp/cciR7THS.s:3624   .text:0000000000001918 .L0 
     /tmp/cciR7THS.s:3625   .text:0000000000001918 .L0 
     /tmp/cciR7THS.s:3628   .text:0000000000001920 .L0 
     /tmp/cciR7THS.s:3630   .text:0000000000001924 .L0 
GAS LISTING /tmp/cciR7THS.s 			page 165


     /tmp/cciR7THS.s:3633   .text:000000000000192c .L0 
     /tmp/cciR7THS.s:3637   .text:0000000000001938 .L0 
     /tmp/cciR7THS.s:3641   .text:000000000000193c .L0 
     /tmp/cciR7THS.s:3642   .text:000000000000193c .L0 
     /tmp/cciR7THS.s:3644   .text:0000000000001940 .L0 
     /tmp/cciR7THS.s:3647   .text:0000000000001944 .L0 
     /tmp/cciR7THS.s:3648   .text:0000000000001944 .L0 
     /tmp/cciR7THS.s:3654   .text:0000000000001958 .L0 
     /tmp/cciR7THS.s:3655   .text:0000000000001958 .L0 
     /tmp/cciR7THS.s:3661   .text:000000000000196c .L0 
     /tmp/cciR7THS.s:3662   .text:000000000000196c .L0 
     /tmp/cciR7THS.s:3670   .text:0000000000001980 .L0 
     /tmp/cciR7THS.s:3671   .text:0000000000001980 .L0 
     /tmp/cciR7THS.s:3675   .text:0000000000001984 .L0 
     /tmp/cciR7THS.s:3678   .text:0000000000001988 .L0 
     /tmp/cciR7THS.s:3679   .text:0000000000001988 .L0 
     /tmp/cciR7THS.s:3683   .text:000000000000198c .L0 
     /tmp/cciR7THS.s:3687   .text:0000000000001990 .L0 
     /tmp/cciR7THS.s:3691   .text:0000000000001994 .L0 
     /tmp/cciR7THS.s:3695   .text:000000000000199c .L0 
     /tmp/cciR7THS.s:3696   .text:000000000000199c .L0 
     /tmp/cciR7THS.s:3701   .text:00000000000019ac .L0 
     /tmp/cciR7THS.s:3708   .text:00000000000019c4 .L0 
     /tmp/cciR7THS.s:3710   .text:00000000000019c8 .L0 
     /tmp/cciR7THS.s:3711   .text:00000000000019c8 .L0 
     /tmp/cciR7THS.s:3719   .text:00000000000019e0 .L0 
     /tmp/cciR7THS.s:3720   .text:00000000000019e0 .L0 
     /tmp/cciR7THS.s:3727   .text:00000000000019f4 .L0 
     /tmp/cciR7THS.s:3729   .text:00000000000019f8 .L0 
     /tmp/cciR7THS.s:3731   .text:00000000000019fc .L0 
     /tmp/cciR7THS.s:3732   .text:00000000000019fc .L0 
     /tmp/cciR7THS.s:3741   .text:0000000000001a18 .L0 
     /tmp/cciR7THS.s:3743   .text:0000000000001a1c .L0 
     /tmp/cciR7THS.s:3751   .text:0000000000001a24 .L0 
     /tmp/cciR7THS.s:3756   .text:0000000000001a2c .L0 
     /tmp/cciR7THS.s:3757   .text:0000000000001a2c .L0 
     /tmp/cciR7THS.s:3762   .text:0000000000001a30 .L0 
     /tmp/cciR7THS.s:3766   .text:0000000000001a34 .L0 
     /tmp/cciR7THS.s:3767   .text:0000000000001a34 .L0 
     /tmp/cciR7THS.s:3769   .text:0000000000001a38 .L0 
     /tmp/cciR7THS.s:3771   .text:0000000000001a3c .L0 
     /tmp/cciR7THS.s:3772   .text:0000000000001a3c .L0 
     /tmp/cciR7THS.s:3775   .text:0000000000001a44 .L0 
     /tmp/cciR7THS.s:3777   .text:0000000000001a48 .L0 
     /tmp/cciR7THS.s:3780   .text:0000000000001a50 .L0 
     /tmp/cciR7THS.s:3784   .text:0000000000001a5c .L0 
     /tmp/cciR7THS.s:3790   .text:0000000000001a64 .L0 
     /tmp/cciR7THS.s:3791   .text:0000000000001a64 .L0 
     /tmp/cciR7THS.s:3797   .text:0000000000001a78 .L0 
     /tmp/cciR7THS.s:3798   .text:0000000000001a78 .L0 
     /tmp/cciR7THS.s:3804   .text:0000000000001a8c .L0 
     /tmp/cciR7THS.s:3805   .text:0000000000001a8c .L0 
     /tmp/cciR7THS.s:3814   .text:0000000000001aa0 .L0 
     /tmp/cciR7THS.s:3815   .text:0000000000001aa0 .L0 
     /tmp/cciR7THS.s:3821   .text:0000000000001aa8 .L0 
     /tmp/cciR7THS.s:3824   .text:0000000000001aac .L0 
     /tmp/cciR7THS.s:3825   .text:0000000000001aac .L0 
GAS LISTING /tmp/cciR7THS.s 			page 166


     /tmp/cciR7THS.s:3829   .text:0000000000001ab0 .L0 
     /tmp/cciR7THS.s:3832   .text:0000000000001ab4 .L0 
     /tmp/cciR7THS.s:3836   .text:0000000000001ab8 .L0 
     /tmp/cciR7THS.s:3839   .text:0000000000001ac0 .L0 
     /tmp/cciR7THS.s:3840   .text:0000000000001ac0 .L0 
     /tmp/cciR7THS.s:3847   .text:0000000000001ad8 .L0 
     /tmp/cciR7THS.s:3849   .text:0000000000001adc .L0 
     /tmp/cciR7THS.s:3854   .text:0000000000001ae4 .L0 
     /tmp/cciR7THS.s:3855   .text:0000000000001ae4 .L0 
     /tmp/cciR7THS.s:3860   .text:0000000000001af4 .L0 
     /tmp/cciR7THS.s:3861   .text:0000000000001af4 .L0 
     /tmp/cciR7THS.s:3866   .text:0000000000001b04 .L0 
     /tmp/cciR7THS.s:3867   .text:0000000000001b04 .L0 
     /tmp/cciR7THS.s:3872   .text:0000000000001b14 .L0 
     /tmp/cciR7THS.s:3873   .text:0000000000001b14 .L0 
     /tmp/cciR7THS.s:3879   .text:0000000000001b24 .L0 
     /tmp/cciR7THS.s:3880   .text:0000000000001b24 .L0 
     /tmp/cciR7THS.s:3887   .text:0000000000001b3c .L0 
     /tmp/cciR7THS.s:3889   .text:0000000000001b40 .L0 
     /tmp/cciR7THS.s:3890   .text:0000000000001b40 .L0 
     /tmp/cciR7THS.s:3895   .text:0000000000001b44 .L0 
     /tmp/cciR7THS.s:3900   .text:0000000000001b4c .L0 
     /tmp/cciR7THS.s:3901   .text:0000000000001b4c .L0 
     /tmp/cciR7THS.s:3904   .text:0000000000001b54 .L0 
     /tmp/cciR7THS.s:3906   .text:0000000000001b58 .L0 
     /tmp/cciR7THS.s:3909   .text:0000000000001b60 .L0 
     /tmp/cciR7THS.s:3913   .text:0000000000001b6c .L0 
     /tmp/cciR7THS.s:3917   .text:0000000000001b70 .L0 
     /tmp/cciR7THS.s:3918   .text:0000000000001b70 .L0 
     /tmp/cciR7THS.s:3920   .text:0000000000001b74 .L0 
     /tmp/cciR7THS.s:3923   .text:0000000000001b78 .L0 
     /tmp/cciR7THS.s:3924   .text:0000000000001b78 .L0 
     /tmp/cciR7THS.s:3930   .text:0000000000001b8c .L0 
     /tmp/cciR7THS.s:3931   .text:0000000000001b8c .L0 
     /tmp/cciR7THS.s:3937   .text:0000000000001ba0 .L0 
     /tmp/cciR7THS.s:3938   .text:0000000000001ba0 .L0 
     /tmp/cciR7THS.s:3947   .text:0000000000001bb4 .L0 
     /tmp/cciR7THS.s:3948   .text:0000000000001bb4 .L0 
     /tmp/cciR7THS.s:3954   .text:0000000000001bbc .L0 
     /tmp/cciR7THS.s:3955   .text:0000000000001bbc .L0 
     /tmp/cciR7THS.s:3963   .text:0000000000001bd4 .L0 
     /tmp/cciR7THS.s:3964   .text:0000000000001bd4 .L0 
     /tmp/cciR7THS.s:3973   .text:0000000000001bec .L0 
     /tmp/cciR7THS.s:3976   .text:0000000000001bf4 .L0 
     /tmp/cciR7THS.s:3980   .text:0000000000001bfc .L0 
     /tmp/cciR7THS.s:3981   .text:0000000000001bfc .L0 
     /tmp/cciR7THS.s:3986   .text:0000000000001c00 .L0 
     /tmp/cciR7THS.s:3991   .text:0000000000001c08 .L0 
     /tmp/cciR7THS.s:3992   .text:0000000000001c08 .L0 
     /tmp/cciR7THS.s:3995   .text:0000000000001c10 .L0 
     /tmp/cciR7THS.s:3997   .text:0000000000001c14 .L0 
     /tmp/cciR7THS.s:4000   .text:0000000000001c1c .L0 
     /tmp/cciR7THS.s:4004   .text:0000000000001c28 .L0 
     /tmp/cciR7THS.s:4008   .text:0000000000001c2c .L0 
     /tmp/cciR7THS.s:4009   .text:0000000000001c2c .L0 
     /tmp/cciR7THS.s:4011   .text:0000000000001c30 .L0 
     /tmp/cciR7THS.s:4014   .text:0000000000001c34 .L0 
GAS LISTING /tmp/cciR7THS.s 			page 167


     /tmp/cciR7THS.s:4015   .text:0000000000001c34 .L0 
     /tmp/cciR7THS.s:4021   .text:0000000000001c48 .L0 
     /tmp/cciR7THS.s:4022   .text:0000000000001c48 .L0 
     /tmp/cciR7THS.s:4028   .text:0000000000001c5c .L0 
     /tmp/cciR7THS.s:4029   .text:0000000000001c5c .L0 
     /tmp/cciR7THS.s:4038   .text:0000000000001c70 .L0 
     /tmp/cciR7THS.s:4039   .text:0000000000001c70 .L0 
     /tmp/cciR7THS.s:4045   .text:0000000000001c78 .L0 
     /tmp/cciR7THS.s:4046   .text:0000000000001c78 .L0 
     /tmp/cciR7THS.s:4053   .text:0000000000001c90 .L0 
     /tmp/cciR7THS.s:4054   .text:0000000000001c90 .L0 
     /tmp/cciR7THS.s:4056   .text:0000000000001c90 .L0 
     /tmp/cciR7THS.s:4057   .text:0000000000001c90 .L0 
     /tmp/cciR7THS.s:4060   .text:0000000000001c94 .L0 
     /tmp/cciR7THS.s:4066   .text:0000000000001c9c .L0 
     /tmp/cciR7THS.s:4067   .text:0000000000001c9c .L0 
     /tmp/cciR7THS.s:4069   .text:0000000000001ca0 .L0 
     /tmp/cciR7THS.s:4074   .text:0000000000001cac .L0 
     /tmp/cciR7THS.s:4075   .text:0000000000001cac .L0 
     /tmp/cciR7THS.s:4081   .text:0000000000001cb4 .L0 
     /tmp/cciR7THS.s:4084   .text:0000000000001cb8 .L0 
     /tmp/cciR7THS.s:4085   .text:0000000000001cb8 .L0 
     /tmp/cciR7THS.s:4089   .text:0000000000001cbc .L0 
     /tmp/cciR7THS.s:4092   .text:0000000000001cc0 .L0 
     /tmp/cciR7THS.s:4096   .text:0000000000001cc4 .L0 
     /tmp/cciR7THS.s:4099   .text:0000000000001ccc .L0 
     /tmp/cciR7THS.s:4100   .text:0000000000001ccc .L0 
     /tmp/cciR7THS.s:4104   .text:0000000000001cd8 .L0 
     /tmp/cciR7THS.s:4111   .text:0000000000001cf0 .L0 
     /tmp/cciR7THS.s:4113   .text:0000000000001cf4 .L0 
     /tmp/cciR7THS.s:4118   .text:0000000000001cfc .L0 
     /tmp/cciR7THS.s:4119   .text:0000000000001cfc .L0 
     /tmp/cciR7THS.s:4124   .text:0000000000001d00 .L0 
     /tmp/cciR7THS.s:4130   .text:0000000000001d08 .L0 
     /tmp/cciR7THS.s:4131   .text:0000000000001d08 .L0 
     /tmp/cciR7THS.s:4134   .text:0000000000001d10 .L0 
     /tmp/cciR7THS.s:4136   .text:0000000000001d14 .L0 
     /tmp/cciR7THS.s:4139   .text:0000000000001d1c .L0 
     /tmp/cciR7THS.s:4143   .text:0000000000001d28 .L0 
     /tmp/cciR7THS.s:4147   .text:0000000000001d2c .L0 
     /tmp/cciR7THS.s:4148   .text:0000000000001d2c .L0 
     /tmp/cciR7THS.s:4150   .text:0000000000001d30 .L0 
     /tmp/cciR7THS.s:4153   .text:0000000000001d34 .L0 
     /tmp/cciR7THS.s:4154   .text:0000000000001d34 .L0 
     /tmp/cciR7THS.s:4160   .text:0000000000001d48 .L0 
     /tmp/cciR7THS.s:4161   .text:0000000000001d48 .L0 
     /tmp/cciR7THS.s:4167   .text:0000000000001d5c .L0 
     /tmp/cciR7THS.s:4168   .text:0000000000001d5c .L0 
     /tmp/cciR7THS.s:4177   .text:0000000000001d70 .L0 
     /tmp/cciR7THS.s:4182   .text:0000000000001d74 .L0 
     /tmp/cciR7THS.s:4188   .text:0000000000001d78 .L0 
     /tmp/cciR7THS.s:4196   .text:0000000000001d84 .L0 
     /tmp/cciR7THS.s:4204   .text:0000000000001d9c .L0 
     /tmp/cciR7THS.s:4233   .text:0000000000001d9c _ZN20KObjectAllocatorTest5test3Em
     /tmp/cciR7THS.s:4236   .text:0000000000001d9c .L0 
     /tmp/cciR7THS.s:4240   .text:0000000000001d9c .L0 
     /tmp/cciR7THS.s:4241   .text:0000000000001da0 .L0 
GAS LISTING /tmp/cciR7THS.s 			page 168


     /tmp/cciR7THS.s:4249   .text:0000000000001dbc .L0 
     /tmp/cciR7THS.s:4250   .text:0000000000001dbc .L0 
     /tmp/cciR7THS.s:4251   .text:0000000000001dbc .L0 
     /tmp/cciR7THS.s:4252   .text:0000000000001dbc .L0 
     /tmp/cciR7THS.s:4253   .text:0000000000001dbc .L0 
     /tmp/cciR7THS.s:4254   .text:0000000000001dbc .L0 
     /tmp/cciR7THS.s:4255   .text:0000000000001dbc .L0 
     /tmp/cciR7THS.s:4257   .text:0000000000001dc0 .L0 
     /tmp/cciR7THS.s:4262   .text:0000000000001dc8 .L0 
     /tmp/cciR7THS.s:4265   .text:0000000000001dc8 .L0 
     /tmp/cciR7THS.s:4267   .text:0000000000001dc8 .L0 
     /tmp/cciR7THS.s:4268   .text:0000000000001dc8 .L0 
     /tmp/cciR7THS.s:4281   .text:0000000000001de0 .L0 
     /tmp/cciR7THS.s:4291   .text:0000000000001dfc .L0 
     /tmp/cciR7THS.s:4292   .text:0000000000001dfc .L0 
     /tmp/cciR7THS.s:4295   .text:0000000000001e04 .L0 
     /tmp/cciR7THS.s:4297   .text:0000000000001e08 .L0 
     /tmp/cciR7THS.s:4301   .text:0000000000001e14 .L0 
     /tmp/cciR7THS.s:4303   .text:0000000000001e18 .L0 
     /tmp/cciR7THS.s:4304   .text:0000000000001e18 .L0 
     /tmp/cciR7THS.s:4307   .text:0000000000001e20 .L0 
     /tmp/cciR7THS.s:4309   .text:0000000000001e24 .L0 
     /tmp/cciR7THS.s:4313   .text:0000000000001e30 .L0 
     /tmp/cciR7THS.s:4315   .text:0000000000001e34 .L0 
     /tmp/cciR7THS.s:4316   .text:0000000000001e34 .L0 
     /tmp/cciR7THS.s:4318   .text:0000000000001e38 .L0 
     /tmp/cciR7THS.s:4320   .text:0000000000001e3c .L0 
     /tmp/cciR7THS.s:4324   .text:0000000000001e44 .L0 
     /tmp/cciR7THS.s:4326   .text:0000000000001e48 .L0 
     /tmp/cciR7THS.s:4328   .text:0000000000001e4c .L0 
     /tmp/cciR7THS.s:4330   .text:0000000000001e50 .L0 
     /tmp/cciR7THS.s:4331   .text:0000000000001e50 .L0 
     /tmp/cciR7THS.s:4333   .text:0000000000001e54 .L0 
     /tmp/cciR7THS.s:4335   .text:0000000000001e58 .L0 
     /tmp/cciR7THS.s:4336   .text:0000000000001e58 .L0 
     /tmp/cciR7THS.s:4341   .text:0000000000001e64 .L0 
     /tmp/cciR7THS.s:4345   .text:0000000000001e6c .L0 
     /tmp/cciR7THS.s:4347   .text:0000000000001e70 .L0 
     /tmp/cciR7THS.s:4349   .text:0000000000001e74 .L0 
     /tmp/cciR7THS.s:4351   .text:0000000000001e78 .L0 
     /tmp/cciR7THS.s:4356   .text:0000000000001e84 .L0 
     /tmp/cciR7THS.s:4358   .text:0000000000001e88 .L0 
     /tmp/cciR7THS.s:4359   .text:0000000000001e88 .L0 
     /tmp/cciR7THS.s:4361   .text:0000000000001e8c .L0 
     /tmp/cciR7THS.s:4363   .text:0000000000001e90 .L0 
     /tmp/cciR7THS.s:4365   .text:0000000000001e94 .L0 
     /tmp/cciR7THS.s:4367   .text:0000000000001e98 .L0 
     /tmp/cciR7THS.s:4369   .text:0000000000001e9c .L0 
     /tmp/cciR7THS.s:4373   .text:0000000000001ea0 .L0 
     /tmp/cciR7THS.s:4374   .text:0000000000001ea0 .L0 
     /tmp/cciR7THS.s:4378   .text:0000000000001ea4 .L0 
     /tmp/cciR7THS.s:4379   .text:0000000000001ea4 .L0 
     /tmp/cciR7THS.s:4381   .text:0000000000001ea8 .L0 
     /tmp/cciR7THS.s:4383   .text:0000000000001eac .L0 
     /tmp/cciR7THS.s:4384   .text:0000000000001eac .L0 
     /tmp/cciR7THS.s:4386   .text:0000000000001eb0 .L0 
     /tmp/cciR7THS.s:4389   .text:0000000000001eb4 .L0 
GAS LISTING /tmp/cciR7THS.s 			page 169


     /tmp/cciR7THS.s:4391   .text:0000000000001eb8 .L0 
     /tmp/cciR7THS.s:4393   .text:0000000000001ebc .L0 
     /tmp/cciR7THS.s:4396   .text:0000000000001ec0 .L0 
     /tmp/cciR7THS.s:4406   .text:0000000000001ec4 .L0 
     /tmp/cciR7THS.s:4407   .text:0000000000001ec4 .L0 
     /tmp/cciR7THS.s:4408   .text:0000000000001ec4 .L0 
     /tmp/cciR7THS.s:4413   .text:0000000000001ec8 .L0 
     /tmp/cciR7THS.s:4416   .text:0000000000001ed0 .L0 
     /tmp/cciR7THS.s:4417   .text:0000000000001ed0 .L0 
     /tmp/cciR7THS.s:4422   .text:0000000000001ed4 .L0 
     /tmp/cciR7THS.s:4426   .text:0000000000001ed8 .L0 
     /tmp/cciR7THS.s:4427   .text:0000000000001ed8 .L0 
     /tmp/cciR7THS.s:4429   .text:0000000000001edc .L0 
     /tmp/cciR7THS.s:4432   .text:0000000000001ee0 .L0 
     /tmp/cciR7THS.s:4433   .text:0000000000001ee0 .L0 
     /tmp/cciR7THS.s:4436   .text:0000000000001ee8 .L0 
     /tmp/cciR7THS.s:4438   .text:0000000000001eec .L0 
     /tmp/cciR7THS.s:4441   .text:0000000000001ef4 .L0 
     /tmp/cciR7THS.s:4445   .text:0000000000001f00 .L0 
     /tmp/cciR7THS.s:4451   .text:0000000000001f08 .L0 
     /tmp/cciR7THS.s:4452   .text:0000000000001f08 .L0 
     /tmp/cciR7THS.s:4458   .text:0000000000001f1c .L0 
     /tmp/cciR7THS.s:4459   .text:0000000000001f1c .L0 
     /tmp/cciR7THS.s:4465   .text:0000000000001f30 .L0 
     /tmp/cciR7THS.s:4466   .text:0000000000001f30 .L0 
     /tmp/cciR7THS.s:4475   .text:0000000000001f44 .L0 
     /tmp/cciR7THS.s:4476   .text:0000000000001f44 .L0 
     /tmp/cciR7THS.s:4479   .text:0000000000001f48 .L0 
     /tmp/cciR7THS.s:4480   .text:0000000000001f4c .L0 
     /tmp/cciR7THS.s:4481   .text:0000000000001f4c .L0 
     /tmp/cciR7THS.s:4483   .text:0000000000001f50 .L0 
     /tmp/cciR7THS.s:4485   .text:0000000000001f54 .L0 
     /tmp/cciR7THS.s:4487   .text:0000000000001f58 .L0 
     /tmp/cciR7THS.s:4490   .text:0000000000001f5c .L0 
     /tmp/cciR7THS.s:4492   .text:0000000000001f60 .L0 
     /tmp/cciR7THS.s:4495   .text:0000000000001f64 .L0 
     /tmp/cciR7THS.s:4497   .text:0000000000001f68 .L0 
     /tmp/cciR7THS.s:4499   .text:0000000000001f6c .L0 
     /tmp/cciR7THS.s:4503   .text:0000000000001f70 .L0 
     /tmp/cciR7THS.s:4507   .text:0000000000001f70 .L0 
     /tmp/cciR7THS.s:4508   .text:0000000000001f70 .L0 
     /tmp/cciR7THS.s:4509   .text:0000000000001f70 .L0 
     /tmp/cciR7THS.s:4514   .text:0000000000001f74 .L0 
     /tmp/cciR7THS.s:4517   .text:0000000000001f7c .L0 
     /tmp/cciR7THS.s:4518   .text:0000000000001f7c .L0 
     /tmp/cciR7THS.s:4523   .text:0000000000001f80 .L0 
     /tmp/cciR7THS.s:4527   .text:0000000000001f84 .L0 
     /tmp/cciR7THS.s:4528   .text:0000000000001f84 .L0 
     /tmp/cciR7THS.s:4530   .text:0000000000001f88 .L0 
     /tmp/cciR7THS.s:4532   .text:0000000000001f8c .L0 
     /tmp/cciR7THS.s:4533   .text:0000000000001f8c .L0 
     /tmp/cciR7THS.s:4536   .text:0000000000001f94 .L0 
     /tmp/cciR7THS.s:4538   .text:0000000000001f98 .L0 
     /tmp/cciR7THS.s:4541   .text:0000000000001fa0 .L0 
     /tmp/cciR7THS.s:4545   .text:0000000000001fac .L0 
     /tmp/cciR7THS.s:4551   .text:0000000000001fb4 .L0 
     /tmp/cciR7THS.s:4552   .text:0000000000001fb4 .L0 
GAS LISTING /tmp/cciR7THS.s 			page 170


     /tmp/cciR7THS.s:4558   .text:0000000000001fc8 .L0 
     /tmp/cciR7THS.s:4559   .text:0000000000001fc8 .L0 
     /tmp/cciR7THS.s:4565   .text:0000000000001fdc .L0 
     /tmp/cciR7THS.s:4566   .text:0000000000001fdc .L0 
     /tmp/cciR7THS.s:4575   .text:0000000000001ff0 .L0 
     /tmp/cciR7THS.s:4576   .text:0000000000001ff0 .L0 
     /tmp/cciR7THS.s:4583   .text:0000000000001ff8 .L0 
     /tmp/cciR7THS.s:4584   .text:0000000000001ff8 .L0 
     /tmp/cciR7THS.s:4585   .text:0000000000001ff8 .L0 
     /tmp/cciR7THS.s:4590   .text:0000000000001ffc .L0 
     /tmp/cciR7THS.s:4593   .text:0000000000002004 .L0 
     /tmp/cciR7THS.s:4594   .text:0000000000002004 .L0 
     /tmp/cciR7THS.s:4599   .text:0000000000002008 .L0 
     /tmp/cciR7THS.s:4603   .text:000000000000200c .L0 
     /tmp/cciR7THS.s:4604   .text:000000000000200c .L0 
     /tmp/cciR7THS.s:4606   .text:0000000000002010 .L0 
     /tmp/cciR7THS.s:4608   .text:0000000000002014 .L0 
     /tmp/cciR7THS.s:4609   .text:0000000000002014 .L0 
     /tmp/cciR7THS.s:4612   .text:000000000000201c .L0 
     /tmp/cciR7THS.s:4614   .text:0000000000002020 .L0 
     /tmp/cciR7THS.s:4617   .text:0000000000002028 .L0 
     /tmp/cciR7THS.s:4621   .text:0000000000002034 .L0 
     /tmp/cciR7THS.s:4627   .text:000000000000203c .L0 
     /tmp/cciR7THS.s:4628   .text:000000000000203c .L0 
     /tmp/cciR7THS.s:4634   .text:0000000000002050 .L0 
     /tmp/cciR7THS.s:4635   .text:0000000000002050 .L0 
     /tmp/cciR7THS.s:4641   .text:0000000000002064 .L0 
     /tmp/cciR7THS.s:4642   .text:0000000000002064 .L0 
     /tmp/cciR7THS.s:4651   .text:0000000000002078 .L0 
     /tmp/cciR7THS.s:4652   .text:0000000000002078 .L0 
     /tmp/cciR7THS.s:4657   .text:0000000000002080 .L0 
     /tmp/cciR7THS.s:4661   .text:0000000000002084 .L0 
     /tmp/cciR7THS.s:4664   .text:000000000000208c .L0 
     /tmp/cciR7THS.s:4665   .text:000000000000208c .L0 
     /tmp/cciR7THS.s:4668   .text:0000000000002090 .L0 
     /tmp/cciR7THS.s:4672   .text:000000000000209c .L0 
     /tmp/cciR7THS.s:4677   .text:00000000000020ac .L0 
     /tmp/cciR7THS.s:4679   .text:00000000000020b0 .L0 
     /tmp/cciR7THS.s:4684   .text:00000000000020b4 .L0 
     /tmp/cciR7THS.s:4685   .text:00000000000020b4 .L0 
     /tmp/cciR7THS.s:4693   .text:00000000000020cc .L0 
     /tmp/cciR7THS.s:4697   .text:00000000000020d4 .L0 
     /tmp/cciR7THS.s:4698   .text:00000000000020d4 .L0 
     /tmp/cciR7THS.s:4703   .text:00000000000020d8 .L0 
     /tmp/cciR7THS.s:4707   .text:00000000000020dc .L0 
     /tmp/cciR7THS.s:4708   .text:00000000000020dc .L0 
     /tmp/cciR7THS.s:4710   .text:00000000000020e0 .L0 
     /tmp/cciR7THS.s:4712   .text:00000000000020e4 .L0 
     /tmp/cciR7THS.s:4713   .text:00000000000020e4 .L0 
     /tmp/cciR7THS.s:4716   .text:00000000000020ec .L0 
     /tmp/cciR7THS.s:4718   .text:00000000000020f0 .L0 
     /tmp/cciR7THS.s:4721   .text:00000000000020f8 .L0 
     /tmp/cciR7THS.s:4725   .text:0000000000002104 .L0 
     /tmp/cciR7THS.s:4734   .text:000000000000210c .L0 
     /tmp/cciR7THS.s:4741   .text:0000000000002124 .L0 
     /tmp/cciR7THS.s:4743   .text:0000000000002128 .L0 
     /tmp/cciR7THS.s:4744   .text:0000000000002128 .L0 
GAS LISTING /tmp/cciR7THS.s 			page 171


     /tmp/cciR7THS.s:4746   .text:000000000000212c .L0 
     /tmp/cciR7THS.s:4750   .text:0000000000002134 .L0 
     /tmp/cciR7THS.s:4754   .text:0000000000002138 .L0 
     /tmp/cciR7THS.s:4757   .text:0000000000002140 .L0 
     /tmp/cciR7THS.s:4758   .text:0000000000002140 .L0 
     /tmp/cciR7THS.s:4761   .text:0000000000002144 .L0 
     /tmp/cciR7THS.s:4765   .text:0000000000002150 .L0 
     /tmp/cciR7THS.s:4770   .text:0000000000002160 .L0 
     /tmp/cciR7THS.s:4772   .text:0000000000002164 .L0 
     /tmp/cciR7THS.s:4779   .text:0000000000002168 .L0 
     /tmp/cciR7THS.s:4780   .text:0000000000002168 .L0 
     /tmp/cciR7THS.s:4786   .text:000000000000217c .L0 
     /tmp/cciR7THS.s:4787   .text:000000000000217c .L0 
     /tmp/cciR7THS.s:4793   .text:0000000000002190 .L0 
     /tmp/cciR7THS.s:4794   .text:0000000000002190 .L0 
     /tmp/cciR7THS.s:4803   .text:00000000000021a4 .L0 
     /tmp/cciR7THS.s:4804   .text:00000000000021a4 .L0 
     /tmp/cciR7THS.s:4808   .text:00000000000021ac .L0 
     /tmp/cciR7THS.s:4809   .text:00000000000021ac .L0 
     /tmp/cciR7THS.s:4817   .text:00000000000021b4 .L0 
     /tmp/cciR7THS.s:4818   .text:00000000000021b4 .L0 
     /tmp/cciR7THS.s:4821   .text:00000000000021bc .L0 
     /tmp/cciR7THS.s:4823   .text:00000000000021c0 .L0 
     /tmp/cciR7THS.s:4826   .text:00000000000021c8 .L0 
     /tmp/cciR7THS.s:4830   .text:00000000000021d4 .L0 
     /tmp/cciR7THS.s:4834   .text:00000000000021d8 .L0 
     /tmp/cciR7THS.s:4835   .text:00000000000021d8 .L0 
     /tmp/cciR7THS.s:4837   .text:00000000000021dc .L0 
     /tmp/cciR7THS.s:4840   .text:00000000000021e0 .L0 
     /tmp/cciR7THS.s:4841   .text:00000000000021e0 .L0 
     /tmp/cciR7THS.s:4847   .text:00000000000021f4 .L0 
     /tmp/cciR7THS.s:4848   .text:00000000000021f4 .L0 
     /tmp/cciR7THS.s:4854   .text:0000000000002208 .L0 
     /tmp/cciR7THS.s:4855   .text:0000000000002208 .L0 
     /tmp/cciR7THS.s:4864   .text:000000000000221c .L0 
     /tmp/cciR7THS.s:4865   .text:000000000000221c .L0 
     /tmp/cciR7THS.s:4870   .text:0000000000002224 .L0 
     /tmp/cciR7THS.s:4871   .text:0000000000002224 .L0 
     /tmp/cciR7THS.s:4873   .text:0000000000002228 .L0 
     /tmp/cciR7THS.s:4876   .text:0000000000002230 .L0 
     /tmp/cciR7THS.s:4877   .text:0000000000002230 .L0 
     /tmp/cciR7THS.s:4884   .text:0000000000002234 .L0 
     /tmp/cciR7THS.s:4885   .text:0000000000002234 .L0 
     /tmp/cciR7THS.s:4887   .text:0000000000002238 .L0 
     /tmp/cciR7THS.s:4889   .text:000000000000223c .L0 
     /tmp/cciR7THS.s:4890   .text:000000000000223c .L0 
     /tmp/cciR7THS.s:4893   .text:0000000000002244 .L0 
     /tmp/cciR7THS.s:4895   .text:0000000000002248 .L0 
     /tmp/cciR7THS.s:4898   .text:0000000000002250 .L0 
     /tmp/cciR7THS.s:4902   .text:000000000000225c .L0 
     /tmp/cciR7THS.s:4908   .text:0000000000002264 .L0 
     /tmp/cciR7THS.s:4909   .text:0000000000002264 .L0 
     /tmp/cciR7THS.s:4915   .text:0000000000002278 .L0 
     /tmp/cciR7THS.s:4916   .text:0000000000002278 .L0 
     /tmp/cciR7THS.s:4922   .text:000000000000228c .L0 
     /tmp/cciR7THS.s:4923   .text:000000000000228c .L0 
     /tmp/cciR7THS.s:4932   .text:00000000000022a0 .L0 
GAS LISTING /tmp/cciR7THS.s 			page 172


     /tmp/cciR7THS.s:4933   .text:00000000000022a0 .L0 
     /tmp/cciR7THS.s:4937   .text:00000000000022a8 .L0 
     /tmp/cciR7THS.s:4938   .text:00000000000022a8 .L0 
     /tmp/cciR7THS.s:4943   .text:00000000000022b8 .L0 
     /tmp/cciR7THS.s:4944   .text:00000000000022b8 .L0 
     /tmp/cciR7THS.s:4950   .text:00000000000022c8 .L0 
     /tmp/cciR7THS.s:4951   .text:00000000000022c8 .L0 
     /tmp/cciR7THS.s:4957   .text:00000000000022dc .L0 
     /tmp/cciR7THS.s:4961   .text:00000000000022e4 .L0 
     /tmp/cciR7THS.s:4962   .text:00000000000022e4 .L0 
     /tmp/cciR7THS.s:4969   .text:00000000000022e8 .L0 
     /tmp/cciR7THS.s:4970   .text:00000000000022e8 .L0 
     /tmp/cciR7THS.s:4972   .text:00000000000022ec .L0 
     /tmp/cciR7THS.s:4974   .text:00000000000022f0 .L0 
     /tmp/cciR7THS.s:4975   .text:00000000000022f0 .L0 
     /tmp/cciR7THS.s:4978   .text:00000000000022f8 .L0 
     /tmp/cciR7THS.s:4980   .text:00000000000022fc .L0 
     /tmp/cciR7THS.s:4983   .text:0000000000002304 .L0 
     /tmp/cciR7THS.s:4987   .text:0000000000002310 .L0 
     /tmp/cciR7THS.s:4996   .text:0000000000002318 .L0 
     /tmp/cciR7THS.s:5002   .text:000000000000232c .L0 
     /tmp/cciR7THS.s:5005   .text:0000000000002334 .L0 
     /tmp/cciR7THS.s:5006   .text:0000000000002334 .L0 
     /tmp/cciR7THS.s:5008   .text:0000000000002338 .L0 
     /tmp/cciR7THS.s:5010   .text:000000000000233c .L0 
     /tmp/cciR7THS.s:5011   .text:000000000000233c .L0 
     /tmp/cciR7THS.s:5013   .text:0000000000002340 .L0 
     /tmp/cciR7THS.s:5018   .text:000000000000234c .L0 
     /tmp/cciR7THS.s:5019   .text:000000000000234c .L0 
     /tmp/cciR7THS.s:5026   .text:0000000000002354 .L0 
     /tmp/cciR7THS.s:5027   .text:0000000000002354 .L0 
     /tmp/cciR7THS.s:5033   .text:0000000000002368 .L0 
     /tmp/cciR7THS.s:5034   .text:0000000000002368 .L0 
     /tmp/cciR7THS.s:5040   .text:000000000000237c .L0 
     /tmp/cciR7THS.s:5041   .text:000000000000237c .L0 
     /tmp/cciR7THS.s:5050   .text:0000000000002390 .L0 
     /tmp/cciR7THS.s:5051   .text:0000000000002390 .L0 
     /tmp/cciR7THS.s:5055   .text:0000000000002398 .L0 
     /tmp/cciR7THS.s:5056   .text:0000000000002398 .L0 
     /tmp/cciR7THS.s:5061   .text:00000000000023a8 .L0 
     /tmp/cciR7THS.s:5062   .text:00000000000023a8 .L0 
     /tmp/cciR7THS.s:5067   .text:00000000000023b8 .L0 
     /tmp/cciR7THS.s:5068   .text:00000000000023b8 .L0 
     /tmp/cciR7THS.s:5073   .text:00000000000023c8 .L0 
     /tmp/cciR7THS.s:5074   .text:00000000000023c8 .L0 
     /tmp/cciR7THS.s:5079   .text:00000000000023d8 .L0 
     /tmp/cciR7THS.s:5080   .text:00000000000023d8 .L0 
     /tmp/cciR7THS.s:5086   .text:00000000000023ec .L0 
     /tmp/cciR7THS.s:5090   .text:00000000000023f4 .L0 
     /tmp/cciR7THS.s:5091   .text:00000000000023f4 .L0 
     /tmp/cciR7THS.s:5093   .text:00000000000023f8 .L0 
     /tmp/cciR7THS.s:5098   .text:0000000000002404 .L0 
     /tmp/cciR7THS.s:5099   .text:0000000000002404 .L0 
     /tmp/cciR7THS.s:5103   .text:000000000000240c .L0 
     /tmp/cciR7THS.s:5109   .text:0000000000002420 .L0 
     /tmp/cciR7THS.s:5112   .text:0000000000002428 .L0 
     /tmp/cciR7THS.s:5113   .text:0000000000002428 .L0 
GAS LISTING /tmp/cciR7THS.s 			page 173


     /tmp/cciR7THS.s:5115   .text:000000000000242c .L0 
     /tmp/cciR7THS.s:5118   .text:0000000000002434 .L0 
     /tmp/cciR7THS.s:5119   .text:0000000000002434 .L0 
     /tmp/cciR7THS.s:5121   .text:0000000000002438 .L0 
     /tmp/cciR7THS.s:5126   .text:0000000000002444 .L0 
     /tmp/cciR7THS.s:5127   .text:0000000000002444 .L0 
     /tmp/cciR7THS.s:5131   .text:000000000000244c .L0 
     /tmp/cciR7THS.s:5132   .text:000000000000244c .L0 
     /tmp/cciR7THS.s:5137   .text:000000000000245c .L0 
     /tmp/cciR7THS.s:5138   .text:000000000000245c .L0 
     /tmp/cciR7THS.s:5143   .text:000000000000246c .L0 
     /tmp/cciR7THS.s:5144   .text:000000000000246c .L0 
     /tmp/cciR7THS.s:5150   .text:0000000000002480 .L0 
     /tmp/cciR7THS.s:5154   .text:0000000000002488 .L0 
     /tmp/cciR7THS.s:5155   .text:0000000000002488 .L0 
     /tmp/cciR7THS.s:5157   .text:000000000000248c .L0 
     /tmp/cciR7THS.s:5162   .text:0000000000002498 .L0 
     /tmp/cciR7THS.s:5163   .text:0000000000002498 .L0 
     /tmp/cciR7THS.s:5167   .text:00000000000024a0 .L0 
     /tmp/cciR7THS.s:5173   .text:00000000000024b4 .L0 
     /tmp/cciR7THS.s:5176   .text:00000000000024bc .L0 
     /tmp/cciR7THS.s:5177   .text:00000000000024bc .L0 
     /tmp/cciR7THS.s:5179   .text:00000000000024c0 .L0 
     /tmp/cciR7THS.s:5182   .text:00000000000024c8 .L0 
     /tmp/cciR7THS.s:5183   .text:00000000000024c8 .L0 
     /tmp/cciR7THS.s:5185   .text:00000000000024cc .L0 
     /tmp/cciR7THS.s:5190   .text:00000000000024d8 .L0 
     /tmp/cciR7THS.s:5191   .text:00000000000024d8 .L0 
     /tmp/cciR7THS.s:5195   .text:00000000000024e0 .L0 
     /tmp/cciR7THS.s:5196   .text:00000000000024e0 .L0 
     /tmp/cciR7THS.s:5201   .text:00000000000024f0 .L0 
     /tmp/cciR7THS.s:5202   .text:00000000000024f0 .L0 
     /tmp/cciR7THS.s:5208   .text:0000000000002504 .L0 
     /tmp/cciR7THS.s:5212   .text:000000000000250c .L0 
     /tmp/cciR7THS.s:5213   .text:000000000000250c .L0 
     /tmp/cciR7THS.s:5215   .text:0000000000002510 .L0 
     /tmp/cciR7THS.s:5218   .text:0000000000002518 .L0 
     /tmp/cciR7THS.s:5219   .text:0000000000002518 .L0 
     /tmp/cciR7THS.s:5221   .text:000000000000251c .L0 
     /tmp/cciR7THS.s:5226   .text:0000000000002528 .L0 
     /tmp/cciR7THS.s:5227   .text:0000000000002528 .L0 
     /tmp/cciR7THS.s:5231   .text:0000000000002530 .L0 
     /tmp/cciR7THS.s:5237   .text:0000000000002544 .L0 
     /tmp/cciR7THS.s:5241   .text:000000000000254c .L0 
     /tmp/cciR7THS.s:5242   .text:000000000000254c .L0 
     /tmp/cciR7THS.s:5247   .text:000000000000255c .L0 
     /tmp/cciR7THS.s:5248   .text:000000000000255c .L0 
     /tmp/cciR7THS.s:5254   .text:0000000000002570 .L0 
     /tmp/cciR7THS.s:5258   .text:0000000000002578 .L0 
     /tmp/cciR7THS.s:5259   .text:0000000000002578 .L0 
     /tmp/cciR7THS.s:5261   .text:000000000000257c .L0 
     /tmp/cciR7THS.s:5266   .text:0000000000002588 .L0 
     /tmp/cciR7THS.s:5267   .text:0000000000002588 .L0 
     /tmp/cciR7THS.s:5271   .text:0000000000002590 .L0 
     /tmp/cciR7THS.s:5277   .text:00000000000025a4 .L0 
     /tmp/cciR7THS.s:5280   .text:00000000000025ac .L0 
     /tmp/cciR7THS.s:5281   .text:00000000000025ac .L0 
GAS LISTING /tmp/cciR7THS.s 			page 174


     /tmp/cciR7THS.s:5283   .text:00000000000025b0 .L0 
     /tmp/cciR7THS.s:5287   .text:00000000000025b8 .L0 
     /tmp/cciR7THS.s:5291   .text:00000000000025bc .L0 
     /tmp/cciR7THS.s:5294   .text:00000000000025c4 .L0 
     /tmp/cciR7THS.s:5295   .text:00000000000025c4 .L0 
     /tmp/cciR7THS.s:5300   .text:00000000000025d4 .L0 
     /tmp/cciR7THS.s:5301   .text:00000000000025d4 .L0 
     /tmp/cciR7THS.s:5306   .text:00000000000025e4 .L0 
     /tmp/cciR7THS.s:5308   .text:00000000000025e8 .L0 
     /tmp/cciR7THS.s:5309   .text:00000000000025e8 .L0 
     /tmp/cciR7THS.s:5315   .text:00000000000025fc .L0 
     /tmp/cciR7THS.s:5318   .text:0000000000002604 .L0 
     /tmp/cciR7THS.s:5324   .text:0000000000002618 .L0 
     /tmp/cciR7THS.s:5326   .text:000000000000261c .L0 
     /tmp/cciR7THS.s:5327   .text:000000000000261c .L0 
     /tmp/cciR7THS.s:5329   .text:0000000000002620 .L0 
     /tmp/cciR7THS.s:5332   .text:0000000000002628 .L0 
     /tmp/cciR7THS.s:5333   .text:0000000000002628 .L0 
     /tmp/cciR7THS.s:5341   .text:0000000000002644 .L0 
     /tmp/cciR7THS.s:5342   .text:0000000000002644 .L0 
     /tmp/cciR7THS.s:5347   .text:0000000000002654 .L0 
     /tmp/cciR7THS.s:5351   .text:0000000000002660 .L0 
     /tmp/cciR7THS.s:5352   .text:0000000000002660 .L0 
     /tmp/cciR7THS.s:5358   .text:0000000000002674 .L0 
     /tmp/cciR7THS.s:5360   .text:0000000000002678 .L0 
     /tmp/cciR7THS.s:5366   .text:000000000000268c .L0 
     /tmp/cciR7THS.s:5369   .text:0000000000002694 .L0 
     /tmp/cciR7THS.s:5370   .text:0000000000002694 .L0 
     /tmp/cciR7THS.s:5372   .text:0000000000002698 .L0 
     /tmp/cciR7THS.s:5374   .text:000000000000269c .L0 
     /tmp/cciR7THS.s:5380   .text:00000000000026a4 .L0 
     /tmp/cciR7THS.s:5381   .text:00000000000026a4 .L0 
     /tmp/cciR7THS.s:5383   .text:00000000000026a8 .L0 
     /tmp/cciR7THS.s:5388   .text:00000000000026b4 .L0 
     /tmp/cciR7THS.s:5389   .text:00000000000026b4 .L0 
     /tmp/cciR7THS.s:5395   .text:00000000000026bc .L0 
     /tmp/cciR7THS.s:5396   .text:00000000000026bc .L0 
     /tmp/cciR7THS.s:5398   .text:00000000000026c0 .L0 
     /tmp/cciR7THS.s:5403   .text:00000000000026cc .L0 
     /tmp/cciR7THS.s:5404   .text:00000000000026cc .L0 
     /tmp/cciR7THS.s:5408   .text:00000000000026d4 .L0 
     /tmp/cciR7THS.s:5409   .text:00000000000026d4 .L0 
     /tmp/cciR7THS.s:5411   .text:00000000000026d8 .L0 
     /tmp/cciR7THS.s:5416   .text:00000000000026e4 .L0 
     /tmp/cciR7THS.s:5417   .text:00000000000026e4 .L0 
     /tmp/cciR7THS.s:5421   .text:00000000000026ec .L0 
     /tmp/cciR7THS.s:5422   .text:00000000000026ec .L0 
     /tmp/cciR7THS.s:5424   .text:00000000000026f0 .L0 
     /tmp/cciR7THS.s:5429   .text:00000000000026fc .L0 
     /tmp/cciR7THS.s:5430   .text:00000000000026fc .L0 
     /tmp/cciR7THS.s:5434   .text:0000000000002704 .L0 
     /tmp/cciR7THS.s:5435   .text:0000000000002704 .L0 
     /tmp/cciR7THS.s:5437   .text:0000000000002708 .L0 
     /tmp/cciR7THS.s:5442   .text:0000000000002714 .L0 
     /tmp/cciR7THS.s:5443   .text:0000000000002714 .L0 
     /tmp/cciR7THS.s:5448   .text:000000000000271c .L0 
     /tmp/cciR7THS.s:5449   .text:000000000000271c .L0 
GAS LISTING /tmp/cciR7THS.s 			page 175


     /tmp/cciR7THS.s:5451   .text:0000000000002720 .L0 
     /tmp/cciR7THS.s:5456   .text:000000000000272c .L0 
     /tmp/cciR7THS.s:5460   .text:0000000000002734 .L0 
     /tmp/cciR7THS.s:5466   .text:0000000000002740 .L0 
     /tmp/cciR7THS.s:5474   .text:0000000000002758 .L0 
     /tmp/cciR7THS.s:5503   .text:0000000000002758 _ZN20KObjectAllocatorTest4testEmm
     /tmp/cciR7THS.s:5506   .text:0000000000002758 .L0 
     /tmp/cciR7THS.s:5508   .text:0000000000002758 .L0 
     /tmp/cciR7THS.s:5509   .text:000000000000275c .L0 
     /tmp/cciR7THS.s:5512   .text:0000000000002764 .L0 
     /tmp/cciR7THS.s:5513   .text:0000000000002764 .L0 
     /tmp/cciR7THS.s:5515   .text:0000000000002768 .L0 
     /tmp/cciR7THS.s:5520   .text:0000000000002770 .L0 
     /tmp/cciR7THS.s:5527   .text:0000000000002788 .L0 
     /tmp/cciR7THS.s:5528   .text:0000000000002788 .L0 
     /tmp/cciR7THS.s:5529   .text:0000000000002788 .L0 
     /tmp/cciR7THS.s:5530   .text:0000000000002788 .L0 
     /tmp/cciR7THS.s:5533   .text:0000000000002790 .L0 
     /tmp/cciR7THS.s:5537   .text:0000000000002794 .L0 
     /tmp/cciR7THS.s:5545   .text:00000000000027a4 .L0 
     /tmp/cciR7THS.s:5546   .text:00000000000027a4 .L0 
     /tmp/cciR7THS.s:5547   .text:00000000000027a4 .L0 
     /tmp/cciR7THS.s:5548   .text:00000000000027a4 .L0 
     /tmp/cciR7THS.s:5551   .text:00000000000027ac .L0 
     /tmp/cciR7THS.s:5555   .text:00000000000027b0 .L0 
     /tmp/cciR7THS.s:5559   .text:00000000000027b4 .L0 
     /tmp/cciR7THS.s:5560   .text:00000000000027b8 .L0 
     /tmp/cciR7THS.s:5561   .text:00000000000027b8 .L0 
     /tmp/cciR7THS.s:5563   .text:00000000000027bc .L0 
     /tmp/cciR7THS.s:5564   .text:00000000000027bc .L0 
     /tmp/cciR7THS.s:5566   .text:00000000000027c0 .L0 
     /tmp/cciR7THS.s:5570   .text:00000000000027c4 .L0 
     /tmp/cciR7THS.s:5572   .text:00000000000027c4 .L0 
     /tmp/cciR7THS.s:5573   .text:00000000000027c4 .L0 
     /tmp/cciR7THS.s:5574   .text:00000000000027c4 .L0 
     /tmp/cciR7THS.s:5577   .text:00000000000027cc .L0 
     /tmp/cciR7THS.s:5581   .text:00000000000027d0 .L0 
     /tmp/cciR7THS.s:5582   .text:00000000000027d0 .L0 
     /tmp/cciR7THS.s:5583   .text:00000000000027d0 .L0 
     /tmp/cciR7THS.s:5584   .text:00000000000027d0 .L0 
     /tmp/cciR7THS.s:5587   .text:00000000000027d8 .L0 
     /tmp/cciR7THS.s:5588   .text:00000000000027dc .L0 
     /tmp/cciR7THS.s:5605   .text:00000000000027dc _ZN20KObjectAllocatorTest8runTestsEv
     /tmp/cciR7THS.s:5608   .text:00000000000027dc .L0 
     /tmp/cciR7THS.s:5610   .text:00000000000027dc .L0 
     /tmp/cciR7THS.s:5611   .text:00000000000027e0 .L0 
     /tmp/cciR7THS.s:5620   .text:0000000000002800 .L0 
     /tmp/cciR7THS.s:5621   .text:0000000000002800 .L0 
     /tmp/cciR7THS.s:5622   .text:0000000000002800 .L0 
     /tmp/cciR7THS.s:5623   .text:0000000000002800 .L0 
     /tmp/cciR7THS.s:5624   .text:0000000000002800 .L0 
     /tmp/cciR7THS.s:5625   .text:0000000000002800 .L0 
     /tmp/cciR7THS.s:5626   .text:0000000000002800 .L0 
     /tmp/cciR7THS.s:5627   .text:0000000000002800 .L0 
     /tmp/cciR7THS.s:5629   .text:0000000000002804 .L0 
     /tmp/cciR7THS.s:5633   .text:0000000000002808 .L0 
     /tmp/cciR7THS.s:5634   .text:0000000000002808 .L0 
GAS LISTING /tmp/cciR7THS.s 			page 176


     /tmp/cciR7THS.s:5640   .text:0000000000002810 .L0 
     /tmp/cciR7THS.s:5643   .text:0000000000002814 .L0 
     /tmp/cciR7THS.s:5647   .text:0000000000002818 .L0 
     /tmp/cciR7THS.s:5648   .text:0000000000002818 .L0 
     /tmp/cciR7THS.s:5653   .text:0000000000002820 .L0 
     /tmp/cciR7THS.s:5654   .text:0000000000002820 .L0 
     /tmp/cciR7THS.s:5658   .text:0000000000002830 .L0 
     /tmp/cciR7THS.s:5659   .text:0000000000002830 .L0 
     /tmp/cciR7THS.s:5663   .text:000000000000283c .L0 
     /tmp/cciR7THS.s:5664   .text:000000000000283c .L0 
     /tmp/cciR7THS.s:5672   .text:000000000000284c .L0 
     /tmp/cciR7THS.s:5673   .text:000000000000284c .L0 
     /tmp/cciR7THS.s:5675   .text:0000000000002854 .L0 
     /tmp/cciR7THS.s:5676   .text:0000000000002854 .L0 
     /tmp/cciR7THS.s:5678   .text:0000000000002858 .L0 
     /tmp/cciR7THS.s:5679   .text:0000000000002858 .L0 
     /tmp/cciR7THS.s:5681   .text:000000000000285c .L0 
     /tmp/cciR7THS.s:5683   .text:0000000000002860 .L0 
     /tmp/cciR7THS.s:5685   .text:0000000000002864 .L0 
     /tmp/cciR7THS.s:5688   .text:0000000000002868 .L0 
     /tmp/cciR7THS.s:5690   .text:000000000000286c .L0 
     /tmp/cciR7THS.s:5693   .text:0000000000002870 .L0 
     /tmp/cciR7THS.s:5696   .text:0000000000002874 .L0 
     /tmp/cciR7THS.s:5700   .text:0000000000002878 .L0 
     /tmp/cciR7THS.s:5705   .text:0000000000002878 .L0 
     /tmp/cciR7THS.s:5706   .text:0000000000002878 .L0 
     /tmp/cciR7THS.s:5711   .text:0000000000002888 .L0 
     /tmp/cciR7THS.s:5715   .text:000000000000288c .L0 
     /tmp/cciR7THS.s:5716   .text:000000000000288c .L0 
     /tmp/cciR7THS.s:5718   .text:0000000000002890 .L0 
     /tmp/cciR7THS.s:5720   .text:0000000000002894 .L0 
     /tmp/cciR7THS.s:5721   .text:0000000000002894 .L0 
     /tmp/cciR7THS.s:5728   .text:00000000000028ac .L0 
     /tmp/cciR7THS.s:5730   .text:00000000000028b0 .L0 
     /tmp/cciR7THS.s:5731   .text:00000000000028b0 .L0 
     /tmp/cciR7THS.s:5735   .text:00000000000028c0 .L0 
     /tmp/cciR7THS.s:5737   .text:00000000000028c4 .L0 
     /tmp/cciR7THS.s:5739   .text:00000000000028c8 .L0 
     /tmp/cciR7THS.s:5742   .text:00000000000028d0 .L0 
     /tmp/cciR7THS.s:5748   .text:00000000000028d8 .L0 
     /tmp/cciR7THS.s:5755   .text:00000000000028e0 .L0 
     /tmp/cciR7THS.s:5757   .text:00000000000028e8 .L0 
     /tmp/cciR7THS.s:5762   .rodata:0000000000000000 .LANCHOR0
     /tmp/cciR7THS.s:99     .text._ZN16KObjectAllocatordlEPv:00000000000000a4 .L0 
     /tmp/cciR7THS.s:5786   .text:00000000000028e8 .L0 
     /tmp/cciR7THS.s:101    .rodata.str1.8:0000000000000000 .LC1
     /tmp/cciR7THS.s:177    .text:0000000000000064 .L0 
     /tmp/cciR7THS.s:197    .rodata.str1.8:0000000000000028 .LC2
     /tmp/cciR7THS.s:276    .text:00000000000000e4 .L0 
     /tmp/cciR7THS.s:373    .text:0000000000000168 .L0 
     /tmp/cciR7THS.s:467    .text:00000000000001f8 .L0 
     /tmp/cciR7THS.s:1527   .text:00000000000009b8 .L0 
     /tmp/cciR7THS.s:4046   .text:0000000000001c78 .L0 
     /tmp/cciR7THS.s:5593   .rodata.str1.8:0000000000000060 .LC3
     /tmp/cciR7THS.s:5654   .text:0000000000002820 .L0 
     /tmp/cciR7THS.s:5596   .rodata.str1.8:0000000000000080 .LC4
     /tmp/cciR7THS.s:5664   .text:000000000000283c .L0 
GAS LISTING /tmp/cciR7THS.s 			page 177


     /tmp/cciR7THS.s:5706   .text:0000000000002878 .L0 
     /tmp/cciR7THS.s:5599   .rodata.str1.8:0000000000000088 .LC5
     /tmp/cciR7THS.s:5731   .text:00000000000028b0 .L0 
     /tmp/cciR7THS.s:123    .text:000000000000000c .L9
     /tmp/cciR7THS.s:165    .text:0000000000000054 .L6
     /tmp/cciR7THS.s:119    .text:0000000000000008 .L7
     /tmp/cciR7THS.s:218    .text:0000000000000094 .L17
     /tmp/cciR7THS.s:264    .text:00000000000000d4 .L14
     /tmp/cciR7THS.s:214    .text:0000000000000090 .L15
     /tmp/cciR7THS.s:312    .text:0000000000000114 .L25
     /tmp/cciR7THS.s:361    .text:0000000000000158 .L22
     /tmp/cciR7THS.s:308    .text:0000000000000110 .L23
     /tmp/cciR7THS.s:409    .text:0000000000000198 .L33
     /tmp/cciR7THS.s:455    .text:00000000000001e8 .L30
     /tmp/cciR7THS.s:405    .text:0000000000000194 .L31
     /tmp/cciR7THS.s:598    .text:00000000000002ec .L93
     /tmp/cciR7THS.s:602    .text:00000000000002f4 .L101
     /tmp/cciR7THS.s:581    .text:00000000000002cc .L38
     /tmp/cciR7THS.s:658    .text:0000000000000350 .L39
     /tmp/cciR7THS.s:637    .text:0000000000000330 .L40
     /tmp/cciR7THS.s:768    .text:0000000000000404 .L41
     /tmp/cciR7THS.s:733    .text:00000000000003d0 .L42
     /tmp/cciR7THS.s:705    .text:000000000000038c .L44
     /tmp/cciR7THS.s:687    .text:0000000000000368 .L102
     /tmp/cciR7THS.s:846    .text:000000000000048c .L46
     /tmp/cciR7THS.s:838    .text:0000000000000484 .L47
     /tmp/cciR7THS.s:810    .text:0000000000000440 .L49
     /tmp/cciR7THS.s:793    .text:000000000000041c .L103
     /tmp/cciR7THS.s:739    .text:00000000000003d4 .L99
     /tmp/cciR7THS.s:921    .text:0000000000000510 .L94
     /tmp/cciR7THS.s:913    .text:0000000000000508 .L51
     /tmp/cciR7THS.s:890    .text:00000000000004cc .L52
     /tmp/cciR7THS.s:867    .text:000000000000049c .L53
     /tmp/cciR7THS.s:948    .text:0000000000000544 .L95
     /tmp/cciR7THS.s:926    .text:0000000000000514 .L50
     /tmp/cciR7THS.s:1170   .text:00000000000006d4 .L54
     /tmp/cciR7THS.s:1019   .text:00000000000005c8 .L57
     /tmp/cciR7THS.s:996    .text:000000000000058c .L58
     /tmp/cciR7THS.s:973    .text:000000000000055c .L59
     /tmp/cciR7THS.s:1083   .text:0000000000000644 .L62
     /tmp/cciR7THS.s:1060   .text:0000000000000608 .L63
     /tmp/cciR7THS.s:1037   .text:00000000000005d8 .L64
     /tmp/cciR7THS.s:1120   .text:000000000000067c .L68
     /tmp/cciR7THS.s:1103   .text:0000000000000658 .L104
     /tmp/cciR7THS.s:1227   .text:0000000000000764 .L96
     /tmp/cciR7THS.s:961    .text:0000000000000554 .L105
     /tmp/cciR7THS.s:1027   .text:00000000000005d0 .L60
     /tmp/cciR7THS.s:1091   .text:000000000000064c .L106
     /tmp/cciR7THS.s:1162   .text:00000000000006cc .L69
     /tmp/cciR7THS.s:1154   .text:00000000000006c4 .L107
     /tmp/cciR7THS.s:1315   .text:00000000000007f8 .L55
     /tmp/cciR7THS.s:1291   .text:00000000000007e0 .L72
     /tmp/cciR7THS.s:1268   .text:00000000000007a4 .L73
     /tmp/cciR7THS.s:1245   .text:0000000000000774 .L74
     /tmp/cciR7THS.s:1332   .text:0000000000000824 .L70
     /tmp/cciR7THS.s:1235   .text:000000000000076c .L108
     /tmp/cciR7THS.s:1308   .text:00000000000007f0 .L75
GAS LISTING /tmp/cciR7THS.s 			page 178


     /tmp/cciR7THS.s:1300   .text:00000000000007e8 .L109
     /tmp/cciR7THS.s:1433   .text:00000000000008fc .L76
     /tmp/cciR7THS.s:1424   .text:00000000000008f4 .L77
     /tmp/cciR7THS.s:1396   .text:00000000000008b0 .L79
     /tmp/cciR7THS.s:1379   .text:000000000000088c .L110
     /tmp/cciR7THS.s:1459   .text:000000000000093c .L80
     /tmp/cciR7THS.s:1524   .text:00000000000009b8 .L81
     /tmp/cciR7THS.s:1515   .text:00000000000009b0 .L82
     /tmp/cciR7THS.s:1487   .text:000000000000096c .L84
     /tmp/cciR7THS.s:1470   .text:0000000000000948 .L111
     /tmp/cciR7THS.s:1575   .text:0000000000000a04 .L89
     /tmp/cciR7THS.s:1553   .text:00000000000009ec .L87
     /tmp/cciR7THS.s:1596   .text:0000000000000a3c .L85
     /tmp/cciR7THS.s:1544   .text:00000000000009dc .L112
     /tmp/cciR7THS.s:1568   .text:00000000000009fc .L88
     /tmp/cciR7THS.s:1560   .text:00000000000009f4 .L113
     /tmp/cciR7THS.s:1665   .text:0000000000000ab8 .L97
     /tmp/cciR7THS.s:1626   .text:0000000000000a6c .L91
     /tmp/cciR7THS.s:1609   .text:0000000000000a48 .L114
     /tmp/cciR7THS.s:1822   .text:0000000000000ba8 .L185
     /tmp/cciR7THS.s:1826   .text:0000000000000bb0 .L197
     /tmp/cciR7THS.s:1805   .text:0000000000000b88 .L116
     /tmp/cciR7THS.s:1882   .text:0000000000000c0c .L117
     /tmp/cciR7THS.s:1861   .text:0000000000000bec .L118
     /tmp/cciR7THS.s:1988   .text:0000000000000cb8 .L119
     /tmp/cciR7THS.s:1957   .text:0000000000000c8c .L120
     /tmp/cciR7THS.s:1934   .text:0000000000000c50 .L121
     /tmp/cciR7THS.s:1910   .text:0000000000000c20 .L122
     /tmp/cciR7THS.s:2065   .text:0000000000000d40 .L124
     /tmp/cciR7THS.s:2057   .text:0000000000000d38 .L125
     /tmp/cciR7THS.s:2034   .text:0000000000000cfc .L126
     /tmp/cciR7THS.s:2011   .text:0000000000000ccc .L127
     /tmp/cciR7THS.s:1963   .text:0000000000000c90 .L190
     /tmp/cciR7THS.s:2140   .text:0000000000000dc4 .L186
     /tmp/cciR7THS.s:2132   .text:0000000000000dbc .L129
     /tmp/cciR7THS.s:2109   .text:0000000000000d80 .L130
     /tmp/cciR7THS.s:2086   .text:0000000000000d50 .L131
     /tmp/cciR7THS.s:2169   .text:0000000000000e00 .L132
     /tmp/cciR7THS.s:2145   .text:0000000000000dc8 .L128
     /tmp/cciR7THS.s:2220   .text:0000000000000e64 .L198
     /tmp/cciR7THS.s:2292   .text:0000000000000f04 .L136
     /tmp/cciR7THS.s:2267   .text:0000000000000ec8 .L139
     /tmp/cciR7THS.s:2195   .text:0000000000000e34 .L135
     /tmp/cciR7THS.s:2186   .text:0000000000000e2c .L133
     /tmp/cciR7THS.s:2299   .text:0000000000000f0c .L137
     /tmp/cciR7THS.s:2361   .text:0000000000000f84 .L143
     /tmp/cciR7THS.s:2242   .text:0000000000000e90 .L138
     /tmp/cciR7THS.s:2325   .text:0000000000000f38 .L142
     /tmp/cciR7THS.s:2353   .text:0000000000000f7c .L140
     /tmp/cciR7THS.s:2305   .text:0000000000000f14 .L199
     /tmp/cciR7THS.s:2428   .text:0000000000001008 .L144
     /tmp/cciR7THS.s:2421   .text:0000000000001000 .L145
     /tmp/cciR7THS.s:2398   .text:0000000000000fc4 .L146
     /tmp/cciR7THS.s:2371   .text:0000000000000f94 .L147
     /tmp/cciR7THS.s:2487   .text:0000000000001084 .L200
     /tmp/cciR7THS.s:2542   .text:00000000000010fc .L151
     /tmp/cciR7THS.s:2518   .text:00000000000010c0 .L152
GAS LISTING /tmp/cciR7THS.s 			page 179


     /tmp/cciR7THS.s:2459   .text:0000000000001054 .L153
     /tmp/cciR7THS.s:2455   .text:0000000000001050 .L148
     /tmp/cciR7THS.s:2549   .text:0000000000001104 .L201
     /tmp/cciR7THS.s:2512   .text:00000000000010b8 .L154
     /tmp/cciR7THS.s:2600   .text:0000000000001184 .L202
     /tmp/cciR7THS.s:2595   .text:000000000000117c .L158
     /tmp/cciR7THS.s:2587   .text:000000000000116c .L155
     /tmp/cciR7THS.s:2628   .text:00000000000011c4 .L203
     /tmp/cciR7THS.s:2623   .text:00000000000011bc .L159
     /tmp/cciR7THS.s:2667   .text:0000000000001224 .L204
     /tmp/cciR7THS.s:2662   .text:000000000000121c .L163
     /tmp/cciR7THS.s:2654   .text:000000000000120c .L160
     /tmp/cciR7THS.s:2695   .text:0000000000001264 .L205
     /tmp/cciR7THS.s:2690   .text:000000000000125c .L164
     /tmp/cciR7THS.s:2731   .text:00000000000012b4 .L206
     /tmp/cciR7THS.s:2741   .text:00000000000012d0 .L166
     /tmp/cciR7THS.s:2726   .text:00000000000012ac .L167
     /tmp/cciR7THS.s:2712   .text:0000000000001290 .L165
     /tmp/cciR7THS.s:2771   .text:0000000000001314 .L207
     /tmp/cciR7THS.s:2766   .text:000000000000130c .L171
     /tmp/cciR7THS.s:2758   .text:00000000000012fc .L168
     /tmp/cciR7THS.s:2877   .text:0000000000001420 .L169
     /tmp/cciR7THS.s:2945   .text:0000000000001498 .L173
     /tmp/cciR7THS.s:2892   .text:0000000000001438 .L174
     /tmp/cciR7THS.s:2906   .text:0000000000001450 .L208
     /tmp/cciR7THS.s:2919   .text:0000000000001468 .L179
     /tmp/cciR7THS.s:2932   .text:0000000000001480 .L209
     /tmp/cciR7THS.s:2790   .text:0000000000001340 .L170
     /tmp/cciR7THS.s:2886   .text:0000000000001430 .L172
     /tmp/cciR7THS.s:2901   .text:0000000000001448 .L177
     /tmp/cciR7THS.s:2914   .text:0000000000001460 .L178
     /tmp/cciR7THS.s:2927   .text:0000000000001478 .L182
     /tmp/cciR7THS.s:2940   .text:0000000000001490 .L183
     /tmp/cciR7THS.s:2958   .text:00000000000014b0 .L188
     /tmp/cciR7THS.s:3115   .text:00000000000015a8 .L266
     /tmp/cciR7THS.s:3119   .text:00000000000015b0 .L274
     /tmp/cciR7THS.s:3098   .text:0000000000001588 .L211
     /tmp/cciR7THS.s:3175   .text:000000000000160c .L212
     /tmp/cciR7THS.s:3154   .text:00000000000015ec .L213
     /tmp/cciR7THS.s:3287   .text:00000000000016c4 .L214
     /tmp/cciR7THS.s:3250   .text:000000000000168c .L215
     /tmp/cciR7THS.s:3222   .text:0000000000001648 .L217
     /tmp/cciR7THS.s:3204   .text:0000000000001624 .L275
     /tmp/cciR7THS.s:3365   .text:000000000000174c .L219
     /tmp/cciR7THS.s:3357   .text:0000000000001744 .L220
     /tmp/cciR7THS.s:3329   .text:0000000000001700 .L222
     /tmp/cciR7THS.s:3312   .text:00000000000016dc .L276
     /tmp/cciR7THS.s:3256   .text:0000000000001690 .L272
     /tmp/cciR7THS.s:3440   .text:00000000000017d0 .L267
     /tmp/cciR7THS.s:3432   .text:00000000000017c8 .L224
     /tmp/cciR7THS.s:3409   .text:000000000000178c .L225
     /tmp/cciR7THS.s:3386   .text:000000000000175c .L226
     /tmp/cciR7THS.s:3467   .text:0000000000001804 .L268
     /tmp/cciR7THS.s:3445   .text:00000000000017d4 .L223
     /tmp/cciR7THS.s:3689   .text:0000000000001994 .L227
     /tmp/cciR7THS.s:3538   .text:0000000000001888 .L230
     /tmp/cciR7THS.s:3515   .text:000000000000184c .L231
GAS LISTING /tmp/cciR7THS.s 			page 180


     /tmp/cciR7THS.s:3492   .text:000000000000181c .L232
     /tmp/cciR7THS.s:3602   .text:0000000000001904 .L235
     /tmp/cciR7THS.s:3579   .text:00000000000018c8 .L236
     /tmp/cciR7THS.s:3556   .text:0000000000001898 .L237
     /tmp/cciR7THS.s:3639   .text:000000000000193c .L241
     /tmp/cciR7THS.s:3622   .text:0000000000001918 .L277
     /tmp/cciR7THS.s:3746   .text:0000000000001a24 .L269
     /tmp/cciR7THS.s:3480   .text:0000000000001814 .L278
     /tmp/cciR7THS.s:3546   .text:0000000000001890 .L233
     /tmp/cciR7THS.s:3610   .text:000000000000190c .L279
     /tmp/cciR7THS.s:3681   .text:000000000000198c .L242
     /tmp/cciR7THS.s:3673   .text:0000000000001984 .L280
     /tmp/cciR7THS.s:3834   .text:0000000000001ab8 .L228
     /tmp/cciR7THS.s:3810   .text:0000000000001aa0 .L245
     /tmp/cciR7THS.s:3787   .text:0000000000001a64 .L246
     /tmp/cciR7THS.s:3764   .text:0000000000001a34 .L247
     /tmp/cciR7THS.s:3851   .text:0000000000001ae4 .L243
     /tmp/cciR7THS.s:3754   .text:0000000000001a2c .L281
     /tmp/cciR7THS.s:3827   .text:0000000000001ab0 .L248
     /tmp/cciR7THS.s:3819   .text:0000000000001aa8 .L282
     /tmp/cciR7THS.s:3952   .text:0000000000001bbc .L249
     /tmp/cciR7THS.s:3943   .text:0000000000001bb4 .L250
     /tmp/cciR7THS.s:3915   .text:0000000000001b70 .L252
     /tmp/cciR7THS.s:3898   .text:0000000000001b4c .L283
     /tmp/cciR7THS.s:3978   .text:0000000000001bfc .L253
     /tmp/cciR7THS.s:4043   .text:0000000000001c78 .L254
     /tmp/cciR7THS.s:4034   .text:0000000000001c70 .L255
     /tmp/cciR7THS.s:4006   .text:0000000000001c2c .L257
     /tmp/cciR7THS.s:3989   .text:0000000000001c08 .L284
     /tmp/cciR7THS.s:4094   .text:0000000000001cc4 .L262
     /tmp/cciR7THS.s:4072   .text:0000000000001cac .L260
     /tmp/cciR7THS.s:4115   .text:0000000000001cfc .L258
     /tmp/cciR7THS.s:4063   .text:0000000000001c9c .L285
     /tmp/cciR7THS.s:4087   .text:0000000000001cbc .L261
     /tmp/cciR7THS.s:4079   .text:0000000000001cb4 .L286
     /tmp/cciR7THS.s:4184   .text:0000000000001d78 .L270
     /tmp/cciR7THS.s:4145   .text:0000000000001d2c .L264
     /tmp/cciR7THS.s:4128   .text:0000000000001d08 .L287
     /tmp/cciR7THS.s:4339   .text:0000000000001e64 .L358
     /tmp/cciR7THS.s:4343   .text:0000000000001e6c .L370
     /tmp/cciR7THS.s:4322   .text:0000000000001e44 .L289
     /tmp/cciR7THS.s:4397   .text:0000000000001ec4 .L290
     /tmp/cciR7THS.s:4376   .text:0000000000001ea4 .L291
     /tmp/cciR7THS.s:4502   .text:0000000000001f70 .L292
     /tmp/cciR7THS.s:4471   .text:0000000000001f44 .L293
     /tmp/cciR7THS.s:4448   .text:0000000000001f08 .L294
     /tmp/cciR7THS.s:4423   .text:0000000000001ed8 .L295
     /tmp/cciR7THS.s:4578   .text:0000000000001ff8 .L297
     /tmp/cciR7THS.s:4571   .text:0000000000001ff0 .L298
     /tmp/cciR7THS.s:4548   .text:0000000000001fb4 .L299
     /tmp/cciR7THS.s:4524   .text:0000000000001f84 .L300
     /tmp/cciR7THS.s:4477   .text:0000000000001f48 .L363
     /tmp/cciR7THS.s:4654   .text:0000000000002080 .L359
     /tmp/cciR7THS.s:4647   .text:0000000000002078 .L302
     /tmp/cciR7THS.s:4624   .text:000000000000203c .L303
     /tmp/cciR7THS.s:4600   .text:000000000000200c .L304
     /tmp/cciR7THS.s:4681   .text:00000000000020b4 .L305
GAS LISTING /tmp/cciR7THS.s 			page 181


     /tmp/cciR7THS.s:4658   .text:0000000000002084 .L301
     /tmp/cciR7THS.s:4729   .text:000000000000210c .L371
     /tmp/cciR7THS.s:4799   .text:00000000000021a4 .L309
     /tmp/cciR7THS.s:4774   .text:0000000000002168 .L312
     /tmp/cciR7THS.s:4704   .text:00000000000020dc .L308
     /tmp/cciR7THS.s:4695   .text:00000000000020d4 .L306
     /tmp/cciR7THS.s:4806   .text:00000000000021ac .L310
     /tmp/cciR7THS.s:4868   .text:0000000000002224 .L316
     /tmp/cciR7THS.s:4751   .text:0000000000002138 .L311
     /tmp/cciR7THS.s:4832   .text:00000000000021d8 .L315
     /tmp/cciR7THS.s:4860   .text:000000000000221c .L313
     /tmp/cciR7THS.s:4812   .text:00000000000021b4 .L372
     /tmp/cciR7THS.s:4935   .text:00000000000022a8 .L317
     /tmp/cciR7THS.s:4928   .text:00000000000022a0 .L318
     /tmp/cciR7THS.s:4905   .text:0000000000002264 .L319
     /tmp/cciR7THS.s:4878   .text:0000000000002234 .L320
     /tmp/cciR7THS.s:4991   .text:0000000000002318 .L373
     /tmp/cciR7THS.s:5046   .text:0000000000002390 .L324
     /tmp/cciR7THS.s:5022   .text:0000000000002354 .L325
     /tmp/cciR7THS.s:4963   .text:00000000000022e8 .L326
     /tmp/cciR7THS.s:4959   .text:00000000000022e4 .L321
     /tmp/cciR7THS.s:5053   .text:0000000000002398 .L374
     /tmp/cciR7THS.s:5016   .text:000000000000234c .L327
     /tmp/cciR7THS.s:5101   .text:000000000000240c .L375
     /tmp/cciR7THS.s:5096   .text:0000000000002404 .L331
     /tmp/cciR7THS.s:5088   .text:00000000000023f4 .L328
     /tmp/cciR7THS.s:5129   .text:000000000000244c .L376
     /tmp/cciR7THS.s:5124   .text:0000000000002444 .L332
     /tmp/cciR7THS.s:5165   .text:00000000000024a0 .L377
     /tmp/cciR7THS.s:5160   .text:0000000000002498 .L336
     /tmp/cciR7THS.s:5152   .text:0000000000002488 .L333
     /tmp/cciR7THS.s:5193   .text:00000000000024e0 .L378
     /tmp/cciR7THS.s:5188   .text:00000000000024d8 .L337
     /tmp/cciR7THS.s:5229   .text:0000000000002530 .L379
     /tmp/cciR7THS.s:5239   .text:000000000000254c .L339
     /tmp/cciR7THS.s:5224   .text:0000000000002528 .L340
     /tmp/cciR7THS.s:5210   .text:000000000000250c .L338
     /tmp/cciR7THS.s:5269   .text:0000000000002590 .L380
     /tmp/cciR7THS.s:5264   .text:0000000000002588 .L344
     /tmp/cciR7THS.s:5256   .text:0000000000002578 .L341
     /tmp/cciR7THS.s:5377   .text:00000000000026a4 .L342
     /tmp/cciR7THS.s:5445   .text:000000000000271c .L346
     /tmp/cciR7THS.s:5392   .text:00000000000026bc .L347
     /tmp/cciR7THS.s:5406   .text:00000000000026d4 .L381
     /tmp/cciR7THS.s:5419   .text:00000000000026ec .L352
     /tmp/cciR7THS.s:5432   .text:0000000000002704 .L382
     /tmp/cciR7THS.s:5288   .text:00000000000025bc .L343
     /tmp/cciR7THS.s:5386   .text:00000000000026b4 .L345
     /tmp/cciR7THS.s:5401   .text:00000000000026cc .L350
     /tmp/cciR7THS.s:5414   .text:00000000000026e4 .L351
     /tmp/cciR7THS.s:5427   .text:00000000000026fc .L355
     /tmp/cciR7THS.s:5440   .text:0000000000002714 .L356
     /tmp/cciR7THS.s:5458   .text:0000000000002734 .L361
     /tmp/cciR7THS.s:5579   .text:00000000000027d0 .L384
     /tmp/cciR7THS.s:5541   .text:000000000000279c .L385
     /tmp/cciR7THS.s:5569   .text:00000000000027c4 .L386
     /tmp/cciR7THS.s:5535   .text:0000000000002794 .L391
GAS LISTING /tmp/cciR7THS.s 			page 182


     /tmp/cciR7THS.s:5557   .text:00000000000027b4 .L388
     /tmp/cciR7THS.s:5553   .text:00000000000027b0 .L392
     /tmp/cciR7THS.s:5752   .text:00000000000028e0 .L400
     /tmp/cciR7THS.s:5713   .text:000000000000288c .L398
     /tmp/cciR7THS.s:5744   .text:00000000000028d8 .L395
     /tmp/cciR7THS.s:5651   .text:0000000000002820 .L402
     /tmp/cciR7THS.s:5709   .text:0000000000002888 .L397
     /tmp/cciR7THS.s:5699   .text:0000000000002878 .L403
     /tmp/cciR7THS.s:5638   .text:0000000000002810 .L399
     /tmp/cciR7THS.s:5668   .text:000000000000284c .L394
     /tmp/cciR7THS.s:58     .text._ZN16KObjectAllocatordlEPv:0000000000000050 .L2
     /tmp/cciR7THS.s:35     .text._ZN16KObjectAllocatordlEPv:0000000000000020 .L3
     /tmp/cciR7THS.s:525    .text:0000000000000250 .LEHB0
     /tmp/cciR7THS.s:490    .text:000000000000021c .LFB27
     /tmp/cciR7THS.s:532    .text:0000000000000264 .LEHE0
     /tmp/cciR7THS.s:549    .text:0000000000000284 .LEHB1
     /tmp/cciR7THS.s:615    .text:0000000000000310 .LEHE1
     /tmp/cciR7THS.s:1673   .text:0000000000000ac0 .L98
     /tmp/cciR7THS.s:689    .text:0000000000000368 .LEHB2
     /tmp/cciR7THS.s:1654   .text:0000000000000ab0 .LEHE2
     /tmp/cciR7THS.s:1681   .text:0000000000000ad4 .LEHB3
     /tmp/cciR7THS.s:1684   .text:0000000000000adc .LEHE3
     /tmp/cciR7THS.s:1748   .text:0000000000000b0c .LEHB4
     /tmp/cciR7THS.s:1716   .text:0000000000000adc .LFB28
     /tmp/cciR7THS.s:1755   .text:0000000000000b20 .LEHE4
     /tmp/cciR7THS.s:1773   .text:0000000000000b40 .LEHB5
     /tmp/cciR7THS.s:1839   .text:0000000000000bcc .LEHE5
     /tmp/cciR7THS.s:2963   .text:00000000000014b8 .L189
     /tmp/cciR7THS.s:1917   .text:0000000000000c28 .LEHB6
     /tmp/cciR7THS.s:2954   .text:00000000000014a8 .LEHE6
     /tmp/cciR7THS.s:2971   .text:00000000000014cc .LEHB7
     /tmp/cciR7THS.s:2974   .text:00000000000014d4 .LEHE7
     /tmp/cciR7THS.s:3042   .text:000000000000150c .LEHB8
     /tmp/cciR7THS.s:3005   .text:00000000000014d4 .LFB29
     /tmp/cciR7THS.s:3049   .text:0000000000001520 .LEHE8
     /tmp/cciR7THS.s:3066   .text:0000000000001540 .LEHB9
     /tmp/cciR7THS.s:3132   .text:00000000000015cc .LEHE9
     /tmp/cciR7THS.s:4192   .text:0000000000001d80 .L271
     /tmp/cciR7THS.s:3206   .text:0000000000001624 .LEHB10
     /tmp/cciR7THS.s:4173   .text:0000000000001d70 .LEHE10
     /tmp/cciR7THS.s:4200   .text:0000000000001d94 .LEHB11
     /tmp/cciR7THS.s:4203   .text:0000000000001d9c .LEHE11
     /tmp/cciR7THS.s:4266   .text:0000000000001dc8 .LEHB12
     /tmp/cciR7THS.s:4234   .text:0000000000001d9c .LFB30
     /tmp/cciR7THS.s:4273   .text:0000000000001ddc .LEHE12
     /tmp/cciR7THS.s:4290   .text:0000000000001dfc .LEHB13
     /tmp/cciR7THS.s:4354   .text:0000000000001e84 .LEHE13
     /tmp/cciR7THS.s:5463   .text:000000000000273c .L362
     /tmp/cciR7THS.s:4431   .text:0000000000001ee0 .LEHB14
     /tmp/cciR7THS.s:5454   .text:000000000000272c .LEHE14
     /tmp/cciR7THS.s:5470   .text:0000000000002750 .LEHB15
     /tmp/cciR7THS.s:5473   .text:0000000000002758 .LEHE15
     /tmp/cciR7THS.s:12080  .debug_abbrev:0000000000000000 .Ldebug_abbrev0
     /tmp/cciR7THS.s:15648  .debug_str:0000000000000a24 .LASF132
     /tmp/cciR7THS.s:15598  .debug_str:00000000000007ba .LASF133
     /tmp/cciR7THS.s:15602  .debug_str:00000000000007e9 .LASF134
     /tmp/cciR7THS.s:15310  .debug_ranges:0000000000000000 .Ldebug_ranges0
GAS LISTING /tmp/cciR7THS.s 			page 183


     /tmp/cciR7THS.s:15414  .debug_line:0000000000000000 .Ldebug_line0
     /tmp/cciR7THS.s:15628  .debug_str:0000000000000984 .LASF0
     /tmp/cciR7THS.s:15562  .debug_str:0000000000000631 .LASF1
     /tmp/cciR7THS.s:15580  .debug_str:00000000000006e8 .LASF2
     /tmp/cciR7THS.s:15546  .debug_str:0000000000000572 .LASF3
     /tmp/cciR7THS.s:15478  .debug_str:000000000000028b .LASF4
     /tmp/cciR7THS.s:15516  .debug_str:000000000000046a .LASF5
     /tmp/cciR7THS.s:15438  .debug_str:00000000000000e7 .LASF6
     /tmp/cciR7THS.s:15584  .debug_str:0000000000000701 .LASF7
     /tmp/cciR7THS.s:15560  .debug_str:000000000000061e .LASF8
     /tmp/cciR7THS.s:15666  .debug_str:0000000000000b86 .LASF9
     /tmp/cciR7THS.s:15498  .debug_str:0000000000000315 .LASF10
     /tmp/cciR7THS.s:15596  .debug_str:00000000000007ab .LASF11
     /tmp/cciR7THS.s:15654  .debug_str:0000000000000b3b .LASF12
     /tmp/cciR7THS.s:15440  .debug_str:00000000000000ee .LASF13
     /tmp/cciR7THS.s:15422  .debug_str:0000000000000055 .LASF14
     /tmp/cciR7THS.s:15458  .debug_str:00000000000001ab .LASF15
     /tmp/cciR7THS.s:15618  .debug_str:000000000000090f .LASF16
     /tmp/cciR7THS.s:15474  .debug_str:000000000000026d .LASF17
     /tmp/cciR7THS.s:15542  .debug_str:0000000000000540 .LASF50
     /tmp/cciR7THS.s:15600  .debug_str:00000000000007d7 .LASF135
     /tmp/cciR7THS.s:15536  .debug_str:0000000000000512 .LASF18
     /tmp/cciR7THS.s:15690  .debug_str:0000000000000cbf .LASF19
     /tmp/cciR7THS.s:15570  .debug_str:0000000000000689 .LASF136
     /tmp/cciR7THS.s:15652  .debug_str:0000000000000b1b .LASF137
     /tmp/cciR7THS.s:15664  .debug_str:0000000000000b6f .LASF36
     /tmp/cciR7THS.s:15460  .debug_str:00000000000001b7 .LASF38
     /tmp/cciR7THS.s:15636  .debug_str:00000000000009ca .LASF24
     /tmp/cciR7THS.s:15588  .debug_str:0000000000000724 .LASF26
     /tmp/cciR7THS.s:15658  .debug_str:0000000000000b50 .LASF20
     /tmp/cciR7THS.s:15614  .debug_str:00000000000008c0 .LASF22
     /tmp/cciR7THS.s:15672  .debug_str:0000000000000bc5 .LASF21
     /tmp/cciR7THS.s:15430  .debug_str:000000000000008e .LASF23
     /tmp/cciR7THS.s:15620  .debug_str:0000000000000925 .LASF25
     /tmp/cciR7THS.s:15610  .debug_str:0000000000000849 .LASF27
     /tmp/cciR7THS.s:15448  .debug_str:0000000000000161 .LASF28
     /tmp/cciR7THS.s:15464  .debug_str:000000000000020c .LASF29
     /tmp/cciR7THS.s:15528  .debug_str:00000000000004d4 .LASF30
     /tmp/cciR7THS.s:15668  .debug_str:0000000000000b96 .LASF31
     /tmp/cciR7THS.s:15540  .debug_str:0000000000000532 .LASF32
     /tmp/cciR7THS.s:15462  .debug_str:00000000000001e6 .LASF33
     /tmp/cciR7THS.s:15674  .debug_str:0000000000000bcf .LASF34
     /tmp/cciR7THS.s:15510  .debug_str:00000000000003dd .LASF35
     /tmp/cciR7THS.s:15490  .debug_str:00000000000002d0 .LASF37
     /tmp/cciR7THS.s:15518  .debug_str:0000000000000471 .LASF39
     /tmp/cciR7THS.s:15434  .debug_str:00000000000000c0 .LASF40
     /tmp/cciR7THS.s:15678  .debug_str:0000000000000c1f .LASF41
     /tmp/cciR7THS.s:15634  .debug_str:00000000000009b4 .LASF42
     /tmp/cciR7THS.s:15642  .debug_str:00000000000009fe .LASF43
     /tmp/cciR7THS.s:15604  .debug_str:000000000000081c .LASF44
     /tmp/cciR7THS.s:15594  .debug_str:000000000000078b .LASF45
     /tmp/cciR7THS.s:15670  .debug_str:0000000000000bbb .LASF46
     /tmp/cciR7THS.s:15524  .debug_str:00000000000004c2 .LASF47
     /tmp/cciR7THS.s:15688  .debug_str:0000000000000cb3 .LASF48
     /tmp/cciR7THS.s:15420  .debug_str:0000000000000046 .LASF49
     /tmp/cciR7THS.s:15500  .debug_str:0000000000000323 .LASF51
     /tmp/cciR7THS.s:15446  .debug_str:0000000000000147 .LASF52
GAS LISTING /tmp/cciR7THS.s 			page 184


     /tmp/cciR7THS.s:15444  .debug_str:000000000000012c .LASF53
     /tmp/cciR7THS.s:15450  .debug_str:0000000000000179 .LASF54
     /tmp/cciR7THS.s:15552  .debug_str:00000000000005b0 .LASF55
     /tmp/cciR7THS.s:15638  .debug_str:00000000000009dc .LASF88
     /tmp/cciR7THS.s:15416  .debug_str:0000000000000000 .LASF89
     /tmp/cciR7THS.s:15508  .debug_str:00000000000003c9 .LASF56
     /tmp/cciR7THS.s:15682  .debug_str:0000000000000c43 .LASF57
     /tmp/cciR7THS.s:15466  .debug_str:000000000000023c .LASF58
     /tmp/cciR7THS.s:15556  .debug_str:00000000000005d5 .LASF59
     /tmp/cciR7THS.s:15608  .debug_str:000000000000082f .LASF60
     /tmp/cciR7THS.s:15650  .debug_str:0000000000000ae8 .LASF61
     /tmp/cciR7THS.s:15624  .debug_str:000000000000095f .LASF62
     /tmp/cciR7THS.s:15592  .debug_str:000000000000075f .LASF63
     /tmp/cciR7THS.s:15632  .debug_str:000000000000099f .LASF64
     /tmp/cciR7THS.s:15442  .debug_str:00000000000000fe .LASF65
     /tmp/cciR7THS.s:15566  .debug_str:0000000000000650 .LASF66
     /tmp/cciR7THS.s:15684  .debug_str:0000000000000c70 .LASF67
     /tmp/cciR7THS.s:15626  .debug_str:0000000000000972 .LASF68
     /tmp/cciR7THS.s:15418  .debug_str:000000000000001b .LASF69
     /tmp/cciR7THS.s:15646  .debug_str:0000000000000a19 .LASF70
     /tmp/cciR7THS.s:15484  .debug_str:00000000000002a0 .LASF71
     /tmp/cciR7THS.s:15530  .debug_str:00000000000004e1 .LASF72
     /tmp/cciR7THS.s:15504  .debug_str:0000000000000371 .LASF73
     /tmp/cciR7THS.s:15578  .debug_str:00000000000006d5 .LASF74
     /tmp/cciR7THS.s:15616  .debug_str:00000000000008e3 .LASF75
     /tmp/cciR7THS.s:15538  .debug_str:000000000000051b .LASF76
     /tmp/cciR7THS.s:15586  .debug_str:0000000000000714 .LASF77
     /tmp/cciR7THS.s:15564  .debug_str:000000000000063e .LASF78
     /tmp/cciR7THS.s:15522  .debug_str:00000000000004b7 .LASF79
     /tmp/cciR7THS.s:15662  .debug_str:0000000000000b61 .LASF80
     /tmp/cciR7THS.s:15554  .debug_str:00000000000005ca .LASF81
     /tmp/cciR7THS.s:15692  .debug_str:0000000000000cc4 .LASF82
     /tmp/cciR7THS.s:15590  .debug_str:000000000000074e .LASF83
     /tmp/cciR7THS.s:15488  .debug_str:00000000000002cb .LASF84
     /tmp/cciR7THS.s:15572  .debug_str:0000000000000692 .LASF85
     /tmp/cciR7THS.s:15576  .debug_str:00000000000006b7 .LASF86
     /tmp/cciR7THS.s:15548  .debug_str:0000000000000580 .LASF87
     /tmp/cciR7THS.s:15520  .debug_str:0000000000000498 .LASF90
     /tmp/cciR7THS.s:15482  .debug_str:0000000000000297 .LASF91
     /tmp/cciR7THS.s:15512  .debug_str:0000000000000404 .LASF92
     /tmp/cciR7THS.s:15574  .debug_str:00000000000006a7 .LASF93
     /tmp/cciR7THS.s:15676  .debug_str:0000000000000bde .LASF94
     /tmp/cciR7THS.s:15432  .debug_str:00000000000000b0 .LASF95
     /tmp/cciR7THS.s:15514  .debug_str:0000000000000429 .LASF96
     /tmp/cciR7THS.s:15534  .debug_str:0000000000000503 .LASF97
     /tmp/cciR7THS.s:15612  .debug_str:0000000000000880 .LASF98
     /tmp/cciR7THS.s:15694  .debug_str:0000000000000cd8 .LASF99
     /tmp/cciR7THS.s:15502  .debug_str:0000000000000334 .LASF100
     /tmp/cciR7THS.s:15480  .debug_str:0000000000000291 .LASF101
     /tmp/cciR7THS.s:15558  .debug_str:00000000000005fc .LASF102
     /tmp/cciR7THS.s:15656  .debug_str:0000000000000b4a .LASF103
     /tmp/cciR7THS.s:15568  .debug_str:0000000000000667 .LASF104
     /tmp/cciR7THS.s:15660  .debug_str:0000000000000b5b .LASF105
     /tmp/cciR7THS.s:15544  .debug_str:0000000000000550 .LASF106
     /tmp/cciR7THS.s:15486  .debug_str:00000000000002c5 .LASF107
     /tmp/cciR7THS.s:15506  .debug_str:00000000000003a7 .LASF108
     /tmp/cciR7THS.s:15456  .debug_str:00000000000001a6 .LASF109
GAS LISTING /tmp/cciR7THS.s 			page 185


     /tmp/cciR7THS.s:15492  .debug_str:00000000000002df .LASF110
     /tmp/cciR7THS.s:15424  .debug_str:0000000000000065 .LASF111
     /tmp/cciR7THS.s:15468  .debug_str:000000000000024a .LASF112
     /tmp/cciR7THS.s:5475   .text:0000000000002758 .LFE30
     /tmp/cciR7THS.s:15472  .debug_str:0000000000000268 .LASF115
     /tmp/cciR7THS.s:13056  .debug_loc:0000000000000000 .LLST106
     /tmp/cciR7THS.s:15644  .debug_str:0000000000000a14 .LASF116
     /tmp/cciR7THS.s:13078  .debug_loc:000000000000005f .LLST107
     /tmp/cciR7THS.s:15630  .debug_str:0000000000000996 .LASF113
     /tmp/cciR7THS.s:13090  .debug_loc:0000000000000096 .LLST108
     /tmp/cciR7THS.s:15496  .debug_str:000000000000030e .LASF114
     /tmp/cciR7THS.s:4655   .text:0000000000002080 .LBB401
     /tmp/cciR7THS.s:4682   .text:00000000000020b4 .LBE401
     /tmp/cciR7THS.s:13101  .debug_loc:00000000000000cc .LLST120
     /tmp/cciR7THS.s:4670   .text:000000000000209c .LVL643
     /tmp/cciR7THS.s:4748   .text:0000000000002134 .LBB406
     /tmp/cciR7THS.s:4775   .text:0000000000002168 .LBE406
     /tmp/cciR7THS.s:13116  .debug_loc:0000000000000115 .LLST122
     /tmp/cciR7THS.s:4763   .text:0000000000002150 .LVL655
     /tmp/cciR7THS.s:13131  .debug_loc:000000000000015e .LLST126
     /tmp/cciR7THS.s:5298   .text:00000000000025d4 .LVL725
     /tmp/cciR7THS.s:5303   .text:00000000000025e0 .LVL726
     /tmp/cciR7THS.s:5313   .text:00000000000025fc .LVL727
     /tmp/cciR7THS.s:5322   .text:0000000000002618 .LVL728
     /tmp/cciR7THS.s:5339   .text:0000000000002644 .LVL729
     /tmp/cciR7THS.s:5344   .text:0000000000002650 .LVL730
     /tmp/cciR7THS.s:5356   .text:0000000000002674 .LVL731
     /tmp/cciR7THS.s:5364   .text:000000000000268c .LVL732
     /tmp/cciR7THS.s:5400   .text:00000000000026cc .LVL736
     /tmp/cciR7THS.s:5413   .text:00000000000026e4 .LVL737
     /tmp/cciR7THS.s:5426   .text:00000000000026fc .LVL738
     /tmp/cciR7THS.s:5439   .text:0000000000002714 .LVL739
     /tmp/cciR7THS.s:4263   .text:0000000000001dc8 .LBB380
     /tmp/cciR7THS.s:4277   .text:0000000000001de0 .LBE380
     /tmp/cciR7THS.s:13142  .debug_loc:0000000000000194 .LLST109
     /tmp/cciR7THS.s:4269   .text:0000000000001dd0 .LVL590
     /tmp/cciR7THS.s:4272   .text:0000000000001ddc .LVL591
     /tmp/cciR7THS.s:4278   .text:0000000000001de0 .LBB382
     /tmp/cciR7THS.s:4402   .text:0000000000001ec4 .LBE382
     /tmp/cciR7THS.s:13151  .debug_loc:00000000000001b9 .LLST110
     /tmp/cciR7THS.s:13164  .debug_loc:00000000000001f1 .LLST111
     /tmp/cciR7THS.s:13177  .debug_loc:0000000000000229 .LLST112
     /tmp/cciR7THS.s:4372   .text:0000000000001ea0 .LBB385
     /tmp/cciR7THS.s:4399   .text:0000000000001ec4 .LBE385
     /tmp/cciR7THS.s:13188  .debug_loc:000000000000025f .LLST113
     /tmp/cciR7THS.s:4293   .text:0000000000001e04 .LVL593
     /tmp/cciR7THS.s:4299   .text:0000000000001e14 .LVL594
     /tmp/cciR7THS.s:4305   .text:0000000000001e20 .LVL595
     /tmp/cciR7THS.s:4311   .text:0000000000001e30 .LVL596
     /tmp/cciR7THS.s:4337   .text:0000000000001e60 .LVL597
     /tmp/cciR7THS.s:4353   .text:0000000000001e84 .LVL598
     /tmp/cciR7THS.s:4404   .text:0000000000001ec4 .LBB386
     /tmp/cciR7THS.s:4411   .text:0000000000001ec8 .LBE386
     /tmp/cciR7THS.s:13210  .debug_loc:00000000000002be .LLST114
     /tmp/cciR7THS.s:4418   .text:0000000000001ed4 .LBB388
     /tmp/cciR7THS.s:4473   .text:0000000000001f44 .LBE388
     /tmp/cciR7THS.s:4420   .text:0000000000001ed4 .LBB390
GAS LISTING /tmp/cciR7THS.s 			page 186


     /tmp/cciR7THS.s:4449   .text:0000000000001f08 .LBE390
     /tmp/cciR7THS.s:13217  .debug_loc:00000000000002e1 .LLST115
     /tmp/cciR7THS.s:4434   .text:0000000000001ee8 .LVL606
     /tmp/cciR7THS.s:4443   .text:0000000000001f00 .LVL607
     /tmp/cciR7THS.s:4453   .text:0000000000001f10 .LVL609
     /tmp/cciR7THS.s:4456   .text:0000000000001f1c .LVL610
     /tmp/cciR7THS.s:4460   .text:0000000000001f24 .LVL611
     /tmp/cciR7THS.s:4463   .text:0000000000001f30 .LVL612
     /tmp/cciR7THS.s:4467   .text:0000000000001f38 .LVL613
     /tmp/cciR7THS.s:4470   .text:0000000000001f44 .LVL614
     /tmp/cciR7THS.s:4505   .text:0000000000001f70 .LBB391
     /tmp/cciR7THS.s:4512   .text:0000000000001f74 .LBE391
     /tmp/cciR7THS.s:13224  .debug_loc:0000000000000304 .LLST116
     /tmp/cciR7THS.s:4519   .text:0000000000001f80 .LBB393
     /tmp/cciR7THS.s:4573   .text:0000000000001ff0 .LBE393
     /tmp/cciR7THS.s:4521   .text:0000000000001f80 .LBB395
     /tmp/cciR7THS.s:4549   .text:0000000000001fb4 .LBE395
     /tmp/cciR7THS.s:13231  .debug_loc:0000000000000327 .LLST117
     /tmp/cciR7THS.s:4534   .text:0000000000001f94 .LVL620
     /tmp/cciR7THS.s:4543   .text:0000000000001fac .LVL621
     /tmp/cciR7THS.s:4553   .text:0000000000001fbc .LVL623
     /tmp/cciR7THS.s:4556   .text:0000000000001fc8 .LVL624
     /tmp/cciR7THS.s:4560   .text:0000000000001fd0 .LVL625
     /tmp/cciR7THS.s:4563   .text:0000000000001fdc .LVL626
     /tmp/cciR7THS.s:4567   .text:0000000000001fe4 .LVL627
     /tmp/cciR7THS.s:4570   .text:0000000000001ff0 .LVL628
     /tmp/cciR7THS.s:4581   .text:0000000000001ff8 .LBB396
     /tmp/cciR7THS.s:4588   .text:0000000000001ffc .LBE396
     /tmp/cciR7THS.s:13238  .debug_loc:000000000000034a .LLST118
     /tmp/cciR7THS.s:4595   .text:0000000000002008 .LBB398
     /tmp/cciR7THS.s:4649   .text:0000000000002078 .LBE398
     /tmp/cciR7THS.s:4597   .text:0000000000002008 .LBB400
     /tmp/cciR7THS.s:4625   .text:000000000000203c .LBE400
     /tmp/cciR7THS.s:13245  .debug_loc:000000000000036d .LLST119
     /tmp/cciR7THS.s:4610   .text:000000000000201c .LVL632
     /tmp/cciR7THS.s:4619   .text:0000000000002034 .LVL633
     /tmp/cciR7THS.s:4629   .text:0000000000002044 .LVL635
     /tmp/cciR7THS.s:4632   .text:0000000000002050 .LVL636
     /tmp/cciR7THS.s:4636   .text:0000000000002058 .LVL637
     /tmp/cciR7THS.s:4639   .text:0000000000002064 .LVL638
     /tmp/cciR7THS.s:4643   .text:000000000000206c .LVL639
     /tmp/cciR7THS.s:4646   .text:0000000000002078 .LVL640
     /tmp/cciR7THS.s:4699   .text:00000000000020d8 .LBB402
     /tmp/cciR7THS.s:4701   .text:00000000000020d8 .LBB404
     /tmp/cciR7THS.s:4730   .text:000000000000210c .LBE404
     /tmp/cciR7THS.s:13252  .debug_loc:0000000000000390 .LLST121
     /tmp/cciR7THS.s:4714   .text:00000000000020ec .LVL648
     /tmp/cciR7THS.s:4723   .text:0000000000002104 .LVL649
     /tmp/cciR7THS.s:4781   .text:0000000000002170 .LVL657
     /tmp/cciR7THS.s:4784   .text:000000000000217c .LVL658
     /tmp/cciR7THS.s:4788   .text:0000000000002184 .LVL659
     /tmp/cciR7THS.s:4791   .text:0000000000002190 .LVL660
     /tmp/cciR7THS.s:4795   .text:0000000000002198 .LVL661
     /tmp/cciR7THS.s:4798   .text:00000000000021a4 .LVL662
     /tmp/cciR7THS.s:4813   .text:00000000000021b4 .LBB408
     /tmp/cciR7THS.s:4862   .text:000000000000221c .LBE408
     /tmp/cciR7THS.s:4815   .text:00000000000021b4 .LBB410
GAS LISTING /tmp/cciR7THS.s 			page 187


     /tmp/cciR7THS.s:4838   .text:00000000000021e0 .LBE410
     /tmp/cciR7THS.s:13263  .debug_loc:00000000000003c6 .LLST123
     /tmp/cciR7THS.s:4819   .text:00000000000021bc .LVL664
     /tmp/cciR7THS.s:4828   .text:00000000000021d4 .LVL665
     /tmp/cciR7THS.s:4842   .text:00000000000021e8 .LVL667
     /tmp/cciR7THS.s:4845   .text:00000000000021f4 .LVL668
     /tmp/cciR7THS.s:4849   .text:00000000000021fc .LVL669
     /tmp/cciR7THS.s:4852   .text:0000000000002208 .LVL670
     /tmp/cciR7THS.s:4856   .text:0000000000002210 .LVL671
     /tmp/cciR7THS.s:4859   .text:000000000000221c .LVL672
     /tmp/cciR7THS.s:4880   .text:0000000000002234 .LBB411
     /tmp/cciR7THS.s:4930   .text:00000000000022a0 .LBE411
     /tmp/cciR7THS.s:4882   .text:0000000000002234 .LBB413
     /tmp/cciR7THS.s:4906   .text:0000000000002264 .LBE413
     /tmp/cciR7THS.s:13270  .debug_loc:00000000000003e9 .LLST124
     /tmp/cciR7THS.s:4891   .text:0000000000002244 .LVL675
     /tmp/cciR7THS.s:4900   .text:000000000000225c .LVL676
     /tmp/cciR7THS.s:4910   .text:000000000000226c .LVL678
     /tmp/cciR7THS.s:4913   .text:0000000000002278 .LVL679
     /tmp/cciR7THS.s:4917   .text:0000000000002280 .LVL680
     /tmp/cciR7THS.s:4920   .text:000000000000228c .LVL681
     /tmp/cciR7THS.s:4924   .text:0000000000002294 .LVL682
     /tmp/cciR7THS.s:4927   .text:00000000000022a0 .LVL683
     /tmp/cciR7THS.s:4965   .text:00000000000022e8 .LBB414
     /tmp/cciR7THS.s:4967   .text:00000000000022e8 .LBB416
     /tmp/cciR7THS.s:4992   .text:0000000000002318 .LBE416
     /tmp/cciR7THS.s:13277  .debug_loc:000000000000040c .LLST125
     /tmp/cciR7THS.s:4976   .text:00000000000022f8 .LVL689
     /tmp/cciR7THS.s:4985   .text:0000000000002310 .LVL690
     /tmp/cciR7THS.s:5028   .text:000000000000235c .LVL696
     /tmp/cciR7THS.s:5031   .text:0000000000002368 .LVL697
     /tmp/cciR7THS.s:5035   .text:0000000000002370 .LVL698
     /tmp/cciR7THS.s:5038   .text:000000000000237c .LVL699
     /tmp/cciR7THS.s:5042   .text:0000000000002384 .LVL700
     /tmp/cciR7THS.s:5045   .text:0000000000002390 .LVL701
     /tmp/cciR7THS.s:4691   .text:00000000000020cc .LVL646
     /tmp/cciR7THS.s:4738   .text:0000000000002120 .LVL652
     /tmp/cciR7THS.s:4941   .text:00000000000022b8 .LVL684
     /tmp/cciR7THS.s:4946   .text:00000000000022c4 .LVL685
     /tmp/cciR7THS.s:4955   .text:00000000000022dc .LVL687
     /tmp/cciR7THS.s:5000   .text:000000000000232c .LVL693
     /tmp/cciR7THS.s:5015   .text:000000000000234c .LVL694
     /tmp/cciR7THS.s:5059   .text:00000000000023a8 .LVL702
     /tmp/cciR7THS.s:5065   .text:00000000000023b8 .LVL703
     /tmp/cciR7THS.s:5071   .text:00000000000023c8 .LVL704
     /tmp/cciR7THS.s:5076   .text:00000000000023d4 .LVL705
     /tmp/cciR7THS.s:5084   .text:00000000000023ec .LVL706
     /tmp/cciR7THS.s:5095   .text:0000000000002404 .LVL707
     /tmp/cciR7THS.s:5107   .text:0000000000002420 .LVL708
     /tmp/cciR7THS.s:5123   .text:0000000000002444 .LVL709
     /tmp/cciR7THS.s:5135   .text:000000000000245c .LVL710
     /tmp/cciR7THS.s:5140   .text:0000000000002468 .LVL711
     /tmp/cciR7THS.s:5148   .text:0000000000002480 .LVL712
     /tmp/cciR7THS.s:5159   .text:0000000000002498 .LVL713
     /tmp/cciR7THS.s:5171   .text:00000000000024b4 .LVL714
     /tmp/cciR7THS.s:5187   .text:00000000000024d8 .LVL715
     /tmp/cciR7THS.s:5198   .text:00000000000024ec .LVL716
GAS LISTING /tmp/cciR7THS.s 			page 188


     /tmp/cciR7THS.s:5206   .text:0000000000002504 .LVL717
     /tmp/cciR7THS.s:5223   .text:0000000000002528 .LVL718
     /tmp/cciR7THS.s:5235   .text:0000000000002544 .LVL719
     /tmp/cciR7THS.s:5244   .text:0000000000002558 .LVL720
     /tmp/cciR7THS.s:5252   .text:0000000000002570 .LVL721
     /tmp/cciR7THS.s:5263   .text:0000000000002588 .LVL722
     /tmp/cciR7THS.s:5275   .text:00000000000025a4 .LVL723
     /tmp/cciR7THS.s:5385   .text:00000000000026b4 .LVL734
     /tmp/cciR7THS.s:5453   .text:000000000000272c .LVL740
     /tmp/cciR7THS.s:5468   .text:000000000000274c .LVL742
     /tmp/cciR7THS.s:5472   .text:0000000000002758 .LVL743
     /tmp/cciR7THS.s:4205   .text:0000000000001d9c .LFE29
     /tmp/cciR7THS.s:13288  .debug_loc:0000000000000442 .LLST77
     /tmp/cciR7THS.s:13310  .debug_loc:00000000000004a1 .LLST78
     /tmp/cciR7THS.s:13372  .debug_loc:0000000000000591 .LLST79
     /tmp/cciR7THS.s:15532  .debug_str:00000000000004fe .LASF117
     /tmp/cciR7THS.s:13383  .debug_loc:00000000000005c7 .LLST80
     /tmp/cciR7THS.s:13411  .debug_loc:000000000000064a .LLST81
     /tmp/cciR7THS.s:15640  .debug_str:00000000000009ec .LASF118
     /tmp/cciR7THS.s:3441   .text:00000000000017d0 .LBB312
     /tmp/cciR7THS.s:3468   .text:0000000000001804 .LBE312
     /tmp/cciR7THS.s:13482  .debug_loc:000000000000078e .LLST93
     /tmp/cciR7THS.s:3456   .text:00000000000017ec .LVL457
     /tmp/cciR7THS.s:13497  .debug_loc:00000000000007d7 .LLST94
     /tmp/cciR7THS.s:15476  .debug_str:0000000000000283 .LASF119
     /tmp/cciR7THS.s:13504  .debug_loc:00000000000007fa .LLST95
     /tmp/cciR7THS.s:15526  .debug_str:00000000000004cd .LASF120
     /tmp/cciR7THS.s:13519  .debug_loc:0000000000000843 .LLST96
     /tmp/cciR7THS.s:3486   .text:0000000000001818 .LBB315
     /tmp/cciR7THS.s:3540   .text:0000000000001888 .LBE315
     /tmp/cciR7THS.s:3488   .text:0000000000001818 .LBB317
     /tmp/cciR7THS.s:3516   .text:000000000000184c .LBE317
     /tmp/cciR7THS.s:13530  .debug_loc:0000000000000879 .LLST97
     /tmp/cciR7THS.s:3501   .text:000000000000182c .LVL462
     /tmp/cciR7THS.s:3510   .text:0000000000001844 .LVL463
     /tmp/cciR7THS.s:3520   .text:0000000000001854 .LVL465
     /tmp/cciR7THS.s:3523   .text:0000000000001860 .LVL466
     /tmp/cciR7THS.s:3527   .text:0000000000001868 .LVL467
     /tmp/cciR7THS.s:3530   .text:0000000000001874 .LVL468
     /tmp/cciR7THS.s:3534   .text:000000000000187c .LVL469
     /tmp/cciR7THS.s:3537   .text:0000000000001888 .LVL470
     /tmp/cciR7THS.s:3550   .text:0000000000001894 .LBB318
     /tmp/cciR7THS.s:3604   .text:0000000000001904 .LBE318
     /tmp/cciR7THS.s:3552   .text:0000000000001894 .LBB320
     /tmp/cciR7THS.s:3580   .text:00000000000018c8 .LBE320
     /tmp/cciR7THS.s:13537  .debug_loc:000000000000089c .LLST98
     /tmp/cciR7THS.s:3565   .text:00000000000018a8 .LVL473
     /tmp/cciR7THS.s:3574   .text:00000000000018c0 .LVL474
     /tmp/cciR7THS.s:3584   .text:00000000000018d0 .LVL476
     /tmp/cciR7THS.s:3587   .text:00000000000018dc .LVL477
     /tmp/cciR7THS.s:3591   .text:00000000000018e4 .LVL478
     /tmp/cciR7THS.s:3594   .text:00000000000018f0 .LVL479
     /tmp/cciR7THS.s:3598   .text:00000000000018f8 .LVL480
     /tmp/cciR7THS.s:3601   .text:0000000000001904 .LVL481
     /tmp/cciR7THS.s:3614   .text:0000000000001910 .LBB321
     /tmp/cciR7THS.s:3668   .text:0000000000001980 .LBE321
     /tmp/cciR7THS.s:3616   .text:0000000000001910 .LBB323
GAS LISTING /tmp/cciR7THS.s 			page 189


     /tmp/cciR7THS.s:3645   .text:0000000000001944 .LBE323
     /tmp/cciR7THS.s:13544  .debug_loc:00000000000008bf .LLST99
     /tmp/cciR7THS.s:3626   .text:0000000000001920 .LVL485
     /tmp/cciR7THS.s:3635   .text:0000000000001938 .LVL486
     /tmp/cciR7THS.s:3649   .text:000000000000194c .LVL488
     /tmp/cciR7THS.s:3652   .text:0000000000001958 .LVL489
     /tmp/cciR7THS.s:3656   .text:0000000000001960 .LVL490
     /tmp/cciR7THS.s:3659   .text:000000000000196c .LVL491
     /tmp/cciR7THS.s:3663   .text:0000000000001974 .LVL492
     /tmp/cciR7THS.s:3666   .text:0000000000001980 .LVL493
     /tmp/cciR7THS.s:3706   .text:00000000000019c4 .LVL499
     /tmp/cciR7THS.s:3715   .text:00000000000019dc .LVL500
     /tmp/cciR7THS.s:3725   .text:00000000000019f4 .LVL503
     /tmp/cciR7THS.s:3738   .text:0000000000001a14 .LVL505
     /tmp/cciR7THS.s:3749   .text:0000000000001a24 .LBB326
     /tmp/cciR7THS.s:3852   .text:0000000000001ae4 .LBE326
     /tmp/cciR7THS.s:13551  .debug_loc:00000000000008e2 .LLST100
     /tmp/cciR7THS.s:3758   .text:0000000000001a30 .LBB327
     /tmp/cciR7THS.s:3812   .text:0000000000001aa0 .LBE327
     /tmp/cciR7THS.s:3760   .text:0000000000001a30 .LBB329
     /tmp/cciR7THS.s:3788   .text:0000000000001a64 .LBE329
     /tmp/cciR7THS.s:13566  .debug_loc:000000000000092b .LLST101
     /tmp/cciR7THS.s:3773   .text:0000000000001a44 .LVL509
     /tmp/cciR7THS.s:3782   .text:0000000000001a5c .LVL510
     /tmp/cciR7THS.s:3792   .text:0000000000001a6c .LVL512
     /tmp/cciR7THS.s:3795   .text:0000000000001a78 .LVL513
     /tmp/cciR7THS.s:3799   .text:0000000000001a80 .LVL514
     /tmp/cciR7THS.s:3802   .text:0000000000001a8c .LVL515
     /tmp/cciR7THS.s:3806   .text:0000000000001a94 .LVL516
     /tmp/cciR7THS.s:3809   .text:0000000000001aa0 .LVL517
     /tmp/cciR7THS.s:3845   .text:0000000000001ad8 .LVL524
     /tmp/cciR7THS.s:13573  .debug_loc:000000000000094e .LLST104
     /tmp/cciR7THS.s:4071   .text:0000000000001cac .LVL562
     /tmp/cciR7THS.s:4109   .text:0000000000001cf0 .LVL569
     /tmp/cciR7THS.s:3039   .text:000000000000150c .LBB291
     /tmp/cciR7THS.s:3053   .text:0000000000001524 .LBE291
     /tmp/cciR7THS.s:13593  .debug_loc:00000000000009ab .LLST82
     /tmp/cciR7THS.s:3045   .text:0000000000001514 .LVL401
     /tmp/cciR7THS.s:3048   .text:0000000000001520 .LVL402
     /tmp/cciR7THS.s:3054   .text:0000000000001524 .LBB293
     /tmp/cciR7THS.s:3180   .text:000000000000160c .LBE293
     /tmp/cciR7THS.s:13602  .debug_loc:00000000000009d0 .LLST83
     /tmp/cciR7THS.s:13615  .debug_loc:0000000000000a08 .LLST84
     /tmp/cciR7THS.s:13633  .debug_loc:0000000000000a54 .LLST85
     /tmp/cciR7THS.s:3150   .text:00000000000015e8 .LBB296
     /tmp/cciR7THS.s:3177   .text:000000000000160c .LBE296
     /tmp/cciR7THS.s:13644  .debug_loc:0000000000000a8a .LLST86
     /tmp/cciR7THS.s:3069   .text:0000000000001548 .LVL404
     /tmp/cciR7THS.s:3075   .text:0000000000001558 .LVL405
     /tmp/cciR7THS.s:3081   .text:0000000000001564 .LVL406
     /tmp/cciR7THS.s:3087   .text:0000000000001574 .LVL407
     /tmp/cciR7THS.s:3113   .text:00000000000015a4 .LVL408
     /tmp/cciR7THS.s:3131   .text:00000000000015cc .LVL409
     /tmp/cciR7THS.s:3182   .text:000000000000160c .LBB297
     /tmp/cciR7THS.s:3189   .text:0000000000001610 .LBE297
     /tmp/cciR7THS.s:13666  .debug_loc:0000000000000ae9 .LLST87
     /tmp/cciR7THS.s:3196   .text:000000000000161c .LBB299
GAS LISTING /tmp/cciR7THS.s 			page 190


     /tmp/cciR7THS.s:3252   .text:000000000000168c .LBE299
     /tmp/cciR7THS.s:3198   .text:000000000000161c .LBB301
     /tmp/cciR7THS.s:3228   .text:0000000000001650 .LBE301
     /tmp/cciR7THS.s:13673  .debug_loc:0000000000000b0c .LLST88
     /tmp/cciR7THS.s:3209   .text:000000000000162c .LVL418
     /tmp/cciR7THS.s:3218   .text:0000000000001644 .LVL419
     /tmp/cciR7THS.s:3232   .text:0000000000001658 .LVL421
     /tmp/cciR7THS.s:3235   .text:0000000000001664 .LVL422
     /tmp/cciR7THS.s:3239   .text:000000000000166c .LVL423
     /tmp/cciR7THS.s:3242   .text:0000000000001678 .LVL424
     /tmp/cciR7THS.s:3246   .text:0000000000001680 .LVL425
     /tmp/cciR7THS.s:3249   .text:000000000000168c .LVL426
     /tmp/cciR7THS.s:3290   .text:00000000000016c4 .LBB302
     /tmp/cciR7THS.s:3297   .text:00000000000016c8 .LBE302
     /tmp/cciR7THS.s:13680  .debug_loc:0000000000000b2f .LLST89
     /tmp/cciR7THS.s:3304   .text:00000000000016d4 .LBB304
     /tmp/cciR7THS.s:3359   .text:0000000000001744 .LBE304
     /tmp/cciR7THS.s:3306   .text:00000000000016d4 .LBB306
     /tmp/cciR7THS.s:3335   .text:0000000000001708 .LBE306
     /tmp/cciR7THS.s:13687  .debug_loc:0000000000000b52 .LLST90
     /tmp/cciR7THS.s:3316   .text:00000000000016e4 .LVL433
     /tmp/cciR7THS.s:3325   .text:00000000000016fc .LVL434
     /tmp/cciR7THS.s:3339   .text:0000000000001710 .LVL436
     /tmp/cciR7THS.s:3342   .text:000000000000171c .LVL437
     /tmp/cciR7THS.s:3346   .text:0000000000001724 .LVL438
     /tmp/cciR7THS.s:3349   .text:0000000000001730 .LVL439
     /tmp/cciR7THS.s:3353   .text:0000000000001738 .LVL440
     /tmp/cciR7THS.s:3356   .text:0000000000001744 .LVL441
     /tmp/cciR7THS.s:3367   .text:000000000000174c .LBB307
     /tmp/cciR7THS.s:3374   .text:0000000000001750 .LBE307
     /tmp/cciR7THS.s:13694  .debug_loc:0000000000000b75 .LLST91
     /tmp/cciR7THS.s:3380   .text:0000000000001758 .LBB309
     /tmp/cciR7THS.s:3434   .text:00000000000017c8 .LBE309
     /tmp/cciR7THS.s:3382   .text:0000000000001758 .LBB311
     /tmp/cciR7THS.s:3410   .text:000000000000178c .LBE311
     /tmp/cciR7THS.s:13701  .debug_loc:0000000000000b98 .LLST92
     /tmp/cciR7THS.s:3395   .text:000000000000176c .LVL445
     /tmp/cciR7THS.s:3404   .text:0000000000001784 .LVL446
     /tmp/cciR7THS.s:3414   .text:0000000000001794 .LVL448
     /tmp/cciR7THS.s:3417   .text:00000000000017a0 .LVL449
     /tmp/cciR7THS.s:3421   .text:00000000000017a8 .LVL450
     /tmp/cciR7THS.s:3424   .text:00000000000017b4 .LVL451
     /tmp/cciR7THS.s:3428   .text:00000000000017bc .LVL452
     /tmp/cciR7THS.s:3431   .text:00000000000017c8 .LVL453
     /tmp/cciR7THS.s:3891   .text:0000000000001b44 .LBB330
     /tmp/cciR7THS.s:3945   .text:0000000000001bb4 .LBE330
     /tmp/cciR7THS.s:3893   .text:0000000000001b44 .LBB332
     /tmp/cciR7THS.s:3921   .text:0000000000001b78 .LBE332
     /tmp/cciR7THS.s:13708  .debug_loc:0000000000000bbb .LLST102
     /tmp/cciR7THS.s:3902   .text:0000000000001b54 .LVL532
     /tmp/cciR7THS.s:3911   .text:0000000000001b6c .LVL533
     /tmp/cciR7THS.s:3925   .text:0000000000001b80 .LVL535
     /tmp/cciR7THS.s:3928   .text:0000000000001b8c .LVL536
     /tmp/cciR7THS.s:3932   .text:0000000000001b94 .LVL537
     /tmp/cciR7THS.s:3935   .text:0000000000001ba0 .LVL538
     /tmp/cciR7THS.s:3939   .text:0000000000001ba8 .LVL539
     /tmp/cciR7THS.s:3942   .text:0000000000001bb4 .LVL540
GAS LISTING /tmp/cciR7THS.s 			page 191


     /tmp/cciR7THS.s:3982   .text:0000000000001c00 .LBB333
     /tmp/cciR7THS.s:4036   .text:0000000000001c70 .LBE333
     /tmp/cciR7THS.s:3984   .text:0000000000001c00 .LBB335
     /tmp/cciR7THS.s:4012   .text:0000000000001c34 .LBE335
     /tmp/cciR7THS.s:13715  .debug_loc:0000000000000bde .LLST103
     /tmp/cciR7THS.s:3993   .text:0000000000001c10 .LVL549
     /tmp/cciR7THS.s:4002   .text:0000000000001c28 .LVL550
     /tmp/cciR7THS.s:4016   .text:0000000000001c3c .LVL552
     /tmp/cciR7THS.s:4019   .text:0000000000001c48 .LVL553
     /tmp/cciR7THS.s:4023   .text:0000000000001c50 .LVL554
     /tmp/cciR7THS.s:4026   .text:0000000000001c5c .LVL555
     /tmp/cciR7THS.s:4030   .text:0000000000001c64 .LVL556
     /tmp/cciR7THS.s:4033   .text:0000000000001c70 .LVL557
     /tmp/cciR7THS.s:4120   .text:0000000000001d00 .LBB338
     /tmp/cciR7THS.s:4122   .text:0000000000001d00 .LBB340
     /tmp/cciR7THS.s:4151   .text:0000000000001d34 .LBE340
     /tmp/cciR7THS.s:13722  .debug_loc:0000000000000c01 .LLST105
     /tmp/cciR7THS.s:4132   .text:0000000000001d10 .LVL572
     /tmp/cciR7THS.s:4141   .text:0000000000001d28 .LVL573
     /tmp/cciR7THS.s:4155   .text:0000000000001d3c .LVL575
     /tmp/cciR7THS.s:4158   .text:0000000000001d48 .LVL576
     /tmp/cciR7THS.s:4162   .text:0000000000001d50 .LVL577
     /tmp/cciR7THS.s:4165   .text:0000000000001d5c .LVL578
     /tmp/cciR7THS.s:4169   .text:0000000000001d64 .LVL579
     /tmp/cciR7THS.s:4172   .text:0000000000001d70 .LVL580
     /tmp/cciR7THS.s:3858   .text:0000000000001af4 .LVL525
     /tmp/cciR7THS.s:3864   .text:0000000000001b04 .LVL526
     /tmp/cciR7THS.s:3870   .text:0000000000001b14 .LVL527
     /tmp/cciR7THS.s:3875   .text:0000000000001b20 .LVL528
     /tmp/cciR7THS.s:3885   .text:0000000000001b3c .LVL530
     /tmp/cciR7THS.s:3959   .text:0000000000001bd0 .LVL543
     /tmp/cciR7THS.s:3969   .text:0000000000001be8 .LVL546
     /tmp/cciR7THS.s:4198   .text:0000000000001d90 .LVL586
     /tmp/cciR7THS.s:4202   .text:0000000000001d9c .LVL587
     /tmp/cciR7THS.s:2976   .text:00000000000014d4 .LFE28
     /tmp/cciR7THS.s:13729  .debug_loc:0000000000000c24 .LLST54
     /tmp/cciR7THS.s:13751  .debug_loc:0000000000000c83 .LLST55
     /tmp/cciR7THS.s:13813  .debug_loc:0000000000000d73 .LLST56
     /tmp/cciR7THS.s:2141   .text:0000000000000dc4 .LBB223
     /tmp/cciR7THS.s:2170   .text:0000000000000e00 .LBE223
     /tmp/cciR7THS.s:13824  .debug_loc:0000000000000da9 .LLST70
     /tmp/cciR7THS.s:2156   .text:0000000000000de0 .LVL297
     /tmp/cciR7THS.s:2239   .text:0000000000000e8c .LBB228
     /tmp/cciR7THS.s:2268   .text:0000000000000ec8 .LBE228
     /tmp/cciR7THS.s:13839  .debug_loc:0000000000000df2 .LLST72
     /tmp/cciR7THS.s:2254   .text:0000000000000ea8 .LVL309
     /tmp/cciR7THS.s:13854  .debug_loc:0000000000000e3b .LLST76
     /tmp/cciR7THS.s:2800   .text:0000000000001358 .LVL379
     /tmp/cciR7THS.s:2805   .text:0000000000001364 .LVL380
     /tmp/cciR7THS.s:2815   .text:0000000000001380 .LVL381
     /tmp/cciR7THS.s:2824   .text:000000000000139c .LVL382
     /tmp/cciR7THS.s:2841   .text:00000000000013c8 .LVL383
     /tmp/cciR7THS.s:2846   .text:00000000000013d4 .LVL384
     /tmp/cciR7THS.s:2856   .text:00000000000013f0 .LVL385
     /tmp/cciR7THS.s:2864   .text:0000000000001408 .LVL386
     /tmp/cciR7THS.s:2900   .text:0000000000001448 .LVL390
     /tmp/cciR7THS.s:2913   .text:0000000000001460 .LVL391
GAS LISTING /tmp/cciR7THS.s 			page 192


     /tmp/cciR7THS.s:2926   .text:0000000000001478 .LVL392
     /tmp/cciR7THS.s:2939   .text:0000000000001490 .LVL393
     /tmp/cciR7THS.s:1745   .text:0000000000000b0c .LBB201
     /tmp/cciR7THS.s:1759   .text:0000000000000b24 .LBE201
     /tmp/cciR7THS.s:13865  .debug_loc:0000000000000e71 .LLST57
     /tmp/cciR7THS.s:1751   .text:0000000000000b14 .LVL243
     /tmp/cciR7THS.s:1754   .text:0000000000000b20 .LVL244
     /tmp/cciR7THS.s:1760   .text:0000000000000b24 .LBB203
     /tmp/cciR7THS.s:1888   .text:0000000000000c0c .LBE203
     /tmp/cciR7THS.s:13874  .debug_loc:0000000000000e96 .LLST58
     /tmp/cciR7THS.s:13892  .debug_loc:0000000000000ee2 .LLST59
     /tmp/cciR7THS.s:1761   .text:0000000000000b24 .LBB204
     /tmp/cciR7THS.s:1887   .text:0000000000000c0c .LBE204
     /tmp/cciR7THS.s:13903  .debug_loc:0000000000000f18 .LLST60
     /tmp/cciR7THS.s:13918  .debug_loc:0000000000000f54 .LLST61
     /tmp/cciR7THS.s:1857   .text:0000000000000be8 .LBB207
     /tmp/cciR7THS.s:1884   .text:0000000000000c0c .LBE207
     /tmp/cciR7THS.s:13936  .debug_loc:0000000000000fa0 .LLST63
     /tmp/cciR7THS.s:1776   .text:0000000000000b48 .LVL246
     /tmp/cciR7THS.s:1782   .text:0000000000000b58 .LVL247
     /tmp/cciR7THS.s:1788   .text:0000000000000b64 .LVL248
     /tmp/cciR7THS.s:1794   .text:0000000000000b74 .LVL249
     /tmp/cciR7THS.s:1820   .text:0000000000000ba4 .LVL250
     /tmp/cciR7THS.s:1838   .text:0000000000000bcc .LVL251
     /tmp/cciR7THS.s:1890   .text:0000000000000c0c .LBB208
     /tmp/cciR7THS.s:1897   .text:0000000000000c10 .LBE208
     /tmp/cciR7THS.s:13958  .debug_loc:0000000000000fff .LLST64
     /tmp/cciR7THS.s:1904   .text:0000000000000c1c .LBB210
     /tmp/cciR7THS.s:1959   .text:0000000000000c8c .LBE210
     /tmp/cciR7THS.s:1906   .text:0000000000000c1c .LBB212
     /tmp/cciR7THS.s:1935   .text:0000000000000c50 .LBE212
     /tmp/cciR7THS.s:13965  .debug_loc:0000000000001022 .LLST65
     /tmp/cciR7THS.s:1920   .text:0000000000000c30 .LVL259
     /tmp/cciR7THS.s:1929   .text:0000000000000c48 .LVL260
     /tmp/cciR7THS.s:1939   .text:0000000000000c58 .LVL262
     /tmp/cciR7THS.s:1942   .text:0000000000000c64 .LVL263
     /tmp/cciR7THS.s:1946   .text:0000000000000c6c .LVL264
     /tmp/cciR7THS.s:1949   .text:0000000000000c78 .LVL265
     /tmp/cciR7THS.s:1953   .text:0000000000000c80 .LVL266
     /tmp/cciR7THS.s:1956   .text:0000000000000c8c .LVL267
     /tmp/cciR7THS.s:1991   .text:0000000000000cb8 .LBB213
     /tmp/cciR7THS.s:1998   .text:0000000000000cbc .LBE213
     /tmp/cciR7THS.s:13972  .debug_loc:0000000000001045 .LLST66
     /tmp/cciR7THS.s:2005   .text:0000000000000cc8 .LBB215
     /tmp/cciR7THS.s:2059   .text:0000000000000d38 .LBE215
     /tmp/cciR7THS.s:2007   .text:0000000000000cc8 .LBB217
     /tmp/cciR7THS.s:2035   .text:0000000000000cfc .LBE217
     /tmp/cciR7THS.s:13979  .debug_loc:0000000000001068 .LLST67
     /tmp/cciR7THS.s:2020   .text:0000000000000cdc .LVL273
     /tmp/cciR7THS.s:2029   .text:0000000000000cf4 .LVL274
     /tmp/cciR7THS.s:2039   .text:0000000000000d04 .LVL276
     /tmp/cciR7THS.s:2042   .text:0000000000000d10 .LVL277
     /tmp/cciR7THS.s:2046   .text:0000000000000d18 .LVL278
     /tmp/cciR7THS.s:2049   .text:0000000000000d24 .LVL279
     /tmp/cciR7THS.s:2053   .text:0000000000000d2c .LVL280
     /tmp/cciR7THS.s:2056   .text:0000000000000d38 .LVL281
     /tmp/cciR7THS.s:2067   .text:0000000000000d40 .LBB218
GAS LISTING /tmp/cciR7THS.s 			page 193


     /tmp/cciR7THS.s:2074   .text:0000000000000d44 .LBE218
     /tmp/cciR7THS.s:13986  .debug_loc:000000000000108b .LLST68
     /tmp/cciR7THS.s:2080   .text:0000000000000d4c .LBB220
     /tmp/cciR7THS.s:2134   .text:0000000000000dbc .LBE220
     /tmp/cciR7THS.s:2082   .text:0000000000000d4c .LBB222
     /tmp/cciR7THS.s:2110   .text:0000000000000d80 .LBE222
     /tmp/cciR7THS.s:13993  .debug_loc:00000000000010ae .LLST69
     /tmp/cciR7THS.s:2095   .text:0000000000000d60 .LVL285
     /tmp/cciR7THS.s:2104   .text:0000000000000d78 .LVL286
     /tmp/cciR7THS.s:2114   .text:0000000000000d88 .LVL288
     /tmp/cciR7THS.s:2117   .text:0000000000000d94 .LVL289
     /tmp/cciR7THS.s:2121   .text:0000000000000d9c .LVL290
     /tmp/cciR7THS.s:2124   .text:0000000000000da8 .LVL291
     /tmp/cciR7THS.s:2128   .text:0000000000000db0 .LVL292
     /tmp/cciR7THS.s:2131   .text:0000000000000dbc .LVL293
     /tmp/cciR7THS.s:2190   .text:0000000000000e30 .LBB224
     /tmp/cciR7THS.s:2192   .text:0000000000000e30 .LBB226
     /tmp/cciR7THS.s:2221   .text:0000000000000e64 .LBE226
     /tmp/cciR7THS.s:14000  .debug_loc:00000000000010d1 .LLST71
     /tmp/cciR7THS.s:2205   .text:0000000000000e44 .LVL302
     /tmp/cciR7THS.s:2214   .text:0000000000000e5c .LVL303
     /tmp/cciR7THS.s:2274   .text:0000000000000ed0 .LVL311
     /tmp/cciR7THS.s:2277   .text:0000000000000edc .LVL312
     /tmp/cciR7THS.s:2281   .text:0000000000000ee4 .LVL313
     /tmp/cciR7THS.s:2284   .text:0000000000000ef0 .LVL314
     /tmp/cciR7THS.s:2288   .text:0000000000000ef8 .LVL315
     /tmp/cciR7THS.s:2291   .text:0000000000000f04 .LVL316
     /tmp/cciR7THS.s:2306   .text:0000000000000f14 .LBB230
     /tmp/cciR7THS.s:2355   .text:0000000000000f7c .LBE230
     /tmp/cciR7THS.s:2308   .text:0000000000000f14 .LBB232
     /tmp/cciR7THS.s:2331   .text:0000000000000f40 .LBE232
     /tmp/cciR7THS.s:14011  .debug_loc:0000000000001107 .LLST73
     /tmp/cciR7THS.s:2312   .text:0000000000000f1c .LVL318
     /tmp/cciR7THS.s:2321   .text:0000000000000f34 .LVL319
     /tmp/cciR7THS.s:2335   .text:0000000000000f48 .LVL321
     /tmp/cciR7THS.s:2338   .text:0000000000000f54 .LVL322
     /tmp/cciR7THS.s:2342   .text:0000000000000f5c .LVL323
     /tmp/cciR7THS.s:2345   .text:0000000000000f68 .LVL324
     /tmp/cciR7THS.s:2349   .text:0000000000000f70 .LVL325
     /tmp/cciR7THS.s:2352   .text:0000000000000f7c .LVL326
     /tmp/cciR7THS.s:2373   .text:0000000000000f94 .LBB233
     /tmp/cciR7THS.s:2423   .text:0000000000001000 .LBE233
     /tmp/cciR7THS.s:2375   .text:0000000000000f94 .LBB235
     /tmp/cciR7THS.s:2399   .text:0000000000000fc4 .LBE235
     /tmp/cciR7THS.s:14018  .debug_loc:000000000000112a .LLST74
     /tmp/cciR7THS.s:2384   .text:0000000000000fa4 .LVL329
     /tmp/cciR7THS.s:2393   .text:0000000000000fbc .LVL330
     /tmp/cciR7THS.s:2403   .text:0000000000000fcc .LVL332
     /tmp/cciR7THS.s:2406   .text:0000000000000fd8 .LVL333
     /tmp/cciR7THS.s:2410   .text:0000000000000fe0 .LVL334
     /tmp/cciR7THS.s:2413   .text:0000000000000fec .LVL335
     /tmp/cciR7THS.s:2417   .text:0000000000000ff4 .LVL336
     /tmp/cciR7THS.s:2420   .text:0000000000001000 .LVL337
     /tmp/cciR7THS.s:2461   .text:0000000000001054 .LBB236
     /tmp/cciR7THS.s:2463   .text:0000000000001054 .LBB238
     /tmp/cciR7THS.s:2488   .text:0000000000001084 .LBE238
     /tmp/cciR7THS.s:14025  .debug_loc:000000000000114d .LLST75
GAS LISTING /tmp/cciR7THS.s 			page 194


     /tmp/cciR7THS.s:2472   .text:0000000000001064 .LVL343
     /tmp/cciR7THS.s:2481   .text:000000000000107c .LVL344
     /tmp/cciR7THS.s:2524   .text:00000000000010c8 .LVL350
     /tmp/cciR7THS.s:2527   .text:00000000000010d4 .LVL351
     /tmp/cciR7THS.s:2531   .text:00000000000010dc .LVL352
     /tmp/cciR7THS.s:2534   .text:00000000000010e8 .LVL353
     /tmp/cciR7THS.s:2538   .text:00000000000010f0 .LVL354
     /tmp/cciR7THS.s:2541   .text:00000000000010fc .LVL355
     /tmp/cciR7THS.s:2182   .text:0000000000000e24 .LVL300
     /tmp/cciR7THS.s:2229   .text:0000000000000e78 .LVL306
     /tmp/cciR7THS.s:2437   .text:0000000000001024 .LVL338
     /tmp/cciR7THS.s:2442   .text:0000000000001030 .LVL339
     /tmp/cciR7THS.s:2451   .text:0000000000001048 .LVL341
     /tmp/cciR7THS.s:2496   .text:0000000000001098 .LVL347
     /tmp/cciR7THS.s:2511   .text:00000000000010b8 .LVL348
     /tmp/cciR7THS.s:2558   .text:0000000000001120 .LVL356
     /tmp/cciR7THS.s:2564   .text:0000000000001130 .LVL357
     /tmp/cciR7THS.s:2570   .text:0000000000001140 .LVL358
     /tmp/cciR7THS.s:2575   .text:000000000000114c .LVL359
     /tmp/cciR7THS.s:2583   .text:0000000000001164 .LVL360
     /tmp/cciR7THS.s:2594   .text:000000000000117c .LVL361
     /tmp/cciR7THS.s:2606   .text:0000000000001198 .LVL362
     /tmp/cciR7THS.s:2622   .text:00000000000011bc .LVL363
     /tmp/cciR7THS.s:2637   .text:00000000000011e0 .LVL364
     /tmp/cciR7THS.s:2642   .text:00000000000011ec .LVL365
     /tmp/cciR7THS.s:2650   .text:0000000000001204 .LVL366
     /tmp/cciR7THS.s:2661   .text:000000000000121c .LVL367
     /tmp/cciR7THS.s:2673   .text:0000000000001238 .LVL368
     /tmp/cciR7THS.s:2689   .text:000000000000125c .LVL369
     /tmp/cciR7THS.s:2700   .text:0000000000001270 .LVL370
     /tmp/cciR7THS.s:2708   .text:0000000000001288 .LVL371
     /tmp/cciR7THS.s:2725   .text:00000000000012ac .LVL372
     /tmp/cciR7THS.s:2737   .text:00000000000012c8 .LVL373
     /tmp/cciR7THS.s:2746   .text:00000000000012dc .LVL374
     /tmp/cciR7THS.s:2754   .text:00000000000012f4 .LVL375
     /tmp/cciR7THS.s:2765   .text:000000000000130c .LVL376
     /tmp/cciR7THS.s:2777   .text:0000000000001328 .LVL377
     /tmp/cciR7THS.s:2885   .text:0000000000001430 .LVL388
     /tmp/cciR7THS.s:2953   .text:00000000000014a8 .LVL394
     /tmp/cciR7THS.s:2969   .text:00000000000014c8 .LVL397
     /tmp/cciR7THS.s:2973   .text:00000000000014d4 .LVL398
     /tmp/cciR7THS.s:1686   .text:0000000000000adc .LFE27
     /tmp/cciR7THS.s:14036  .debug_loc:0000000000001183 .LLST25
     /tmp/cciR7THS.s:14058  .debug_loc:00000000000011e2 .LLST26
     /tmp/cciR7THS.s:14120  .debug_loc:00000000000012d2 .LLST27
     /tmp/cciR7THS.s:14131  .debug_loc:0000000000001308 .LLST28
     /tmp/cciR7THS.s:14159  .debug_loc:000000000000138b .LLST29
     /tmp/cciR7THS.s:922    .text:0000000000000510 .LBB130
     /tmp/cciR7THS.s:949    .text:0000000000000544 .LBE130
     /tmp/cciR7THS.s:14230  .debug_loc:00000000000014cf .LLST41
     /tmp/cciR7THS.s:937    .text:000000000000052c .LVL110
     /tmp/cciR7THS.s:14245  .debug_loc:0000000000001518 .LLST42
     /tmp/cciR7THS.s:14252  .debug_loc:000000000000153b .LLST43
     /tmp/cciR7THS.s:14267  .debug_loc:0000000000001584 .LLST44
     /tmp/cciR7THS.s:967    .text:0000000000000558 .LBB133
     /tmp/cciR7THS.s:1021   .text:00000000000005c8 .LBE133
     /tmp/cciR7THS.s:969    .text:0000000000000558 .LBB135
GAS LISTING /tmp/cciR7THS.s 			page 195


     /tmp/cciR7THS.s:997    .text:000000000000058c .LBE135
     /tmp/cciR7THS.s:14278  .debug_loc:00000000000015ba .LLST45
     /tmp/cciR7THS.s:982    .text:000000000000056c .LVL115
     /tmp/cciR7THS.s:991    .text:0000000000000584 .LVL116
     /tmp/cciR7THS.s:1001   .text:0000000000000594 .LVL118
     /tmp/cciR7THS.s:1004   .text:00000000000005a0 .LVL119
     /tmp/cciR7THS.s:1008   .text:00000000000005a8 .LVL120
     /tmp/cciR7THS.s:1011   .text:00000000000005b4 .LVL121
     /tmp/cciR7THS.s:1015   .text:00000000000005bc .LVL122
     /tmp/cciR7THS.s:1018   .text:00000000000005c8 .LVL123
     /tmp/cciR7THS.s:1031   .text:00000000000005d4 .LBB136
     /tmp/cciR7THS.s:1085   .text:0000000000000644 .LBE136
     /tmp/cciR7THS.s:1033   .text:00000000000005d4 .LBB138
     /tmp/cciR7THS.s:1061   .text:0000000000000608 .LBE138
     /tmp/cciR7THS.s:14285  .debug_loc:00000000000015dd .LLST46
     /tmp/cciR7THS.s:1046   .text:00000000000005e8 .LVL126
     /tmp/cciR7THS.s:1055   .text:0000000000000600 .LVL127
     /tmp/cciR7THS.s:1065   .text:0000000000000610 .LVL129
     /tmp/cciR7THS.s:1068   .text:000000000000061c .LVL130
     /tmp/cciR7THS.s:1072   .text:0000000000000624 .LVL131
     /tmp/cciR7THS.s:1075   .text:0000000000000630 .LVL132
     /tmp/cciR7THS.s:1079   .text:0000000000000638 .LVL133
     /tmp/cciR7THS.s:1082   .text:0000000000000644 .LVL134
     /tmp/cciR7THS.s:1095   .text:0000000000000650 .LBB139
     /tmp/cciR7THS.s:1149   .text:00000000000006c0 .LBE139
     /tmp/cciR7THS.s:1097   .text:0000000000000650 .LBB141
     /tmp/cciR7THS.s:1126   .text:0000000000000684 .LBE141
     /tmp/cciR7THS.s:14292  .debug_loc:0000000000001600 .LLST47
     /tmp/cciR7THS.s:1107   .text:0000000000000660 .LVL138
     /tmp/cciR7THS.s:1116   .text:0000000000000678 .LVL139
     /tmp/cciR7THS.s:1130   .text:000000000000068c .LVL141
     /tmp/cciR7THS.s:1133   .text:0000000000000698 .LVL142
     /tmp/cciR7THS.s:1137   .text:00000000000006a0 .LVL143
     /tmp/cciR7THS.s:1140   .text:00000000000006ac .LVL144
     /tmp/cciR7THS.s:1144   .text:00000000000006b4 .LVL145
     /tmp/cciR7THS.s:1147   .text:00000000000006c0 .LVL146
     /tmp/cciR7THS.s:1187   .text:0000000000000704 .LVL152
     /tmp/cciR7THS.s:1196   .text:000000000000071c .LVL153
     /tmp/cciR7THS.s:1206   .text:0000000000000734 .LVL156
     /tmp/cciR7THS.s:1219   .text:0000000000000754 .LVL158
     /tmp/cciR7THS.s:1230   .text:0000000000000764 .LBB144
     /tmp/cciR7THS.s:1333   .text:0000000000000824 .LBE144
     /tmp/cciR7THS.s:14299  .debug_loc:0000000000001623 .LLST48
     /tmp/cciR7THS.s:1239   .text:0000000000000770 .LBB145
     /tmp/cciR7THS.s:1293   .text:00000000000007e0 .LBE145
     /tmp/cciR7THS.s:1241   .text:0000000000000770 .LBB147
     /tmp/cciR7THS.s:1269   .text:00000000000007a4 .LBE147
     /tmp/cciR7THS.s:14314  .debug_loc:000000000000166c .LLST49
     /tmp/cciR7THS.s:1254   .text:0000000000000784 .LVL162
     /tmp/cciR7THS.s:1263   .text:000000000000079c .LVL163
     /tmp/cciR7THS.s:1273   .text:00000000000007ac .LVL165
     /tmp/cciR7THS.s:1276   .text:00000000000007b8 .LVL166
     /tmp/cciR7THS.s:1280   .text:00000000000007c0 .LVL167
     /tmp/cciR7THS.s:1283   .text:00000000000007cc .LVL168
     /tmp/cciR7THS.s:1287   .text:00000000000007d4 .LVL169
     /tmp/cciR7THS.s:1290   .text:00000000000007e0 .LVL170
     /tmp/cciR7THS.s:1326   .text:0000000000000818 .LVL177
GAS LISTING /tmp/cciR7THS.s 			page 196


     /tmp/cciR7THS.s:14321  .debug_loc:000000000000168f .LLST52
     /tmp/cciR7THS.s:1552   .text:00000000000009ec .LVL215
     /tmp/cciR7THS.s:1590   .text:0000000000000a30 .LVL222
     /tmp/cciR7THS.s:522    .text:0000000000000250 .LBB109
     /tmp/cciR7THS.s:536    .text:0000000000000268 .LBE109
     /tmp/cciR7THS.s:14341  .debug_loc:00000000000016ec .LLST30
     /tmp/cciR7THS.s:528    .text:0000000000000258 .LVL54
     /tmp/cciR7THS.s:531    .text:0000000000000264 .LVL55
     /tmp/cciR7THS.s:537    .text:0000000000000268 .LBB111
     /tmp/cciR7THS.s:663    .text:0000000000000350 .LBE111
     /tmp/cciR7THS.s:14350  .debug_loc:0000000000001711 .LLST31
     /tmp/cciR7THS.s:14363  .debug_loc:0000000000001749 .LLST32
     /tmp/cciR7THS.s:14381  .debug_loc:0000000000001795 .LLST33
     /tmp/cciR7THS.s:633    .text:000000000000032c .LBB114
     /tmp/cciR7THS.s:660    .text:0000000000000350 .LBE114
     /tmp/cciR7THS.s:14392  .debug_loc:00000000000017cb .LLST34
     /tmp/cciR7THS.s:552    .text:000000000000028c .LVL57
     /tmp/cciR7THS.s:558    .text:000000000000029c .LVL58
     /tmp/cciR7THS.s:564    .text:00000000000002a8 .LVL59
     /tmp/cciR7THS.s:570    .text:00000000000002b8 .LVL60
     /tmp/cciR7THS.s:596    .text:00000000000002e8 .LVL61
     /tmp/cciR7THS.s:614    .text:0000000000000310 .LVL62
     /tmp/cciR7THS.s:665    .text:0000000000000350 .LBB115
     /tmp/cciR7THS.s:672    .text:0000000000000354 .LBE115
     /tmp/cciR7THS.s:14414  .debug_loc:000000000000182a .LLST35
     /tmp/cciR7THS.s:679    .text:0000000000000360 .LBB117
     /tmp/cciR7THS.s:735    .text:00000000000003d0 .LBE117
     /tmp/cciR7THS.s:681    .text:0000000000000360 .LBB119
     /tmp/cciR7THS.s:711    .text:0000000000000394 .LBE119
     /tmp/cciR7THS.s:14421  .debug_loc:000000000000184d .LLST36
     /tmp/cciR7THS.s:692    .text:0000000000000370 .LVL71
     /tmp/cciR7THS.s:701    .text:0000000000000388 .LVL72
     /tmp/cciR7THS.s:715    .text:000000000000039c .LVL74
     /tmp/cciR7THS.s:718    .text:00000000000003a8 .LVL75
     /tmp/cciR7THS.s:722    .text:00000000000003b0 .LVL76
     /tmp/cciR7THS.s:725    .text:00000000000003bc .LVL77
     /tmp/cciR7THS.s:729    .text:00000000000003c4 .LVL78
     /tmp/cciR7THS.s:732    .text:00000000000003d0 .LVL79
     /tmp/cciR7THS.s:771    .text:0000000000000404 .LBB120
     /tmp/cciR7THS.s:778    .text:0000000000000408 .LBE120
     /tmp/cciR7THS.s:14428  .debug_loc:0000000000001870 .LLST37
     /tmp/cciR7THS.s:785    .text:0000000000000414 .LBB122
     /tmp/cciR7THS.s:840    .text:0000000000000484 .LBE122
     /tmp/cciR7THS.s:787    .text:0000000000000414 .LBB124
     /tmp/cciR7THS.s:816    .text:0000000000000448 .LBE124
     /tmp/cciR7THS.s:14435  .debug_loc:0000000000001893 .LLST38
     /tmp/cciR7THS.s:797    .text:0000000000000424 .LVL86
     /tmp/cciR7THS.s:806    .text:000000000000043c .LVL87
     /tmp/cciR7THS.s:820    .text:0000000000000450 .LVL89
     /tmp/cciR7THS.s:823    .text:000000000000045c .LVL90
     /tmp/cciR7THS.s:827    .text:0000000000000464 .LVL91
     /tmp/cciR7THS.s:830    .text:0000000000000470 .LVL92
     /tmp/cciR7THS.s:834    .text:0000000000000478 .LVL93
     /tmp/cciR7THS.s:837    .text:0000000000000484 .LVL94
     /tmp/cciR7THS.s:848    .text:000000000000048c .LBB125
     /tmp/cciR7THS.s:855    .text:0000000000000490 .LBE125
     /tmp/cciR7THS.s:14442  .debug_loc:00000000000018b6 .LLST39
GAS LISTING /tmp/cciR7THS.s 			page 197


     /tmp/cciR7THS.s:861    .text:0000000000000498 .LBB127
     /tmp/cciR7THS.s:915    .text:0000000000000508 .LBE127
     /tmp/cciR7THS.s:863    .text:0000000000000498 .LBB129
     /tmp/cciR7THS.s:891    .text:00000000000004cc .LBE129
     /tmp/cciR7THS.s:14449  .debug_loc:00000000000018d9 .LLST40
     /tmp/cciR7THS.s:876    .text:00000000000004ac .LVL98
     /tmp/cciR7THS.s:885    .text:00000000000004c4 .LVL99
     /tmp/cciR7THS.s:895    .text:00000000000004d4 .LVL101
     /tmp/cciR7THS.s:898    .text:00000000000004e0 .LVL102
     /tmp/cciR7THS.s:902    .text:00000000000004e8 .LVL103
     /tmp/cciR7THS.s:905    .text:00000000000004f4 .LVL104
     /tmp/cciR7THS.s:909    .text:00000000000004fc .LVL105
     /tmp/cciR7THS.s:912    .text:0000000000000508 .LVL106
     /tmp/cciR7THS.s:1372   .text:0000000000000884 .LBB148
     /tmp/cciR7THS.s:1426   .text:00000000000008f4 .LBE148
     /tmp/cciR7THS.s:1374   .text:0000000000000884 .LBB150
     /tmp/cciR7THS.s:1402   .text:00000000000008b8 .LBE150
     /tmp/cciR7THS.s:14456  .debug_loc:00000000000018fc .LLST50
     /tmp/cciR7THS.s:1383   .text:0000000000000894 .LVL185
     /tmp/cciR7THS.s:1392   .text:00000000000008ac .LVL186
     /tmp/cciR7THS.s:1406   .text:00000000000008c0 .LVL188
     /tmp/cciR7THS.s:1409   .text:00000000000008cc .LVL189
     /tmp/cciR7THS.s:1413   .text:00000000000008d4 .LVL190
     /tmp/cciR7THS.s:1416   .text:00000000000008e0 .LVL191
     /tmp/cciR7THS.s:1420   .text:00000000000008e8 .LVL192
     /tmp/cciR7THS.s:1423   .text:00000000000008f4 .LVL193
     /tmp/cciR7THS.s:1463   .text:0000000000000940 .LBB151
     /tmp/cciR7THS.s:1517   .text:00000000000009b0 .LBE151
     /tmp/cciR7THS.s:1465   .text:0000000000000940 .LBB153
     /tmp/cciR7THS.s:1493   .text:0000000000000974 .LBE153
     /tmp/cciR7THS.s:14463  .debug_loc:000000000000191f .LLST51
     /tmp/cciR7THS.s:1474   .text:0000000000000950 .LVL202
     /tmp/cciR7THS.s:1483   .text:0000000000000968 .LVL203
     /tmp/cciR7THS.s:1497   .text:000000000000097c .LVL205
     /tmp/cciR7THS.s:1500   .text:0000000000000988 .LVL206
     /tmp/cciR7THS.s:1504   .text:0000000000000990 .LVL207
     /tmp/cciR7THS.s:1507   .text:000000000000099c .LVL208
     /tmp/cciR7THS.s:1511   .text:00000000000009a4 .LVL209
     /tmp/cciR7THS.s:1514   .text:00000000000009b0 .LVL210
     /tmp/cciR7THS.s:1601   .text:0000000000000a40 .LBB156
     /tmp/cciR7THS.s:1603   .text:0000000000000a40 .LBB158
     /tmp/cciR7THS.s:1632   .text:0000000000000a74 .LBE158
     /tmp/cciR7THS.s:14470  .debug_loc:0000000000001942 .LLST53
     /tmp/cciR7THS.s:1613   .text:0000000000000a50 .LVL225
     /tmp/cciR7THS.s:1622   .text:0000000000000a68 .LVL226
     /tmp/cciR7THS.s:1636   .text:0000000000000a7c .LVL228
     /tmp/cciR7THS.s:1639   .text:0000000000000a88 .LVL229
     /tmp/cciR7THS.s:1643   .text:0000000000000a90 .LVL230
     /tmp/cciR7THS.s:1646   .text:0000000000000a9c .LVL231
     /tmp/cciR7THS.s:1650   .text:0000000000000aa4 .LVL232
     /tmp/cciR7THS.s:1653   .text:0000000000000ab0 .LVL233
     /tmp/cciR7THS.s:1339   .text:0000000000000834 .LVL178
     /tmp/cciR7THS.s:1345   .text:0000000000000844 .LVL179
     /tmp/cciR7THS.s:1351   .text:0000000000000854 .LVL180
     /tmp/cciR7THS.s:1356   .text:0000000000000860 .LVL181
     /tmp/cciR7THS.s:1366   .text:000000000000087c .LVL183
     /tmp/cciR7THS.s:1440   .text:0000000000000910 .LVL196
GAS LISTING /tmp/cciR7THS.s 			page 198


     /tmp/cciR7THS.s:1450   .text:0000000000000928 .LVL199
     /tmp/cciR7THS.s:1679   .text:0000000000000ad0 .LVL239
     /tmp/cciR7THS.s:1683   .text:0000000000000adc .LVL240
     /tmp/cciR7THS.s:395    .text:000000000000018c .LFB26
     /tmp/cciR7THS.s:484    .text:000000000000021c .LFE26
     /tmp/cciR7THS.s:14477  .debug_loc:0000000000001965 .LLST20
     /tmp/cciR7THS.s:14502  .debug_loc:00000000000019c7 .LLST21
     /tmp/cciR7THS.s:14527  .debug_loc:0000000000001a29 .LLST22
     /tmp/cciR7THS.s:14541  .debug_loc:0000000000001a62 .LLST23
     /tmp/cciR7THS.s:400    .text:000000000000018c .LBB60
     /tmp/cciR7THS.s:451    .text:00000000000001e4 .LBE60
     /tmp/cciR7THS.s:14555  .debug_loc:0000000000001a9b .LLST24
     /tmp/cciR7THS.s:470    .text:0000000000000208 .LVL51
     /tmp/cciR7THS.s:298    .text:0000000000000108 .LFB25
     /tmp/cciR7THS.s:389    .text:000000000000018c .LFE25
     /tmp/cciR7THS.s:14577  .debug_loc:0000000000001afa .LLST13
     /tmp/cciR7THS.s:14591  .debug_loc:0000000000001b33 .LLST14
     /tmp/cciR7THS.s:14605  .debug_loc:0000000000001b6c .LLST15
     /tmp/cciR7THS.s:303    .text:0000000000000108 .LBB58
     /tmp/cciR7THS.s:357    .text:0000000000000154 .LBE58
     /tmp/cciR7THS.s:14619  .debug_loc:0000000000001ba5 .LLST16
     /tmp/cciR7THS.s:318    .text:000000000000011c .LBB59
     /tmp/cciR7THS.s:356    .text:0000000000000154 .LBE59
     /tmp/cciR7THS.s:15582  .debug_str:00000000000006fb .LASF121
     /tmp/cciR7THS.s:14631  .debug_loc:0000000000001bdc .LLST17
     /tmp/cciR7THS.s:14668  .debug_loc:0000000000001c3b .LLST18
     /tmp/cciR7THS.s:14675  .debug_loc:0000000000001c5e .LLST19
     /tmp/cciR7THS.s:375    .text:0000000000000178 .LVL42
     /tmp/cciR7THS.s:204    .text:0000000000000088 .LFB24
     /tmp/cciR7THS.s:292    .text:0000000000000108 .LFE24
     /tmp/cciR7THS.s:14744  .debug_loc:0000000000001cdd .LLST7
     /tmp/cciR7THS.s:14758  .debug_loc:0000000000001d16 .LLST8
     /tmp/cciR7THS.s:14772  .debug_loc:0000000000001d4f .LLST9
     /tmp/cciR7THS.s:209    .text:0000000000000088 .LBB56
     /tmp/cciR7THS.s:260    .text:00000000000000d0 .LBE56
     /tmp/cciR7THS.s:14786  .debug_loc:0000000000001d88 .LLST10
     /tmp/cciR7THS.s:224    .text:000000000000009c .LBB57
     /tmp/cciR7THS.s:259    .text:00000000000000d0 .LBE57
     /tmp/cciR7THS.s:14802  .debug_loc:0000000000001dd2 .LLST11
     /tmp/cciR7THS.s:14823  .debug_loc:0000000000001e12 .LLST12
     /tmp/cciR7THS.s:278    .text:00000000000000f4 .LVL31
     /tmp/cciR7THS.s:108    .text:0000000000000000 .LFB23
     /tmp/cciR7THS.s:193    .text:0000000000000088 .LFE23
     /tmp/cciR7THS.s:14856  .debug_loc:0000000000001e5e .LLST2
     /tmp/cciR7THS.s:14870  .debug_loc:0000000000001e97 .LLST3
     /tmp/cciR7THS.s:14895  .debug_loc:0000000000001ef9 .LLST4
     /tmp/cciR7THS.s:14920  .debug_loc:0000000000001f5b .LLST5
     /tmp/cciR7THS.s:114    .text:0000000000000000 .LBB55
     /tmp/cciR7THS.s:161    .text:0000000000000050 .LBE55
     /tmp/cciR7THS.s:14934  .debug_loc:0000000000001f94 .LLST6
     /tmp/cciR7THS.s:179    .text:0000000000000074 .LVL21
     /tmp/cciR7THS.s:5504   .text:0000000000002758 .LFB22
     /tmp/cciR7THS.s:5589   .text:00000000000027dc .LFE22
     /tmp/cciR7THS.s:14956  .debug_loc:0000000000001ff3 .LLST127
     /tmp/cciR7THS.s:15025  .debug_loc:00000000000020f9 .LLST128
     /tmp/cciR7THS.s:15087  .debug_loc:00000000000021e9 .LLST129
     /tmp/cciR7THS.s:5531   .text:0000000000002790 .LVL746
GAS LISTING /tmp/cciR7THS.s 			page 199


     /tmp/cciR7THS.s:5549   .text:00000000000027ac .LVL750
     /tmp/cciR7THS.s:5575   .text:00000000000027cc .LVL754
     /tmp/cciR7THS.s:5585   .text:00000000000027d8 .LVL756
     /tmp/cciR7THS.s:5606   .text:00000000000027dc .LFB21
     /tmp/cciR7THS.s:5758   .text:00000000000028e8 .LFE21
     /tmp/cciR7THS.s:15145  .debug_loc:00000000000022c6 .LLST130
     /tmp/cciR7THS.s:15173  .debug_loc:000000000000233a .LLST131
     /tmp/cciR7THS.s:15680  .debug_str:0000000000000c37 .LASF122
     /tmp/cciR7THS.s:15184  .debug_loc:0000000000002370 .LLST132
     /tmp/cciR7THS.s:15452  .debug_str:0000000000000186 .LASF123
     /tmp/cciR7THS.s:15218  .debug_loc:00000000000023ea .LLST133
     /tmp/cciR7THS.s:15606  .debug_str:0000000000000825 .LASF124
     /tmp/cciR7THS.s:15229  .debug_loc:0000000000002420 .LLST134
     /tmp/cciR7THS.s:15249  .debug_loc:000000000000246e .LLST135
     /tmp/cciR7THS.s:5656   .text:0000000000002830 .LVL762
     /tmp/cciR7THS.s:5661   .text:000000000000283c .LVL763
     /tmp/cciR7THS.s:5666   .text:000000000000284c .LVL764
     /tmp/cciR7THS.s:5708   .text:0000000000002888 .LVL769
     /tmp/cciR7THS.s:5725   .text:00000000000028a8 .LVL771
     /tmp/cciR7THS.s:5733   .text:00000000000028c0 .LVL772
     /tmp/cciR7THS.s:44     .text._ZN16KObjectAllocatordlEPv:0000000000000030 .LVL3
     /tmp/cciR7THS.s:53     .text._ZN16KObjectAllocatordlEPv:0000000000000048 .LVL4
     /tmp/cciR7THS.s:15454  .debug_str:0000000000000192 .LASF125
     /tmp/cciR7THS.s:15622  .debug_str:0000000000000944 .LASF126
     /tmp/cciR7THS.s:15436  .debug_str:00000000000000cd .LASF127
     /tmp/cciR7THS.s:11     .text._ZN16KObjectAllocatordlEPv:0000000000000000 .LFB10
     /tmp/cciR7THS.s:97     .text._ZN16KObjectAllocatordlEPv:00000000000000a4 .LFE10
     /tmp/cciR7THS.s:15265  .debug_loc:00000000000024b8 .LLST0
     /tmp/cciR7THS.s:31     .text._ZN16KObjectAllocatordlEPv:000000000000001c .LBB54
     /tmp/cciR7THS.s:59     .text._ZN16KObjectAllocatordlEPv:0000000000000050 .LBE54
     /tmp/cciR7THS.s:15283  .debug_loc:0000000000002504 .LLST1
     /tmp/cciR7THS.s:63     .text._ZN16KObjectAllocatordlEPv:0000000000000058 .LVL6
     /tmp/cciR7THS.s:66     .text._ZN16KObjectAllocatordlEPv:0000000000000064 .LVL7
     /tmp/cciR7THS.s:70     .text._ZN16KObjectAllocatordlEPv:000000000000006c .LVL8
     /tmp/cciR7THS.s:73     .text._ZN16KObjectAllocatordlEPv:0000000000000078 .LVL9
     /tmp/cciR7THS.s:77     .text._ZN16KObjectAllocatordlEPv:0000000000000080 .LVL10
     /tmp/cciR7THS.s:80     .text._ZN16KObjectAllocatordlEPv:000000000000008c .LVL11
     /tmp/cciR7THS.s:15428  .debug_str:000000000000007f .LASF138
     /tmp/cciR7THS.s:15470  .debug_str:0000000000000250 .LASF139
     /tmp/cciR7THS.s:15686  .debug_str:0000000000000ca0 .LASF128
     /tmp/cciR7THS.s:15426  .debug_str:0000000000000073 .LASF130
     /tmp/cciR7THS.s:15550  .debug_str:000000000000059e .LASF129
     /tmp/cciR7THS.s:15494  .debug_str:0000000000000301 .LASF131
     /tmp/cciR7THS.s:4239   .text:0000000000001d9c .LVL588
     /tmp/cciR7THS.s:4493   .text:0000000000001f60 .LVL616
     /tmp/cciR7THS.s:4501   .text:0000000000001f70 .LVL617
     /tmp/cciR7THS.s:4261   .text:0000000000001dc8 .LVL589
     /tmp/cciR7THS.s:4398   .text:0000000000001ec4 .LVL603
     /tmp/cciR7THS.s:4488   .text:0000000000001f58 .LVL615
     /tmp/cciR7THS.s:5462   .text:000000000000273c .LVL741
     /tmp/cciR7THS.s:4659   .text:0000000000002084 .LVL641
     /tmp/cciR7THS.s:4666   .text:0000000000002090 .LVL642
     /tmp/cciR7THS.s:4680   .text:00000000000020b4 .LVL644
     /tmp/cciR7THS.s:4686   .text:00000000000020b8 .LVL645
     /tmp/cciR7THS.s:4752   .text:0000000000002138 .LVL653
     /tmp/cciR7THS.s:4759   .text:0000000000002144 .LVL654
     /tmp/cciR7THS.s:4773   .text:0000000000002168 .LVL656
GAS LISTING /tmp/cciR7THS.s 			page 200


     /tmp/cciR7THS.s:4867   .text:0000000000002224 .LVL673
     /tmp/cciR7THS.s:4948   .text:00000000000022c8 .LVL686
     /tmp/cciR7THS.s:5289   .text:00000000000025bc .LVL724
     /tmp/cciR7THS.s:5375   .text:00000000000026a0 .LVL733
     /tmp/cciR7THS.s:5391   .text:00000000000026bc .LVL735
     /tmp/cciR7THS.s:4275   .text:0000000000001de0 .LVL592
     /tmp/cciR7THS.s:4371   .text:0000000000001ea0 .LVL599
     /tmp/cciR7THS.s:4375   .text:0000000000001ea4 .LVL600
     /tmp/cciR7THS.s:4387   .text:0000000000001eb4 .LVL601
     /tmp/cciR7THS.s:4394   .text:0000000000001ec0 .LVL602
     /tmp/cciR7THS.s:4409   .text:0000000000001ec8 .LVL604
     /tmp/cciR7THS.s:4424   .text:0000000000001ed8 .LVL605
     /tmp/cciR7THS.s:4510   .text:0000000000001f74 .LVL618
     /tmp/cciR7THS.s:4525   .text:0000000000001f84 .LVL619
     /tmp/cciR7THS.s:4580   .text:0000000000001ff8 .LVL629
     /tmp/cciR7THS.s:4586   .text:0000000000001ffc .LVL630
     /tmp/cciR7THS.s:4601   .text:000000000000200c .LVL631
     /tmp/cciR7THS.s:4705   .text:00000000000020dc .LVL647
     /tmp/cciR7THS.s:4728   .text:000000000000210c .LVL651
     /tmp/cciR7THS.s:4811   .text:00000000000021b4 .LVL663
     /tmp/cciR7THS.s:4879   .text:0000000000002234 .LVL674
     /tmp/cciR7THS.s:4964   .text:00000000000022e8 .LVL688
     /tmp/cciR7THS.s:4990   .text:0000000000002318 .LVL692
     /tmp/cciR7THS.s:5021   .text:0000000000002354 .LVL695
     /tmp/cciR7THS.s:3010   .text:00000000000014d4 .LVL399
     /tmp/cciR7THS.s:3272   .text:00000000000016a8 .LVL428
     /tmp/cciR7THS.s:3286   .text:00000000000016c4 .LVL429
     /tmp/cciR7THS.s:3201   .text:0000000000001620 .LVL416
     /tmp/cciR7THS.s:3309   .text:00000000000016d8 .LVL431
     /tmp/cciR7THS.s:3364   .text:000000000000174c .LVL442
     /tmp/cciR7THS.s:3385   .text:000000000000175c .LVL444
     /tmp/cciR7THS.s:3439   .text:00000000000017d0 .LVL454
     /tmp/cciR7THS.s:3444   .text:00000000000017d4 .LVL455
     /tmp/cciR7THS.s:4191   .text:0000000000001d80 .LVL584
     /tmp/cciR7THS.s:4194   .text:0000000000001d84 .LVL585
     /tmp/cciR7THS.s:3176   .text:000000000000160c .LVL414
     /tmp/cciR7THS.s:3267   .text:00000000000016a0 .LVL427
     /tmp/cciR7THS.s:3479   .text:0000000000001814 .LVL460
     /tmp/cciR7THS.s:3961   .text:0000000000001bd4 .LVL544
     /tmp/cciR7THS.s:3967   .text:0000000000001be0 .LVL545
     /tmp/cciR7THS.s:4040   .text:0000000000001c74 .LVL558
     /tmp/cciR7THS.s:4042   .text:0000000000001c78 .LVL559
     /tmp/cciR7THS.s:4052   .text:0000000000001c90 .LVL560
     /tmp/cciR7THS.s:4062   .text:0000000000001c9c .LVL561
     /tmp/cciR7THS.s:3491   .text:000000000000181c .LVL461
     /tmp/cciR7THS.s:3545   .text:0000000000001890 .LVL471
     /tmp/cciR7THS.s:3555   .text:0000000000001898 .LVL472
     /tmp/cciR7THS.s:3609   .text:000000000000190c .LVL482
     /tmp/cciR7THS.s:3619   .text:0000000000001914 .LVL483
     /tmp/cciR7THS.s:3672   .text:0000000000001984 .LVL494
     /tmp/cciR7THS.s:3676   .text:0000000000001988 .LVL495
     /tmp/cciR7THS.s:3680   .text:000000000000198c .LVL496
     /tmp/cciR7THS.s:3763   .text:0000000000001a34 .LVL508
     /tmp/cciR7THS.s:3818   .text:0000000000001aa8 .LVL519
     /tmp/cciR7THS.s:3822   .text:0000000000001aac .LVL520
     /tmp/cciR7THS.s:3826   .text:0000000000001ab0 .LVL521
     /tmp/cciR7THS.s:3877   .text:0000000000001b24 .LVL529
GAS LISTING /tmp/cciR7THS.s 			page 201


     /tmp/cciR7THS.s:3971   .text:0000000000001bec .LVL547
     /tmp/cciR7THS.s:3988   .text:0000000000001c08 .LVL548
     /tmp/cciR7THS.s:4082   .text:0000000000001cb8 .LVL565
     /tmp/cciR7THS.s:4086   .text:0000000000001cbc .LVL566
     /tmp/cciR7THS.s:4125   .text:0000000000001d04 .LVL570
     /tmp/cciR7THS.s:4183   .text:0000000000001d78 .LVL582
     /tmp/cciR7THS.s:3452   .text:00000000000017e0 .LVL456
     /tmp/cciR7THS.s:3466   .text:0000000000001804 .LVL458
     /tmp/cciR7THS.s:3475   .text:000000000000180c .LVL459
     /tmp/cciR7THS.s:3688   .text:0000000000001994 .LVL498
     /tmp/cciR7THS.s:3717   .text:00000000000019e0 .LVL501
     /tmp/cciR7THS.s:3723   .text:00000000000019ec .LVL502
     /tmp/cciR7THS.s:3745   .text:0000000000001a24 .LVL506
     /tmp/cciR7THS.s:3736   .text:0000000000001a0c .LVL504
     /tmp/cciR7THS.s:3621   .text:0000000000001918 .LVL484
     /tmp/cciR7THS.s:3753   .text:0000000000001a2c .LVL507
     /tmp/cciR7THS.s:3816   .text:0000000000001aa4 .LVL518
     /tmp/cciR7THS.s:3949   .text:0000000000001bb8 .LVL541
     /tmp/cciR7THS.s:3951   .text:0000000000001bbc .LVL542
     /tmp/cciR7THS.s:4076   .text:0000000000001cb0 .LVL563
     /tmp/cciR7THS.s:4078   .text:0000000000001cb4 .LVL564
     /tmp/cciR7THS.s:4178   .text:0000000000001d74 .LVL581
     /tmp/cciR7THS.s:4189   .text:0000000000001d7c .LVL583
     /tmp/cciR7THS.s:3038   .text:000000000000150c .LVL400
     /tmp/cciR7THS.s:3051   .text:0000000000001524 .LVL403
     /tmp/cciR7THS.s:3149   .text:00000000000015e8 .LVL410
     /tmp/cciR7THS.s:3153   .text:00000000000015ec .LVL411
     /tmp/cciR7THS.s:3165   .text:00000000000015fc .LVL412
     /tmp/cciR7THS.s:3172   .text:0000000000001608 .LVL413
     /tmp/cciR7THS.s:3187   .text:0000000000001610 .LVL415
     /tmp/cciR7THS.s:3203   .text:0000000000001624 .LVL417
     /tmp/cciR7THS.s:3295   .text:00000000000016c8 .LVL430
     /tmp/cciR7THS.s:3311   .text:00000000000016dc .LVL432
     /tmp/cciR7THS.s:3372   .text:0000000000001750 .LVL443
     /tmp/cciR7THS.s:3897   .text:0000000000001b4c .LVL531
     /tmp/cciR7THS.s:4127   .text:0000000000001d08 .LVL571
     /tmp/cciR7THS.s:1721   .text:0000000000000adc .LVL241
     /tmp/cciR7THS.s:1979   .text:0000000000000ca8 .LVL269
     /tmp/cciR7THS.s:1987   .text:0000000000000cb8 .LVL270
     /tmp/cciR7THS.s:1909   .text:0000000000000c20 .LVL258
     /tmp/cciR7THS.s:2010   .text:0000000000000ccc .LVL272
     /tmp/cciR7THS.s:2064   .text:0000000000000d40 .LVL282
     /tmp/cciR7THS.s:2085   .text:0000000000000d50 .LVL284
     /tmp/cciR7THS.s:2139   .text:0000000000000dc4 .LVL294
     /tmp/cciR7THS.s:2144   .text:0000000000000dc8 .LVL295
     /tmp/cciR7THS.s:2962   .text:00000000000014b8 .LVL395
     /tmp/cciR7THS.s:2965   .text:00000000000014bc .LVL396
     /tmp/cciR7THS.s:1883   .text:0000000000000c0c .LVL256
     /tmp/cciR7THS.s:1974   .text:0000000000000ca0 .LVL268
     /tmp/cciR7THS.s:2152   .text:0000000000000dd4 .LVL296
     /tmp/cciR7THS.s:2168   .text:0000000000000e00 .LVL298
     /tmp/cciR7THS.s:2177   .text:0000000000000e10 .LVL299
     /tmp/cciR7THS.s:2243   .text:0000000000000e90 .LVL307
     /tmp/cciR7THS.s:2250   .text:0000000000000e9c .LVL308
     /tmp/cciR7THS.s:2266   .text:0000000000000ec8 .LVL310
     /tmp/cciR7THS.s:2360   .text:0000000000000f84 .LVL327
     /tmp/cciR7THS.s:2444   .text:0000000000001034 .LVL340
GAS LISTING /tmp/cciR7THS.s 			page 202


     /tmp/cciR7THS.s:2791   .text:0000000000001340 .LVL378
     /tmp/cciR7THS.s:2875   .text:000000000000141c .LVL387
     /tmp/cciR7THS.s:2891   .text:0000000000001438 .LVL389
     /tmp/cciR7THS.s:1744   .text:0000000000000b0c .LVL242
     /tmp/cciR7THS.s:1757   .text:0000000000000b24 .LVL245
     /tmp/cciR7THS.s:1856   .text:0000000000000be8 .LVL252
     /tmp/cciR7THS.s:1860   .text:0000000000000bec .LVL253
     /tmp/cciR7THS.s:1872   .text:0000000000000bfc .LVL254
     /tmp/cciR7THS.s:1879   .text:0000000000000c08 .LVL255
     /tmp/cciR7THS.s:1895   .text:0000000000000c10 .LVL257
     /tmp/cciR7THS.s:1996   .text:0000000000000cbc .LVL271
     /tmp/cciR7THS.s:2072   .text:0000000000000d44 .LVL283
     /tmp/cciR7THS.s:2196   .text:0000000000000e34 .LVL301
     /tmp/cciR7THS.s:2219   .text:0000000000000e64 .LVL305
     /tmp/cciR7THS.s:2304   .text:0000000000000f14 .LVL317
     /tmp/cciR7THS.s:2372   .text:0000000000000f94 .LVL328
     /tmp/cciR7THS.s:2460   .text:0000000000001054 .LVL342
     /tmp/cciR7THS.s:2486   .text:0000000000001084 .LVL346
     /tmp/cciR7THS.s:2517   .text:00000000000010c0 .LVL349
     /tmp/cciR7THS.s:495    .text:000000000000021c .LVL52
     /tmp/cciR7THS.s:755    .text:00000000000003ec .LVL81
     /tmp/cciR7THS.s:767    .text:0000000000000404 .LVL82
     /tmp/cciR7THS.s:684    .text:0000000000000364 .LVL69
     /tmp/cciR7THS.s:790    .text:0000000000000418 .LVL84
     /tmp/cciR7THS.s:845    .text:000000000000048c .LVL95
     /tmp/cciR7THS.s:866    .text:000000000000049c .LVL97
     /tmp/cciR7THS.s:920    .text:0000000000000510 .LVL107
     /tmp/cciR7THS.s:925    .text:0000000000000514 .LVL108
     /tmp/cciR7THS.s:1672   .text:0000000000000ac0 .LVL237
     /tmp/cciR7THS.s:1675   .text:0000000000000ac4 .LVL238
     /tmp/cciR7THS.s:659    .text:0000000000000350 .LVL67
     /tmp/cciR7THS.s:750    .text:00000000000003e4 .LVL80
     /tmp/cciR7THS.s:960    .text:0000000000000554 .LVL113
     /tmp/cciR7THS.s:1442   .text:0000000000000914 .LVL197
     /tmp/cciR7THS.s:1448   .text:0000000000000920 .LVL198
     /tmp/cciR7THS.s:1521   .text:00000000000009b4 .LVL211
     /tmp/cciR7THS.s:1523   .text:00000000000009b8 .LVL212
     /tmp/cciR7THS.s:1533   .text:00000000000009d0 .LVL213
     /tmp/cciR7THS.s:1543   .text:00000000000009dc .LVL214
     /tmp/cciR7THS.s:972    .text:000000000000055c .LVL114
     /tmp/cciR7THS.s:1026   .text:00000000000005d0 .LVL124
     /tmp/cciR7THS.s:1036   .text:00000000000005d8 .LVL125
     /tmp/cciR7THS.s:1090   .text:000000000000064c .LVL135
     /tmp/cciR7THS.s:1100   .text:0000000000000654 .LVL136
     /tmp/cciR7THS.s:1153   .text:00000000000006c4 .LVL147
     /tmp/cciR7THS.s:1157   .text:00000000000006c8 .LVL148
     /tmp/cciR7THS.s:1161   .text:00000000000006cc .LVL149
     /tmp/cciR7THS.s:1244   .text:0000000000000774 .LVL161
     /tmp/cciR7THS.s:1299   .text:00000000000007e8 .LVL172
     /tmp/cciR7THS.s:1303   .text:00000000000007ec .LVL173
     /tmp/cciR7THS.s:1307   .text:00000000000007f0 .LVL174
     /tmp/cciR7THS.s:1358   .text:0000000000000864 .LVL182
     /tmp/cciR7THS.s:1452   .text:000000000000092c .LVL200
     /tmp/cciR7THS.s:1469   .text:0000000000000948 .LVL201
     /tmp/cciR7THS.s:1563   .text:00000000000009f8 .LVL218
     /tmp/cciR7THS.s:1567   .text:00000000000009fc .LVL219
     /tmp/cciR7THS.s:1606   .text:0000000000000a44 .LVL223
GAS LISTING /tmp/cciR7THS.s 			page 203


     /tmp/cciR7THS.s:1664   .text:0000000000000ab8 .LVL235
     /tmp/cciR7THS.s:933    .text:0000000000000520 .LVL109
     /tmp/cciR7THS.s:947    .text:0000000000000544 .LVL111
     /tmp/cciR7THS.s:956    .text:000000000000054c .LVL112
     /tmp/cciR7THS.s:1169   .text:00000000000006d4 .LVL151
     /tmp/cciR7THS.s:1198   .text:0000000000000720 .LVL154
     /tmp/cciR7THS.s:1204   .text:000000000000072c .LVL155
     /tmp/cciR7THS.s:1226   .text:0000000000000764 .LVL159
     /tmp/cciR7THS.s:1217   .text:000000000000074c .LVL157
     /tmp/cciR7THS.s:1102   .text:0000000000000658 .LVL137
     /tmp/cciR7THS.s:1234   .text:000000000000076c .LVL160
     /tmp/cciR7THS.s:1297   .text:00000000000007e4 .LVL171
     /tmp/cciR7THS.s:1430   .text:00000000000008f8 .LVL194
     /tmp/cciR7THS.s:1432   .text:00000000000008fc .LVL195
     /tmp/cciR7THS.s:1557   .text:00000000000009f0 .LVL216
     /tmp/cciR7THS.s:1559   .text:00000000000009f4 .LVL217
     /tmp/cciR7THS.s:1659   .text:0000000000000ab4 .LVL234
     /tmp/cciR7THS.s:1670   .text:0000000000000abc .LVL236
     /tmp/cciR7THS.s:521    .text:0000000000000250 .LVL53
     /tmp/cciR7THS.s:534    .text:0000000000000268 .LVL56
     /tmp/cciR7THS.s:632    .text:000000000000032c .LVL63
     /tmp/cciR7THS.s:636    .text:0000000000000330 .LVL64
     /tmp/cciR7THS.s:648    .text:0000000000000340 .LVL65
     /tmp/cciR7THS.s:655    .text:000000000000034c .LVL66
     /tmp/cciR7THS.s:670    .text:0000000000000354 .LVL68
     /tmp/cciR7THS.s:686    .text:0000000000000368 .LVL70
     /tmp/cciR7THS.s:776    .text:0000000000000408 .LVL83
     /tmp/cciR7THS.s:792    .text:000000000000041c .LVL85
     /tmp/cciR7THS.s:853    .text:0000000000000490 .LVL96
     /tmp/cciR7THS.s:1378   .text:000000000000088c .LVL184
     /tmp/cciR7THS.s:1608   .text:0000000000000a48 .LVL224
     /tmp/cciR7THS.s:398    .text:000000000000018c .LVL43
     /tmp/cciR7THS.s:443    .text:00000000000001d4 .LVL48
     /tmp/cciR7THS.s:454    .text:00000000000001e8 .LVL49
     /tmp/cciR7THS.s:468    .text:0000000000000200 .LVL50
     /tmp/cciR7THS.s:438    .text:00000000000001cc .LVL47
     /tmp/cciR7THS.s:404    .text:0000000000000194 .LVL44
     /tmp/cciR7THS.s:433    .text:00000000000001c0 .LVL46
     /tmp/cciR7THS.s:301    .text:0000000000000108 .LVL32
     /tmp/cciR7THS.s:307    .text:0000000000000110 .LVL33
     /tmp/cciR7THS.s:331    .text:0000000000000134 .LVL35
     /tmp/cciR7THS.s:337    .text:000000000000013c .LVL36
     /tmp/cciR7THS.s:340    .text:0000000000000140 .LVL37
     /tmp/cciR7THS.s:360    .text:0000000000000158 .LVL41
     /tmp/cciR7THS.s:349    .text:000000000000014c .LVL38
     /tmp/cciR7THS.s:353    .text:0000000000000150 .LVL39
     /tmp/cciR7THS.s:355    .text:0000000000000154 .LVL40
     /tmp/cciR7THS.s:207    .text:0000000000000088 .LVL22
     /tmp/cciR7THS.s:213    .text:0000000000000090 .LVL23
     /tmp/cciR7THS.s:255    .text:00000000000000cc .LVL28
     /tmp/cciR7THS.s:263    .text:00000000000000d4 .LVL30
     /tmp/cciR7THS.s:237    .text:00000000000000b4 .LVL25
     /tmp/cciR7THS.s:243    .text:00000000000000bc .LVL26
     /tmp/cciR7THS.s:246    .text:00000000000000c0 .LVL27
     /tmp/cciR7THS.s:258    .text:00000000000000d0 .LVL29
     /tmp/cciR7THS.s:112    .text:0000000000000000 .LVL14
     /tmp/cciR7THS.s:118    .text:0000000000000008 .LVL15
GAS LISTING /tmp/cciR7THS.s 			page 204


     /tmp/cciR7THS.s:152    .text:0000000000000040 .LVL18
     /tmp/cciR7THS.s:164    .text:0000000000000054 .LVL20
     /tmp/cciR7THS.s:158    .text:000000000000004c .LVL19
     /tmp/cciR7THS.s:147    .text:0000000000000034 .LVL17
     /tmp/cciR7THS.s:5507   .text:0000000000002758 .LVL744
     /tmp/cciR7THS.s:5534   .text:0000000000002794 .LVL747
     /tmp/cciR7THS.s:5538   .text:0000000000002798 .LVL748
     /tmp/cciR7THS.s:5540   .text:000000000000279c .LVL749
     /tmp/cciR7THS.s:5552   .text:00000000000027b0 .LVL751
     /tmp/cciR7THS.s:5556   .text:00000000000027b4 .LVL752
     /tmp/cciR7THS.s:5568   .text:00000000000027c4 .LVL753
     /tmp/cciR7THS.s:5578   .text:00000000000027d0 .LVL755
     /tmp/cciR7THS.s:5518   .text:0000000000002770 .LVL745
     /tmp/cciR7THS.s:5609   .text:00000000000027dc .LVL757
     /tmp/cciR7THS.s:5637   .text:0000000000002810 .LVL759
     /tmp/cciR7THS.s:5686   .text:0000000000002864 .LVL765
     /tmp/cciR7THS.s:5694   .text:0000000000002870 .LVL767
     /tmp/cciR7THS.s:5698   .text:0000000000002878 .LVL768
     /tmp/cciR7THS.s:5644   .text:0000000000002818 .LVL760
     /tmp/cciR7THS.s:5751   .text:00000000000028e0 .LVL774
     /tmp/cciR7THS.s:5635   .text:000000000000280c .LVL758
     /tmp/cciR7THS.s:5691   .text:000000000000286c .LVL766
     /tmp/cciR7THS.s:5650   .text:0000000000002820 .LVL761
     /tmp/cciR7THS.s:15     .text._ZN16KObjectAllocatordlEPv:0000000000000000 .LVL0
     /tmp/cciR7THS.s:34     .text._ZN16KObjectAllocatordlEPv:0000000000000020 .LVL2
     /tmp/cciR7THS.s:92     .text._ZN16KObjectAllocatordlEPv:000000000000009c .LVL13
     /tmp/cciR7THS.s:30     .text._ZN16KObjectAllocatordlEPv:000000000000001c .LVL1
     /tmp/cciR7THS.s:89     .text._ZN16KObjectAllocatordlEPv:0000000000000098 .LVL12
     /tmp/cciR7THS.s:5787   .debug_info:0000000000000000 .Ldebug_info0
     /tmp/cciR7THS.s:5      .text:0000000000000000 .Ltext0
     /tmp/cciR7THS.s:5781   .text:00000000000028e8 .Letext0
     /tmp/cciR7THS.s:950    .text:0000000000000544 .LBB131
     /tmp/cciR7THS.s:953    .text:0000000000000548 .LBE131
     /tmp/cciR7THS.s:962    .text:0000000000000554 .LBB143
     /tmp/cciR7THS.s:1229   .text:0000000000000764 .LBE143
     /tmp/cciR7THS.s:963    .text:0000000000000554 .LBB132
     /tmp/cciR7THS.s:1166   .text:00000000000006d0 .LBE132
     /tmp/cciR7THS.s:1174   .text:00000000000006dc .LBB142
     /tmp/cciR7THS.s:1228   .text:0000000000000764 .LBE142
     /tmp/cciR7THS.s:1536   .text:00000000000009d0 .LBB154
     /tmp/cciR7THS.s:1539   .text:00000000000009d4 .LBE154
     /tmp/cciR7THS.s:1545   .text:00000000000009dc .LBB155
     /tmp/cciR7THS.s:1597   .text:0000000000000a3c .LBE155
     /tmp/cciR7THS.s:1656   .text:0000000000000ab0 .LBE156
     /tmp/cciR7THS.s:1660   .text:0000000000000ab4 .LBB160
     /tmp/cciR7THS.s:1667   .text:0000000000000ab8 .LBE160
     /tmp/cciR7THS.s:2223   .text:0000000000000e64 .LBE224
     /tmp/cciR7THS.s:2269   .text:0000000000000ec8 .LBB229
     /tmp/cciR7THS.s:2294   .text:0000000000000f04 .LBE229
     /tmp/cciR7THS.s:2490   .text:0000000000001084 .LBE236
     /tmp/cciR7THS.s:2519   .text:00000000000010c0 .LBB240
     /tmp/cciR7THS.s:2544   .text:00000000000010fc .LBE240
     /tmp/cciR7THS.s:2787   .text:000000000000133c .LBB241
     /tmp/cciR7THS.s:2878   .text:0000000000001420 .LBE241
     /tmp/cciR7THS.s:2893   .text:0000000000001438 .LBB242
     /tmp/cciR7THS.s:2946   .text:0000000000001498 .LBE242
     /tmp/cciR7THS.s:3469   .text:0000000000001804 .LBB313
GAS LISTING /tmp/cciR7THS.s 			page 205


     /tmp/cciR7THS.s:3472   .text:0000000000001808 .LBE313
     /tmp/cciR7THS.s:3481   .text:0000000000001814 .LBB325
     /tmp/cciR7THS.s:3748   .text:0000000000001a24 .LBE325
     /tmp/cciR7THS.s:3482   .text:0000000000001814 .LBB314
     /tmp/cciR7THS.s:3685   .text:0000000000001990 .LBE314
     /tmp/cciR7THS.s:3693   .text:000000000000199c .LBB324
     /tmp/cciR7THS.s:3747   .text:0000000000001a24 .LBE324
     /tmp/cciR7THS.s:4055   .text:0000000000001c90 .LBB336
     /tmp/cciR7THS.s:4058   .text:0000000000001c94 .LBE336
     /tmp/cciR7THS.s:4064   .text:0000000000001c9c .LBB337
     /tmp/cciR7THS.s:4116   .text:0000000000001cfc .LBE337
     /tmp/cciR7THS.s:4175   .text:0000000000001d70 .LBE338
     /tmp/cciR7THS.s:4179   .text:0000000000001d74 .LBB342
     /tmp/cciR7THS.s:4186   .text:0000000000001d78 .LBE342
     /tmp/cciR7THS.s:4732   .text:000000000000210c .LBE402
     /tmp/cciR7THS.s:4776   .text:0000000000002168 .LBB407
     /tmp/cciR7THS.s:4801   .text:00000000000021a4 .LBE407
     /tmp/cciR7THS.s:4994   .text:0000000000002318 .LBE414
     /tmp/cciR7THS.s:5023   .text:0000000000002354 .LBB418
     /tmp/cciR7THS.s:5048   .text:0000000000002390 .LBE418
     /tmp/cciR7THS.s:5285   .text:00000000000025b8 .LBB419
     /tmp/cciR7THS.s:5378   .text:00000000000026a4 .LBE419
     /tmp/cciR7THS.s:5393   .text:00000000000026bc .LBB420
     /tmp/cciR7THS.s:5446   .text:000000000000271c .LBE420
     /tmp/cciR7THS.s:5632   .text:0000000000002808 .LBB421
     /tmp/cciR7THS.s:5671   .text:000000000000284c .LBE421
     /tmp/cciR7THS.s:5701   .text:0000000000002878 .LBB426
     /tmp/cciR7THS.s:5753   .text:00000000000028e0 .LBE426
     /tmp/cciR7THS.s:5646   .text:0000000000002818 .LBB423
     /tmp/cciR7THS.s:5669   .text:000000000000284c .LBE423
     /tmp/cciR7THS.s:5703   .text:0000000000002878 .LBB424
     /tmp/cciR7THS.s:5745   .text:00000000000028d8 .LBE424
     /tmp/cciR7THS.s:1689   .gcc_except_table:0000000000000000 .LLSDA27
     /tmp/cciR7THS.s:2978   .gcc_except_table:0000000000000038 .LLSDA28
     /tmp/cciR7THS.s:4207   .gcc_except_table:0000000000000070 .LLSDA29
     /tmp/cciR7THS.s:5477   .gcc_except_table:00000000000000a8 .LLSDA30

UNDEFINED SYMBOLS
_ZN15MemoryAllocator8instanceEv
_ZN15MemoryAllocator9kmem_freeEPv
_Z11printStringPKc
_ZN15MemoryAllocator10kmem_allocEm
_ZN16KObjectAllocator17allocateNewObjectEv
_ZN16KObjectAllocator10freeObjectEPv
_Unwind_Resume
__gxx_personality_v0
_Z12printIntegerm
