GAS LISTING /tmp/ccrtxsRi.s 			page 1


   1              		.file	"kObjectAllocator.cpp"
   2              		.option pic
   3              		.option norelax
   4              		.text
   5              	.Ltext0:
   6              		.section	.rodata.str1.8,"aMS",@progbits,1
   7              		.align	3
   8              	.LC0:
   9 0000 20202020 		.string	"    "
   9      00
  10 0005 000000   		.align	3
  11              	.LC1:
  12 0008 2000     		.string	" "
  13 000a 00000000 		.align	3
  13      0000
  14              	.LC2:
  15 0010 202000   		.string	"  "
  16 0013 00000000 		.align	3
  16      00
  17              	.LC3:
  18 0018 0A00     		.string	"\n"
  19 001a 00000000 		.align	3
  19      0000
  20              	.LC4:
  21 0020 2D2D2D2D 		.string	"----"
  21      00
  22 0025 000000   		.align	3
  23              	.LC5:
  24 0028 2D2D2D2D 		.string	"----  "
  24      202000
  25              		.text
  26              		.align	2
  27              		.globl	_ZN16KObjectAllocator19printInternalMemoryEv
  29              	_ZN16KObjectAllocator19printInternalMemoryEv:
  30              	.LFB16:
  31              		.file 1 "src/kObjectAllocator.cpp"
   1:src/kObjectAllocator.cpp **** #include "../h/kObjectAllocator.hpp"
   2:src/kObjectAllocator.cpp **** #include "../h/print.hpp"
   3:src/kObjectAllocator.cpp **** 
   4:src/kObjectAllocator.cpp **** void KObjectAllocator::printInternalMemory() {
  32              		.loc 1 4 46
  33              		.cfi_startproc
  34              	.LVL0:
  35 0000 130101FC 		addi	sp,sp,-64
  36              		.cfi_def_cfa_offset 64
  37 0004 233C1102 		sd	ra,56(sp)
  38 0008 23388102 		sd	s0,48(sp)
  39 000c 23349102 		sd	s1,40(sp)
  40 0010 23302103 		sd	s2,32(sp)
  41 0014 233C3101 		sd	s3,24(sp)
  42 0018 23384101 		sd	s4,16(sp)
  43 001c 23345101 		sd	s5,8(sp)
  44 0020 23306101 		sd	s6,0(sp)
  45              		.cfi_offset 1, -8
  46              		.cfi_offset 8, -16
  47              		.cfi_offset 9, -24
  48              		.cfi_offset 18, -32
GAS LISTING /tmp/ccrtxsRi.s 			page 2


  49              		.cfi_offset 19, -40
  50              		.cfi_offset 20, -48
  51              		.cfi_offset 21, -56
  52              		.cfi_offset 22, -64
  53 0024 13040104 		addi	s0,sp,64
  54              		.cfi_def_cfa 8, 0
  55 0028 93040500 		mv	s1,a0
   5:src/kObjectAllocator.cpp ****     size_t segmentSize = 10, printedBytes = 0;
  56              		.loc 1 5 5
  57              	.LVL1:
  58              		.loc 1 5 30 is_stmt 0
  59 002c 930A0000 		li	s5,0
  60 0030 6F00800F 		j	.L11
  61              	.LVL2:
  62              	.L27:
  63              	.LBB2:
  64              	.LBB3:
  65              	.LBB4:
  66              	.LBB5:
   6:src/kObjectAllocator.cpp ****     while (printedBytes < memorySizeForBits) {
   7:src/kObjectAllocator.cpp ****         for (size_t i = 0; i < numberOfAllocations; ++i) {
   8:src/kObjectAllocator.cpp ****             for (size_t j = 0; j < segmentSize; ++j) {
   9:src/kObjectAllocator.cpp ****                 if (j >= memorySizeForBits % segmentSize) printString("    ");
  67              		.loc 1 9 59 is_stmt 1 discriminator 1
  68              		.loc 1 9 70 is_stmt 0 discriminator 1
  69 0034 17050000 		lla	a0,.LC0
  69      13050500 
  70 003c 97000000 		call	_Z11printStringPKc@plt
  70      E7800000 
  71              	.LVL3:
  72 0044 6F000004 		j	.L6
  73              	.L28:
  10:src/kObjectAllocator.cpp ****                 else {
  11:src/kObjectAllocator.cpp ****                     if (bitVectors[i][j + printedBytes] / 100 == 0) printInteger((uint8) 0);
  74              		.loc 1 11 69 is_stmt 1 discriminator 1
  75              		.loc 1 11 81 is_stmt 0 discriminator 1
  76 0048 13050000 		li	a0,0
  77 004c 97000000 		call	_Z12printIntegerm@plt
  77      E7800000 
  78              	.LVL4:
  79 0054 6F000007 		j	.L7
  80              	.L8:
  12:src/kObjectAllocator.cpp ****                     if (bitVectors[i][j + printedBytes] / 10 == 0) printInteger((uint8) 0);
  13:src/kObjectAllocator.cpp ****                     printInteger((uint64) bitVectors[i][j + printedBytes]);
  81              		.loc 1 13 21 is_stmt 1
  82              		.loc 1 13 43 is_stmt 0
  83 0058 83B78402 		ld	a5,40(s1)
  84              		.loc 1 13 55
  85 005c B3876701 		add	a5,a5,s6
  86 0060 83B70700 		ld	a5,0(a5)
  87              		.loc 1 13 73
  88 0064 B3873701 		add	a5,a5,s3
  89              		.loc 1 13 33
  90 0068 03C50700 		lbu	a0,0(a5)
  91 006c 97000000 		call	_Z12printIntegerm@plt
  91      E7800000 
  92              	.LVL5:
GAS LISTING /tmp/ccrtxsRi.s 			page 3


  14:src/kObjectAllocator.cpp ****                     printString(" ");
  93              		.loc 1 14 21 is_stmt 1
  94              		.loc 1 14 32 is_stmt 0
  95 0074 17050000 		lla	a0,.LC1
  95      13050500 
  96 007c 97000000 		call	_Z11printStringPKc@plt
  96      E7800000 
  97              	.LVL6:
  98              	.L6:
   8:src/kObjectAllocator.cpp ****                 if (j >= memorySizeForBits % segmentSize) printString("    ");
  99              		.loc 1 8 13 is_stmt 1 discriminator 2
 100 0084 13091900 		addi	s2,s2,1
 101              	.LVL7:
 102              	.L9:
   8:src/kObjectAllocator.cpp ****                 if (j >= memorySizeForBits % segmentSize) printString("    ");
 103              		.loc 1 8 34 discriminator 1
 104 0088 93079000 		li	a5,9
 105 008c 63E22707 		bgtu	s2,a5,.L4
   9:src/kObjectAllocator.cpp ****                 else {
 106              		.loc 1 9 17
   9:src/kObjectAllocator.cpp ****                 else {
 107              		.loc 1 9 26 is_stmt 0
 108 0090 83B70401 		ld	a5,16(s1)
   9:src/kObjectAllocator.cpp ****                 else {
 109              		.loc 1 9 44
 110 0094 1307A000 		li	a4,10
 111 0098 B3F7E702 		remu	a5,a5,a4
   9:src/kObjectAllocator.cpp ****                 else {
 112              		.loc 1 9 17
 113 009c E37CF9F8 		bleu	a5,s2,.L27
  11:src/kObjectAllocator.cpp ****                     if (bitVectors[i][j + printedBytes] / 10 == 0) printInteger((uint8) 0);
 114              		.loc 1 11 21 is_stmt 1
  11:src/kObjectAllocator.cpp ****                     if (bitVectors[i][j + printedBytes] / 10 == 0) printInteger((uint8) 0);
 115              		.loc 1 11 25 is_stmt 0
 116 00a0 83B78402 		ld	a5,40(s1)
  11:src/kObjectAllocator.cpp ****                     if (bitVectors[i][j + printedBytes] / 10 == 0) printInteger((uint8) 0);
 117              		.loc 1 11 37
 118 00a4 131B3A00 		slli	s6,s4,3
 119 00a8 B3876701 		add	a5,a5,s6
 120 00ac 83B70700 		ld	a5,0(a5)
  11:src/kObjectAllocator.cpp ****                     if (bitVectors[i][j + printedBytes] / 10 == 0) printInteger((uint8) 0);
 121              		.loc 1 11 41
 122 00b0 B3892A01 		add	s3,s5,s2
  11:src/kObjectAllocator.cpp ****                     if (bitVectors[i][j + printedBytes] / 10 == 0) printInteger((uint8) 0);
 123              		.loc 1 11 55
 124 00b4 B3873701 		add	a5,a5,s3
 125 00b8 03C70700 		lbu	a4,0(a5)
  11:src/kObjectAllocator.cpp ****                     if (bitVectors[i][j + printedBytes] / 10 == 0) printInteger((uint8) 0);
 126              		.loc 1 11 21
 127 00bc 93073006 		li	a5,99
 128 00c0 E3F4E7F8 		bleu	a4,a5,.L28
 129              	.L7:
  12:src/kObjectAllocator.cpp ****                     printInteger((uint64) bitVectors[i][j + printedBytes]);
 130              		.loc 1 12 21 is_stmt 1
  12:src/kObjectAllocator.cpp ****                     printInteger((uint64) bitVectors[i][j + printedBytes]);
 131              		.loc 1 12 25 is_stmt 0
 132 00c4 83B78402 		ld	a5,40(s1)
GAS LISTING /tmp/ccrtxsRi.s 			page 4


  12:src/kObjectAllocator.cpp ****                     printInteger((uint64) bitVectors[i][j + printedBytes]);
 133              		.loc 1 12 37
 134 00c8 B3876701 		add	a5,a5,s6
 135 00cc 83B70700 		ld	a5,0(a5)
  12:src/kObjectAllocator.cpp ****                     printInteger((uint64) bitVectors[i][j + printedBytes]);
 136              		.loc 1 12 55
 137 00d0 B3873701 		add	a5,a5,s3
 138 00d4 03C70700 		lbu	a4,0(a5)
  12:src/kObjectAllocator.cpp ****                     printInteger((uint64) bitVectors[i][j + printedBytes]);
 139              		.loc 1 12 21
 140 00d8 93079000 		li	a5,9
 141 00dc E3EEE7F6 		bgtu	a4,a5,.L8
  12:src/kObjectAllocator.cpp ****                     printInteger((uint64) bitVectors[i][j + printedBytes]);
 142              		.loc 1 12 68 is_stmt 1 discriminator 1
  12:src/kObjectAllocator.cpp ****                     printInteger((uint64) bitVectors[i][j + printedBytes]);
 143              		.loc 1 12 80 is_stmt 0 discriminator 1
 144 00e0 13050000 		li	a0,0
 145 00e4 97000000 		call	_Z12printIntegerm@plt
 145      E7800000 
 146              	.LVL8:
 147 00ec 6FF0DFF6 		j	.L8
 148              	.L4:
 149              	.LBE5:
  15:src/kObjectAllocator.cpp ****                 }
  16:src/kObjectAllocator.cpp ****             }
  17:src/kObjectAllocator.cpp ****             printString("  ");
 150              		.loc 1 17 13 is_stmt 1 discriminator 2
 151              		.loc 1 17 24 is_stmt 0 discriminator 2
 152 00f0 17050000 		lla	a0,.LC2
 152      13050500 
 153 00f8 97000000 		call	_Z11printStringPKc@plt
 153      E7800000 
 154              	.LVL9:
 155              	.LBE4:
   7:src/kObjectAllocator.cpp ****             for (size_t j = 0; j < segmentSize; ++j) {
 156              		.loc 1 7 9 is_stmt 1 discriminator 2
 157 0100 130A1A00 		addi	s4,s4,1
 158              	.LVL10:
 159              	.L10:
   7:src/kObjectAllocator.cpp ****             for (size_t j = 0; j < segmentSize; ++j) {
 160              		.loc 1 7 30 discriminator 1
   7:src/kObjectAllocator.cpp ****             for (size_t j = 0; j < segmentSize; ++j) {
 161              		.loc 1 7 32 is_stmt 0 discriminator 1
 162 0104 83B70403 		ld	a5,48(s1)
   7:src/kObjectAllocator.cpp ****             for (size_t j = 0; j < segmentSize; ++j) {
 163              		.loc 1 7 30 discriminator 1
 164 0108 6376FA00 		bleu	a5,s4,.L3
 165              	.LBB7:
 166              	.LBB6:
   8:src/kObjectAllocator.cpp ****                 if (j >= memorySizeForBits % segmentSize) printString("    ");
 167              		.loc 1 8 25
 168 010c 13090000 		li	s2,0
 169 0110 6FF09FF7 		j	.L9
 170              	.L3:
 171              	.LBE6:
 172              	.LBE7:
 173              	.LBE3:
GAS LISTING /tmp/ccrtxsRi.s 			page 5


  18:src/kObjectAllocator.cpp ****         }
  19:src/kObjectAllocator.cpp ****         printString("\n");
 174              		.loc 1 19 9 is_stmt 1
 175              		.loc 1 19 20 is_stmt 0
 176 0114 17050000 		lla	a0,.LC3
 176      13050500 
 177 011c 97000000 		call	_Z11printStringPKc@plt
 177      E7800000 
 178              	.LVL11:
  20:src/kObjectAllocator.cpp ****         printedBytes += segmentSize;
 179              		.loc 1 20 9 is_stmt 1
 180              		.loc 1 20 22 is_stmt 0
 181 0124 938AAA00 		addi	s5,s5,10
 182              	.LVL12:
 183              	.L11:
 184              	.LBE2:
   6:src/kObjectAllocator.cpp ****         for (size_t i = 0; i < numberOfAllocations; ++i) {
 185              		.loc 1 6 5 is_stmt 1
   6:src/kObjectAllocator.cpp ****         for (size_t i = 0; i < numberOfAllocations; ++i) {
 186              		.loc 1 6 25
   6:src/kObjectAllocator.cpp ****         for (size_t i = 0; i < numberOfAllocations; ++i) {
 187              		.loc 1 6 27 is_stmt 0
 188 0128 83B70401 		ld	a5,16(s1)
   6:src/kObjectAllocator.cpp ****         for (size_t i = 0; i < numberOfAllocations; ++i) {
 189              		.loc 1 6 25
 190 012c 63F6FA00 		bleu	a5,s5,.L25
 191              	.LBB9:
 192              	.LBB8:
   7:src/kObjectAllocator.cpp ****             for (size_t j = 0; j < segmentSize; ++j) {
 193              		.loc 1 7 21
 194 0130 130A0000 		li	s4,0
 195 0134 6FF01FFD 		j	.L10
 196              	.L25:
 197              	.LBE8:
 198              	.LBE9:
 199              	.LBB10:
  21:src/kObjectAllocator.cpp ****     }
  22:src/kObjectAllocator.cpp **** 
  23:src/kObjectAllocator.cpp ****     for (size_t i = 0; i < numberOfAllocations; ++i) {
 200              		.loc 1 23 17
 201 0138 93090000 		li	s3,0
 202 013c 6F008001 		j	.L2
 203              	.LVL13:
 204              	.L13:
 205              	.LBB11:
  24:src/kObjectAllocator.cpp ****         for (size_t j = 0; j < segmentSize - 1; ++j)
  25:src/kObjectAllocator.cpp ****             printString("----");
  26:src/kObjectAllocator.cpp ****         printString("----  ");
 206              		.loc 1 26 9 is_stmt 1 discriminator 2
 207              		.loc 1 26 20 is_stmt 0 discriminator 2
 208 0140 17050000 		lla	a0,.LC5
 208      13050500 
 209 0148 97000000 		call	_Z11printStringPKc@plt
 209      E7800000 
 210              	.LVL14:
 211              	.LBE11:
  23:src/kObjectAllocator.cpp ****         for (size_t j = 0; j < segmentSize - 1; ++j)
GAS LISTING /tmp/ccrtxsRi.s 			page 6


 212              		.loc 1 23 5 is_stmt 1 discriminator 2
 213 0150 93891900 		addi	s3,s3,1
 214              	.LVL15:
 215              	.L2:
  23:src/kObjectAllocator.cpp ****         for (size_t j = 0; j < segmentSize - 1; ++j)
 216              		.loc 1 23 26 discriminator 1
  23:src/kObjectAllocator.cpp ****         for (size_t j = 0; j < segmentSize - 1; ++j)
 217              		.loc 1 23 28 is_stmt 0 discriminator 1
 218 0154 83B70403 		ld	a5,48(s1)
  23:src/kObjectAllocator.cpp ****         for (size_t j = 0; j < segmentSize - 1; ++j)
 219              		.loc 1 23 26 discriminator 1
 220 0158 63F4F902 		bleu	a5,s3,.L12
 221              	.LBB13:
 222              	.LBB12:
  24:src/kObjectAllocator.cpp ****         for (size_t j = 0; j < segmentSize - 1; ++j)
 223              		.loc 1 24 21
 224 015c 13090000 		li	s2,0
 225              	.L14:
 226              	.LVL16:
  24:src/kObjectAllocator.cpp ****         for (size_t j = 0; j < segmentSize - 1; ++j)
 227              		.loc 1 24 30 is_stmt 1 discriminator 3
 228 0160 93078000 		li	a5,8
 229 0164 E3EE27FD 		bgtu	s2,a5,.L13
  25:src/kObjectAllocator.cpp ****         printString("----  ");
 230              		.loc 1 25 13 discriminator 2
  25:src/kObjectAllocator.cpp ****         printString("----  ");
 231              		.loc 1 25 24 is_stmt 0 discriminator 2
 232 0168 17050000 		lla	a0,.LC4
 232      13050500 
 233 0170 97000000 		call	_Z11printStringPKc@plt
 233      E7800000 
 234              	.LVL17:
  24:src/kObjectAllocator.cpp ****         for (size_t j = 0; j < segmentSize - 1; ++j)
 235              		.loc 1 24 9 is_stmt 1 discriminator 2
 236 0178 13091900 		addi	s2,s2,1
 237              	.LVL18:
 238 017c 6FF05FFE 		j	.L14
 239              	.LVL19:
 240              	.L12:
 241              	.LBE12:
 242              	.LBE13:
 243              	.LBE10:
  27:src/kObjectAllocator.cpp ****     }
  28:src/kObjectAllocator.cpp ****     printString("\n");
 244              		.loc 1 28 5
 245              		.loc 1 28 16 is_stmt 0
 246 0180 17050000 		lla	a0,.LC3
 246      13050500 
 247 0188 97000000 		call	_Z11printStringPKc@plt
 247      E7800000 
 248              	.LVL20:
  29:src/kObjectAllocator.cpp **** 
  30:src/kObjectAllocator.cpp ****     printedBytes = memorySizeForBits;
 249              		.loc 1 30 5 is_stmt 1
 250              		.loc 1 30 18 is_stmt 0
 251 0190 83BA0401 		ld	s5,16(s1)
 252              	.LVL21:
GAS LISTING /tmp/ccrtxsRi.s 			page 7


 253 0194 6F000010 		j	.L24
 254              	.LVL22:
 255              	.L29:
 256              	.LBB14:
 257              	.LBB15:
 258              	.LBB16:
 259              	.LBB17:
  31:src/kObjectAllocator.cpp ****     while(printedBytes < initialNumberOfObjects * objectSize) {
  32:src/kObjectAllocator.cpp ****         for (size_t i = 0; i < numberOfAllocations; ++i) {
  33:src/kObjectAllocator.cpp ****             for (size_t j = 0; j < segmentSize; ++j) {
  34:src/kObjectAllocator.cpp ****                 if (j >= (initialNumberOfObjects * objectSize) % segmentSize) printString("    ");
 260              		.loc 1 34 79 is_stmt 1 discriminator 1
 261              		.loc 1 34 90 is_stmt 0 discriminator 1
 262 0198 17050000 		lla	a0,.LC0
 262      13050500 
 263 01a0 97000000 		call	_Z11printStringPKc@plt
 263      E7800000 
 264              	.LVL23:
 265 01a8 6F00C004 		j	.L19
 266              	.L30:
  35:src/kObjectAllocator.cpp ****                 else {
  36:src/kObjectAllocator.cpp ****                     if (bitVectors[i][j + printedBytes] / 100 == 0) printInteger((uint8) 0);
 267              		.loc 1 36 69 is_stmt 1 discriminator 1
 268              		.loc 1 36 81 is_stmt 0 discriminator 1
 269 01ac 13050000 		li	a0,0
 270 01b0 97000000 		call	_Z12printIntegerm@plt
 270      E7800000 
 271              	.LVL24:
 272 01b8 6F004008 		j	.L20
 273              	.L31:
  37:src/kObjectAllocator.cpp ****                     if (bitVectors[i][j + printedBytes] / 10 == 0) printInteger((uint8) 0);
 274              		.loc 1 37 68 is_stmt 1 discriminator 1
 275              		.loc 1 37 80 is_stmt 0 discriminator 1
 276 01bc 13050000 		li	a0,0
 277 01c0 97000000 		call	_Z12printIntegerm@plt
 277      E7800000 
 278              	.LVL25:
 279              	.L21:
  38:src/kObjectAllocator.cpp ****                     printInteger((uint64) bitVectors[i][j + printedBytes]);
 280              		.loc 1 38 21 is_stmt 1
 281              		.loc 1 38 43 is_stmt 0
 282 01c8 83B78402 		ld	a5,40(s1)
 283              		.loc 1 38 55
 284 01cc B3876701 		add	a5,a5,s6
 285 01d0 83B70700 		ld	a5,0(a5)
 286              		.loc 1 38 73
 287 01d4 B3873701 		add	a5,a5,s3
 288              		.loc 1 38 33
 289 01d8 03C50700 		lbu	a0,0(a5)
 290 01dc 97000000 		call	_Z12printIntegerm@plt
 290      E7800000 
 291              	.LVL26:
  39:src/kObjectAllocator.cpp ****                     printString(" ");
 292              		.loc 1 39 21 is_stmt 1
 293              		.loc 1 39 32 is_stmt 0
 294 01e4 17050000 		lla	a0,.LC1
 294      13050500 
GAS LISTING /tmp/ccrtxsRi.s 			page 8


 295 01ec 97000000 		call	_Z11printStringPKc@plt
 295      E7800000 
 296              	.LVL27:
 297              	.L19:
  33:src/kObjectAllocator.cpp ****                 if (j >= (initialNumberOfObjects * objectSize) % segmentSize) printString("    ");
 298              		.loc 1 33 13 is_stmt 1 discriminator 2
 299 01f4 13091900 		addi	s2,s2,1
 300              	.LVL28:
 301              	.L22:
  33:src/kObjectAllocator.cpp ****                 if (j >= (initialNumberOfObjects * objectSize) % segmentSize) printString("    ");
 302              		.loc 1 33 34 discriminator 1
 303 01f8 93079000 		li	a5,9
 304 01fc 63E02707 		bgtu	s2,a5,.L17
  34:src/kObjectAllocator.cpp ****                 else {
 305              		.loc 1 34 17
  34:src/kObjectAllocator.cpp ****                 else {
 306              		.loc 1 34 27 is_stmt 0
 307 0200 83B70400 		ld	a5,0(s1)
  34:src/kObjectAllocator.cpp ****                 else {
 308              		.loc 1 34 52
 309 0204 03B78401 		ld	a4,24(s1)
  34:src/kObjectAllocator.cpp ****                 else {
 310              		.loc 1 34 50
 311 0208 B387E702 		mul	a5,a5,a4
  34:src/kObjectAllocator.cpp ****                 else {
 312              		.loc 1 34 64
 313 020c 1307A000 		li	a4,10
 314 0210 B3F7E702 		remu	a5,a5,a4
  34:src/kObjectAllocator.cpp ****                 else {
 315              		.loc 1 34 17
 316 0214 E372F9F8 		bleu	a5,s2,.L29
  36:src/kObjectAllocator.cpp ****                     if (bitVectors[i][j + printedBytes] / 10 == 0) printInteger((uint8) 0);
 317              		.loc 1 36 21 is_stmt 1
  36:src/kObjectAllocator.cpp ****                     if (bitVectors[i][j + printedBytes] / 10 == 0) printInteger((uint8) 0);
 318              		.loc 1 36 25 is_stmt 0
 319 0218 83B78402 		ld	a5,40(s1)
  36:src/kObjectAllocator.cpp ****                     if (bitVectors[i][j + printedBytes] / 10 == 0) printInteger((uint8) 0);
 320              		.loc 1 36 37
 321 021c 131B3A00 		slli	s6,s4,3
 322 0220 B3876701 		add	a5,a5,s6
 323 0224 83B70700 		ld	a5,0(a5)
  36:src/kObjectAllocator.cpp ****                     if (bitVectors[i][j + printedBytes] / 10 == 0) printInteger((uint8) 0);
 324              		.loc 1 36 41
 325 0228 B3892A01 		add	s3,s5,s2
  36:src/kObjectAllocator.cpp ****                     if (bitVectors[i][j + printedBytes] / 10 == 0) printInteger((uint8) 0);
 326              		.loc 1 36 55
 327 022c B3873701 		add	a5,a5,s3
 328 0230 03C70700 		lbu	a4,0(a5)
  36:src/kObjectAllocator.cpp ****                     if (bitVectors[i][j + printedBytes] / 10 == 0) printInteger((uint8) 0);
 329              		.loc 1 36 21
 330 0234 93073006 		li	a5,99
 331 0238 E3FAE7F6 		bleu	a4,a5,.L30
 332              	.L20:
  37:src/kObjectAllocator.cpp ****                     printInteger((uint64) bitVectors[i][j + printedBytes]);
 333              		.loc 1 37 21 is_stmt 1
  37:src/kObjectAllocator.cpp ****                     printInteger((uint64) bitVectors[i][j + printedBytes]);
 334              		.loc 1 37 25 is_stmt 0
GAS LISTING /tmp/ccrtxsRi.s 			page 9


 335 023c 83B78402 		ld	a5,40(s1)
  37:src/kObjectAllocator.cpp ****                     printInteger((uint64) bitVectors[i][j + printedBytes]);
 336              		.loc 1 37 37
 337 0240 B3876701 		add	a5,a5,s6
 338 0244 83B70700 		ld	a5,0(a5)
  37:src/kObjectAllocator.cpp ****                     printInteger((uint64) bitVectors[i][j + printedBytes]);
 339              		.loc 1 37 55
 340 0248 B3873701 		add	a5,a5,s3
 341 024c 03C70700 		lbu	a4,0(a5)
  37:src/kObjectAllocator.cpp ****                     printInteger((uint64) bitVectors[i][j + printedBytes]);
 342              		.loc 1 37 21
 343 0250 93079000 		li	a5,9
 344 0254 E3EAE7F6 		bgtu	a4,a5,.L21
 345 0258 6FF05FF6 		j	.L31
 346              	.L17:
 347              	.LBE17:
  40:src/kObjectAllocator.cpp ****                 }
  41:src/kObjectAllocator.cpp ****             }
  42:src/kObjectAllocator.cpp ****             printString("  ");
 348              		.loc 1 42 13 is_stmt 1 discriminator 2
 349              		.loc 1 42 24 is_stmt 0 discriminator 2
 350 025c 17050000 		lla	a0,.LC2
 350      13050500 
 351 0264 97000000 		call	_Z11printStringPKc@plt
 351      E7800000 
 352              	.LVL29:
 353              	.LBE16:
  32:src/kObjectAllocator.cpp ****             for (size_t j = 0; j < segmentSize; ++j) {
 354              		.loc 1 32 9 is_stmt 1 discriminator 2
 355 026c 130A1A00 		addi	s4,s4,1
 356              	.LVL30:
 357              	.L23:
  32:src/kObjectAllocator.cpp ****             for (size_t j = 0; j < segmentSize; ++j) {
 358              		.loc 1 32 30 discriminator 1
  32:src/kObjectAllocator.cpp ****             for (size_t j = 0; j < segmentSize; ++j) {
 359              		.loc 1 32 32 is_stmt 0 discriminator 1
 360 0270 83B70403 		ld	a5,48(s1)
  32:src/kObjectAllocator.cpp ****             for (size_t j = 0; j < segmentSize; ++j) {
 361              		.loc 1 32 30 discriminator 1
 362 0274 6376FA00 		bleu	a5,s4,.L16
 363              	.LBB19:
 364              	.LBB18:
  33:src/kObjectAllocator.cpp ****                 if (j >= (initialNumberOfObjects * objectSize) % segmentSize) printString("    ");
 365              		.loc 1 33 25
 366 0278 13090000 		li	s2,0
 367 027c 6FF0DFF7 		j	.L22
 368              	.L16:
 369              	.LBE18:
 370              	.LBE19:
 371              	.LBE15:
  43:src/kObjectAllocator.cpp ****         }
  44:src/kObjectAllocator.cpp ****         printString("\n");
 372              		.loc 1 44 9 is_stmt 1
 373              		.loc 1 44 20 is_stmt 0
 374 0280 17050000 		lla	a0,.LC3
 374      13050500 
 375 0288 97000000 		call	_Z11printStringPKc@plt
GAS LISTING /tmp/ccrtxsRi.s 			page 10


 375      E7800000 
 376              	.LVL31:
  45:src/kObjectAllocator.cpp ****         printedBytes += segmentSize;
 377              		.loc 1 45 9 is_stmt 1
 378              		.loc 1 45 22 is_stmt 0
 379 0290 938AAA00 		addi	s5,s5,10
 380              	.LVL32:
 381              	.L24:
 382              	.LBE14:
  31:src/kObjectAllocator.cpp ****         for (size_t i = 0; i < numberOfAllocations; ++i) {
 383              		.loc 1 31 5 is_stmt 1
  31:src/kObjectAllocator.cpp ****         for (size_t i = 0; i < numberOfAllocations; ++i) {
 384              		.loc 1 31 24
  31:src/kObjectAllocator.cpp ****         for (size_t i = 0; i < numberOfAllocations; ++i) {
 385              		.loc 1 31 26 is_stmt 0
 386 0294 83B70400 		ld	a5,0(s1)
  31:src/kObjectAllocator.cpp ****         for (size_t i = 0; i < numberOfAllocations; ++i) {
 387              		.loc 1 31 51
 388 0298 03B78401 		ld	a4,24(s1)
  31:src/kObjectAllocator.cpp ****         for (size_t i = 0; i < numberOfAllocations; ++i) {
 389              		.loc 1 31 49
 390 029c B387E702 		mul	a5,a5,a4
  31:src/kObjectAllocator.cpp ****         for (size_t i = 0; i < numberOfAllocations; ++i) {
 391              		.loc 1 31 24
 392 02a0 63F6FA00 		bleu	a5,s5,.L1
 393              	.LBB21:
 394              	.LBB20:
  32:src/kObjectAllocator.cpp ****             for (size_t j = 0; j < segmentSize; ++j) {
 395              		.loc 1 32 21
 396 02a4 130A0000 		li	s4,0
 397 02a8 6FF09FFC 		j	.L23
 398              	.L1:
 399              	.LBE20:
 400              	.LBE21:
  46:src/kObjectAllocator.cpp ****     }
  47:src/kObjectAllocator.cpp **** }
 401              		.loc 1 47 1
 402 02ac 83308103 		ld	ra,56(sp)
 403              		.cfi_restore 1
 404 02b0 03340103 		ld	s0,48(sp)
 405              		.cfi_restore 8
 406              		.cfi_def_cfa 2, 64
 407 02b4 83348102 		ld	s1,40(sp)
 408              		.cfi_restore 9
 409              	.LVL33:
 410 02b8 03390102 		ld	s2,32(sp)
 411              		.cfi_restore 18
 412 02bc 83398101 		ld	s3,24(sp)
 413              		.cfi_restore 19
 414 02c0 033A0101 		ld	s4,16(sp)
 415              		.cfi_restore 20
 416 02c4 833A8100 		ld	s5,8(sp)
 417              		.cfi_restore 21
 418              	.LVL34:
 419 02c8 033B0100 		ld	s6,0(sp)
 420              		.cfi_restore 22
 421 02cc 13010104 		addi	sp,sp,64
GAS LISTING /tmp/ccrtxsRi.s 			page 11


 422              		.cfi_def_cfa_offset 0
 423 02d0 67800000 		jr	ra
 424              		.cfi_endproc
 425              	.LFE16:
 427              		.section	.rodata.str1.8
 428 002f 00       		.align	3
 429              	.LC6:
 430 0030 3D3D3D3D 		.string	"========================"
 430      3D3D3D3D 
 430      3D3D3D3D 
 430      3D3D3D3D 
 430      3D3D3D3D 
 431 0049 00000000 		.align	3
 431      000000
 432              	.LC7:
 433 0050 0A535543 		.string	"\nSUCCESS:\n"
 433      43455353 
 433      3A0A00
 434 005b 00000000 		.align	3
 434      00
 435              	.LC8:
 436 0060 693A2000 		.string	"i: "
 437 0064 00000000 		.align	3
 438              	.LC9:
 439 0068 6A3A2000 		.string	"j: "
 440 006c 00000000 		.align	3
 441              	.LC10:
 442 0070 6E657874 		.string	"nextNonTakenByte: "
 442      4E6F6E54 
 442      616B656E 
 442      42797465 
 442      3A2000
 443 0083 00000000 		.align	3
 443      00
 444              	.LC11:
 445 0088 42797465 		.string	"Byte: "
 445      3A2000
 446 008f 00       		.align	3
 447              	.LC12:
 448 0090 4269743A 		.string	"Bit: "
 448      2000
 449              		.text
 450              		.align	2
 451              		.globl	_ZN16KObjectAllocator18allocateFreeObjectEv
 453              	_ZN16KObjectAllocator18allocateFreeObjectEv:
 454              	.LFB18:
  48:src/kObjectAllocator.cpp **** 
  49:src/kObjectAllocator.cpp **** void* KObjectAllocator::allocateNewObject() {
  50:src/kObjectAllocator.cpp ****     void* returnedObject = allocateFreeObject();
  51:src/kObjectAllocator.cpp ****     if (returnedObject) {
  52:src/kObjectAllocator.cpp ****         printString("\nreturn1: ");
  53:src/kObjectAllocator.cpp ****         printInteger((uint64) returnedObject);
  54:src/kObjectAllocator.cpp ****         return returnedObject;
  55:src/kObjectAllocator.cpp ****     }
  56:src/kObjectAllocator.cpp **** 
  57:src/kObjectAllocator.cpp ****     nextNonTakenByte = 0;   // start search from start
  58:src/kObjectAllocator.cpp ****     returnedObject = allocateFreeObject();
GAS LISTING /tmp/ccrtxsRi.s 			page 12


  59:src/kObjectAllocator.cpp ****     if (returnedObject) {
  60:src/kObjectAllocator.cpp ****         printString("\nreturn2: ");
  61:src/kObjectAllocator.cpp ****         printInteger((uint64) returnedObject);
  62:src/kObjectAllocator.cpp ****         return returnedObject;
  63:src/kObjectAllocator.cpp ****     }
  64:src/kObjectAllocator.cpp **** 
  65:src/kObjectAllocator.cpp **** 
  66:src/kObjectAllocator.cpp ****     if (handleNotEnoughMemoryProblem()) {
  67:src/kObjectAllocator.cpp ****         returnedObject = allocateFreeObject();
  68:src/kObjectAllocator.cpp ****         if (returnedObject) {
  69:src/kObjectAllocator.cpp ****             printString("\nreturn3: ");
  70:src/kObjectAllocator.cpp ****             printInteger((uint64) returnedObject);
  71:src/kObjectAllocator.cpp ****             return returnedObject;
  72:src/kObjectAllocator.cpp ****         }
  73:src/kObjectAllocator.cpp ****     }
  74:src/kObjectAllocator.cpp ****     return nullptr;
  75:src/kObjectAllocator.cpp **** }
  76:src/kObjectAllocator.cpp **** 
  77:src/kObjectAllocator.cpp **** void* KObjectAllocator::allocateFreeObject() {
 455              		.loc 1 77 46 is_stmt 1
 456              		.cfi_startproc
 457              	.LVL35:
 458 02d4 130101FB 		addi	sp,sp,-80
 459              		.cfi_def_cfa_offset 80
 460 02d8 23341104 		sd	ra,72(sp)
 461 02dc 23308104 		sd	s0,64(sp)
 462 02e0 233C9102 		sd	s1,56(sp)
 463 02e4 23382103 		sd	s2,48(sp)
 464 02e8 23343103 		sd	s3,40(sp)
 465 02ec 23304103 		sd	s4,32(sp)
 466 02f0 233C5101 		sd	s5,24(sp)
 467 02f4 23386101 		sd	s6,16(sp)
 468 02f8 23347101 		sd	s7,8(sp)
 469              		.cfi_offset 1, -8
 470              		.cfi_offset 8, -16
 471              		.cfi_offset 9, -24
 472              		.cfi_offset 18, -32
 473              		.cfi_offset 19, -40
 474              		.cfi_offset 20, -48
 475              		.cfi_offset 21, -56
 476              		.cfi_offset 22, -64
 477              		.cfi_offset 23, -72
 478 02fc 13040105 		addi	s0,sp,80
 479              		.cfi_def_cfa 8, 0
 480 0300 130A0500 		mv	s4,a0
  78:src/kObjectAllocator.cpp ****     for (size_t i = 0; i < numberOfAllocations; ++i) {
 481              		.loc 1 78 5
 482              	.LVL36:
 483              	.LBB22:
 484              		.loc 1 78 17 is_stmt 0
 485 0304 930A0000 		li	s5,0
 486              	.LVL37:
 487              	.L39:
 488              		.loc 1 78 26 is_stmt 1 discriminator 1
 489              		.loc 1 78 28 is_stmt 0 discriminator 1
 490 0308 83370A03 		ld	a5,48(s4)
 491              		.loc 1 78 26 discriminator 1
GAS LISTING /tmp/ccrtxsRi.s 			page 13


 492 030c 63FEFA1E 		bleu	a5,s5,.L40
 493              	.LBE22:
  79:src/kObjectAllocator.cpp ****         for (size_t j = nextNonTakenByte; j >= i * memorySizeForBits && j < (i + 1) * memorySizeFor
 494              		.loc 1 79 9 is_stmt 1
 495              	.LBB29:
 496              	.LBB23:
 497              		.loc 1 79 21 is_stmt 0
 498 0310 033B8A03 		ld	s6,56(s4)
 499              	.LVL38:
 500 0314 6F008019 		j	.L38
 501              	.LVL39:
 502              	.L42:
 503              	.LBB24:
 504              	.LBB25:
  80:src/kObjectAllocator.cpp ****             size_t byte = j - i * memorySizeForBits;
  81:src/kObjectAllocator.cpp ****             for (size_t bit = 8; bit != 0; --bit) {
  82:src/kObjectAllocator.cpp **** 
  83:src/kObjectAllocator.cpp ****                 /*printString("\ntest:\n");
  84:src/kObjectAllocator.cpp ****                 printString("i: "); printInteger(i); printString("\n");
  85:src/kObjectAllocator.cpp ****                 printString("j: "); printInteger(j); printString("\n");
  86:src/kObjectAllocator.cpp ****                 printString("nextNonTakenByte: "); printInteger(nextNonTakenByte); printString("\n"
  87:src/kObjectAllocator.cpp ****                 printString("Byte: "); printInteger(byte); printString("\n");
  88:src/kObjectAllocator.cpp ****                 printString("Bit: "); printInteger(bit); printString("\n");
  89:src/kObjectAllocator.cpp ****                 printString("ifCondition: ");
  90:src/kObjectAllocator.cpp ****                 printInteger((bitVectors[i][byte] >> (bit - 1) & (uint8) 1) == 0); printString("\n"
  91:src/kObjectAllocator.cpp ****                 if ((bitVectors[i][byte] >> (bit - 1) & (uint8) 1) == 0) {
  92:src/kObjectAllocator.cpp ****                     printString("========================");
 505              		.loc 1 92 21 is_stmt 1
 506              		.loc 1 92 32 is_stmt 0
 507 0318 17050000 		lla	a0,.LC6
 507      13050500 
 508              	.LVL40:
 509 0320 97000000 		call	_Z11printStringPKc@plt
 509      E7800000 
 510              	.LVL41:
  93:src/kObjectAllocator.cpp ****                     printString("\nSUCCESS:\n");
 511              		.loc 1 93 21 is_stmt 1
 512              		.loc 1 93 32 is_stmt 0
 513 0328 17050000 		lla	a0,.LC7
 513      13050500 
 514 0330 97000000 		call	_Z11printStringPKc@plt
 514      E7800000 
 515              	.LVL42:
  94:src/kObjectAllocator.cpp ****                     printString("i: "); printInteger(i); printString("\n");
 516              		.loc 1 94 21 is_stmt 1
 517              		.loc 1 94 32 is_stmt 0
 518 0338 17050000 		lla	a0,.LC8
 518      13050500 
 519 0340 97000000 		call	_Z11printStringPKc@plt
 519      E7800000 
 520              	.LVL43:
 521              		.loc 1 94 41 is_stmt 1
 522              		.loc 1 94 53 is_stmt 0
 523 0348 13850A00 		mv	a0,s5
 524 034c 97000000 		call	_Z12printIntegerm@plt
 524      E7800000 
 525              	.LVL44:
GAS LISTING /tmp/ccrtxsRi.s 			page 14


 526              		.loc 1 94 58 is_stmt 1
 527              		.loc 1 94 69 is_stmt 0
 528 0354 17050000 		lla	a0,.LC3
 528      13050500 
 529 035c 97000000 		call	_Z11printStringPKc@plt
 529      E7800000 
 530              	.LVL45:
  95:src/kObjectAllocator.cpp ****                     printString("j: "); printInteger(j); printString("\n");
 531              		.loc 1 95 21 is_stmt 1
 532              		.loc 1 95 32 is_stmt 0
 533 0364 17050000 		lla	a0,.LC9
 533      13050500 
 534 036c 97000000 		call	_Z11printStringPKc@plt
 534      E7800000 
 535              	.LVL46:
 536              		.loc 1 95 41 is_stmt 1
 537              		.loc 1 95 53 is_stmt 0
 538 0374 13050B00 		mv	a0,s6
 539 0378 97000000 		call	_Z12printIntegerm@plt
 539      E7800000 
 540              	.LVL47:
 541              		.loc 1 95 58 is_stmt 1
 542              		.loc 1 95 69 is_stmt 0
 543 0380 17050000 		lla	a0,.LC3
 543      13050500 
 544 0388 97000000 		call	_Z11printStringPKc@plt
 544      E7800000 
 545              	.LVL48:
  96:src/kObjectAllocator.cpp ****                     printString("nextNonTakenByte: "); printInteger(nextNonTakenByte); printString(
 546              		.loc 1 96 21 is_stmt 1
 547              		.loc 1 96 32 is_stmt 0
 548 0390 17050000 		lla	a0,.LC10
 548      13050500 
 549 0398 97000000 		call	_Z11printStringPKc@plt
 549      E7800000 
 550              	.LVL49:
 551              		.loc 1 96 56 is_stmt 1
 552              		.loc 1 96 68 is_stmt 0
 553 03a0 03358A03 		ld	a0,56(s4)
 554 03a4 97000000 		call	_Z12printIntegerm@plt
 554      E7800000 
 555              	.LVL50:
 556              		.loc 1 96 88 is_stmt 1
 557              		.loc 1 96 99 is_stmt 0
 558 03ac 17050000 		lla	a0,.LC3
 558      13050500 
 559 03b4 97000000 		call	_Z11printStringPKc@plt
 559      E7800000 
 560              	.LVL51:
  97:src/kObjectAllocator.cpp ****                     printString("Byte: "); printInteger(byte); printString("\n");
 561              		.loc 1 97 21 is_stmt 1
 562              		.loc 1 97 32 is_stmt 0
 563 03bc 17050000 		lla	a0,.LC11
 563      13050500 
 564 03c4 97000000 		call	_Z11printStringPKc@plt
 564      E7800000 
 565              	.LVL52:
GAS LISTING /tmp/ccrtxsRi.s 			page 15


 566              		.loc 1 97 44 is_stmt 1
 567              		.loc 1 97 56 is_stmt 0
 568 03cc 13050900 		mv	a0,s2
 569 03d0 97000000 		call	_Z12printIntegerm@plt
 569      E7800000 
 570              	.LVL53:
 571              		.loc 1 97 64 is_stmt 1
 572              		.loc 1 97 75 is_stmt 0
 573 03d8 17050000 		lla	a0,.LC3
 573      13050500 
 574 03e0 97000000 		call	_Z11printStringPKc@plt
 574      E7800000 
 575              	.LVL54:
  98:src/kObjectAllocator.cpp ****                     printString("Bit: "); printInteger(bit); printString("\n");
 576              		.loc 1 98 21 is_stmt 1
 577              		.loc 1 98 32 is_stmt 0
 578 03e8 17050000 		lla	a0,.LC12
 578      13050500 
 579 03f0 97000000 		call	_Z11printStringPKc@plt
 579      E7800000 
 580              	.LVL55:
 581              		.loc 1 98 43 is_stmt 1
 582              		.loc 1 98 55 is_stmt 0
 583 03f8 13850400 		mv	a0,s1
 584 03fc 97000000 		call	_Z12printIntegerm@plt
 584      E7800000 
 585              	.LVL56:
 586              		.loc 1 98 62 is_stmt 1
 587              		.loc 1 98 73 is_stmt 0
 588 0404 17050000 		lla	a0,.LC3
 588      13050500 
 589 040c 97000000 		call	_Z11printStringPKc@plt
 589      E7800000 
 590              	.LVL57:
  99:src/kObjectAllocator.cpp ****                     printString("========================");
 591              		.loc 1 99 21 is_stmt 1
 592              		.loc 1 99 32 is_stmt 0
 593 0414 17050000 		lla	a0,.LC6
 593      13050500 
 594 041c 97000000 		call	_Z11printStringPKc@plt
 594      E7800000 
 595              	.LVL58:
 100:src/kObjectAllocator.cpp ****                     nextNonTakenByte = j + (bit == 1);
 596              		.loc 1 100 21 is_stmt 1
 597              		.loc 1 100 49 is_stmt 0
 598 0424 9387F4FF 		addi	a5,s1,-1
 599 0428 93B71700 		seqz	a5,a5
 600              		.loc 1 100 42
 601 042c 338B6701 		add	s6,a5,s6
 602              	.LVL59:
 603              		.loc 1 100 38
 604 0430 233C6A03 		sd	s6,56(s4)
 101:src/kObjectAllocator.cpp ****                     bitVectors[i][byte] |= (uint8) 1 << (bit - 1);
 605              		.loc 1 101 21 is_stmt 1
 606 0434 83378A02 		ld	a5,40(s4)
 607              		.loc 1 101 33 is_stmt 0
 608 0438 B3873701 		add	a5,a5,s3
GAS LISTING /tmp/ccrtxsRi.s 			page 16


 609 043c 03B70700 		ld	a4,0(a5)
 610              		.loc 1 101 41
 611 0440 33072701 		add	a4,a4,s2
 612              		.loc 1 101 54
 613 0444 93071000 		li	a5,1
 614 0448 BB9B7701 		sllw	s7,a5,s7
 615              		.loc 1 101 41
 616 044c 83470700 		lbu	a5,0(a4)
 617 0450 B3EBFB00 		or	s7,s7,a5
 618 0454 23007701 		sb	s7,0(a4)
 102:src/kObjectAllocator.cpp ****                     return &objectVectors[i][(byte * 8 + 8 - bit) * objectSize];
 619              		.loc 1 102 21 is_stmt 1
 620              		.loc 1 102 29 is_stmt 0
 621 0458 83370A02 		ld	a5,32(s4)
 622              		.loc 1 102 44
 623 045c B3893701 		add	s3,a5,s3
 624 0460 83B70900 		ld	a5,0(s3)
 625              		.loc 1 102 56
 626 0464 13091900 		addi	s2,s2,1
 627              	.LVL60:
 628 0468 13153900 		slli	a0,s2,3
 629              		.loc 1 102 60
 630 046c B3049540 		sub	s1,a0,s1
 631              	.LVL61:
 632              		.loc 1 102 69
 633 0470 03358A01 		ld	a0,24(s4)
 634              		.loc 1 102 67
 635 0474 3385A402 		mul	a0,s1,a0
 636              		.loc 1 102 79
 637 0478 3385A700 		add	a0,a5,a0
 638              	.LVL62:
 639              	.L32:
 640              	.LBE25:
 641              	.LBE24:
 642              	.LBE23:
 643              	.LBE29:
 103:src/kObjectAllocator.cpp ****                 }
 104:src/kObjectAllocator.cpp ****             }
 105:src/kObjectAllocator.cpp ****         }
 106:src/kObjectAllocator.cpp ****     }
 107:src/kObjectAllocator.cpp ****     return nullptr;
 108:src/kObjectAllocator.cpp **** }
 644              		.loc 1 108 1
 645 047c 83308104 		ld	ra,72(sp)
 646              		.cfi_remember_state
 647              		.cfi_restore 1
 648 0480 03340104 		ld	s0,64(sp)
 649              		.cfi_restore 8
 650              		.cfi_def_cfa 2, 80
 651 0484 83348103 		ld	s1,56(sp)
 652              		.cfi_restore 9
 653 0488 03390103 		ld	s2,48(sp)
 654              		.cfi_restore 18
 655 048c 83398102 		ld	s3,40(sp)
 656              		.cfi_restore 19
 657 0490 033A0102 		ld	s4,32(sp)
 658              		.cfi_restore 20
GAS LISTING /tmp/ccrtxsRi.s 			page 17


 659              	.LVL63:
 660 0494 833A8101 		ld	s5,24(sp)
 661              		.cfi_restore 21
 662              	.LVL64:
 663 0498 033B0101 		ld	s6,16(sp)
 664              		.cfi_restore 22
 665 049c 833B8100 		ld	s7,8(sp)
 666              		.cfi_restore 23
 667 04a0 13010105 		addi	sp,sp,80
 668              		.cfi_def_cfa_offset 0
 669 04a4 67800000 		jr	ra
 670              	.LVL65:
 671              	.L35:
 672              		.cfi_restore_state
 673              	.LBB30:
 674              	.LBB28:
  79:src/kObjectAllocator.cpp ****             size_t byte = j - i * memorySizeForBits;
 675              		.loc 1 79 9 is_stmt 1 discriminator 3
 676 04a8 130B1B00 		addi	s6,s6,1
 677              	.LVL66:
 678              	.L38:
  79:src/kObjectAllocator.cpp ****             size_t byte = j - i * memorySizeForBits;
 679              		.loc 1 79 70 discriminator 1
  79:src/kObjectAllocator.cpp ****             size_t byte = j - i * memorySizeForBits;
 680              		.loc 1 79 52 is_stmt 0 discriminator 1
 681 04ac 83370A01 		ld	a5,16(s4)
  79:src/kObjectAllocator.cpp ****             size_t byte = j - i * memorySizeForBits;
 682              		.loc 1 79 50 discriminator 1
 683 04b0 33895703 		mul	s2,a5,s5
  79:src/kObjectAllocator.cpp ****             size_t byte = j - i * memorySizeForBits;
 684              		.loc 1 79 70 discriminator 1
 685 04b4 63662B05 		bgtu	s2,s6,.L34
  79:src/kObjectAllocator.cpp ****             size_t byte = j - i * memorySizeForBits;
 686              		.loc 1 79 80 discriminator 2
 687 04b8 13871A00 		addi	a4,s5,1
  79:src/kObjectAllocator.cpp ****             size_t byte = j - i * memorySizeForBits;
 688              		.loc 1 79 85 discriminator 2
 689 04bc B387E702 		mul	a5,a5,a4
  79:src/kObjectAllocator.cpp ****             size_t byte = j - i * memorySizeForBits;
 690              		.loc 1 79 70 discriminator 2
 691 04c0 6370FB04 		bleu	a5,s6,.L34
 692              	.LBB27:
  80:src/kObjectAllocator.cpp ****             for (size_t bit = 8; bit != 0; --bit) {
 693              		.loc 1 80 13 is_stmt 1
  80:src/kObjectAllocator.cpp ****             for (size_t bit = 8; bit != 0; --bit) {
 694              		.loc 1 80 20 is_stmt 0
 695 04c4 33092B41 		sub	s2,s6,s2
 696              	.LVL67:
  81:src/kObjectAllocator.cpp **** 
 697              		.loc 1 81 13 is_stmt 1
 698              	.LBB26:
  81:src/kObjectAllocator.cpp **** 
 699              		.loc 1 81 25 is_stmt 0
 700 04c8 93048000 		li	s1,8
 701              	.LVL68:
 702              	.L37:
  81:src/kObjectAllocator.cpp **** 
GAS LISTING /tmp/ccrtxsRi.s 			page 18


 703              		.loc 1 81 38 is_stmt 1 discriminator 1
 704 04cc E38E04FC 		beqz	s1,.L35
  91:src/kObjectAllocator.cpp ****                     printString("========================");
 705              		.loc 1 91 17
  91:src/kObjectAllocator.cpp ****                     printString("========================");
 706              		.loc 1 91 22 is_stmt 0
 707 04d0 83378A02 		ld	a5,40(s4)
  91:src/kObjectAllocator.cpp ****                     printString("========================");
 708              		.loc 1 91 34
 709 04d4 93993A00 		slli	s3,s5,3
 710 04d8 B3873701 		add	a5,a5,s3
 711 04dc 83B70700 		ld	a5,0(a5)
  91:src/kObjectAllocator.cpp ****                     printString("========================");
 712              		.loc 1 91 40
 713 04e0 B3872701 		add	a5,a5,s2
 714 04e4 83C70700 		lbu	a5,0(a5)
  91:src/kObjectAllocator.cpp ****                     printString("========================");
 715              		.loc 1 91 50
 716 04e8 9B8BF4FF 		addiw	s7,s1,-1
  91:src/kObjectAllocator.cpp ****                     printString("========================");
 717              		.loc 1 91 42
 718 04ec BBD77741 		sraw	a5,a5,s7
  91:src/kObjectAllocator.cpp ****                     printString("========================");
 719              		.loc 1 91 55
 720 04f0 93F71700 		andi	a5,a5,1
  91:src/kObjectAllocator.cpp ****                     printString("========================");
 721              		.loc 1 91 17
 722 04f4 E38207E2 		beqz	a5,.L42
  81:src/kObjectAllocator.cpp **** 
 723              		.loc 1 81 13 is_stmt 1 discriminator 2
 724 04f8 9384F4FF 		addi	s1,s1,-1
 725              	.LVL69:
 726 04fc 6FF01FFD 		j	.L37
 727              	.LVL70:
 728              	.L34:
 729              	.LBE26:
 730              	.LBE27:
 731              	.LBE28:
  78:src/kObjectAllocator.cpp ****         for (size_t j = nextNonTakenByte; j >= i * memorySizeForBits && j < (i + 1) * memorySizeFor
 732              		.loc 1 78 5 discriminator 2
 733 0500 938A1A00 		addi	s5,s5,1
 734              	.LVL71:
 735 0504 6FF05FE0 		j	.L39
 736              	.LVL72:
 737              	.L40:
 738              	.LBE30:
 107:src/kObjectAllocator.cpp **** }
 739              		.loc 1 107 12 is_stmt 0
 740 0508 13050000 		li	a0,0
 741              	.LVL73:
 742 050c 6FF01FF7 		j	.L32
 743              		.cfi_endproc
 744              	.LFE18:
 746              		.section	.rodata.str1.8
 747 0096 0000     		.align	3
 748              	.LC13:
 749 0098 4552524F 		.string	"ERROR: Object not allocated in this KObjectAllocator\n"
GAS LISTING /tmp/ccrtxsRi.s 			page 19


 749      523A204F 
 749      626A6563 
 749      74206E6F 
 749      7420616C 
 750              		.text
 751              		.align	2
 752              		.globl	_ZN16KObjectAllocator10freeObjectEPv
 754              	_ZN16KObjectAllocator10freeObjectEPv:
 755              	.LFB19:
 109:src/kObjectAllocator.cpp **** 
 110:src/kObjectAllocator.cpp **** void KObjectAllocator::freeObject(void* objectPointer) {
 756              		.loc 1 110 56 is_stmt 1
 757              		.cfi_startproc
 758              	.LVL74:
 111:src/kObjectAllocator.cpp ****     for (size_t i = 0; i < numberOfAllocations; ++i) {
 759              		.loc 1 111 5
 760              	.LBB31:
 761              		.loc 1 111 17 is_stmt 0
 762 0510 13070000 		li	a4,0
 763 0514 6F008000 		j	.L47
 764              	.LVL75:
 765              	.L45:
 766              		.loc 1 111 5 is_stmt 1 discriminator 2
 767 0518 13071700 		addi	a4,a4,1
 768              	.LVL76:
 769              	.L47:
 770              		.loc 1 111 26 discriminator 1
 771              		.loc 1 111 28 is_stmt 0 discriminator 1
 772 051c 83370503 		ld	a5,48(a0)
 773              		.loc 1 111 26 discriminator 1
 774 0520 6374F706 		bleu	a5,a4,.L44
 775              	.LBB32:
 112:src/kObjectAllocator.cpp ****         if ((uint8*) objectPointer < objectVectors[i]) continue;
 776              		.loc 1 112 9 is_stmt 1
 777              		.loc 1 112 38 is_stmt 0
 778 0524 83370502 		ld	a5,32(a0)
 779              		.loc 1 112 53
 780 0528 93163700 		slli	a3,a4,3
 781 052c B387D700 		add	a5,a5,a3
 782 0530 83B70700 		ld	a5,0(a5)
 783              		.loc 1 112 9
 784 0534 E3E2F5FE 		bgtu	a5,a1,.L45
 113:src/kObjectAllocator.cpp ****         size_t idiff = (size_t) ((uint8*) objectPointer - objectVectors[i]);
 785              		.loc 1 113 9 is_stmt 1
 786              		.loc 1 113 57 is_stmt 0
 787 0538 B387F540 		sub	a5,a1,a5
 788              	.LVL77:
 114:src/kObjectAllocator.cpp ****         size_t byte = idiff / objectSize / 8;
 789              		.loc 1 114 9 is_stmt 1
 790              		.loc 1 114 31 is_stmt 0
 791 053c 03368501 		ld	a2,24(a0)
 792              		.loc 1 114 29
 793 0540 B3D7C702 		divu	a5,a5,a2
 794              	.LVL78:
 795              		.loc 1 114 16
 796 0544 13D83700 		srli	a6,a5,3
 797              	.LVL79:
GAS LISTING /tmp/ccrtxsRi.s 			page 20


 115:src/kObjectAllocator.cpp ****         if (byte >= memorySizeForBits) continue;
 798              		.loc 1 115 9 is_stmt 1
 799              		.loc 1 115 21 is_stmt 0
 800 0548 03360501 		ld	a2,16(a0)
 801              		.loc 1 115 9
 802 054c E376C8FC 		bleu	a2,a6,.L45
 116:src/kObjectAllocator.cpp ****         size_t bit = idiff / objectSize - byte * 8;
 803              		.loc 1 116 9 is_stmt 1
 804              		.loc 1 116 16 is_stmt 0
 805 0550 93F77700 		andi	a5,a5,7
 806              	.LVL80:
 117:src/kObjectAllocator.cpp ****         bitVectors[i][byte] &= ~((uint8) 1 << (7 - bit));
 807              		.loc 1 117 9 is_stmt 1
 808 0554 03368502 		ld	a2,40(a0)
 809              		.loc 1 117 21 is_stmt 0
 810 0558 B306D600 		add	a3,a2,a3
 811              	.LVL81:
 812 055c 03B70600 		ld	a4,0(a3)
 813              	.LVL82:
 814              		.loc 1 117 29
 815 0560 33070701 		add	a4,a4,a6
 816              		.loc 1 117 50
 817 0564 93067000 		li	a3,7
 818 0568 BB86F640 		subw	a3,a3,a5
 819              		.loc 1 117 44
 820 056c 93071000 		li	a5,1
 821              	.LVL83:
 822 0570 BB97D700 		sllw	a5,a5,a3
 823              		.loc 1 117 29
 824 0574 93C7F7FF 		not	a5,a5
 825 0578 83460700 		lbu	a3,0(a4)
 826 057c B3F7D700 		and	a5,a5,a3
 827 0580 2300F700 		sb	a5,0(a4)
 118:src/kObjectAllocator.cpp ****         return;
 828              		.loc 1 118 9 is_stmt 1
 829 0584 67800000 		ret
 830              	.LVL84:
 831              	.L44:
 832              	.LBE32:
 833              	.LBE31:
 110:src/kObjectAllocator.cpp ****     for (size_t i = 0; i < numberOfAllocations; ++i) {
 834              		.loc 1 110 56 is_stmt 0
 835 0588 130101FF 		addi	sp,sp,-16
 836              		.cfi_def_cfa_offset 16
 837 058c 23341100 		sd	ra,8(sp)
 838 0590 23308100 		sd	s0,0(sp)
 839              		.cfi_offset 1, -8
 840              		.cfi_offset 8, -16
 841 0594 13040101 		addi	s0,sp,16
 842              		.cfi_def_cfa 8, 0
 119:src/kObjectAllocator.cpp ****     }
 120:src/kObjectAllocator.cpp ****     printString("ERROR: Object not allocated in this KObjectAllocator\n");
 843              		.loc 1 120 5 is_stmt 1
 844              		.loc 1 120 16 is_stmt 0
 845 0598 17050000 		lla	a0,.LC13
 845      13050500 
 846              	.LVL85:
GAS LISTING /tmp/ccrtxsRi.s 			page 21


 847 05a0 97000000 		call	_Z11printStringPKc@plt
 847      E7800000 
 848              	.LVL86:
 121:src/kObjectAllocator.cpp **** }
 849              		.loc 1 121 1
 850 05a8 83308100 		ld	ra,8(sp)
 851              		.cfi_restore 1
 852 05ac 03340100 		ld	s0,0(sp)
 853              		.cfi_restore 8
 854              		.cfi_def_cfa 2, 16
 855 05b0 13010101 		addi	sp,sp,16
 856              		.cfi_def_cfa_offset 0
 857 05b4 67800000 		jr	ra
 858              		.cfi_endproc
 859              	.LFE19:
 861              		.align	2
 862              		.globl	_ZN16KObjectAllocator28handleNotEnoughMemoryProblemEv
 864              	_ZN16KObjectAllocator28handleNotEnoughMemoryProblemEv:
 865              	.LFB20:
 122:src/kObjectAllocator.cpp **** 
 123:src/kObjectAllocator.cpp **** bool KObjectAllocator::handleNotEnoughMemoryProblem() {
 866              		.loc 1 123 55 is_stmt 1
 867              		.cfi_startproc
 868              	.LVL87:
 869 05b8 130101FB 		addi	sp,sp,-80
 870              		.cfi_def_cfa_offset 80
 871 05bc 23341104 		sd	ra,72(sp)
 872 05c0 23308104 		sd	s0,64(sp)
 873 05c4 233C9102 		sd	s1,56(sp)
 874 05c8 23382103 		sd	s2,48(sp)
 875 05cc 23343103 		sd	s3,40(sp)
 876 05d0 23304103 		sd	s4,32(sp)
 877 05d4 233C5101 		sd	s5,24(sp)
 878 05d8 23386101 		sd	s6,16(sp)
 879 05dc 23347101 		sd	s7,8(sp)
 880              		.cfi_offset 1, -8
 881              		.cfi_offset 8, -16
 882              		.cfi_offset 9, -24
 883              		.cfi_offset 18, -32
 884              		.cfi_offset 19, -40
 885              		.cfi_offset 20, -48
 886              		.cfi_offset 21, -56
 887              		.cfi_offset 22, -64
 888              		.cfi_offset 23, -72
 889 05e0 13040105 		addi	s0,sp,80
 890              		.cfi_def_cfa 8, 0
 891 05e4 93040500 		mv	s1,a0
 124:src/kObjectAllocator.cpp ****     size_t newNumberOfAllocations = 2 * numberOfAllocations;
 892              		.loc 1 124 5
 893              		.loc 1 124 41 is_stmt 0
 894 05e8 033A0503 		ld	s4,48(a0)
 895              		.loc 1 124 12
 896 05ec 93191A00 		slli	s3,s4,1
 897              	.LVL88:
 125:src/kObjectAllocator.cpp ****     size_t newNumberOfObjects = 2 * numberOfObjects;
 898              		.loc 1 125 5 is_stmt 1
 899              		.loc 1 125 37 is_stmt 0
GAS LISTING /tmp/ccrtxsRi.s 			page 22


 900 05f0 833A8500 		ld	s5,8(a0)
 901              	.LVL89:
 126:src/kObjectAllocator.cpp ****     uint8** newBitVectors = (uint8**) MemoryAllocator::instance()->kmem_alloc(
 902              		.loc 1 126 5 is_stmt 1
 903              		.loc 1 126 78 is_stmt 0
 904 05f4 97000000 		call	_ZN15MemoryAllocator8instanceEv@plt
 904      E7800000 
 905              	.LVL90:
 906 05fc 131A4A00 		slli	s4,s4,4
 907 0600 93050A00 		mv	a1,s4
 908 0604 97000000 		call	_ZN15MemoryAllocator10kmem_allocEm@plt
 908      E7800000 
 909              	.LVL91:
 127:src/kObjectAllocator.cpp ****             newNumberOfAllocations * sizeof(uint8*)
 128:src/kObjectAllocator.cpp ****     );
 129:src/kObjectAllocator.cpp ****     if (!newBitVectors) return false;
 910              		.loc 1 129 5 is_stmt 1
 911 060c 63060514 		beqz	a0,.L61
 912 0610 939A1A00 		slli	s5,s5,1
 913              	.LVL92:
 914 0614 13090500 		mv	s2,a0
 130:src/kObjectAllocator.cpp ****     uint8** newObjectVectors = (uint8**) MemoryAllocator::instance()->kmem_alloc(
 915              		.loc 1 130 5
 916              		.loc 1 130 81 is_stmt 0
 917 0618 97000000 		call	_ZN15MemoryAllocator8instanceEv@plt
 917      E7800000 
 918              	.LVL93:
 919 0620 93050A00 		mv	a1,s4
 920 0624 97000000 		call	_ZN15MemoryAllocator10kmem_allocEm@plt
 920      E7800000 
 921              	.LVL94:
 922 062c 130A0500 		mv	s4,a0
 923              	.LVL95:
 131:src/kObjectAllocator.cpp ****             newNumberOfAllocations * sizeof(uint8*)
 132:src/kObjectAllocator.cpp ****     );
 133:src/kObjectAllocator.cpp ****     if (!newObjectVectors) return false;
 924              		.loc 1 133 5 is_stmt 1
 925 0630 630C0514 		beqz	a0,.L62
 926              	.LBB33:
 134:src/kObjectAllocator.cpp **** 
 135:src/kObjectAllocator.cpp ****     for (size_t i = 0; i < numberOfAllocations; ++i) newBitVectors[i] = bitVectors[i];
 927              		.loc 1 135 17 is_stmt 0
 928 0634 93070000 		li	a5,0
 929              	.L54:
 930              	.LVL96:
 931              		.loc 1 135 26 is_stmt 1 discriminator 3
 932              		.loc 1 135 28 is_stmt 0 discriminator 3
 933 0638 03BB0403 		ld	s6,48(s1)
 934              		.loc 1 135 26 discriminator 3
 935 063c 63F46703 		bleu	s6,a5,.L53
 936              		.loc 1 135 54 is_stmt 1 discriminator 2
 937              		.loc 1 135 73 is_stmt 0 discriminator 2
 938 0640 03B78402 		ld	a4,40(s1)
 939              		.loc 1 135 85 discriminator 2
 940 0644 93963700 		slli	a3,a5,3
 941              		.loc 1 135 69 discriminator 2
 942 0648 3306D900 		add	a2,s2,a3
GAS LISTING /tmp/ccrtxsRi.s 			page 23


 943              		.loc 1 135 85 discriminator 2
 944 064c 3307D700 		add	a4,a4,a3
 945 0650 03370700 		ld	a4,0(a4)
 946              		.loc 1 135 71 discriminator 2
 947 0654 2330E600 		sd	a4,0(a2)
 948              		.loc 1 135 5 is_stmt 1 discriminator 2
 949 0658 93871700 		addi	a5,a5,1
 950              	.LVL97:
 951 065c 6FF0DFFD 		j	.L54
 952              	.LVL98:
 953              	.L66:
 954              	.LBE33:
 955              	.LBB34:
 136:src/kObjectAllocator.cpp ****     for (size_t i = numberOfAllocations; i < newNumberOfAllocations; ++i) {
 956              		.loc 1 136 5 discriminator 2
 957 0660 130B1B00 		addi	s6,s6,1
 958              	.LVL99:
 959              	.L53:
 960              		.loc 1 136 44 discriminator 1
 961 0664 63703B05 		bgeu	s6,s3,.L63
 137:src/kObjectAllocator.cpp ****         newBitVectors[i] = (uint8*) MemoryAllocator::instance()->kmem_alloc(
 962              		.loc 1 137 9
 963              		.loc 1 137 76 is_stmt 0
 964 0668 97000000 		call	_ZN15MemoryAllocator8instanceEv@plt
 964      E7800000 
 965              	.LVL100:
 138:src/kObjectAllocator.cpp ****         memorySizeForBits + initialNumberOfObjects * objectSize );
 966              		.loc 1 138 9
 967 0670 83B50401 		ld	a1,16(s1)
 968              		.loc 1 138 29
 969 0674 83B70400 		ld	a5,0(s1)
 970              		.loc 1 138 54
 971 0678 03B78401 		ld	a4,24(s1)
 972              		.loc 1 138 52
 973 067c B387E702 		mul	a5,a5,a4
 137:src/kObjectAllocator.cpp ****         newBitVectors[i] = (uint8*) MemoryAllocator::instance()->kmem_alloc(
 974              		.loc 1 137 24
 975 0680 931B3B00 		slli	s7,s6,3
 976 0684 B30B7901 		add	s7,s2,s7
 137:src/kObjectAllocator.cpp ****         newBitVectors[i] = (uint8*) MemoryAllocator::instance()->kmem_alloc(
 977              		.loc 1 137 76
 978 0688 B385F500 		add	a1,a1,a5
 979 068c 97000000 		call	_ZN15MemoryAllocator10kmem_allocEm@plt
 979      E7800000 
 980              	.LVL101:
 137:src/kObjectAllocator.cpp ****         newBitVectors[i] = (uint8*) MemoryAllocator::instance()->kmem_alloc(
 981              		.loc 1 137 26
 982 0694 23B0AB00 		sd	a0,0(s7)
 139:src/kObjectAllocator.cpp ****         if (!newBitVectors[i]) return false;
 983              		.loc 1 139 9 is_stmt 1
 984 0698 E31405FC 		bnez	a0,.L66
 985              		.loc 1 139 39 is_stmt 0
 986 069c 13050000 		li	a0,0
 987 06a0 6F00C00B 		j	.L52
 988              	.L63:
 989              	.LBE34:
 990              	.LBB35:
GAS LISTING /tmp/ccrtxsRi.s 			page 24


 140:src/kObjectAllocator.cpp ****     }
 141:src/kObjectAllocator.cpp ****     for (size_t i = 0; i < newNumberOfAllocations; ++i) newObjectVectors[i] = newBitVectors[i] + me
 991              		.loc 1 141 17
 992 06a4 13070000 		li	a4,0
 993              	.L55:
 994              	.LVL102:
 995              		.loc 1 141 26 is_stmt 1 discriminator 3
 996 06a8 63743703 		bgeu	a4,s3,.L56
 997              		.loc 1 141 57 discriminator 2
 998              		.loc 1 141 94 is_stmt 0 discriminator 2
 999 06ac 93173700 		slli	a5,a4,3
 1000 06b0 B306F900 		add	a3,s2,a5
 1001 06b4 83B60600 		ld	a3,0(a3)
 1002              		.loc 1 141 98 discriminator 2
 1003 06b8 03B60401 		ld	a2,16(s1)
 1004              		.loc 1 141 75 discriminator 2
 1005 06bc B307FA00 		add	a5,s4,a5
 1006              		.loc 1 141 96 discriminator 2
 1007 06c0 B386C600 		add	a3,a3,a2
 1008              		.loc 1 141 77 discriminator 2
 1009 06c4 23B0D700 		sd	a3,0(a5)
 1010              		.loc 1 141 5 is_stmt 1 discriminator 2
 1011 06c8 13071700 		addi	a4,a4,1
 1012              	.LVL103:
 1013 06cc 6FF0DFFD 		j	.L55
 1014              	.L56:
 1015              	.LBE35:
 142:src/kObjectAllocator.cpp ****     for (size_t i = numberOfAllocations; i < newNumberOfAllocations; ++i)
 1016              		.loc 1 142 5
 1017              	.LBB36:
 1018              		.loc 1 142 17 is_stmt 0
 1019 06d0 83B60403 		ld	a3,48(s1)
 1020              	.LVL104:
 1021 06d4 6F008002 		j	.L60
 1022              	.LVL105:
 1023              	.L67:
 1024              	.LBB37:
 143:src/kObjectAllocator.cpp ****         for (size_t j = 0; j < memorySizeForBits; newBitVectors[i][j++] = 0);
 1025              		.loc 1 143 9 is_stmt 1 discriminator 2
 1026              		.loc 1 143 66 is_stmt 0 discriminator 2
 1027 06d8 13973600 		slli	a4,a3,3
 1028 06dc 3307E900 		add	a4,s2,a4
 1029 06e0 03370700 		ld	a4,0(a4)
 1030              	.LVL106:
 1031              		.loc 1 143 71 discriminator 2
 1032 06e4 3307F700 		add	a4,a4,a5
 1033              		.loc 1 143 73 discriminator 2
 1034 06e8 23000700 		sb	zero,0(a4)
 1035              		.loc 1 143 69 discriminator 2
 1036 06ec 93871700 		addi	a5,a5,1
 1037              	.LVL107:
 1038              	.L59:
 1039              		.loc 1 143 30 is_stmt 1 discriminator 3
 1040              		.loc 1 143 32 is_stmt 0 discriminator 3
 1041 06f0 03B70401 		ld	a4,16(s1)
 1042              		.loc 1 143 30 discriminator 3
 1043 06f4 E3E2E7FE 		bgtu	a4,a5,.L67
GAS LISTING /tmp/ccrtxsRi.s 			page 25


 1044              	.LBE37:
 142:src/kObjectAllocator.cpp ****     for (size_t i = numberOfAllocations; i < newNumberOfAllocations; ++i)
 1045              		.loc 1 142 5 is_stmt 1 discriminator 2
 1046 06f8 93861600 		addi	a3,a3,1
 1047              	.LVL108:
 1048              	.L60:
 142:src/kObjectAllocator.cpp ****     for (size_t i = numberOfAllocations; i < newNumberOfAllocations; ++i)
 1049              		.loc 1 142 44 discriminator 1
 1050 06fc 63F63601 		bgeu	a3,s3,.L57
 1051              	.LBB38:
 1052              		.loc 1 143 21 is_stmt 0
 1053 0700 93070000 		li	a5,0
 1054 0704 6FF0DFFE 		j	.L59
 1055              	.L57:
 1056              	.LBE38:
 1057              	.LBE36:
 144:src/kObjectAllocator.cpp ****     MemoryAllocator::instance()->kmem_free(bitVectors);
 1058              		.loc 1 144 5 is_stmt 1
 1059              		.loc 1 144 43 is_stmt 0
 1060 0708 97000000 		call	_ZN15MemoryAllocator8instanceEv@plt
 1060      E7800000 
 1061              	.LVL109:
 1062 0710 83B58402 		ld	a1,40(s1)
 1063 0714 97000000 		call	_ZN15MemoryAllocator9kmem_freeEPv@plt
 1063      E7800000 
 1064              	.LVL110:
 145:src/kObjectAllocator.cpp ****     MemoryAllocator::instance()->kmem_free(objectVectors);
 1065              		.loc 1 145 5 is_stmt 1
 1066              		.loc 1 145 43 is_stmt 0
 1067 071c 97000000 		call	_ZN15MemoryAllocator8instanceEv@plt
 1067      E7800000 
 1068              	.LVL111:
 1069 0724 83B50402 		ld	a1,32(s1)
 1070 0728 97000000 		call	_ZN15MemoryAllocator9kmem_freeEPv@plt
 1070      E7800000 
 1071              	.LVL112:
 146:src/kObjectAllocator.cpp **** 
 147:src/kObjectAllocator.cpp ****     numberOfObjects = newNumberOfObjects;
 1072              		.loc 1 147 5 is_stmt 1
 1073              		.loc 1 147 21 is_stmt 0
 1074 0730 23B45401 		sd	s5,8(s1)
 148:src/kObjectAllocator.cpp ****     nextNonTakenByte = numberOfAllocations * memorySizeForBits;
 1075              		.loc 1 148 5 is_stmt 1
 1076              		.loc 1 148 24 is_stmt 0
 1077 0734 83B70403 		ld	a5,48(s1)
 1078              		.loc 1 148 46
 1079 0738 03B70401 		ld	a4,16(s1)
 1080              		.loc 1 148 44
 1081 073c B387E702 		mul	a5,a5,a4
 1082              		.loc 1 148 22
 1083 0740 23BCF402 		sd	a5,56(s1)
 149:src/kObjectAllocator.cpp ****     numberOfAllocations = newNumberOfAllocations;
 1084              		.loc 1 149 5 is_stmt 1
 1085              		.loc 1 149 25 is_stmt 0
 1086 0744 23B83403 		sd	s3,48(s1)
 150:src/kObjectAllocator.cpp ****     bitVectors = newBitVectors;
 1087              		.loc 1 150 5 is_stmt 1
GAS LISTING /tmp/ccrtxsRi.s 			page 26


 1088              		.loc 1 150 16 is_stmt 0
 1089 0748 23B42403 		sd	s2,40(s1)
 151:src/kObjectAllocator.cpp ****     objectVectors = newObjectVectors;
 1090              		.loc 1 151 5 is_stmt 1
 1091              		.loc 1 151 19 is_stmt 0
 1092 074c 23B04403 		sd	s4,32(s1)
 152:src/kObjectAllocator.cpp **** 
 153:src/kObjectAllocator.cpp ****     return true;
 1093              		.loc 1 153 5 is_stmt 1
 1094              		.loc 1 153 12 is_stmt 0
 1095 0750 13051000 		li	a0,1
 1096 0754 6F008000 		j	.L52
 1097              	.LVL113:
 1098              	.L61:
 129:src/kObjectAllocator.cpp ****     uint8** newObjectVectors = (uint8**) MemoryAllocator::instance()->kmem_alloc(
 1099              		.loc 1 129 32
 1100 0758 13050000 		li	a0,0
 1101              	.LVL114:
 1102              	.L52:
 154:src/kObjectAllocator.cpp **** }
 1103              		.loc 1 154 1
 1104 075c 83308104 		ld	ra,72(sp)
 1105              		.cfi_remember_state
 1106              		.cfi_restore 1
 1107 0760 03340104 		ld	s0,64(sp)
 1108              		.cfi_restore 8
 1109              		.cfi_def_cfa 2, 80
 1110 0764 83348103 		ld	s1,56(sp)
 1111              		.cfi_restore 9
 1112              	.LVL115:
 1113 0768 03390103 		ld	s2,48(sp)
 1114              		.cfi_restore 18
 1115 076c 83398102 		ld	s3,40(sp)
 1116              		.cfi_restore 19
 1117              	.LVL116:
 1118 0770 033A0102 		ld	s4,32(sp)
 1119              		.cfi_restore 20
 1120 0774 833A8101 		ld	s5,24(sp)
 1121              		.cfi_restore 21
 1122 0778 033B0101 		ld	s6,16(sp)
 1123              		.cfi_restore 22
 1124 077c 833B8100 		ld	s7,8(sp)
 1125              		.cfi_restore 23
 1126 0780 13010105 		addi	sp,sp,80
 1127              		.cfi_def_cfa_offset 0
 1128 0784 67800000 		jr	ra
 1129              	.LVL117:
 1130              	.L62:
 1131              		.cfi_restore_state
 133:src/kObjectAllocator.cpp **** 
 1132              		.loc 1 133 35
 1133 0788 13050000 		li	a0,0
 1134              	.LVL118:
 1135 078c 6FF01FFD 		j	.L52
 1136              		.cfi_endproc
 1137              	.LFE20:
 1139              		.section	.rodata.str1.8
GAS LISTING /tmp/ccrtxsRi.s 			page 27


 1140 00ce 0000     		.align	3
 1141              	.LC14:
 1142 00d0 0A726574 		.string	"\nreturn1: "
 1142      75726E31 
 1142      3A2000
 1143 00db 00000000 		.align	3
 1143      00
 1144              	.LC15:
 1145 00e0 0A726574 		.string	"\nreturn2: "
 1145      75726E32 
 1145      3A2000
 1146 00eb 00000000 		.align	3
 1146      00
 1147              	.LC16:
 1148 00f0 0A726574 		.string	"\nreturn3: "
 1148      75726E33 
 1148      3A2000
 1149              		.text
 1150              		.align	2
 1151              		.globl	_ZN16KObjectAllocator17allocateNewObjectEv
 1153              	_ZN16KObjectAllocator17allocateNewObjectEv:
 1154              	.LFB17:
  49:src/kObjectAllocator.cpp ****     void* returnedObject = allocateFreeObject();
 1155              		.loc 1 49 45 is_stmt 1
 1156              		.cfi_startproc
 1157              	.LVL119:
 1158 0790 130101FE 		addi	sp,sp,-32
 1159              		.cfi_def_cfa_offset 32
 1160 0794 233C1100 		sd	ra,24(sp)
 1161 0798 23388100 		sd	s0,16(sp)
 1162 079c 23349100 		sd	s1,8(sp)
 1163 07a0 23302101 		sd	s2,0(sp)
 1164              		.cfi_offset 1, -8
 1165              		.cfi_offset 8, -16
 1166              		.cfi_offset 9, -24
 1167              		.cfi_offset 18, -32
 1168 07a4 13040102 		addi	s0,sp,32
 1169              		.cfi_def_cfa 8, 0
 1170 07a8 13090500 		mv	s2,a0
  50:src/kObjectAllocator.cpp ****     if (returnedObject) {
 1171              		.loc 1 50 5
  50:src/kObjectAllocator.cpp ****     if (returnedObject) {
 1172              		.loc 1 50 46 is_stmt 0
 1173 07ac 97000000 		call	_ZN16KObjectAllocator18allocateFreeObjectEv
 1173      E7800000 
 1174              	.LVL120:
  51:src/kObjectAllocator.cpp ****         printString("\nreturn1: ");
 1175              		.loc 1 51 5 is_stmt 1
 1176 07b4 63000504 		beqz	a0,.L69
 1177 07b8 93040500 		mv	s1,a0
  52:src/kObjectAllocator.cpp ****         printInteger((uint64) returnedObject);
 1178              		.loc 1 52 9
  52:src/kObjectAllocator.cpp ****         printInteger((uint64) returnedObject);
 1179              		.loc 1 52 20 is_stmt 0
 1180 07bc 17050000 		lla	a0,.LC14
 1180      13050500 
 1181              	.LVL121:
GAS LISTING /tmp/ccrtxsRi.s 			page 28


 1182 07c4 97000000 		call	_Z11printStringPKc@plt
 1182      E7800000 
 1183              	.LVL122:
  53:src/kObjectAllocator.cpp ****         return returnedObject;
 1184              		.loc 1 53 9 is_stmt 1
  53:src/kObjectAllocator.cpp ****         return returnedObject;
 1185              		.loc 1 53 21 is_stmt 0
 1186 07cc 13850400 		mv	a0,s1
 1187 07d0 97000000 		call	_Z12printIntegerm@plt
 1187      E7800000 
 1188              	.LVL123:
  54:src/kObjectAllocator.cpp ****     }
 1189              		.loc 1 54 9 is_stmt 1
 1190              	.L68:
  75:src/kObjectAllocator.cpp **** 
 1191              		.loc 1 75 1 is_stmt 0
 1192 07d8 13850400 		mv	a0,s1
 1193 07dc 83308101 		ld	ra,24(sp)
 1194              		.cfi_remember_state
 1195              		.cfi_restore 1
 1196 07e0 03340101 		ld	s0,16(sp)
 1197              		.cfi_restore 8
 1198              		.cfi_def_cfa 2, 32
 1199 07e4 83348100 		ld	s1,8(sp)
 1200              		.cfi_restore 9
 1201 07e8 03390100 		ld	s2,0(sp)
 1202              		.cfi_restore 18
 1203              	.LVL124:
 1204 07ec 13010102 		addi	sp,sp,32
 1205              		.cfi_def_cfa_offset 0
 1206 07f0 67800000 		jr	ra
 1207              	.LVL125:
 1208              	.L69:
 1209              		.cfi_restore_state
  57:src/kObjectAllocator.cpp ****     returnedObject = allocateFreeObject();
 1210              		.loc 1 57 5 is_stmt 1
  57:src/kObjectAllocator.cpp ****     returnedObject = allocateFreeObject();
 1211              		.loc 1 57 22 is_stmt 0
 1212 07f4 233C0902 		sd	zero,56(s2)
  58:src/kObjectAllocator.cpp ****     if (returnedObject) {
 1213              		.loc 1 58 5 is_stmt 1
  58:src/kObjectAllocator.cpp ****     if (returnedObject) {
 1214              		.loc 1 58 40 is_stmt 0
 1215 07f8 13050900 		mv	a0,s2
 1216              	.LVL126:
 1217 07fc 97000000 		call	_ZN16KObjectAllocator18allocateFreeObjectEv
 1217      E7800000 
 1218              	.LVL127:
 1219 0804 93040500 		mv	s1,a0
 1220              	.LVL128:
  59:src/kObjectAllocator.cpp ****         printString("\nreturn2: ");
 1221              		.loc 1 59 5 is_stmt 1
 1222 0808 63020502 		beqz	a0,.L71
  60:src/kObjectAllocator.cpp ****         printInteger((uint64) returnedObject);
 1223              		.loc 1 60 9
  60:src/kObjectAllocator.cpp ****         printInteger((uint64) returnedObject);
 1224              		.loc 1 60 20 is_stmt 0
GAS LISTING /tmp/ccrtxsRi.s 			page 29


 1225 080c 17050000 		lla	a0,.LC15
 1225      13050500 
 1226 0814 97000000 		call	_Z11printStringPKc@plt
 1226      E7800000 
 1227              	.LVL129:
  61:src/kObjectAllocator.cpp ****         return returnedObject;
 1228              		.loc 1 61 9 is_stmt 1
  61:src/kObjectAllocator.cpp ****         return returnedObject;
 1229              		.loc 1 61 21 is_stmt 0
 1230 081c 13850400 		mv	a0,s1
 1231 0820 97000000 		call	_Z12printIntegerm@plt
 1231      E7800000 
 1232              	.LVL130:
  62:src/kObjectAllocator.cpp ****     }
 1233              		.loc 1 62 9 is_stmt 1
  62:src/kObjectAllocator.cpp ****     }
 1234              		.loc 1 62 16 is_stmt 0
 1235 0828 6FF01FFB 		j	.L68
 1236              	.L71:
  66:src/kObjectAllocator.cpp ****         returnedObject = allocateFreeObject();
 1237              		.loc 1 66 5 is_stmt 1
  66:src/kObjectAllocator.cpp ****         returnedObject = allocateFreeObject();
 1238              		.loc 1 66 37 is_stmt 0
 1239 082c 13050900 		mv	a0,s2
 1240 0830 97000000 		call	_ZN16KObjectAllocator28handleNotEnoughMemoryProblemEv
 1240      E7800000 
 1241              	.LVL131:
  66:src/kObjectAllocator.cpp ****         returnedObject = allocateFreeObject();
 1242              		.loc 1 66 5
 1243 0838 E30005FA 		beqz	a0,.L68
  67:src/kObjectAllocator.cpp ****         if (returnedObject) {
 1244              		.loc 1 67 9 is_stmt 1
  67:src/kObjectAllocator.cpp ****         if (returnedObject) {
 1245              		.loc 1 67 44 is_stmt 0
 1246 083c 13050900 		mv	a0,s2
 1247 0840 97000000 		call	_ZN16KObjectAllocator18allocateFreeObjectEv
 1247      E7800000 
 1248              	.LVL132:
 1249 0848 93040500 		mv	s1,a0
 1250              	.LVL133:
  68:src/kObjectAllocator.cpp ****             printString("\nreturn3: ");
 1251              		.loc 1 68 9 is_stmt 1
 1252 084c E30605F8 		beqz	a0,.L68
  69:src/kObjectAllocator.cpp ****             printInteger((uint64) returnedObject);
 1253              		.loc 1 69 13
  69:src/kObjectAllocator.cpp ****             printInteger((uint64) returnedObject);
 1254              		.loc 1 69 24 is_stmt 0
 1255 0850 17050000 		lla	a0,.LC16
 1255      13050500 
 1256 0858 97000000 		call	_Z11printStringPKc@plt
 1256      E7800000 
 1257              	.LVL134:
  70:src/kObjectAllocator.cpp ****             return returnedObject;
 1258              		.loc 1 70 13 is_stmt 1
  70:src/kObjectAllocator.cpp ****             return returnedObject;
 1259              		.loc 1 70 25 is_stmt 0
 1260 0860 13850400 		mv	a0,s1
GAS LISTING /tmp/ccrtxsRi.s 			page 30


 1261 0864 97000000 		call	_Z12printIntegerm@plt
 1261      E7800000 
 1262              	.LVL135:
  71:src/kObjectAllocator.cpp ****         }
 1263              		.loc 1 71 13 is_stmt 1
  71:src/kObjectAllocator.cpp ****         }
 1264              		.loc 1 71 20 is_stmt 0
 1265 086c 6FF0DFF6 		j	.L68
 1266              		.cfi_endproc
 1267              	.LFE17:
 1269              	.Letext0:
 1270              		.file 2 "src/../h/../h/../lib/hw.h"
 1271              		.file 3 "src/../h/../h/memoryAllocator.hpp"
 1272              		.file 4 "src/../h/kObjectAllocator.hpp"
 1273              		.file 5 "src/../h/print.hpp"
GAS LISTING /tmp/ccrtxsRi.s 			page 31


DEFINED SYMBOLS
                            *ABS*:0000000000000000 kObjectAllocator.cpp
     /tmp/ccrtxsRi.s:29     .text:0000000000000000 _ZN16KObjectAllocator19printInternalMemoryEv
     /tmp/ccrtxsRi.s:33     .text:0000000000000000 .L0 
     /tmp/ccrtxsRi.s:35     .text:0000000000000000 .L0 
     /tmp/ccrtxsRi.s:36     .text:0000000000000004 .L0 
     /tmp/ccrtxsRi.s:45     .text:0000000000000024 .L0 
     /tmp/ccrtxsRi.s:46     .text:0000000000000024 .L0 
     /tmp/ccrtxsRi.s:47     .text:0000000000000024 .L0 
     /tmp/ccrtxsRi.s:48     .text:0000000000000024 .L0 
     /tmp/ccrtxsRi.s:49     .text:0000000000000024 .L0 
     /tmp/ccrtxsRi.s:50     .text:0000000000000024 .L0 
     /tmp/ccrtxsRi.s:51     .text:0000000000000024 .L0 
     /tmp/ccrtxsRi.s:52     .text:0000000000000024 .L0 
     /tmp/ccrtxsRi.s:54     .text:0000000000000028 .L0 
     /tmp/ccrtxsRi.s:58     .text:000000000000002c .L0 
     /tmp/ccrtxsRi.s:59     .text:000000000000002c .L0 
     /tmp/ccrtxsRi.s:68     .text:0000000000000034 .L0 
     /tmp/ccrtxsRi.s:69     .text:0000000000000034 .L0 
     /tmp/ccrtxsRi.s:75     .text:0000000000000048 .L0 
     /tmp/ccrtxsRi.s:76     .text:0000000000000048 .L0 
     /tmp/ccrtxsRi.s:82     .text:0000000000000058 .L0 
     /tmp/ccrtxsRi.s:83     .text:0000000000000058 .L0 
     /tmp/ccrtxsRi.s:85     .text:000000000000005c .L0 
     /tmp/ccrtxsRi.s:88     .text:0000000000000064 .L0 
     /tmp/ccrtxsRi.s:90     .text:0000000000000068 .L0 
     /tmp/ccrtxsRi.s:94     .text:0000000000000074 .L0 
     /tmp/ccrtxsRi.s:95     .text:0000000000000074 .L0 
     /tmp/ccrtxsRi.s:100    .text:0000000000000084 .L0 
     /tmp/ccrtxsRi.s:104    .text:0000000000000088 .L0 
     /tmp/ccrtxsRi.s:107    .text:0000000000000090 .L0 
     /tmp/ccrtxsRi.s:108    .text:0000000000000090 .L0 
     /tmp/ccrtxsRi.s:110    .text:0000000000000094 .L0 
     /tmp/ccrtxsRi.s:113    .text:000000000000009c .L0 
     /tmp/ccrtxsRi.s:115    .text:00000000000000a0 .L0 
     /tmp/ccrtxsRi.s:116    .text:00000000000000a0 .L0 
     /tmp/ccrtxsRi.s:118    .text:00000000000000a4 .L0 
     /tmp/ccrtxsRi.s:122    .text:00000000000000b0 .L0 
     /tmp/ccrtxsRi.s:124    .text:00000000000000b4 .L0 
     /tmp/ccrtxsRi.s:127    .text:00000000000000bc .L0 
     /tmp/ccrtxsRi.s:131    .text:00000000000000c4 .L0 
     /tmp/ccrtxsRi.s:132    .text:00000000000000c4 .L0 
     /tmp/ccrtxsRi.s:134    .text:00000000000000c8 .L0 
     /tmp/ccrtxsRi.s:137    .text:00000000000000d0 .L0 
     /tmp/ccrtxsRi.s:140    .text:00000000000000d8 .L0 
     /tmp/ccrtxsRi.s:143    .text:00000000000000e0 .L0 
     /tmp/ccrtxsRi.s:144    .text:00000000000000e0 .L0 
     /tmp/ccrtxsRi.s:151    .text:00000000000000f0 .L0 
     /tmp/ccrtxsRi.s:152    .text:00000000000000f0 .L0 
     /tmp/ccrtxsRi.s:157    .text:0000000000000100 .L0 
     /tmp/ccrtxsRi.s:161    .text:0000000000000104 .L0 
     /tmp/ccrtxsRi.s:162    .text:0000000000000104 .L0 
     /tmp/ccrtxsRi.s:164    .text:0000000000000108 .L0 
     /tmp/ccrtxsRi.s:168    .text:000000000000010c .L0 
     /tmp/ccrtxsRi.s:175    .text:0000000000000114 .L0 
     /tmp/ccrtxsRi.s:176    .text:0000000000000114 .L0 
     /tmp/ccrtxsRi.s:180    .text:0000000000000124 .L0 
GAS LISTING /tmp/ccrtxsRi.s 			page 32


     /tmp/ccrtxsRi.s:181    .text:0000000000000124 .L0 
     /tmp/ccrtxsRi.s:186    .text:0000000000000128 .L0 
     /tmp/ccrtxsRi.s:187    .text:0000000000000128 .L0 
     /tmp/ccrtxsRi.s:188    .text:0000000000000128 .L0 
     /tmp/ccrtxsRi.s:190    .text:000000000000012c .L0 
     /tmp/ccrtxsRi.s:194    .text:0000000000000130 .L0 
     /tmp/ccrtxsRi.s:201    .text:0000000000000138 .L0 
     /tmp/ccrtxsRi.s:207    .text:0000000000000140 .L0 
     /tmp/ccrtxsRi.s:208    .text:0000000000000140 .L0 
     /tmp/ccrtxsRi.s:213    .text:0000000000000150 .L0 
     /tmp/ccrtxsRi.s:217    .text:0000000000000154 .L0 
     /tmp/ccrtxsRi.s:218    .text:0000000000000154 .L0 
     /tmp/ccrtxsRi.s:220    .text:0000000000000158 .L0 
     /tmp/ccrtxsRi.s:224    .text:000000000000015c .L0 
     /tmp/ccrtxsRi.s:228    .text:0000000000000160 .L0 
     /tmp/ccrtxsRi.s:231    .text:0000000000000168 .L0 
     /tmp/ccrtxsRi.s:232    .text:0000000000000168 .L0 
     /tmp/ccrtxsRi.s:236    .text:0000000000000178 .L0 
     /tmp/ccrtxsRi.s:245    .text:0000000000000180 .L0 
     /tmp/ccrtxsRi.s:246    .text:0000000000000180 .L0 
     /tmp/ccrtxsRi.s:250    .text:0000000000000190 .L0 
     /tmp/ccrtxsRi.s:251    .text:0000000000000190 .L0 
     /tmp/ccrtxsRi.s:261    .text:0000000000000198 .L0 
     /tmp/ccrtxsRi.s:262    .text:0000000000000198 .L0 
     /tmp/ccrtxsRi.s:268    .text:00000000000001ac .L0 
     /tmp/ccrtxsRi.s:269    .text:00000000000001ac .L0 
     /tmp/ccrtxsRi.s:275    .text:00000000000001bc .L0 
     /tmp/ccrtxsRi.s:276    .text:00000000000001bc .L0 
     /tmp/ccrtxsRi.s:281    .text:00000000000001c8 .L0 
     /tmp/ccrtxsRi.s:282    .text:00000000000001c8 .L0 
     /tmp/ccrtxsRi.s:284    .text:00000000000001cc .L0 
     /tmp/ccrtxsRi.s:287    .text:00000000000001d4 .L0 
     /tmp/ccrtxsRi.s:289    .text:00000000000001d8 .L0 
     /tmp/ccrtxsRi.s:293    .text:00000000000001e4 .L0 
     /tmp/ccrtxsRi.s:294    .text:00000000000001e4 .L0 
     /tmp/ccrtxsRi.s:299    .text:00000000000001f4 .L0 
     /tmp/ccrtxsRi.s:303    .text:00000000000001f8 .L0 
     /tmp/ccrtxsRi.s:306    .text:0000000000000200 .L0 
     /tmp/ccrtxsRi.s:307    .text:0000000000000200 .L0 
     /tmp/ccrtxsRi.s:309    .text:0000000000000204 .L0 
     /tmp/ccrtxsRi.s:311    .text:0000000000000208 .L0 
     /tmp/ccrtxsRi.s:313    .text:000000000000020c .L0 
     /tmp/ccrtxsRi.s:316    .text:0000000000000214 .L0 
     /tmp/ccrtxsRi.s:318    .text:0000000000000218 .L0 
     /tmp/ccrtxsRi.s:319    .text:0000000000000218 .L0 
     /tmp/ccrtxsRi.s:321    .text:000000000000021c .L0 
     /tmp/ccrtxsRi.s:325    .text:0000000000000228 .L0 
     /tmp/ccrtxsRi.s:327    .text:000000000000022c .L0 
     /tmp/ccrtxsRi.s:330    .text:0000000000000234 .L0 
     /tmp/ccrtxsRi.s:334    .text:000000000000023c .L0 
     /tmp/ccrtxsRi.s:335    .text:000000000000023c .L0 
     /tmp/ccrtxsRi.s:337    .text:0000000000000240 .L0 
     /tmp/ccrtxsRi.s:340    .text:0000000000000248 .L0 
     /tmp/ccrtxsRi.s:343    .text:0000000000000250 .L0 
     /tmp/ccrtxsRi.s:349    .text:000000000000025c .L0 
     /tmp/ccrtxsRi.s:350    .text:000000000000025c .L0 
     /tmp/ccrtxsRi.s:355    .text:000000000000026c .L0 
GAS LISTING /tmp/ccrtxsRi.s 			page 33


     /tmp/ccrtxsRi.s:359    .text:0000000000000270 .L0 
     /tmp/ccrtxsRi.s:360    .text:0000000000000270 .L0 
     /tmp/ccrtxsRi.s:362    .text:0000000000000274 .L0 
     /tmp/ccrtxsRi.s:366    .text:0000000000000278 .L0 
     /tmp/ccrtxsRi.s:373    .text:0000000000000280 .L0 
     /tmp/ccrtxsRi.s:374    .text:0000000000000280 .L0 
     /tmp/ccrtxsRi.s:378    .text:0000000000000290 .L0 
     /tmp/ccrtxsRi.s:379    .text:0000000000000290 .L0 
     /tmp/ccrtxsRi.s:384    .text:0000000000000294 .L0 
     /tmp/ccrtxsRi.s:385    .text:0000000000000294 .L0 
     /tmp/ccrtxsRi.s:386    .text:0000000000000294 .L0 
     /tmp/ccrtxsRi.s:388    .text:0000000000000298 .L0 
     /tmp/ccrtxsRi.s:390    .text:000000000000029c .L0 
     /tmp/ccrtxsRi.s:392    .text:00000000000002a0 .L0 
     /tmp/ccrtxsRi.s:396    .text:00000000000002a4 .L0 
     /tmp/ccrtxsRi.s:402    .text:00000000000002ac .L0 
     /tmp/ccrtxsRi.s:403    .text:00000000000002b0 .L0 
     /tmp/ccrtxsRi.s:405    .text:00000000000002b4 .L0 
     /tmp/ccrtxsRi.s:406    .text:00000000000002b4 .L0 
     /tmp/ccrtxsRi.s:408    .text:00000000000002b8 .L0 
     /tmp/ccrtxsRi.s:411    .text:00000000000002bc .L0 
     /tmp/ccrtxsRi.s:413    .text:00000000000002c0 .L0 
     /tmp/ccrtxsRi.s:415    .text:00000000000002c4 .L0 
     /tmp/ccrtxsRi.s:417    .text:00000000000002c8 .L0 
     /tmp/ccrtxsRi.s:420    .text:00000000000002cc .L0 
     /tmp/ccrtxsRi.s:422    .text:00000000000002d0 .L0 
     /tmp/ccrtxsRi.s:424    .text:00000000000002d4 .L0 
     /tmp/ccrtxsRi.s:453    .text:00000000000002d4 _ZN16KObjectAllocator18allocateFreeObjectEv
     /tmp/ccrtxsRi.s:456    .text:00000000000002d4 .L0 
     /tmp/ccrtxsRi.s:458    .text:00000000000002d4 .L0 
     /tmp/ccrtxsRi.s:459    .text:00000000000002d8 .L0 
     /tmp/ccrtxsRi.s:469    .text:00000000000002fc .L0 
     /tmp/ccrtxsRi.s:470    .text:00000000000002fc .L0 
     /tmp/ccrtxsRi.s:471    .text:00000000000002fc .L0 
     /tmp/ccrtxsRi.s:472    .text:00000000000002fc .L0 
     /tmp/ccrtxsRi.s:473    .text:00000000000002fc .L0 
     /tmp/ccrtxsRi.s:474    .text:00000000000002fc .L0 
     /tmp/ccrtxsRi.s:475    .text:00000000000002fc .L0 
     /tmp/ccrtxsRi.s:476    .text:00000000000002fc .L0 
     /tmp/ccrtxsRi.s:477    .text:00000000000002fc .L0 
     /tmp/ccrtxsRi.s:479    .text:0000000000000300 .L0 
     /tmp/ccrtxsRi.s:484    .text:0000000000000304 .L0 
     /tmp/ccrtxsRi.s:485    .text:0000000000000304 .L0 
     /tmp/ccrtxsRi.s:489    .text:0000000000000308 .L0 
     /tmp/ccrtxsRi.s:490    .text:0000000000000308 .L0 
     /tmp/ccrtxsRi.s:492    .text:000000000000030c .L0 
     /tmp/ccrtxsRi.s:497    .text:0000000000000310 .L0 
     /tmp/ccrtxsRi.s:498    .text:0000000000000310 .L0 
     /tmp/ccrtxsRi.s:506    .text:0000000000000318 .L0 
     /tmp/ccrtxsRi.s:507    .text:0000000000000318 .L0 
     /tmp/ccrtxsRi.s:512    .text:0000000000000328 .L0 
     /tmp/ccrtxsRi.s:513    .text:0000000000000328 .L0 
     /tmp/ccrtxsRi.s:517    .text:0000000000000338 .L0 
     /tmp/ccrtxsRi.s:518    .text:0000000000000338 .L0 
     /tmp/ccrtxsRi.s:522    .text:0000000000000348 .L0 
     /tmp/ccrtxsRi.s:523    .text:0000000000000348 .L0 
     /tmp/ccrtxsRi.s:527    .text:0000000000000354 .L0 
GAS LISTING /tmp/ccrtxsRi.s 			page 34


     /tmp/ccrtxsRi.s:528    .text:0000000000000354 .L0 
     /tmp/ccrtxsRi.s:532    .text:0000000000000364 .L0 
     /tmp/ccrtxsRi.s:533    .text:0000000000000364 .L0 
     /tmp/ccrtxsRi.s:537    .text:0000000000000374 .L0 
     /tmp/ccrtxsRi.s:538    .text:0000000000000374 .L0 
     /tmp/ccrtxsRi.s:542    .text:0000000000000380 .L0 
     /tmp/ccrtxsRi.s:543    .text:0000000000000380 .L0 
     /tmp/ccrtxsRi.s:547    .text:0000000000000390 .L0 
     /tmp/ccrtxsRi.s:548    .text:0000000000000390 .L0 
     /tmp/ccrtxsRi.s:552    .text:00000000000003a0 .L0 
     /tmp/ccrtxsRi.s:553    .text:00000000000003a0 .L0 
     /tmp/ccrtxsRi.s:557    .text:00000000000003ac .L0 
     /tmp/ccrtxsRi.s:558    .text:00000000000003ac .L0 
     /tmp/ccrtxsRi.s:562    .text:00000000000003bc .L0 
     /tmp/ccrtxsRi.s:563    .text:00000000000003bc .L0 
     /tmp/ccrtxsRi.s:567    .text:00000000000003cc .L0 
     /tmp/ccrtxsRi.s:568    .text:00000000000003cc .L0 
     /tmp/ccrtxsRi.s:572    .text:00000000000003d8 .L0 
     /tmp/ccrtxsRi.s:573    .text:00000000000003d8 .L0 
     /tmp/ccrtxsRi.s:577    .text:00000000000003e8 .L0 
     /tmp/ccrtxsRi.s:578    .text:00000000000003e8 .L0 
     /tmp/ccrtxsRi.s:582    .text:00000000000003f8 .L0 
     /tmp/ccrtxsRi.s:583    .text:00000000000003f8 .L0 
     /tmp/ccrtxsRi.s:587    .text:0000000000000404 .L0 
     /tmp/ccrtxsRi.s:588    .text:0000000000000404 .L0 
     /tmp/ccrtxsRi.s:592    .text:0000000000000414 .L0 
     /tmp/ccrtxsRi.s:593    .text:0000000000000414 .L0 
     /tmp/ccrtxsRi.s:597    .text:0000000000000424 .L0 
     /tmp/ccrtxsRi.s:598    .text:0000000000000424 .L0 
     /tmp/ccrtxsRi.s:601    .text:000000000000042c .L0 
     /tmp/ccrtxsRi.s:604    .text:0000000000000430 .L0 
     /tmp/ccrtxsRi.s:606    .text:0000000000000434 .L0 
     /tmp/ccrtxsRi.s:608    .text:0000000000000438 .L0 
     /tmp/ccrtxsRi.s:611    .text:0000000000000440 .L0 
     /tmp/ccrtxsRi.s:613    .text:0000000000000444 .L0 
     /tmp/ccrtxsRi.s:616    .text:000000000000044c .L0 
     /tmp/ccrtxsRi.s:620    .text:0000000000000458 .L0 
     /tmp/ccrtxsRi.s:621    .text:0000000000000458 .L0 
     /tmp/ccrtxsRi.s:623    .text:000000000000045c .L0 
     /tmp/ccrtxsRi.s:626    .text:0000000000000464 .L0 
     /tmp/ccrtxsRi.s:630    .text:000000000000046c .L0 
     /tmp/ccrtxsRi.s:633    .text:0000000000000470 .L0 
     /tmp/ccrtxsRi.s:635    .text:0000000000000474 .L0 
     /tmp/ccrtxsRi.s:637    .text:0000000000000478 .L0 
     /tmp/ccrtxsRi.s:645    .text:000000000000047c .L0 
     /tmp/ccrtxsRi.s:646    .text:0000000000000480 .L0 
     /tmp/ccrtxsRi.s:647    .text:0000000000000480 .L0 
     /tmp/ccrtxsRi.s:649    .text:0000000000000484 .L0 
     /tmp/ccrtxsRi.s:650    .text:0000000000000484 .L0 
     /tmp/ccrtxsRi.s:652    .text:0000000000000488 .L0 
     /tmp/ccrtxsRi.s:654    .text:000000000000048c .L0 
     /tmp/ccrtxsRi.s:656    .text:0000000000000490 .L0 
     /tmp/ccrtxsRi.s:658    .text:0000000000000494 .L0 
     /tmp/ccrtxsRi.s:661    .text:0000000000000498 .L0 
     /tmp/ccrtxsRi.s:664    .text:000000000000049c .L0 
     /tmp/ccrtxsRi.s:666    .text:00000000000004a0 .L0 
     /tmp/ccrtxsRi.s:668    .text:00000000000004a4 .L0 
GAS LISTING /tmp/ccrtxsRi.s 			page 35


     /tmp/ccrtxsRi.s:672    .text:00000000000004a8 .L0 
     /tmp/ccrtxsRi.s:676    .text:00000000000004a8 .L0 
     /tmp/ccrtxsRi.s:680    .text:00000000000004ac .L0 
     /tmp/ccrtxsRi.s:681    .text:00000000000004ac .L0 
     /tmp/ccrtxsRi.s:683    .text:00000000000004b0 .L0 
     /tmp/ccrtxsRi.s:685    .text:00000000000004b4 .L0 
     /tmp/ccrtxsRi.s:687    .text:00000000000004b8 .L0 
     /tmp/ccrtxsRi.s:689    .text:00000000000004bc .L0 
     /tmp/ccrtxsRi.s:691    .text:00000000000004c0 .L0 
     /tmp/ccrtxsRi.s:694    .text:00000000000004c4 .L0 
     /tmp/ccrtxsRi.s:695    .text:00000000000004c4 .L0 
     /tmp/ccrtxsRi.s:699    .text:00000000000004c8 .L0 
     /tmp/ccrtxsRi.s:700    .text:00000000000004c8 .L0 
     /tmp/ccrtxsRi.s:704    .text:00000000000004cc .L0 
     /tmp/ccrtxsRi.s:706    .text:00000000000004d0 .L0 
     /tmp/ccrtxsRi.s:707    .text:00000000000004d0 .L0 
     /tmp/ccrtxsRi.s:709    .text:00000000000004d4 .L0 
     /tmp/ccrtxsRi.s:713    .text:00000000000004e0 .L0 
     /tmp/ccrtxsRi.s:716    .text:00000000000004e8 .L0 
     /tmp/ccrtxsRi.s:718    .text:00000000000004ec .L0 
     /tmp/ccrtxsRi.s:720    .text:00000000000004f0 .L0 
     /tmp/ccrtxsRi.s:722    .text:00000000000004f4 .L0 
     /tmp/ccrtxsRi.s:724    .text:00000000000004f8 .L0 
     /tmp/ccrtxsRi.s:733    .text:0000000000000500 .L0 
     /tmp/ccrtxsRi.s:740    .text:0000000000000508 .L0 
     /tmp/ccrtxsRi.s:743    .text:0000000000000510 .L0 
     /tmp/ccrtxsRi.s:754    .text:0000000000000510 _ZN16KObjectAllocator10freeObjectEPv
     /tmp/ccrtxsRi.s:757    .text:0000000000000510 .L0 
     /tmp/ccrtxsRi.s:759    .text:0000000000000510 .L0 
     /tmp/ccrtxsRi.s:761    .text:0000000000000510 .L0 
     /tmp/ccrtxsRi.s:762    .text:0000000000000510 .L0 
     /tmp/ccrtxsRi.s:767    .text:0000000000000518 .L0 
     /tmp/ccrtxsRi.s:771    .text:000000000000051c .L0 
     /tmp/ccrtxsRi.s:772    .text:000000000000051c .L0 
     /tmp/ccrtxsRi.s:774    .text:0000000000000520 .L0 
     /tmp/ccrtxsRi.s:777    .text:0000000000000524 .L0 
     /tmp/ccrtxsRi.s:778    .text:0000000000000524 .L0 
     /tmp/ccrtxsRi.s:780    .text:0000000000000528 .L0 
     /tmp/ccrtxsRi.s:784    .text:0000000000000534 .L0 
     /tmp/ccrtxsRi.s:786    .text:0000000000000538 .L0 
     /tmp/ccrtxsRi.s:787    .text:0000000000000538 .L0 
     /tmp/ccrtxsRi.s:790    .text:000000000000053c .L0 
     /tmp/ccrtxsRi.s:791    .text:000000000000053c .L0 
     /tmp/ccrtxsRi.s:793    .text:0000000000000540 .L0 
     /tmp/ccrtxsRi.s:796    .text:0000000000000544 .L0 
     /tmp/ccrtxsRi.s:799    .text:0000000000000548 .L0 
     /tmp/ccrtxsRi.s:800    .text:0000000000000548 .L0 
     /tmp/ccrtxsRi.s:802    .text:000000000000054c .L0 
     /tmp/ccrtxsRi.s:804    .text:0000000000000550 .L0 
     /tmp/ccrtxsRi.s:805    .text:0000000000000550 .L0 
     /tmp/ccrtxsRi.s:808    .text:0000000000000554 .L0 
     /tmp/ccrtxsRi.s:810    .text:0000000000000558 .L0 
     /tmp/ccrtxsRi.s:815    .text:0000000000000560 .L0 
     /tmp/ccrtxsRi.s:817    .text:0000000000000564 .L0 
     /tmp/ccrtxsRi.s:820    .text:000000000000056c .L0 
     /tmp/ccrtxsRi.s:824    .text:0000000000000574 .L0 
     /tmp/ccrtxsRi.s:829    .text:0000000000000584 .L0 
GAS LISTING /tmp/ccrtxsRi.s 			page 36


     /tmp/ccrtxsRi.s:835    .text:0000000000000588 .L0 
     /tmp/ccrtxsRi.s:836    .text:000000000000058c .L0 
     /tmp/ccrtxsRi.s:839    .text:0000000000000594 .L0 
     /tmp/ccrtxsRi.s:840    .text:0000000000000594 .L0 
     /tmp/ccrtxsRi.s:842    .text:0000000000000598 .L0 
     /tmp/ccrtxsRi.s:844    .text:0000000000000598 .L0 
     /tmp/ccrtxsRi.s:845    .text:0000000000000598 .L0 
     /tmp/ccrtxsRi.s:850    .text:00000000000005a8 .L0 
     /tmp/ccrtxsRi.s:851    .text:00000000000005ac .L0 
     /tmp/ccrtxsRi.s:853    .text:00000000000005b0 .L0 
     /tmp/ccrtxsRi.s:854    .text:00000000000005b0 .L0 
     /tmp/ccrtxsRi.s:856    .text:00000000000005b4 .L0 
     /tmp/ccrtxsRi.s:858    .text:00000000000005b8 .L0 
     /tmp/ccrtxsRi.s:864    .text:00000000000005b8 _ZN16KObjectAllocator28handleNotEnoughMemoryProblemEv
     /tmp/ccrtxsRi.s:867    .text:00000000000005b8 .L0 
     /tmp/ccrtxsRi.s:869    .text:00000000000005b8 .L0 
     /tmp/ccrtxsRi.s:870    .text:00000000000005bc .L0 
     /tmp/ccrtxsRi.s:880    .text:00000000000005e0 .L0 
     /tmp/ccrtxsRi.s:881    .text:00000000000005e0 .L0 
     /tmp/ccrtxsRi.s:882    .text:00000000000005e0 .L0 
     /tmp/ccrtxsRi.s:883    .text:00000000000005e0 .L0 
     /tmp/ccrtxsRi.s:884    .text:00000000000005e0 .L0 
     /tmp/ccrtxsRi.s:885    .text:00000000000005e0 .L0 
     /tmp/ccrtxsRi.s:886    .text:00000000000005e0 .L0 
     /tmp/ccrtxsRi.s:887    .text:00000000000005e0 .L0 
     /tmp/ccrtxsRi.s:888    .text:00000000000005e0 .L0 
     /tmp/ccrtxsRi.s:890    .text:00000000000005e4 .L0 
     /tmp/ccrtxsRi.s:893    .text:00000000000005e8 .L0 
     /tmp/ccrtxsRi.s:894    .text:00000000000005e8 .L0 
     /tmp/ccrtxsRi.s:896    .text:00000000000005ec .L0 
     /tmp/ccrtxsRi.s:899    .text:00000000000005f0 .L0 
     /tmp/ccrtxsRi.s:900    .text:00000000000005f0 .L0 
     /tmp/ccrtxsRi.s:903    .text:00000000000005f4 .L0 
     /tmp/ccrtxsRi.s:904    .text:00000000000005f4 .L0 
     /tmp/ccrtxsRi.s:911    .text:000000000000060c .L0 
     /tmp/ccrtxsRi.s:916    .text:0000000000000618 .L0 
     /tmp/ccrtxsRi.s:917    .text:0000000000000618 .L0 
     /tmp/ccrtxsRi.s:925    .text:0000000000000630 .L0 
     /tmp/ccrtxsRi.s:928    .text:0000000000000634 .L0 
     /tmp/ccrtxsRi.s:932    .text:0000000000000638 .L0 
     /tmp/ccrtxsRi.s:933    .text:0000000000000638 .L0 
     /tmp/ccrtxsRi.s:935    .text:000000000000063c .L0 
     /tmp/ccrtxsRi.s:937    .text:0000000000000640 .L0 
     /tmp/ccrtxsRi.s:938    .text:0000000000000640 .L0 
     /tmp/ccrtxsRi.s:940    .text:0000000000000644 .L0 
     /tmp/ccrtxsRi.s:942    .text:0000000000000648 .L0 
     /tmp/ccrtxsRi.s:944    .text:000000000000064c .L0 
     /tmp/ccrtxsRi.s:947    .text:0000000000000654 .L0 
     /tmp/ccrtxsRi.s:949    .text:0000000000000658 .L0 
     /tmp/ccrtxsRi.s:957    .text:0000000000000660 .L0 
     /tmp/ccrtxsRi.s:961    .text:0000000000000664 .L0 
     /tmp/ccrtxsRi.s:963    .text:0000000000000668 .L0 
     /tmp/ccrtxsRi.s:964    .text:0000000000000668 .L0 
     /tmp/ccrtxsRi.s:967    .text:0000000000000670 .L0 
     /tmp/ccrtxsRi.s:969    .text:0000000000000674 .L0 
     /tmp/ccrtxsRi.s:971    .text:0000000000000678 .L0 
     /tmp/ccrtxsRi.s:973    .text:000000000000067c .L0 
GAS LISTING /tmp/ccrtxsRi.s 			page 37


     /tmp/ccrtxsRi.s:975    .text:0000000000000680 .L0 
     /tmp/ccrtxsRi.s:978    .text:0000000000000688 .L0 
     /tmp/ccrtxsRi.s:982    .text:0000000000000694 .L0 
     /tmp/ccrtxsRi.s:984    .text:0000000000000698 .L0 
     /tmp/ccrtxsRi.s:986    .text:000000000000069c .L0 
     /tmp/ccrtxsRi.s:992    .text:00000000000006a4 .L0 
     /tmp/ccrtxsRi.s:996    .text:00000000000006a8 .L0 
     /tmp/ccrtxsRi.s:998    .text:00000000000006ac .L0 
     /tmp/ccrtxsRi.s:999    .text:00000000000006ac .L0 
     /tmp/ccrtxsRi.s:1003   .text:00000000000006b8 .L0 
     /tmp/ccrtxsRi.s:1005   .text:00000000000006bc .L0 
     /tmp/ccrtxsRi.s:1007   .text:00000000000006c0 .L0 
     /tmp/ccrtxsRi.s:1009   .text:00000000000006c4 .L0 
     /tmp/ccrtxsRi.s:1011   .text:00000000000006c8 .L0 
     /tmp/ccrtxsRi.s:1018   .text:00000000000006d0 .L0 
     /tmp/ccrtxsRi.s:1019   .text:00000000000006d0 .L0 
     /tmp/ccrtxsRi.s:1026   .text:00000000000006d8 .L0 
     /tmp/ccrtxsRi.s:1027   .text:00000000000006d8 .L0 
     /tmp/ccrtxsRi.s:1032   .text:00000000000006e4 .L0 
     /tmp/ccrtxsRi.s:1034   .text:00000000000006e8 .L0 
     /tmp/ccrtxsRi.s:1036   .text:00000000000006ec .L0 
     /tmp/ccrtxsRi.s:1040   .text:00000000000006f0 .L0 
     /tmp/ccrtxsRi.s:1041   .text:00000000000006f0 .L0 
     /tmp/ccrtxsRi.s:1043   .text:00000000000006f4 .L0 
     /tmp/ccrtxsRi.s:1046   .text:00000000000006f8 .L0 
     /tmp/ccrtxsRi.s:1050   .text:00000000000006fc .L0 
     /tmp/ccrtxsRi.s:1053   .text:0000000000000700 .L0 
     /tmp/ccrtxsRi.s:1059   .text:0000000000000708 .L0 
     /tmp/ccrtxsRi.s:1060   .text:0000000000000708 .L0 
     /tmp/ccrtxsRi.s:1066   .text:000000000000071c .L0 
     /tmp/ccrtxsRi.s:1067   .text:000000000000071c .L0 
     /tmp/ccrtxsRi.s:1073   .text:0000000000000730 .L0 
     /tmp/ccrtxsRi.s:1074   .text:0000000000000730 .L0 
     /tmp/ccrtxsRi.s:1076   .text:0000000000000734 .L0 
     /tmp/ccrtxsRi.s:1077   .text:0000000000000734 .L0 
     /tmp/ccrtxsRi.s:1079   .text:0000000000000738 .L0 
     /tmp/ccrtxsRi.s:1081   .text:000000000000073c .L0 
     /tmp/ccrtxsRi.s:1083   .text:0000000000000740 .L0 
     /tmp/ccrtxsRi.s:1085   .text:0000000000000744 .L0 
     /tmp/ccrtxsRi.s:1086   .text:0000000000000744 .L0 
     /tmp/ccrtxsRi.s:1088   .text:0000000000000748 .L0 
     /tmp/ccrtxsRi.s:1089   .text:0000000000000748 .L0 
     /tmp/ccrtxsRi.s:1091   .text:000000000000074c .L0 
     /tmp/ccrtxsRi.s:1092   .text:000000000000074c .L0 
     /tmp/ccrtxsRi.s:1094   .text:0000000000000750 .L0 
     /tmp/ccrtxsRi.s:1095   .text:0000000000000750 .L0 
     /tmp/ccrtxsRi.s:1100   .text:0000000000000758 .L0 
     /tmp/ccrtxsRi.s:1104   .text:000000000000075c .L0 
     /tmp/ccrtxsRi.s:1105   .text:0000000000000760 .L0 
     /tmp/ccrtxsRi.s:1106   .text:0000000000000760 .L0 
     /tmp/ccrtxsRi.s:1108   .text:0000000000000764 .L0 
     /tmp/ccrtxsRi.s:1109   .text:0000000000000764 .L0 
     /tmp/ccrtxsRi.s:1111   .text:0000000000000768 .L0 
     /tmp/ccrtxsRi.s:1114   .text:000000000000076c .L0 
     /tmp/ccrtxsRi.s:1116   .text:0000000000000770 .L0 
     /tmp/ccrtxsRi.s:1119   .text:0000000000000774 .L0 
     /tmp/ccrtxsRi.s:1121   .text:0000000000000778 .L0 
GAS LISTING /tmp/ccrtxsRi.s 			page 38


     /tmp/ccrtxsRi.s:1123   .text:000000000000077c .L0 
     /tmp/ccrtxsRi.s:1125   .text:0000000000000780 .L0 
     /tmp/ccrtxsRi.s:1127   .text:0000000000000784 .L0 
     /tmp/ccrtxsRi.s:1131   .text:0000000000000788 .L0 
     /tmp/ccrtxsRi.s:1133   .text:0000000000000788 .L0 
     /tmp/ccrtxsRi.s:1136   .text:0000000000000790 .L0 
     /tmp/ccrtxsRi.s:1153   .text:0000000000000790 _ZN16KObjectAllocator17allocateNewObjectEv
     /tmp/ccrtxsRi.s:1156   .text:0000000000000790 .L0 
     /tmp/ccrtxsRi.s:1158   .text:0000000000000790 .L0 
     /tmp/ccrtxsRi.s:1159   .text:0000000000000794 .L0 
     /tmp/ccrtxsRi.s:1164   .text:00000000000007a4 .L0 
     /tmp/ccrtxsRi.s:1165   .text:00000000000007a4 .L0 
     /tmp/ccrtxsRi.s:1166   .text:00000000000007a4 .L0 
     /tmp/ccrtxsRi.s:1167   .text:00000000000007a4 .L0 
     /tmp/ccrtxsRi.s:1169   .text:00000000000007a8 .L0 
     /tmp/ccrtxsRi.s:1172   .text:00000000000007ac .L0 
     /tmp/ccrtxsRi.s:1173   .text:00000000000007ac .L0 
     /tmp/ccrtxsRi.s:1176   .text:00000000000007b4 .L0 
     /tmp/ccrtxsRi.s:1179   .text:00000000000007bc .L0 
     /tmp/ccrtxsRi.s:1180   .text:00000000000007bc .L0 
     /tmp/ccrtxsRi.s:1185   .text:00000000000007cc .L0 
     /tmp/ccrtxsRi.s:1186   .text:00000000000007cc .L0 
     /tmp/ccrtxsRi.s:1191   .text:00000000000007d8 .L0 
     /tmp/ccrtxsRi.s:1192   .text:00000000000007d8 .L0 
     /tmp/ccrtxsRi.s:1194   .text:00000000000007e0 .L0 
     /tmp/ccrtxsRi.s:1195   .text:00000000000007e0 .L0 
     /tmp/ccrtxsRi.s:1197   .text:00000000000007e4 .L0 
     /tmp/ccrtxsRi.s:1198   .text:00000000000007e4 .L0 
     /tmp/ccrtxsRi.s:1200   .text:00000000000007e8 .L0 
     /tmp/ccrtxsRi.s:1202   .text:00000000000007ec .L0 
     /tmp/ccrtxsRi.s:1205   .text:00000000000007f0 .L0 
     /tmp/ccrtxsRi.s:1209   .text:00000000000007f4 .L0 
     /tmp/ccrtxsRi.s:1211   .text:00000000000007f4 .L0 
     /tmp/ccrtxsRi.s:1212   .text:00000000000007f4 .L0 
     /tmp/ccrtxsRi.s:1214   .text:00000000000007f8 .L0 
     /tmp/ccrtxsRi.s:1215   .text:00000000000007f8 .L0 
     /tmp/ccrtxsRi.s:1222   .text:0000000000000808 .L0 
     /tmp/ccrtxsRi.s:1224   .text:000000000000080c .L0 
     /tmp/ccrtxsRi.s:1225   .text:000000000000080c .L0 
     /tmp/ccrtxsRi.s:1229   .text:000000000000081c .L0 
     /tmp/ccrtxsRi.s:1230   .text:000000000000081c .L0 
     /tmp/ccrtxsRi.s:1234   .text:0000000000000828 .L0 
     /tmp/ccrtxsRi.s:1235   .text:0000000000000828 .L0 
     /tmp/ccrtxsRi.s:1238   .text:000000000000082c .L0 
     /tmp/ccrtxsRi.s:1239   .text:000000000000082c .L0 
     /tmp/ccrtxsRi.s:1243   .text:0000000000000838 .L0 
     /tmp/ccrtxsRi.s:1245   .text:000000000000083c .L0 
     /tmp/ccrtxsRi.s:1246   .text:000000000000083c .L0 
     /tmp/ccrtxsRi.s:1252   .text:000000000000084c .L0 
     /tmp/ccrtxsRi.s:1254   .text:0000000000000850 .L0 
     /tmp/ccrtxsRi.s:1255   .text:0000000000000850 .L0 
     /tmp/ccrtxsRi.s:1259   .text:0000000000000860 .L0 
     /tmp/ccrtxsRi.s:1260   .text:0000000000000860 .L0 
     /tmp/ccrtxsRi.s:1264   .text:000000000000086c .L0 
     /tmp/ccrtxsRi.s:1265   .text:000000000000086c .L0 
     /tmp/ccrtxsRi.s:1266   .text:0000000000000870 .L0 
     /tmp/ccrtxsRi.s:1274   .text:0000000000000870 .L0 
GAS LISTING /tmp/ccrtxsRi.s 			page 39


     /tmp/ccrtxsRi.s:8      .rodata.str1.8:0000000000000000 .LC0
     /tmp/ccrtxsRi.s:69     .text:0000000000000034 .L0 
     /tmp/ccrtxsRi.s:11     .rodata.str1.8:0000000000000008 .LC1
     /tmp/ccrtxsRi.s:95     .text:0000000000000074 .L0 
     /tmp/ccrtxsRi.s:14     .rodata.str1.8:0000000000000010 .LC2
     /tmp/ccrtxsRi.s:152    .text:00000000000000f0 .L0 
     /tmp/ccrtxsRi.s:17     .rodata.str1.8:0000000000000018 .LC3
     /tmp/ccrtxsRi.s:176    .text:0000000000000114 .L0 
     /tmp/ccrtxsRi.s:23     .rodata.str1.8:0000000000000028 .LC5
     /tmp/ccrtxsRi.s:208    .text:0000000000000140 .L0 
     /tmp/ccrtxsRi.s:20     .rodata.str1.8:0000000000000020 .LC4
     /tmp/ccrtxsRi.s:232    .text:0000000000000168 .L0 
     /tmp/ccrtxsRi.s:246    .text:0000000000000180 .L0 
     /tmp/ccrtxsRi.s:262    .text:0000000000000198 .L0 
     /tmp/ccrtxsRi.s:294    .text:00000000000001e4 .L0 
     /tmp/ccrtxsRi.s:350    .text:000000000000025c .L0 
     /tmp/ccrtxsRi.s:374    .text:0000000000000280 .L0 
     /tmp/ccrtxsRi.s:429    .rodata.str1.8:0000000000000030 .LC6
     /tmp/ccrtxsRi.s:507    .text:0000000000000318 .L0 
     /tmp/ccrtxsRi.s:432    .rodata.str1.8:0000000000000050 .LC7
     /tmp/ccrtxsRi.s:513    .text:0000000000000328 .L0 
     /tmp/ccrtxsRi.s:435    .rodata.str1.8:0000000000000060 .LC8
     /tmp/ccrtxsRi.s:518    .text:0000000000000338 .L0 
     /tmp/ccrtxsRi.s:528    .text:0000000000000354 .L0 
     /tmp/ccrtxsRi.s:438    .rodata.str1.8:0000000000000068 .LC9
     /tmp/ccrtxsRi.s:533    .text:0000000000000364 .L0 
     /tmp/ccrtxsRi.s:543    .text:0000000000000380 .L0 
     /tmp/ccrtxsRi.s:441    .rodata.str1.8:0000000000000070 .LC10
     /tmp/ccrtxsRi.s:548    .text:0000000000000390 .L0 
     /tmp/ccrtxsRi.s:558    .text:00000000000003ac .L0 
     /tmp/ccrtxsRi.s:444    .rodata.str1.8:0000000000000088 .LC11
     /tmp/ccrtxsRi.s:563    .text:00000000000003bc .L0 
     /tmp/ccrtxsRi.s:573    .text:00000000000003d8 .L0 
     /tmp/ccrtxsRi.s:447    .rodata.str1.8:0000000000000090 .LC12
     /tmp/ccrtxsRi.s:578    .text:00000000000003e8 .L0 
     /tmp/ccrtxsRi.s:588    .text:0000000000000404 .L0 
     /tmp/ccrtxsRi.s:593    .text:0000000000000414 .L0 
     /tmp/ccrtxsRi.s:748    .rodata.str1.8:0000000000000098 .LC13
     /tmp/ccrtxsRi.s:845    .text:0000000000000598 .L0 
     /tmp/ccrtxsRi.s:1141   .rodata.str1.8:00000000000000d0 .LC14
     /tmp/ccrtxsRi.s:1180   .text:00000000000007bc .L0 
     /tmp/ccrtxsRi.s:1144   .rodata.str1.8:00000000000000e0 .LC15
     /tmp/ccrtxsRi.s:1225   .text:000000000000080c .L0 
     /tmp/ccrtxsRi.s:1147   .rodata.str1.8:00000000000000f0 .LC16
     /tmp/ccrtxsRi.s:1255   .text:0000000000000850 .L0 
     /tmp/ccrtxsRi.s:183    .text:0000000000000128 .L11
     /tmp/ccrtxsRi.s:98     .text:0000000000000084 .L6
     /tmp/ccrtxsRi.s:129    .text:00000000000000c4 .L7
     /tmp/ccrtxsRi.s:148    .text:00000000000000f0 .L4
     /tmp/ccrtxsRi.s:62     .text:0000000000000034 .L27
     /tmp/ccrtxsRi.s:73     .text:0000000000000048 .L28
     /tmp/ccrtxsRi.s:80     .text:0000000000000058 .L8
     /tmp/ccrtxsRi.s:170    .text:0000000000000114 .L3
     /tmp/ccrtxsRi.s:102    .text:0000000000000088 .L9
     /tmp/ccrtxsRi.s:196    .text:0000000000000138 .L25
     /tmp/ccrtxsRi.s:159    .text:0000000000000104 .L10
     /tmp/ccrtxsRi.s:215    .text:0000000000000154 .L2
GAS LISTING /tmp/ccrtxsRi.s 			page 40


     /tmp/ccrtxsRi.s:240    .text:0000000000000180 .L12
     /tmp/ccrtxsRi.s:204    .text:0000000000000140 .L13
     /tmp/ccrtxsRi.s:225    .text:0000000000000160 .L14
     /tmp/ccrtxsRi.s:381    .text:0000000000000294 .L24
     /tmp/ccrtxsRi.s:297    .text:00000000000001f4 .L19
     /tmp/ccrtxsRi.s:332    .text:000000000000023c .L20
     /tmp/ccrtxsRi.s:346    .text:000000000000025c .L17
     /tmp/ccrtxsRi.s:255    .text:0000000000000198 .L29
     /tmp/ccrtxsRi.s:266    .text:00000000000001ac .L30
     /tmp/ccrtxsRi.s:279    .text:00000000000001c8 .L21
     /tmp/ccrtxsRi.s:273    .text:00000000000001bc .L31
     /tmp/ccrtxsRi.s:368    .text:0000000000000280 .L16
     /tmp/ccrtxsRi.s:301    .text:00000000000001f8 .L22
     /tmp/ccrtxsRi.s:398    .text:00000000000002ac .L1
     /tmp/ccrtxsRi.s:357    .text:0000000000000270 .L23
     /tmp/ccrtxsRi.s:737    .text:0000000000000508 .L40
     /tmp/ccrtxsRi.s:678    .text:00000000000004ac .L38
     /tmp/ccrtxsRi.s:728    .text:0000000000000500 .L34
     /tmp/ccrtxsRi.s:671    .text:00000000000004a8 .L35
     /tmp/ccrtxsRi.s:502    .text:0000000000000318 .L42
     /tmp/ccrtxsRi.s:702    .text:00000000000004cc .L37
     /tmp/ccrtxsRi.s:487    .text:0000000000000308 .L39
     /tmp/ccrtxsRi.s:639    .text:000000000000047c .L32
     /tmp/ccrtxsRi.s:769    .text:000000000000051c .L47
     /tmp/ccrtxsRi.s:831    .text:0000000000000588 .L44
     /tmp/ccrtxsRi.s:765    .text:0000000000000518 .L45
     /tmp/ccrtxsRi.s:1098   .text:0000000000000758 .L61
     /tmp/ccrtxsRi.s:1130   .text:0000000000000788 .L62
     /tmp/ccrtxsRi.s:959    .text:0000000000000664 .L53
     /tmp/ccrtxsRi.s:929    .text:0000000000000638 .L54
     /tmp/ccrtxsRi.s:988    .text:00000000000006a4 .L63
     /tmp/ccrtxsRi.s:953    .text:0000000000000660 .L66
     /tmp/ccrtxsRi.s:1102   .text:000000000000075c .L52
     /tmp/ccrtxsRi.s:1014   .text:00000000000006d0 .L56
     /tmp/ccrtxsRi.s:993    .text:00000000000006a8 .L55
     /tmp/ccrtxsRi.s:1048   .text:00000000000006fc .L60
     /tmp/ccrtxsRi.s:1023   .text:00000000000006d8 .L67
     /tmp/ccrtxsRi.s:1055   .text:0000000000000708 .L57
     /tmp/ccrtxsRi.s:1038   .text:00000000000006f0 .L59
     /tmp/ccrtxsRi.s:1208   .text:00000000000007f4 .L69
     /tmp/ccrtxsRi.s:1236   .text:000000000000082c .L71
     /tmp/ccrtxsRi.s:1190   .text:00000000000007d8 .L68
     /tmp/ccrtxsRi.s:2766   .debug_abbrev:0000000000000000 .Ldebug_abbrev0
     /tmp/ccrtxsRi.s:4086   .debug_str:000000000000075d .LASF99
     /tmp/ccrtxsRi.s:4020   .debug_str:0000000000000451 .LASF100
     /tmp/ccrtxsRi.s:4046   .debug_str:0000000000000574 .LASF101
     /tmp/ccrtxsRi.s:5      .text:0000000000000000 .Ltext0
     /tmp/ccrtxsRi.s:1269   .text:0000000000000870 .Letext0
     /tmp/ccrtxsRi.s:3912   .debug_line:0000000000000000 .Ldebug_line0
     /tmp/ccrtxsRi.s:4012   .debug_str:0000000000000412 .LASF0
     /tmp/ccrtxsRi.s:4024   .debug_str:000000000000047d .LASF1
     /tmp/ccrtxsRi.s:4002   .debug_str:00000000000003a5 .LASF2
     /tmp/ccrtxsRi.s:3956   .debug_str:00000000000001f9 .LASF3
     /tmp/ccrtxsRi.s:3978   .debug_str:00000000000002e3 .LASF4
     /tmp/ccrtxsRi.s:4068   .debug_str:00000000000006b7 .LASF5
     /tmp/ccrtxsRi.s:3928   .debug_str:00000000000000a0 .LASF6
     /tmp/ccrtxsRi.s:4028   .debug_str:0000000000000496 .LASF7
GAS LISTING /tmp/ccrtxsRi.s 			page 41


     /tmp/ccrtxsRi.s:4010   .debug_str:00000000000003ff .LASF8
     /tmp/ccrtxsRi.s:4102   .debug_str:00000000000008c5 .LASF9
     /tmp/ccrtxsRi.s:3968   .debug_str:0000000000000253 .LASF10
     /tmp/ccrtxsRi.s:4040   .debug_str:0000000000000533 .LASF11
     /tmp/ccrtxsRi.s:4092   .debug_str:0000000000000874 .LASF12
     /tmp/ccrtxsRi.s:3930   .debug_str:00000000000000a7 .LASF13
     /tmp/ccrtxsRi.s:3920   .debug_str:0000000000000055 .LASF14
     /tmp/ccrtxsRi.s:3942   .debug_str:000000000000013f .LASF15
     /tmp/ccrtxsRi.s:4060   .debug_str:000000000000065d .LASF16
     /tmp/ccrtxsRi.s:3954   .debug_str:00000000000001e3 .LASF17
     /tmp/ccrtxsRi.s:4000   .debug_str:0000000000000395 .LASF50
     /tmp/ccrtxsRi.s:4044   .debug_str:0000000000000562 .LASF102
     /tmp/ccrtxsRi.s:3994   .debug_str:0000000000000367 .LASF18
     /tmp/ccrtxsRi.s:4124   .debug_str:00000000000009bd .LASF19
     /tmp/ccrtxsRi.s:4018   .debug_str:0000000000000448 .LASF103
     /tmp/ccrtxsRi.s:4090   .debug_str:0000000000000854 .LASF104
     /tmp/ccrtxsRi.s:4100   .debug_str:00000000000008ae .LASF36
     /tmp/ccrtxsRi.s:3944   .debug_str:000000000000014b .LASF38
     /tmp/ccrtxsRi.s:4074   .debug_str:00000000000006f4 .LASF24
     /tmp/ccrtxsRi.s:4032   .debug_str:00000000000004b9 .LASF26
     /tmp/ccrtxsRi.s:4096   .debug_str:0000000000000895 .LASF20
     /tmp/ccrtxsRi.s:4056   .debug_str:000000000000060e .LASF22
     /tmp/ccrtxsRi.s:4108   .debug_str:0000000000000904 .LASF21
     /tmp/ccrtxsRi.s:3924   .debug_str:0000000000000071 .LASF23
     /tmp/ccrtxsRi.s:4062   .debug_str:0000000000000673 .LASF25
     /tmp/ccrtxsRi.s:4054   .debug_str:00000000000005d7 .LASF27
     /tmp/ccrtxsRi.s:3938   .debug_str:000000000000011a .LASF28
     /tmp/ccrtxsRi.s:3948   .debug_str:00000000000001a0 .LASF29
     /tmp/ccrtxsRi.s:3988   .debug_str:0000000000000338 .LASF30
     /tmp/ccrtxsRi.s:4104   .debug_str:00000000000008d5 .LASF31
     /tmp/ccrtxsRi.s:3998   .debug_str:0000000000000387 .LASF32
     /tmp/ccrtxsRi.s:3946   .debug_str:000000000000017a .LASF33
     /tmp/ccrtxsRi.s:4110   .debug_str:000000000000090e .LASF34
     /tmp/ccrtxsRi.s:3976   .debug_str:00000000000002bc .LASF35
     /tmp/ccrtxsRi.s:3962   .debug_str:0000000000000229 .LASF37
     /tmp/ccrtxsRi.s:3980   .debug_str:00000000000002ea .LASF39
     /tmp/ccrtxsRi.s:3926   .debug_str:0000000000000093 .LASF40
     /tmp/ccrtxsRi.s:4112   .debug_str:000000000000091d .LASF41
     /tmp/ccrtxsRi.s:4072   .debug_str:00000000000006de .LASF42
     /tmp/ccrtxsRi.s:4078   .debug_str:0000000000000716 .LASF43
     /tmp/ccrtxsRi.s:4048   .debug_str:00000000000005a7 .LASF44
     /tmp/ccrtxsRi.s:4042   .debug_str:0000000000000542 .LASF45
     /tmp/ccrtxsRi.s:4106   .debug_str:00000000000008fa .LASF46
     /tmp/ccrtxsRi.s:3984   .debug_str:000000000000031c .LASF47
     /tmp/ccrtxsRi.s:4120   .debug_str:00000000000009a5 .LASF48
     /tmp/ccrtxsRi.s:3918   .debug_str:0000000000000046 .LASF49
     /tmp/ccrtxsRi.s:3970   .debug_str:0000000000000261 .LASF51
     /tmp/ccrtxsRi.s:3936   .debug_str:0000000000000100 .LASF52
     /tmp/ccrtxsRi.s:3934   .debug_str:00000000000000e5 .LASF53
     /tmp/ccrtxsRi.s:3940   .debug_str:0000000000000132 .LASF54
     /tmp/ccrtxsRi.s:4004   .debug_str:00000000000003b3 .LASF55
     /tmp/ccrtxsRi.s:4076   .debug_str:0000000000000706 .LASF105
     /tmp/ccrtxsRi.s:3914   .debug_str:0000000000000000 .LASF106
     /tmp/ccrtxsRi.s:3974   .debug_str:00000000000002a8 .LASF56
     /tmp/ccrtxsRi.s:4114   .debug_str:0000000000000935 .LASF57
     /tmp/ccrtxsRi.s:3950   .debug_str:00000000000001d0 .LASF58
     /tmp/ccrtxsRi.s:4008   .debug_str:00000000000003d8 .LASF59
GAS LISTING /tmp/ccrtxsRi.s 			page 42


     /tmp/ccrtxsRi.s:4050   .debug_str:00000000000005b0 .LASF60
     /tmp/ccrtxsRi.s:4088   .debug_str:0000000000000821 .LASF61
     /tmp/ccrtxsRi.s:4064   .debug_str:0000000000000692 .LASF62
     /tmp/ccrtxsRi.s:4036   .debug_str:00000000000004f4 .LASF63
     /tmp/ccrtxsRi.s:4070   .debug_str:00000000000006c9 .LASF64
     /tmp/ccrtxsRi.s:3932   .debug_str:00000000000000b7 .LASF65
     /tmp/ccrtxsRi.s:4016   .debug_str:0000000000000431 .LASF66
     /tmp/ccrtxsRi.s:4116   .debug_str:0000000000000962 .LASF67
     /tmp/ccrtxsRi.s:4066   .debug_str:00000000000006a5 .LASF68
     /tmp/ccrtxsRi.s:3916   .debug_str:000000000000001b .LASF69
     /tmp/ccrtxsRi.s:4082   .debug_str:0000000000000743 .LASF70
     /tmp/ccrtxsRi.s:3958   .debug_str:00000000000001ff .LASF71
     /tmp/ccrtxsRi.s:3990   .debug_str:0000000000000345 .LASF72
     /tmp/ccrtxsRi.s:3972   .debug_str:0000000000000272 .LASF73
     /tmp/ccrtxsRi.s:4022   .debug_str:000000000000046a .LASF74
     /tmp/ccrtxsRi.s:4058   .debug_str:0000000000000631 .LASF75
     /tmp/ccrtxsRi.s:3996   .debug_str:0000000000000370 .LASF76
     /tmp/ccrtxsRi.s:4030   .debug_str:00000000000004a9 .LASF77
     /tmp/ccrtxsRi.s:4014   .debug_str:000000000000041f .LASF78
     /tmp/ccrtxsRi.s:3982   .debug_str:0000000000000311 .LASF79
     /tmp/ccrtxsRi.s:4098   .debug_str:00000000000008a0 .LASF80
     /tmp/ccrtxsRi.s:4006   .debug_str:00000000000003cd .LASF81
     /tmp/ccrtxsRi.s:4126   .debug_str:00000000000009c2 .LASF82
     /tmp/ccrtxsRi.s:4034   .debug_str:00000000000004e3 .LASF83
     /tmp/ccrtxsRi.s:3960   .debug_str:0000000000000224 .LASF84
     /tmp/ccrtxsRi.s:865    .text:00000000000005b8 .LFB20
     /tmp/ccrtxsRi.s:1137   .text:0000000000000790 .LFE20
     /tmp/ccrtxsRi.s:3952   .debug_str:00000000000001de .LASF89
     /tmp/ccrtxsRi.s:3392   .debug_loc:0000000000000000 .LLST19
     /tmp/ccrtxsRi.s:4080   .debug_str:000000000000072c .LASF85
     /tmp/ccrtxsRi.s:3414   .debug_loc:000000000000005f .LLST20
     /tmp/ccrtxsRi.s:4038   .debug_str:0000000000000520 .LASF86
     /tmp/ccrtxsRi.s:3425   .debug_loc:0000000000000095 .LLST21
     /tmp/ccrtxsRi.s:4128   .debug_str:00000000000009d6 .LASF87
     /tmp/ccrtxsRi.s:3452   .debug_loc:00000000000000f9 .LLST22
     /tmp/ccrtxsRi.s:3986   .debug_str:0000000000000327 .LASF88
     /tmp/ccrtxsRi.s:3471   .debug_loc:0000000000000155 .LLST23
     /tmp/ccrtxsRi.s:926    .text:0000000000000634 .LBB33
     /tmp/ccrtxsRi.s:954    .text:0000000000000660 .LBE33
     /tmp/ccrtxsRi.s:3490   .debug_loc:00000000000001b1 .LLST24
     /tmp/ccrtxsRi.s:955    .text:0000000000000660 .LBB34
     /tmp/ccrtxsRi.s:989    .text:00000000000006a4 .LBE34
     /tmp/ccrtxsRi.s:3497   .debug_loc:00000000000001d4 .LLST25
     /tmp/ccrtxsRi.s:965    .text:0000000000000670 .LVL100
     /tmp/ccrtxsRi.s:980    .text:0000000000000694 .LVL101
     /tmp/ccrtxsRi.s:990    .text:00000000000006a4 .LBB35
     /tmp/ccrtxsRi.s:1015   .text:00000000000006d0 .LBE35
     /tmp/ccrtxsRi.s:3504   .debug_loc:00000000000001f7 .LLST26
     /tmp/ccrtxsRi.s:1017   .text:00000000000006d0 .LBB36
     /tmp/ccrtxsRi.s:1057   .text:0000000000000708 .LBE36
     /tmp/ccrtxsRi.s:3511   .debug_loc:000000000000021a .LLST27
     /tmp/ccrtxsRi.s:3854   .debug_ranges:0000000000000000 .Ldebug_ranges0
     /tmp/ccrtxsRi.s:3518   .debug_loc:000000000000023d .LLST28
     /tmp/ccrtxsRi.s:905    .text:00000000000005fc .LVL90
     /tmp/ccrtxsRi.s:909    .text:000000000000060c .LVL91
     /tmp/ccrtxsRi.s:918    .text:0000000000000620 .LVL93
     /tmp/ccrtxsRi.s:921    .text:000000000000062c .LVL94
GAS LISTING /tmp/ccrtxsRi.s 			page 43


     /tmp/ccrtxsRi.s:1061   .text:0000000000000710 .LVL109
     /tmp/ccrtxsRi.s:1064   .text:000000000000071c .LVL110
     /tmp/ccrtxsRi.s:1068   .text:0000000000000724 .LVL111
     /tmp/ccrtxsRi.s:1071   .text:0000000000000730 .LVL112
     /tmp/ccrtxsRi.s:755    .text:0000000000000510 .LFB19
     /tmp/ccrtxsRi.s:859    .text:00000000000005b8 .LFE19
     /tmp/ccrtxsRi.s:3535   .debug_loc:0000000000000288 .LLST13
     /tmp/ccrtxsRi.s:3966   .debug_str:0000000000000245 .LASF107
     /tmp/ccrtxsRi.s:3549   .debug_loc:00000000000002c1 .LLST14
     /tmp/ccrtxsRi.s:760    .text:0000000000000510 .LBB31
     /tmp/ccrtxsRi.s:833    .text:0000000000000588 .LBE31
     /tmp/ccrtxsRi.s:3563   .debug_loc:00000000000002fa .LLST15
     /tmp/ccrtxsRi.s:775    .text:0000000000000524 .LBB32
     /tmp/ccrtxsRi.s:832    .text:0000000000000588 .LBE32
     /tmp/ccrtxsRi.s:4026   .debug_str:0000000000000490 .LASF90
     /tmp/ccrtxsRi.s:3579   .debug_loc:0000000000000344 .LLST16
     /tmp/ccrtxsRi.s:3992   .debug_str:0000000000000362 .LASF91
     /tmp/ccrtxsRi.s:3616   .debug_loc:00000000000003a3 .LLST17
     /tmp/ccrtxsRi.s:3623   .debug_loc:00000000000003c6 .LLST18
     /tmp/ccrtxsRi.s:848    .text:00000000000005a8 .LVL86
     /tmp/ccrtxsRi.s:454    .text:00000000000002d4 .LFB18
     /tmp/ccrtxsRi.s:744    .text:0000000000000510 .LFE18
     /tmp/ccrtxsRi.s:3630   .debug_loc:00000000000003e9 .LLST8
     /tmp/ccrtxsRi.s:3656   .debug_loc:000000000000045b .LLST9
     /tmp/ccrtxsRi.s:3672   .debug_loc:00000000000004a5 .LLST10
     /tmp/ccrtxsRi.s:3683   .debug_loc:00000000000004db .LLST11
     /tmp/ccrtxsRi.s:3704   .debug_loc:0000000000000539 .LLST12
     /tmp/ccrtxsRi.s:510    .text:0000000000000328 .LVL41
     /tmp/ccrtxsRi.s:515    .text:0000000000000338 .LVL42
     /tmp/ccrtxsRi.s:520    .text:0000000000000348 .LVL43
     /tmp/ccrtxsRi.s:525    .text:0000000000000354 .LVL44
     /tmp/ccrtxsRi.s:530    .text:0000000000000364 .LVL45
     /tmp/ccrtxsRi.s:535    .text:0000000000000374 .LVL46
     /tmp/ccrtxsRi.s:540    .text:0000000000000380 .LVL47
     /tmp/ccrtxsRi.s:545    .text:0000000000000390 .LVL48
     /tmp/ccrtxsRi.s:550    .text:00000000000003a0 .LVL49
     /tmp/ccrtxsRi.s:555    .text:00000000000003ac .LVL50
     /tmp/ccrtxsRi.s:560    .text:00000000000003bc .LVL51
     /tmp/ccrtxsRi.s:565    .text:00000000000003cc .LVL52
     /tmp/ccrtxsRi.s:570    .text:00000000000003d8 .LVL53
     /tmp/ccrtxsRi.s:575    .text:00000000000003e8 .LVL54
     /tmp/ccrtxsRi.s:580    .text:00000000000003f8 .LVL55
     /tmp/ccrtxsRi.s:585    .text:0000000000000404 .LVL56
     /tmp/ccrtxsRi.s:590    .text:0000000000000414 .LVL57
     /tmp/ccrtxsRi.s:595    .text:0000000000000424 .LVL58
     /tmp/ccrtxsRi.s:1154   .text:0000000000000790 .LFB17
     /tmp/ccrtxsRi.s:1267   .text:0000000000000870 .LFE17
     /tmp/ccrtxsRi.s:3724   .debug_loc:0000000000000596 .LLST29
     /tmp/ccrtxsRi.s:4084   .debug_str:000000000000074e .LASF92
     /tmp/ccrtxsRi.s:3746   .debug_loc:00000000000005f5 .LLST30
     /tmp/ccrtxsRi.s:1174   .text:00000000000007b4 .LVL120
     /tmp/ccrtxsRi.s:1183   .text:00000000000007cc .LVL122
     /tmp/ccrtxsRi.s:1188   .text:00000000000007d8 .LVL123
     /tmp/ccrtxsRi.s:1218   .text:0000000000000804 .LVL127
     /tmp/ccrtxsRi.s:1227   .text:000000000000081c .LVL129
     /tmp/ccrtxsRi.s:1232   .text:0000000000000828 .LVL130
     /tmp/ccrtxsRi.s:1241   .text:0000000000000838 .LVL131
GAS LISTING /tmp/ccrtxsRi.s 			page 44


     /tmp/ccrtxsRi.s:1248   .text:0000000000000848 .LVL132
     /tmp/ccrtxsRi.s:1257   .text:0000000000000860 .LVL134
     /tmp/ccrtxsRi.s:1262   .text:000000000000086c .LVL135
     /tmp/ccrtxsRi.s:30     .text:0000000000000000 .LFB16
     /tmp/ccrtxsRi.s:425    .text:00000000000002d4 .LFE16
     /tmp/ccrtxsRi.s:3765   .debug_loc:0000000000000651 .LLST0
     /tmp/ccrtxsRi.s:4122   .debug_str:00000000000009b1 .LASF93
     /tmp/ccrtxsRi.s:4052   .debug_str:00000000000005ca .LASF94
     /tmp/ccrtxsRi.s:3783   .debug_loc:000000000000069d .LLST1
     /tmp/ccrtxsRi.s:3795   .debug_loc:00000000000006d4 .LLST2
     /tmp/ccrtxsRi.s:3802   .debug_loc:00000000000006f7 .LLST3
     /tmp/ccrtxsRi.s:71     .text:0000000000000044 .LVL3
     /tmp/ccrtxsRi.s:78     .text:0000000000000054 .LVL4
     /tmp/ccrtxsRi.s:92     .text:0000000000000074 .LVL5
     /tmp/ccrtxsRi.s:97     .text:0000000000000084 .LVL6
     /tmp/ccrtxsRi.s:146    .text:00000000000000ec .LVL8
     /tmp/ccrtxsRi.s:154    .text:0000000000000100 .LVL9
     /tmp/ccrtxsRi.s:199    .text:0000000000000138 .LBB10
     /tmp/ccrtxsRi.s:243    .text:0000000000000180 .LBE10
     /tmp/ccrtxsRi.s:3809   .debug_loc:000000000000071a .LLST4
     /tmp/ccrtxsRi.s:222    .text:000000000000015c .LBB12
     /tmp/ccrtxsRi.s:241    .text:0000000000000180 .LBE12
     /tmp/ccrtxsRi.s:3816   .debug_loc:000000000000073d .LLST5
     /tmp/ccrtxsRi.s:234    .text:0000000000000178 .LVL17
     /tmp/ccrtxsRi.s:210    .text:0000000000000150 .LVL14
     /tmp/ccrtxsRi.s:3827   .debug_loc:0000000000000773 .LLST6
     /tmp/ccrtxsRi.s:3834   .debug_loc:0000000000000796 .LLST7
     /tmp/ccrtxsRi.s:264    .text:00000000000001a8 .LVL23
     /tmp/ccrtxsRi.s:271    .text:00000000000001b8 .LVL24
     /tmp/ccrtxsRi.s:278    .text:00000000000001c8 .LVL25
     /tmp/ccrtxsRi.s:291    .text:00000000000001e4 .LVL26
     /tmp/ccrtxsRi.s:296    .text:00000000000001f4 .LVL27
     /tmp/ccrtxsRi.s:352    .text:000000000000026c .LVL29
     /tmp/ccrtxsRi.s:178    .text:0000000000000124 .LVL11
     /tmp/ccrtxsRi.s:248    .text:0000000000000190 .LVL20
     /tmp/ccrtxsRi.s:376    .text:0000000000000290 .LVL31
     /tmp/ccrtxsRi.s:4118   .debug_str:0000000000000992 .LASF95
     /tmp/ccrtxsRi.s:3922   .debug_str:0000000000000065 .LASF97
     /tmp/ccrtxsRi.s:4094   .debug_str:0000000000000883 .LASF96
     /tmp/ccrtxsRi.s:3964   .debug_str:0000000000000238 .LASF98
     /tmp/ccrtxsRi.s:868    .text:00000000000005b8 .LVL87
     /tmp/ccrtxsRi.s:1112   .text:0000000000000768 .LVL115
     /tmp/ccrtxsRi.s:1129   .text:0000000000000788 .LVL117
     /tmp/ccrtxsRi.s:897    .text:00000000000005f0 .LVL88
     /tmp/ccrtxsRi.s:1117   .text:0000000000000770 .LVL116
     /tmp/ccrtxsRi.s:901    .text:00000000000005f4 .LVL89
     /tmp/ccrtxsRi.s:913    .text:0000000000000614 .LVL92
     /tmp/ccrtxsRi.s:1097   .text:0000000000000758 .LVL113
     /tmp/ccrtxsRi.s:1101   .text:000000000000075c .LVL114
     /tmp/ccrtxsRi.s:923    .text:0000000000000630 .LVL95
     /tmp/ccrtxsRi.s:952    .text:0000000000000660 .LVL98
     /tmp/ccrtxsRi.s:1134   .text:000000000000078c .LVL118
     /tmp/ccrtxsRi.s:930    .text:0000000000000638 .LVL96
     /tmp/ccrtxsRi.s:994    .text:00000000000006a8 .LVL102
     /tmp/ccrtxsRi.s:1022   .text:00000000000006d8 .LVL105
     /tmp/ccrtxsRi.s:1020   .text:00000000000006d4 .LVL104
     /tmp/ccrtxsRi.s:1030   .text:00000000000006e4 .LVL106
GAS LISTING /tmp/ccrtxsRi.s 			page 45


     /tmp/ccrtxsRi.s:1037   .text:00000000000006f0 .LVL107
     /tmp/ccrtxsRi.s:1047   .text:00000000000006fc .LVL108
     /tmp/ccrtxsRi.s:758    .text:0000000000000510 .LVL74
     /tmp/ccrtxsRi.s:846    .text:00000000000005a0 .LVL85
     /tmp/ccrtxsRi.s:764    .text:0000000000000518 .LVL75
     /tmp/ccrtxsRi.s:813    .text:0000000000000560 .LVL82
     /tmp/ccrtxsRi.s:830    .text:0000000000000588 .LVL84
     /tmp/ccrtxsRi.s:788    .text:000000000000053c .LVL77
     /tmp/ccrtxsRi.s:794    .text:0000000000000544 .LVL78
     /tmp/ccrtxsRi.s:811    .text:000000000000055c .LVL81
     /tmp/ccrtxsRi.s:797    .text:0000000000000548 .LVL79
     /tmp/ccrtxsRi.s:806    .text:0000000000000554 .LVL80
     /tmp/ccrtxsRi.s:821    .text:0000000000000570 .LVL83
     /tmp/ccrtxsRi.s:457    .text:00000000000002d4 .LVL35
     /tmp/ccrtxsRi.s:508    .text:0000000000000320 .LVL40
     /tmp/ccrtxsRi.s:659    .text:0000000000000494 .LVL63
     /tmp/ccrtxsRi.s:670    .text:00000000000004a8 .LVL65
     /tmp/ccrtxsRi.s:741    .text:000000000000050c .LVL73
     /tmp/ccrtxsRi.s:482    .text:0000000000000304 .LVL36
     /tmp/ccrtxsRi.s:486    .text:0000000000000308 .LVL37
     /tmp/ccrtxsRi.s:662    .text:0000000000000498 .LVL64
     /tmp/ccrtxsRi.s:499    .text:0000000000000314 .LVL38
     /tmp/ccrtxsRi.s:602    .text:0000000000000430 .LVL59
     /tmp/ccrtxsRi.s:736    .text:0000000000000508 .LVL72
     /tmp/ccrtxsRi.s:501    .text:0000000000000318 .LVL39
     /tmp/ccrtxsRi.s:627    .text:0000000000000468 .LVL60
     /tmp/ccrtxsRi.s:638    .text:000000000000047c .LVL62
     /tmp/ccrtxsRi.s:677    .text:00000000000004ac .LVL66
     /tmp/ccrtxsRi.s:696    .text:00000000000004c8 .LVL67
     /tmp/ccrtxsRi.s:727    .text:0000000000000500 .LVL70
     /tmp/ccrtxsRi.s:631    .text:0000000000000470 .LVL61
     /tmp/ccrtxsRi.s:701    .text:00000000000004cc .LVL68
     /tmp/ccrtxsRi.s:1157   .text:0000000000000790 .LVL119
     /tmp/ccrtxsRi.s:1203   .text:00000000000007ec .LVL124
     /tmp/ccrtxsRi.s:1207   .text:00000000000007f4 .LVL125
     /tmp/ccrtxsRi.s:1181   .text:00000000000007c4 .LVL121
     /tmp/ccrtxsRi.s:1216   .text:00000000000007fc .LVL126
     /tmp/ccrtxsRi.s:1220   .text:0000000000000808 .LVL128
     /tmp/ccrtxsRi.s:34     .text:0000000000000000 .LVL0
     /tmp/ccrtxsRi.s:61     .text:0000000000000034 .LVL2
     /tmp/ccrtxsRi.s:409    .text:00000000000002b8 .LVL33
     /tmp/ccrtxsRi.s:57     .text:000000000000002c .LVL1
     /tmp/ccrtxsRi.s:418    .text:00000000000002c8 .LVL34
     /tmp/ccrtxsRi.s:182    .text:0000000000000128 .LVL12
     /tmp/ccrtxsRi.s:158    .text:0000000000000104 .LVL10
     /tmp/ccrtxsRi.s:203    .text:0000000000000140 .LVL13
     /tmp/ccrtxsRi.s:254    .text:0000000000000198 .LVL22
     /tmp/ccrtxsRi.s:214    .text:0000000000000154 .LVL15
     /tmp/ccrtxsRi.s:226    .text:0000000000000160 .LVL16
     /tmp/ccrtxsRi.s:239    .text:0000000000000180 .LVL19
     /tmp/ccrtxsRi.s:380    .text:0000000000000294 .LVL32
     /tmp/ccrtxsRi.s:356    .text:0000000000000270 .LVL30
     /tmp/ccrtxsRi.s:1275   .debug_info:0000000000000000 .Ldebug_info0
     /tmp/ccrtxsRi.s:64     .text:0000000000000034 .LBB3
     /tmp/ccrtxsRi.s:173    .text:0000000000000114 .LBE3
     /tmp/ccrtxsRi.s:192    .text:0000000000000130 .LBB8
     /tmp/ccrtxsRi.s:197    .text:0000000000000138 .LBE8
GAS LISTING /tmp/ccrtxsRi.s 			page 46


     /tmp/ccrtxsRi.s:66     .text:0000000000000034 .LBB5
     /tmp/ccrtxsRi.s:149    .text:00000000000000f0 .LBE5
     /tmp/ccrtxsRi.s:166    .text:000000000000010c .LBB6
     /tmp/ccrtxsRi.s:171    .text:0000000000000114 .LBE6
     /tmp/ccrtxsRi.s:257    .text:0000000000000198 .LBB15
     /tmp/ccrtxsRi.s:371    .text:0000000000000280 .LBE15
     /tmp/ccrtxsRi.s:394    .text:00000000000002a4 .LBB20
     /tmp/ccrtxsRi.s:399    .text:00000000000002ac .LBE20
     /tmp/ccrtxsRi.s:259    .text:0000000000000198 .LBB17
     /tmp/ccrtxsRi.s:347    .text:000000000000025c .LBE17
     /tmp/ccrtxsRi.s:364    .text:0000000000000278 .LBB18
     /tmp/ccrtxsRi.s:369    .text:0000000000000280 .LBE18
     /tmp/ccrtxsRi.s:483    .text:0000000000000304 .LBB22
     /tmp/ccrtxsRi.s:493    .text:0000000000000310 .LBE22
     /tmp/ccrtxsRi.s:495    .text:0000000000000310 .LBB29
     /tmp/ccrtxsRi.s:643    .text:000000000000047c .LBE29
     /tmp/ccrtxsRi.s:673    .text:00000000000004a8 .LBB30
     /tmp/ccrtxsRi.s:738    .text:0000000000000508 .LBE30
     /tmp/ccrtxsRi.s:496    .text:0000000000000310 .LBB23
     /tmp/ccrtxsRi.s:642    .text:000000000000047c .LBE23
     /tmp/ccrtxsRi.s:674    .text:00000000000004a8 .LBB28
     /tmp/ccrtxsRi.s:731    .text:0000000000000500 .LBE28
     /tmp/ccrtxsRi.s:503    .text:0000000000000318 .LBB24
     /tmp/ccrtxsRi.s:641    .text:000000000000047c .LBE24
     /tmp/ccrtxsRi.s:692    .text:00000000000004c4 .LBB27
     /tmp/ccrtxsRi.s:730    .text:0000000000000500 .LBE27
     /tmp/ccrtxsRi.s:504    .text:0000000000000318 .LBB25
     /tmp/ccrtxsRi.s:640    .text:000000000000047c .LBE25
     /tmp/ccrtxsRi.s:698    .text:00000000000004c8 .LBB26
     /tmp/ccrtxsRi.s:729    .text:0000000000000500 .LBE26
     /tmp/ccrtxsRi.s:1024   .text:00000000000006d8 .LBB37
     /tmp/ccrtxsRi.s:1044   .text:00000000000006f8 .LBE37
     /tmp/ccrtxsRi.s:1051   .text:0000000000000700 .LBB38
     /tmp/ccrtxsRi.s:1056   .text:0000000000000708 .LBE38

UNDEFINED SYMBOLS
_Z11printStringPKc
_Z12printIntegerm
_ZN15MemoryAllocator8instanceEv
_ZN15MemoryAllocator10kmem_allocEm
_ZN15MemoryAllocator9kmem_freeEPv
