GAS LISTING /tmp/ccfd9YHW.s 			page 1


   1              		.file	"main.cpp"
   2              		.option pic
   3              		.option norelax
   4              		.text
   5              	.Ltext0:
   6              		.section	.text._ZN16KObjectAllocatordlEPv,"axG",@progbits,_ZN16KObjectAllocatordlEPv,comdat
   7              		.align	2
   8              		.weak	_ZN16KObjectAllocatordlEPv
  10              	_ZN16KObjectAllocatordlEPv:
  11              	.LFB10:
  12              		.file 1 "src/../h/kObjectAllocator.hpp"
   1:src/../h/kObjectAllocator.hpp **** #ifndef KOBJECTALLOCATOR_HPP
   2:src/../h/kObjectAllocator.hpp **** #define KOBJECTALLOCATOR_HPP
   3:src/../h/kObjectAllocator.hpp **** 
   4:src/../h/kObjectAllocator.hpp **** #include "../h/memoryAllocator.hpp"
   5:src/../h/kObjectAllocator.hpp **** 
   6:src/../h/kObjectAllocator.hpp **** class KObjectAllocatorTest;
   7:src/../h/kObjectAllocator.hpp **** 
   8:src/../h/kObjectAllocator.hpp **** /*          ^
   9:src/../h/kObjectAllocator.hpp ****  *          |
  10:src/../h/kObjectAllocator.hpp ****  *          |
  11:src/../h/kObjectAllocator.hpp ****  *          |
  12:src/../h/kObjectAllocator.hpp ****  * DELETE THIS CLASS DECLARATION
  13:src/../h/kObjectAllocator.hpp ****  */
  14:src/../h/kObjectAllocator.hpp **** 
  15:src/../h/kObjectAllocator.hpp **** 
  16:src/../h/kObjectAllocator.hpp **** class KObjectAllocator {
  17:src/../h/kObjectAllocator.hpp **** public:
  18:src/../h/kObjectAllocator.hpp **** 
  19:src/../h/kObjectAllocator.hpp ****     /*
  20:src/../h/kObjectAllocator.hpp ****      *
  21:src/../h/kObjectAllocator.hpp ****      *
  22:src/../h/kObjectAllocator.hpp ****      *
  23:src/../h/kObjectAllocator.hpp ****      *
  24:src/../h/kObjectAllocator.hpp ****      *
  25:src/../h/kObjectAllocator.hpp ****      *
  26:src/../h/kObjectAllocator.hpp ****      *                      #####################################
  27:src/../h/kObjectAllocator.hpp ****      *                      #####################################
  28:src/../h/kObjectAllocator.hpp ****      *                      #####################################
  29:src/../h/kObjectAllocator.hpp ****      *                     ### NE SMEJU SE PREDATI TESTOVI !!! ###
  30:src/../h/kObjectAllocator.hpp ****      *                      #####################################
  31:src/../h/kObjectAllocator.hpp ****      *                      #####################################
  32:src/../h/kObjectAllocator.hpp ****      *                      #####################################
  33:src/../h/kObjectAllocator.hpp ****      *
  34:src/../h/kObjectAllocator.hpp ****      *
  35:src/../h/kObjectAllocator.hpp ****      *
  36:src/../h/kObjectAllocator.hpp ****      *
  37:src/../h/kObjectAllocator.hpp ****      *
  38:src/../h/kObjectAllocator.hpp ****      *
  39:src/../h/kObjectAllocator.hpp ****      */
  40:src/../h/kObjectAllocator.hpp ****     friend KObjectAllocatorTest;
  41:src/../h/kObjectAllocator.hpp **** 
  42:src/../h/kObjectAllocator.hpp ****     /*                         ^
  43:src/../h/kObjectAllocator.hpp ****      *                         |
  44:src/../h/kObjectAllocator.hpp ****      *      DELETE THIS FRIEND |
  45:src/../h/kObjectAllocator.hpp ****      *
  46:src/../h/kObjectAllocator.hpp ****      */
GAS LISTING /tmp/ccfd9YHW.s 			page 2


  47:src/../h/kObjectAllocator.hpp **** 
  48:src/../h/kObjectAllocator.hpp **** 
  49:src/../h/kObjectAllocator.hpp ****     KObjectAllocator(size_t objectSize) : KObjectAllocator(objectSize, 320) {}
  50:src/../h/kObjectAllocator.hpp ****     KObjectAllocator(size_t objectSize, size_t initialObjectNumber)
  51:src/../h/kObjectAllocator.hpp ****             : numberOfObjects(initialObjectNumber), objectSize(objectSize) {
  52:src/../h/kObjectAllocator.hpp ****         numberOfObjects = numberOfObjects / 8 * 8 + 8 * (numberOfObjects / 8 * 8 != numberOfObjects
  53:src/../h/kObjectAllocator.hpp ****         // one bit for each object which indicates whether memory
  54:src/../h/kObjectAllocator.hpp ****         // corresponding to that object is allocated or free
  55:src/../h/kObjectAllocator.hpp ****         memorySizeForBits = numberOfObjects / 8;
  56:src/../h/kObjectAllocator.hpp ****         bitVector = (uint8*) MemoryAllocator::instance()->kmem_alloc(
  57:src/../h/kObjectAllocator.hpp ****                 memorySizeForBits + numberOfObjects * objectSize
  58:src/../h/kObjectAllocator.hpp ****         );
  59:src/../h/kObjectAllocator.hpp ****         objectVector = bitVector + memorySizeForBits;   // start of memory for objects
  60:src/../h/kObjectAllocator.hpp ****         for (size_t i = 0; i < memorySizeForBits; bitVector[i++] = 0);
  61:src/../h/kObjectAllocator.hpp ****     }
  62:src/../h/kObjectAllocator.hpp ****     void* operator new(size_t size) {
  63:src/../h/kObjectAllocator.hpp ****         return MemoryAllocator::instance()->kmem_alloc(size);
  64:src/../h/kObjectAllocator.hpp ****     }
  65:src/../h/kObjectAllocator.hpp ****     void operator delete(void* p) {
  13              		.loc 1 65 10
  14              		.cfi_startproc
  15              	.LVL0:
  16 0000 130101FE 		addi	sp,sp,-32
  17              		.cfi_def_cfa_offset 32
  18 0004 233C1100 		sd	ra,24(sp)
  19 0008 23388100 		sd	s0,16(sp)
  20 000c 23349100 		sd	s1,8(sp)
  21              		.cfi_offset 1, -8
  22              		.cfi_offset 8, -16
  23              		.cfi_offset 9, -24
  24 0010 13040102 		addi	s0,sp,32
  25              		.cfi_def_cfa 8, 0
  26 0014 93040500 		mv	s1,a0
  66:src/../h/kObjectAllocator.hpp ****         MemoryAllocator::instance()->kmem_free(((KObjectAllocator*) p)->bitVector);
  27              		.loc 1 66 9
  28              		.loc 1 66 47 is_stmt 0
  29 0018 97000000 		call	_ZN15MemoryAllocator8instanceEv@plt
  29      E7800000 
  30              	.LVL1:
  31 0020 83B50402 		ld	a1,32(s1)
  32 0024 97000000 		call	_ZN15MemoryAllocator9kmem_freeEPv@plt
  32      E7800000 
  33              	.LVL2:
  67:src/../h/kObjectAllocator.hpp ****         MemoryAllocator::instance()->kmem_free(p);
  34              		.loc 1 67 9 is_stmt 1
  35              		.loc 1 67 47 is_stmt 0
  36 002c 97000000 		call	_ZN15MemoryAllocator8instanceEv@plt
  36      E7800000 
  37              	.LVL3:
  38 0034 93850400 		mv	a1,s1
  39 0038 97000000 		call	_ZN15MemoryAllocator9kmem_freeEPv@plt
  39      E7800000 
  40              	.LVL4:
  68:src/../h/kObjectAllocator.hpp ****     }
  41              		.loc 1 68 5
  42 0040 83308101 		ld	ra,24(sp)
  43              		.cfi_restore 1
GAS LISTING /tmp/ccfd9YHW.s 			page 3


  44 0044 03340101 		ld	s0,16(sp)
  45              		.cfi_restore 8
  46              		.cfi_def_cfa 2, 32
  47 0048 83348100 		ld	s1,8(sp)
  48              		.cfi_restore 9
  49              	.LVL5:
  50 004c 13010102 		addi	sp,sp,32
  51              		.cfi_def_cfa_offset 0
  52 0050 67800000 		jr	ra
  53              		.cfi_endproc
  54              	.LFE10:
  56              		.section	.rodata.str1.8,"aMS",@progbits,1
  57              		.align	3
  58              	.LC1:
  59 0000 0A6F626A 		.string	"\nobjectSize: "
  59      65637453 
  59      697A653A 
  59      2000
  60 000e 0000     		.align	3
  61              	.LC2:
  62 0010 0A00     		.string	"\n"
  63 0012 00000000 		.align	3
  63      0000
  64              	.LC3:
  65 0018 6F626A65 		.string	"objectNumber: "
  65      63744E75 
  65      6D626572 
  65      3A2000
  66 0027 00       		.align	3
  67              	.LC4:
  68 0028 6D656D6F 		.string	"memoryForBits: "
  68      7279466F 
  68      72426974 
  68      733A2000 
  69              		.align	3
  70              	.LC5:
  71 0038 0A4B4F62 		.string	"\nKObjectAllocator tests:\n"
  71      6A656374 
  71      416C6C6F 
  71      6361746F 
  71      72207465 
  72 0052 00000000 		.align	3
  72      0000
  73              	.LC6:
  74 0058 0A4D656D 		.string	"\nMemory tests:\n"
  74      6F727920 
  74      74657374 
  74      733A0A00 
  75              		.text
  76              		.align	2
  77              		.globl	main
  79              	main:
  80              	.LFB19:
  81              		.file 2 "src/main.cpp"
   1:src/main.cpp  **** #include "../h/print.hpp"
   2:src/main.cpp  **** #include "../h/memoryAllocator.hpp"
   3:src/main.cpp  **** #include "../h/kObjectAllocator.hpp"
GAS LISTING /tmp/ccfd9YHW.s 			page 4


   4:src/main.cpp  **** 
   5:src/main.cpp  **** // tests delete this before submition !!!!!!!!!!!
   6:src/main.cpp  **** #include "../h/memoryAllocatorTest.hpp"
   7:src/main.cpp  **** #include "../h/kObjectAllocatorTest.hpp"
   8:src/main.cpp  **** 
   9:src/main.cpp  **** int main() {
  82              		.loc 2 9 12 is_stmt 1
  83              		.cfi_startproc
  84              		.cfi_personality 0x9b,DW.ref.__gxx_personality_v0
  85              		.cfi_lsda 0x1b,.LLSDA19
  86 0000 130101FD 		addi	sp,sp,-48
  87              		.cfi_def_cfa_offset 48
  88 0004 23341102 		sd	ra,40(sp)
  89 0008 23308102 		sd	s0,32(sp)
  90 000c 233C9100 		sd	s1,24(sp)
  91 0010 23382101 		sd	s2,16(sp)
  92              		.cfi_offset 1, -8
  93              		.cfi_offset 8, -16
  94              		.cfi_offset 9, -24
  95              		.cfi_offset 18, -32
  96 0014 13040103 		addi	s0,sp,48
  97              		.cfi_def_cfa 8, 0
  10:src/main.cpp  **** 
  11:src/main.cpp  ****     uint64* arr = (uint64*) MemoryAllocator::instance()->kmem_alloc(64 * 100);
  98              		.loc 2 11 5
  99              	.LEHB0:
 100              		.loc 2 11 68 is_stmt 0
 101 0018 97000000 		call	_ZN15MemoryAllocator8instanceEv@plt
 101      E7800000 
 102              	.LVL6:
 103 0020 B7250000 		li	a1,8192
 104 0024 93850590 		addi	a1,a1,-1792
 105 0028 97000000 		call	_ZN15MemoryAllocator10kmem_allocEm@plt
 105      E7800000 
 106              	.LVL7:
 107 0030 93040500 		mv	s1,a0
 108              	.LBB39:
  12:src/main.cpp  ****     for (int i = 0; i < 100; ++i) arr[i] = (uint64) -1;
 109              		.loc 2 12 14
 110 0034 93070000 		li	a5,0
 111              	.L5:
 112              	.LVL8:
 113              		.loc 2 12 23 is_stmt 1 discriminator 3
 114 0038 13073006 		li	a4,99
 115 003c 634EF700 		bgt	a5,a4,.L4
 116              		.loc 2 12 35 discriminator 2
 117              		.loc 2 12 40 is_stmt 0 discriminator 2
 118 0040 13973700 		slli	a4,a5,3
 119 0044 3387E400 		add	a4,s1,a4
 120              		.loc 2 12 42 discriminator 2
 121 0048 9306F0FF 		li	a3,-1
 122 004c 2330D700 		sd	a3,0(a4)
 123              		.loc 2 12 5 is_stmt 1 discriminator 2
 124 0050 9B871700 		addiw	a5,a5,1
 125              	.LVL9:
 126 0054 6FF05FFE 		j	.L5
 127              	.LVL10:
GAS LISTING /tmp/ccfd9YHW.s 			page 5


 128              	.L4:
 129              	.LBE39:
  13:src/main.cpp  ****     MemoryAllocator::instance()->kmem_free(arr);
 130              		.loc 2 13 5
 131              		.loc 2 13 43 is_stmt 0
 132 0058 97000000 		call	_ZN15MemoryAllocator8instanceEv@plt
 132      E7800000 
 133              	.LVL11:
 134 0060 93850400 		mv	a1,s1
 135 0064 97000000 		call	_ZN15MemoryAllocator9kmem_freeEPv@plt
 135      E7800000 
 136              	.LVL12:
  14:src/main.cpp  **** 
  15:src/main.cpp  ****     KObjectAllocator* newObj = new KObjectAllocator(3243, 328);
 137              		.loc 2 15 5 is_stmt 1
 138              	.LBB40:
 139              	.LBB41:
  63:src/../h/kObjectAllocator.hpp ****     }
 140              		.loc 1 63 9
  63:src/../h/kObjectAllocator.hpp ****     }
 141              		.loc 1 63 55 is_stmt 0
 142 006c 97000000 		call	_ZN15MemoryAllocator8instanceEv@plt
 142      E7800000 
 143              	.LVL13:
 144 0074 93050003 		li	a1,48
 145 0078 97000000 		call	_ZN15MemoryAllocator10kmem_allocEm@plt
 145      E7800000 
 146              	.LVL14:
 147              	.LEHE0:
 148 0080 93040500 		mv	s1,a0
 149              	.LVL15:
 150              	.LBE41:
 151              	.LBE40:
 152              	.LBB42:
 153              	.LBB43:
  51:src/../h/kObjectAllocator.hpp ****         numberOfObjects = numberOfObjects / 8 * 8 + 8 * (numberOfObjects / 8 * 8 != numberOfObjects
 154              		.loc 1 51 74
 155 0084 B7170000 		li	a5,4096
 156 0088 9387B7CA 		addi	a5,a5,-853
 157 008c 2338F500 		sd	a5,16(a0)
 158 0090 23340502 		sd	zero,40(a0)
 159              	.LBB44:
  52:src/../h/kObjectAllocator.hpp ****         // one bit for each object which indicates whether memory
 160              		.loc 1 52 9 is_stmt 1
  52:src/../h/kObjectAllocator.hpp ****         // one bit for each object which indicates whether memory
 161              		.loc 1 52 25 is_stmt 0
 162 0094 93078014 		li	a5,328
 163 0098 2330F500 		sd	a5,0(a0)
  55:src/../h/kObjectAllocator.hpp ****         bitVector = (uint8*) MemoryAllocator::instance()->kmem_alloc(
 164              		.loc 1 55 9 is_stmt 1
  55:src/../h/kObjectAllocator.hpp ****         bitVector = (uint8*) MemoryAllocator::instance()->kmem_alloc(
 165              		.loc 1 55 27 is_stmt 0
 166 009c 93079002 		li	a5,41
 167 00a0 2334F500 		sd	a5,8(a0)
  56:src/../h/kObjectAllocator.hpp ****                 memorySizeForBits + numberOfObjects * objectSize
 168              		.loc 1 56 9 is_stmt 1
 169              	.LEHB1:
GAS LISTING /tmp/ccfd9YHW.s 			page 6


  56:src/../h/kObjectAllocator.hpp ****                 memorySizeForBits + numberOfObjects * objectSize
 170              		.loc 1 56 69 is_stmt 0
 171 00a4 97000000 		call	_ZN15MemoryAllocator8instanceEv@plt
 171      E7800000 
 172              	.LVL16:
  57:src/../h/kObjectAllocator.hpp ****         );
 173              		.loc 1 57 17
 174 00ac 83B58400 		ld	a1,8(s1)
  57:src/../h/kObjectAllocator.hpp ****         );
 175              		.loc 1 57 37
 176 00b0 83B70400 		ld	a5,0(s1)
  57:src/../h/kObjectAllocator.hpp ****         );
 177              		.loc 1 57 53
 178 00b4 37170000 		li	a4,4096
 179 00b8 1307B7CA 		addi	a4,a4,-853
 180 00bc B387E702 		mul	a5,a5,a4
  56:src/../h/kObjectAllocator.hpp ****                 memorySizeForBits + numberOfObjects * objectSize
 181              		.loc 1 56 69
 182 00c0 B385F500 		add	a1,a1,a5
 183 00c4 97000000 		call	_ZN15MemoryAllocator10kmem_allocEm@plt
 183      E7800000 
 184              	.LVL17:
 185              	.LEHE1:
  56:src/../h/kObjectAllocator.hpp ****                 memorySizeForBits + numberOfObjects * objectSize
 186              		.loc 1 56 19
 187 00cc 23B0A402 		sd	a0,32(s1)
  59:src/../h/kObjectAllocator.hpp ****         for (size_t i = 0; i < memorySizeForBits; bitVector[i++] = 0);
 188              		.loc 1 59 9 is_stmt 1
  59:src/../h/kObjectAllocator.hpp ****         for (size_t i = 0; i < memorySizeForBits; bitVector[i++] = 0);
 189              		.loc 1 59 36 is_stmt 0
 190 00d0 83B78400 		ld	a5,8(s1)
  59:src/../h/kObjectAllocator.hpp ****         for (size_t i = 0; i < memorySizeForBits; bitVector[i++] = 0);
 191              		.loc 1 59 34
 192 00d4 3305F500 		add	a0,a0,a5
  59:src/../h/kObjectAllocator.hpp ****         for (size_t i = 0; i < memorySizeForBits; bitVector[i++] = 0);
 193              		.loc 1 59 22
 194 00d8 23BCA400 		sd	a0,24(s1)
  60:src/../h/kObjectAllocator.hpp ****     }
 195              		.loc 1 60 9 is_stmt 1
 196              	.LVL18:
 197              	.LBB45:
  60:src/../h/kObjectAllocator.hpp ****     }
 198              		.loc 1 60 21 is_stmt 0
 199 00dc 93070000 		li	a5,0
 200              	.LVL19:
 201              	.L7:
  60:src/../h/kObjectAllocator.hpp ****     }
 202              		.loc 1 60 30 is_stmt 1
  60:src/../h/kObjectAllocator.hpp ****     }
 203              		.loc 1 60 32 is_stmt 0
 204 00e0 03B78400 		ld	a4,8(s1)
  60:src/../h/kObjectAllocator.hpp ****     }
 205              		.loc 1 60 30
 206 00e4 63FCE700 		bleu	a4,a5,.L6
  60:src/../h/kObjectAllocator.hpp ****     }
 207              		.loc 1 60 9 is_stmt 1
  60:src/../h/kObjectAllocator.hpp ****     }
GAS LISTING /tmp/ccfd9YHW.s 			page 7


 208              		.loc 1 60 51 is_stmt 0
 209 00e8 03B70402 		ld	a4,32(s1)
 210              	.LVL20:
  60:src/../h/kObjectAllocator.hpp ****     }
 211              		.loc 1 60 64
 212 00ec 3307F700 		add	a4,a4,a5
  60:src/../h/kObjectAllocator.hpp ****     }
 213              		.loc 1 60 66
 214 00f0 23000700 		sb	zero,0(a4)
  60:src/../h/kObjectAllocator.hpp ****     }
 215              		.loc 1 60 62
 216 00f4 93871700 		addi	a5,a5,1
 217              	.LVL21:
  60:src/../h/kObjectAllocator.hpp ****     }
 218              		.loc 1 60 9
 219 00f8 6FF09FFE 		j	.L7
 220              	.L6:
 221              	.LVL22:
 222              	.LBE45:
 223              	.LBE44:
 224              	.LBE43:
 225              	.LBE42:
  16:src/main.cpp  ****     printString("\nobjectSize: ");
 226              		.loc 2 16 5 is_stmt 1 discriminator 3
 227              		.loc 2 16 16 is_stmt 0 discriminator 3
 228 00fc 17050000 		lla	a0,.LC1
 228      13050500 
 229              	.LEHB2:
 230 0104 97000000 		call	_Z11printStringPKc@plt
 230      E7800000 
 231              	.LVL23:
  17:src/main.cpp  ****     printInteger(newObj->getObjectSize());
 232              		.loc 2 17 5 is_stmt 1 discriminator 3
 233              	.LBB46:
 234              	.LBB47:
  69:src/../h/kObjectAllocator.hpp ****     void printInternalMemory();
  70:src/../h/kObjectAllocator.hpp ****     int getObjectSize() { return objectSize; }
 235              		.loc 1 70 27 discriminator 3
 236              	.LBE47:
 237              	.LBE46:
 238              		.loc 2 17 17 is_stmt 0 discriminator 3
 239 010c 03A50401 		lw	a0,16(s1)
 240 0110 97000000 		call	_Z12printIntegerm@plt
 240      E7800000 
 241              	.LVL24:
  18:src/main.cpp  ****     printString("\n");
 242              		.loc 2 18 5 is_stmt 1 discriminator 3
 243              		.loc 2 18 16 is_stmt 0 discriminator 3
 244 0118 17050000 		lla	a0,.LC2
 244      13050500 
 245 0120 97000000 		call	_Z11printStringPKc@plt
 245      E7800000 
 246              	.LVL25:
  19:src/main.cpp  **** 
  20:src/main.cpp  ****     printString("objectNumber: ");
 247              		.loc 2 20 5 is_stmt 1 discriminator 3
 248              		.loc 2 20 16 is_stmt 0 discriminator 3
GAS LISTING /tmp/ccfd9YHW.s 			page 8


 249 0128 17050000 		lla	a0,.LC3
 249      13050500 
 250 0130 97000000 		call	_Z11printStringPKc@plt
 250      E7800000 
 251              	.LVL26:
  21:src/main.cpp  ****     printInteger(newObj->getNumberOfObjects());
 252              		.loc 2 21 5 is_stmt 1 discriminator 3
 253              	.LBB48:
 254              	.LBB49:
  71:src/../h/kObjectAllocator.hpp ****     int getNumberOfObjects() { return numberOfObjects; }
 255              		.loc 1 71 32 discriminator 3
 256              	.LBE49:
 257              	.LBE48:
 258              		.loc 2 21 17 is_stmt 0 discriminator 3
 259 0138 03A50400 		lw	a0,0(s1)
 260 013c 97000000 		call	_Z12printIntegerm@plt
 260      E7800000 
 261              	.LVL27:
  22:src/main.cpp  ****     printString("\n");
 262              		.loc 2 22 5 is_stmt 1 discriminator 3
 263              		.loc 2 22 16 is_stmt 0 discriminator 3
 264 0144 17050000 		lla	a0,.LC2
 264      13050500 
 265 014c 97000000 		call	_Z11printStringPKc@plt
 265      E7800000 
 266              	.LVL28:
  23:src/main.cpp  **** 
  24:src/main.cpp  ****     printString("memoryForBits: ");
 267              		.loc 2 24 5 is_stmt 1 discriminator 3
 268              		.loc 2 24 16 is_stmt 0 discriminator 3
 269 0154 17050000 		lla	a0,.LC4
 269      13050500 
 270 015c 97000000 		call	_Z11printStringPKc@plt
 270      E7800000 
 271              	.LVL29:
  25:src/main.cpp  ****     printInteger(newObj->getMemorySizeForBits());
 272              		.loc 2 25 5 is_stmt 1 discriminator 3
 273              	.LBB50:
 274              	.LBB51:
  72:src/../h/kObjectAllocator.hpp ****     int getMemorySizeForBits() { return memorySizeForBits; }
 275              		.loc 1 72 34 discriminator 3
 276              	.LBE51:
 277              	.LBE50:
 278              		.loc 2 25 17 is_stmt 0 discriminator 3
 279 0164 03A58400 		lw	a0,8(s1)
 280 0168 97000000 		call	_Z12printIntegerm@plt
 280      E7800000 
 281              	.LVL30:
  26:src/main.cpp  ****     printString("\n");
 282              		.loc 2 26 5 is_stmt 1 discriminator 3
 283              		.loc 2 26 16 is_stmt 0 discriminator 3
 284 0170 17050000 		lla	a0,.LC2
 284      13050500 
 285 0178 97000000 		call	_Z11printStringPKc@plt
 285      E7800000 
 286              	.LVL31:
  27:src/main.cpp  **** 
GAS LISTING /tmp/ccfd9YHW.s 			page 9


  28:src/main.cpp  ****     delete newObj;
 287              		.loc 2 28 5 is_stmt 1 discriminator 3
 288              		.loc 2 28 18 is_stmt 0 discriminator 3
 289 0180 63880400 		beqz	s1,.L8
 290              		.loc 2 28 12 discriminator 1
 291 0184 13850400 		mv	a0,s1
 292 0188 97000000 		call	_ZN16KObjectAllocatordlEPv
 292      E7800000 
 293              	.LVL32:
 294              	.L8:
  29:src/main.cpp  **** 
  30:src/main.cpp  ****     printString("\nKObjectAllocator tests:\n");
 295              		.loc 2 30 5 is_stmt 1
 296              		.loc 2 30 16 is_stmt 0
 297 0190 17050000 		lla	a0,.LC5
 297      13050500 
 298 0198 97000000 		call	_Z11printStringPKc@plt
 298      E7800000 
 299              	.LVL33:
  31:src/main.cpp  ****     KObjectAllocatorTest* t2 = new KObjectAllocatorTest;
 300              		.loc 2 31 5 is_stmt 1
 301              	.LBB52:
 302              	.LBB53:
 303              		.file 3 "src/../h/kObjectAllocatorTest.hpp"
   1:src/../h/kObjectAllocatorTest.hpp **** #ifndef KOBJECTALLOCATORTEST_H
   2:src/../h/kObjectAllocatorTest.hpp **** #define KOBJECTALLOCATORTEST_H
   3:src/../h/kObjectAllocatorTest.hpp **** 
   4:src/../h/kObjectAllocatorTest.hpp **** #include "memoryAllocator.hpp"
   5:src/../h/kObjectAllocatorTest.hpp **** #include "kObjectAllocator.hpp"
   6:src/../h/kObjectAllocatorTest.hpp **** 
   7:src/../h/kObjectAllocatorTest.hpp **** class KObjectAllocatorTest {
   8:src/../h/kObjectAllocatorTest.hpp **** public:
   9:src/../h/kObjectAllocatorTest.hpp ****     KObjectAllocatorTest() {}
  10:src/../h/kObjectAllocatorTest.hpp ****     void* operator new(size_t size) {
  11:src/../h/kObjectAllocatorTest.hpp ****         return MemoryAllocator::instance()->kmem_alloc(size);
 304              		.loc 3 11 9
 305              		.loc 3 11 55 is_stmt 0
 306 01a0 97000000 		call	_ZN15MemoryAllocator8instanceEv@plt
 306      E7800000 
 307              	.LVL34:
 308 01a8 93050004 		li	a1,64
 309 01ac 97000000 		call	_ZN15MemoryAllocator10kmem_allocEm@plt
 309      E7800000 
 310              	.LVL35:
 311 01b4 93040500 		mv	s1,a0
 312              	.LVL36:
 313              	.LBE53:
 314              	.LBE52:
 315              	.LBB54:
 316              	.LBB55:
   9:src/../h/kObjectAllocatorTest.hpp ****     void* operator new(size_t size) {
 317              		.loc 3 9 28
 318 01b8 9307A000 		li	a5,10
 319 01bc 2330F500 		sd	a5,0(a0)
 320 01c0 97070000 		lla	a5,.LANCHOR0
 320      93870700 
 321 01c8 83B80700 		ld	a7,0(a5)
GAS LISTING /tmp/ccfd9YHW.s 			page 10


 322 01cc 03B88700 		ld	a6,8(a5)
 323 01d0 83B50701 		ld	a1,16(a5)
 324 01d4 03B68701 		ld	a2,24(a5)
 325 01d8 83B60702 		ld	a3,32(a5)
 326 01dc 03B78702 		ld	a4,40(a5)
 327 01e0 83B70703 		ld	a5,48(a5)
 328 01e4 23341501 		sd	a7,8(a0)
 329 01e8 23380501 		sd	a6,16(a0)
 330 01ec 233CB500 		sd	a1,24(a0)
 331 01f0 2330C502 		sd	a2,32(a0)
 332 01f4 2334D502 		sd	a3,40(a0)
 333 01f8 2338E502 		sd	a4,48(a0)
 334 01fc 233CF502 		sd	a5,56(a0)
 335              	.LVL37:
 336              	.LBE55:
 337              	.LBE54:
  32:src/main.cpp  ****     t2->runTests();
 338              		.loc 2 32 5 is_stmt 1
 339              		.loc 2 32 17 is_stmt 0
 340 0200 97000000 		call	_ZN20KObjectAllocatorTest8runTestsEv@plt
 340      E7800000 
 341              	.LVL38:
  33:src/main.cpp  ****     delete t2;
 342              		.loc 2 33 5 is_stmt 1
 343              		.loc 2 33 14 is_stmt 0
 344 0208 638C0400 		beqz	s1,.L9
 345              	.LVL39:
 346              	.LBB56:
 347              	.LBB57:
  12:src/../h/kObjectAllocatorTest.hpp ****     }
  13:src/../h/kObjectAllocatorTest.hpp ****     void operator delete(void* p) {
  14:src/../h/kObjectAllocatorTest.hpp ****         MemoryAllocator::instance()->kmem_free(p);
 348              		.loc 3 14 9 is_stmt 1 discriminator 1
 349              		.loc 3 14 47 is_stmt 0 discriminator 1
 350 020c 97000000 		call	_ZN15MemoryAllocator8instanceEv@plt
 350      E7800000 
 351              	.LVL40:
 352 0214 93850400 		mv	a1,s1
 353 0218 97000000 		call	_ZN15MemoryAllocator9kmem_freeEPv@plt
 353      E7800000 
 354              	.LVL41:
 355              	.L9:
 356              	.LBE57:
 357              	.LBE56:
  34:src/main.cpp  **** 
  35:src/main.cpp  ****     printString("\nMemory tests:\n");
 358              		.loc 2 35 5 is_stmt 1
 359              		.loc 2 35 16 is_stmt 0
 360 0220 17050000 		lla	a0,.LC6
 360      13050500 
 361 0228 97000000 		call	_Z11printStringPKc@plt
 361      E7800000 
 362              	.LVL42:
  36:src/main.cpp  ****     MemoryAllocatorTest t1;
 363              		.loc 2 36 5 is_stmt 1
  37:src/main.cpp  ****     t1.runTests();
 364              		.loc 2 37 5
GAS LISTING /tmp/ccfd9YHW.s 			page 11


 365              		.loc 2 37 16 is_stmt 0
 366 0230 130584FD 		addi	a0,s0,-40
 367 0234 97000000 		call	_ZN19MemoryAllocatorTest8runTestsEv@plt
 367      E7800000 
 368              	.LVL43:
 369              	.LEHE2:
  38:src/main.cpp  **** 
  39:src/main.cpp  **** 
  40:src/main.cpp  ****     return 0;
 370              		.loc 2 40 5 is_stmt 1
  41:src/main.cpp  **** }...
 371              		.loc 2 41 1 is_stmt 0
 372 023c 13050000 		li	a0,0
 373 0240 83308102 		ld	ra,40(sp)
 374              		.cfi_remember_state
 375              		.cfi_restore 1
 376 0244 03340102 		ld	s0,32(sp)
 377              		.cfi_restore 8
 378              		.cfi_def_cfa 2, 48
 379 0248 83348101 		ld	s1,24(sp)
 380              		.cfi_restore 9
 381              	.LVL44:
 382 024c 03390101 		ld	s2,16(sp)
 383              		.cfi_restore 18
 384 0250 13010103 		addi	sp,sp,48
 385              		.cfi_def_cfa_offset 0
 386 0254 67800000 		jr	ra
 387              	.LVL45:
 388              	.L11:
 389              		.cfi_restore_state
 390 0258 13090500 		mv	s2,a0
  15:src/main.cpp  ****     KObjectAllocator* newObj = new KObjectAllocator(3243, 328);
 391              		.loc 2 15 62
 392 025c 13850400 		mv	a0,s1
 393 0260 97000000 		call	_ZN16KObjectAllocatordlEPv
 393      E7800000 
 394              	.LVL46:
 395 0268 13050900 		mv	a0,s2
 396              	.LEHB3:
 397 026c 97000000 		call	_Unwind_Resume@plt
 397      E7800000 
 398              	.LVL47:
 399              	.LEHE3:
 400              		.cfi_endproc
 401              	.LFE19:
 402              		.globl	__gxx_personality_v0
 403              		.section	.gcc_except_table,"a",@progbits
 404              	.LLSDA19:
 405 0000 FF       		.byte	0xff
 406 0001 FF       		.byte	0xff
 407 0002 03       		.byte	0x3
 408 0003 34       		.byte	0x34
 409 0004 00000000 		.4byte	.LEHB0-.LFB19
 410 0008 00000000 		.4byte	.LEHE0-.LEHB0
 411 000c 00000000 		.4byte	0
 412 0010 00       		.byte	0
 413 0011 00000000 		.4byte	.LEHB1-.LFB19
GAS LISTING /tmp/ccfd9YHW.s 			page 12


 414 0015 00000000 		.4byte	.LEHE1-.LEHB1
 415 0019 00000000 		.4byte	.L11-.LFB19
 416 001d 00       		.byte	0
 417 001e 00000000 		.4byte	.LEHB2-.LFB19
 418 0022 00000000 		.4byte	.LEHE2-.LEHB2
 419 0026 00000000 		.4byte	0
 420 002a 00       		.byte	0
 421 002b 00000000 		.4byte	.LEHB3-.LFB19
 422 002f 00000000 		.4byte	.LEHE3-.LEHB3
 423 0033 00000000 		.4byte	0
 424 0037 00       		.byte	0
 425              		.text
 427              		.section	.rodata
 428              		.align	3
 429              		.set	.LANCHOR0,. + 0
 430              	.LC0:
 431 0000 08000000 		.dword	8
 431      00000000 
 432 0008 04000000 		.dword	4
 432      00000000 
 433 0010 01000000 		.dword	1
 433      00000000 
 434 0018 20000000 		.dword	32
 434      00000000 
 435 0020 10000000 		.dword	16
 435      00000000 
 436 0028 40000000 		.dword	64
 436      00000000 
 437 0030 30000000 		.dword	48
 437      00000000 
 438              		.text
 439              	.Letext0:
 440              		.file 4 "src/../h/../lib/hw.h"
 441              		.file 5 "src/../h/memoryAllocator.hpp"
 442              		.file 6 "src/../h/memoryAllocatorTest.hpp"
 443              		.file 7 "src/../h/print.hpp"
 3309              		.align	3
 3312              	DW.ref.__gxx_personality_v0:
 3313 0000 00000000 		.dword	__gxx_personality_v0
 3313      00000000 
 3314              		.ident	"GCC: (Ubuntu 9.4.0-1ubuntu1~20.04) 9.4.0"
 3315              		.section	.note.GNU-stack,"",@progbits
GAS LISTING /tmp/ccfd9YHW.s 			page 13


DEFINED SYMBOLS
                            *ABS*:0000000000000000 main.cpp
     /tmp/ccfd9YHW.s:10     .text._ZN16KObjectAllocatordlEPv:0000000000000000 _ZN16KObjectAllocatordlEPv
     /tmp/ccfd9YHW.s:14     .text._ZN16KObjectAllocatordlEPv:0000000000000000 .L0 
     /tmp/ccfd9YHW.s:16     .text._ZN16KObjectAllocatordlEPv:0000000000000000 .L0 
     /tmp/ccfd9YHW.s:17     .text._ZN16KObjectAllocatordlEPv:0000000000000004 .L0 
     /tmp/ccfd9YHW.s:21     .text._ZN16KObjectAllocatordlEPv:0000000000000010 .L0 
     /tmp/ccfd9YHW.s:22     .text._ZN16KObjectAllocatordlEPv:0000000000000010 .L0 
     /tmp/ccfd9YHW.s:23     .text._ZN16KObjectAllocatordlEPv:0000000000000010 .L0 
     /tmp/ccfd9YHW.s:25     .text._ZN16KObjectAllocatordlEPv:0000000000000014 .L0 
     /tmp/ccfd9YHW.s:28     .text._ZN16KObjectAllocatordlEPv:0000000000000018 .L0 
     /tmp/ccfd9YHW.s:29     .text._ZN16KObjectAllocatordlEPv:0000000000000018 .L0 
     /tmp/ccfd9YHW.s:35     .text._ZN16KObjectAllocatordlEPv:000000000000002c .L0 
     /tmp/ccfd9YHW.s:36     .text._ZN16KObjectAllocatordlEPv:000000000000002c .L0 
     /tmp/ccfd9YHW.s:42     .text._ZN16KObjectAllocatordlEPv:0000000000000040 .L0 
     /tmp/ccfd9YHW.s:43     .text._ZN16KObjectAllocatordlEPv:0000000000000044 .L0 
     /tmp/ccfd9YHW.s:45     .text._ZN16KObjectAllocatordlEPv:0000000000000048 .L0 
     /tmp/ccfd9YHW.s:46     .text._ZN16KObjectAllocatordlEPv:0000000000000048 .L0 
     /tmp/ccfd9YHW.s:48     .text._ZN16KObjectAllocatordlEPv:000000000000004c .L0 
     /tmp/ccfd9YHW.s:51     .text._ZN16KObjectAllocatordlEPv:0000000000000050 .L0 
     /tmp/ccfd9YHW.s:53     .text._ZN16KObjectAllocatordlEPv:0000000000000054 .L0 
     /tmp/ccfd9YHW.s:79     .text:0000000000000000 main
     /tmp/ccfd9YHW.s:83     .text:0000000000000000 .L0 
     /tmp/ccfd9YHW.s:3312   .data.rel.local.DW.ref.__gxx_personality_v0:0000000000000000 DW.ref.__gxx_personality_v0
     /tmp/ccfd9YHW.s:86     .text:0000000000000000 .L0 
     /tmp/ccfd9YHW.s:87     .text:0000000000000004 .L0 
     /tmp/ccfd9YHW.s:92     .text:0000000000000014 .L0 
     /tmp/ccfd9YHW.s:93     .text:0000000000000014 .L0 
     /tmp/ccfd9YHW.s:94     .text:0000000000000014 .L0 
     /tmp/ccfd9YHW.s:95     .text:0000000000000014 .L0 
     /tmp/ccfd9YHW.s:97     .text:0000000000000018 .L0 
     /tmp/ccfd9YHW.s:100    .text:0000000000000018 .L0 
     /tmp/ccfd9YHW.s:101    .text:0000000000000018 .L0 
     /tmp/ccfd9YHW.s:110    .text:0000000000000034 .L0 
     /tmp/ccfd9YHW.s:114    .text:0000000000000038 .L0 
     /tmp/ccfd9YHW.s:117    .text:0000000000000040 .L0 
     /tmp/ccfd9YHW.s:118    .text:0000000000000040 .L0 
     /tmp/ccfd9YHW.s:121    .text:0000000000000048 .L0 
     /tmp/ccfd9YHW.s:124    .text:0000000000000050 .L0 
     /tmp/ccfd9YHW.s:131    .text:0000000000000058 .L0 
     /tmp/ccfd9YHW.s:132    .text:0000000000000058 .L0 
     /tmp/ccfd9YHW.s:140    .text:000000000000006c .L0 
     /tmp/ccfd9YHW.s:141    .text:000000000000006c .L0 
     /tmp/ccfd9YHW.s:142    .text:000000000000006c .L0 
     /tmp/ccfd9YHW.s:155    .text:0000000000000084 .L0 
     /tmp/ccfd9YHW.s:161    .text:0000000000000094 .L0 
     /tmp/ccfd9YHW.s:162    .text:0000000000000094 .L0 
     /tmp/ccfd9YHW.s:165    .text:000000000000009c .L0 
     /tmp/ccfd9YHW.s:166    .text:000000000000009c .L0 
     /tmp/ccfd9YHW.s:170    .text:00000000000000a4 .L0 
     /tmp/ccfd9YHW.s:171    .text:00000000000000a4 .L0 
     /tmp/ccfd9YHW.s:174    .text:00000000000000ac .L0 
     /tmp/ccfd9YHW.s:176    .text:00000000000000b0 .L0 
     /tmp/ccfd9YHW.s:178    .text:00000000000000b4 .L0 
     /tmp/ccfd9YHW.s:182    .text:00000000000000c0 .L0 
     /tmp/ccfd9YHW.s:187    .text:00000000000000cc .L0 
     /tmp/ccfd9YHW.s:189    .text:00000000000000d0 .L0 
GAS LISTING /tmp/ccfd9YHW.s 			page 14


     /tmp/ccfd9YHW.s:190    .text:00000000000000d0 .L0 
     /tmp/ccfd9YHW.s:192    .text:00000000000000d4 .L0 
     /tmp/ccfd9YHW.s:194    .text:00000000000000d8 .L0 
     /tmp/ccfd9YHW.s:198    .text:00000000000000dc .L0 
     /tmp/ccfd9YHW.s:199    .text:00000000000000dc .L0 
     /tmp/ccfd9YHW.s:203    .text:00000000000000e0 .L0 
     /tmp/ccfd9YHW.s:204    .text:00000000000000e0 .L0 
     /tmp/ccfd9YHW.s:206    .text:00000000000000e4 .L0 
     /tmp/ccfd9YHW.s:208    .text:00000000000000e8 .L0 
     /tmp/ccfd9YHW.s:209    .text:00000000000000e8 .L0 
     /tmp/ccfd9YHW.s:212    .text:00000000000000ec .L0 
     /tmp/ccfd9YHW.s:214    .text:00000000000000f0 .L0 
     /tmp/ccfd9YHW.s:216    .text:00000000000000f4 .L0 
     /tmp/ccfd9YHW.s:219    .text:00000000000000f8 .L0 
     /tmp/ccfd9YHW.s:227    .text:00000000000000fc .L0 
     /tmp/ccfd9YHW.s:228    .text:00000000000000fc .L0 
     /tmp/ccfd9YHW.s:235    .text:000000000000010c .L0 
     /tmp/ccfd9YHW.s:238    .text:000000000000010c .L0 
     /tmp/ccfd9YHW.s:239    .text:000000000000010c .L0 
     /tmp/ccfd9YHW.s:243    .text:0000000000000118 .L0 
     /tmp/ccfd9YHW.s:244    .text:0000000000000118 .L0 
     /tmp/ccfd9YHW.s:248    .text:0000000000000128 .L0 
     /tmp/ccfd9YHW.s:249    .text:0000000000000128 .L0 
     /tmp/ccfd9YHW.s:255    .text:0000000000000138 .L0 
     /tmp/ccfd9YHW.s:258    .text:0000000000000138 .L0 
     /tmp/ccfd9YHW.s:259    .text:0000000000000138 .L0 
     /tmp/ccfd9YHW.s:263    .text:0000000000000144 .L0 
     /tmp/ccfd9YHW.s:264    .text:0000000000000144 .L0 
     /tmp/ccfd9YHW.s:268    .text:0000000000000154 .L0 
     /tmp/ccfd9YHW.s:269    .text:0000000000000154 .L0 
     /tmp/ccfd9YHW.s:275    .text:0000000000000164 .L0 
     /tmp/ccfd9YHW.s:278    .text:0000000000000164 .L0 
     /tmp/ccfd9YHW.s:279    .text:0000000000000164 .L0 
     /tmp/ccfd9YHW.s:283    .text:0000000000000170 .L0 
     /tmp/ccfd9YHW.s:284    .text:0000000000000170 .L0 
     /tmp/ccfd9YHW.s:288    .text:0000000000000180 .L0 
     /tmp/ccfd9YHW.s:289    .text:0000000000000180 .L0 
     /tmp/ccfd9YHW.s:291    .text:0000000000000184 .L0 
     /tmp/ccfd9YHW.s:296    .text:0000000000000190 .L0 
     /tmp/ccfd9YHW.s:297    .text:0000000000000190 .L0 
     /tmp/ccfd9YHW.s:304    .text:00000000000001a0 .L0 
     /tmp/ccfd9YHW.s:305    .text:00000000000001a0 .L0 
     /tmp/ccfd9YHW.s:306    .text:00000000000001a0 .L0 
     /tmp/ccfd9YHW.s:318    .text:00000000000001b8 .L0 
     /tmp/ccfd9YHW.s:339    .text:0000000000000200 .L0 
     /tmp/ccfd9YHW.s:340    .text:0000000000000200 .L0 
     /tmp/ccfd9YHW.s:343    .text:0000000000000208 .L0 
     /tmp/ccfd9YHW.s:344    .text:0000000000000208 .L0 
     /tmp/ccfd9YHW.s:349    .text:000000000000020c .L0 
     /tmp/ccfd9YHW.s:350    .text:000000000000020c .L0 
     /tmp/ccfd9YHW.s:359    .text:0000000000000220 .L0 
     /tmp/ccfd9YHW.s:360    .text:0000000000000220 .L0 
     /tmp/ccfd9YHW.s:364    .text:0000000000000230 .L0 
     /tmp/ccfd9YHW.s:365    .text:0000000000000230 .L0 
     /tmp/ccfd9YHW.s:366    .text:0000000000000230 .L0 
     /tmp/ccfd9YHW.s:371    .text:000000000000023c .L0 
     /tmp/ccfd9YHW.s:372    .text:000000000000023c .L0 
GAS LISTING /tmp/ccfd9YHW.s 			page 15


     /tmp/ccfd9YHW.s:374    .text:0000000000000244 .L0 
     /tmp/ccfd9YHW.s:375    .text:0000000000000244 .L0 
     /tmp/ccfd9YHW.s:377    .text:0000000000000248 .L0 
     /tmp/ccfd9YHW.s:378    .text:0000000000000248 .L0 
     /tmp/ccfd9YHW.s:380    .text:000000000000024c .L0 
     /tmp/ccfd9YHW.s:383    .text:0000000000000250 .L0 
     /tmp/ccfd9YHW.s:385    .text:0000000000000254 .L0 
     /tmp/ccfd9YHW.s:389    .text:0000000000000258 .L0 
     /tmp/ccfd9YHW.s:392    .text:000000000000025c .L0 
     /tmp/ccfd9YHW.s:400    .text:0000000000000274 .L0 
     /tmp/ccfd9YHW.s:429    .rodata:0000000000000000 .LANCHOR0
     /tmp/ccfd9YHW.s:56     .text._ZN16KObjectAllocatordlEPv:0000000000000054 .L0 
     /tmp/ccfd9YHW.s:444    .text:0000000000000274 .L0 
     /tmp/ccfd9YHW.s:58     .rodata.str1.8:0000000000000000 .LC1
     /tmp/ccfd9YHW.s:228    .text:00000000000000fc .L0 
     /tmp/ccfd9YHW.s:61     .rodata.str1.8:0000000000000010 .LC2
     /tmp/ccfd9YHW.s:244    .text:0000000000000118 .L0 
     /tmp/ccfd9YHW.s:64     .rodata.str1.8:0000000000000018 .LC3
     /tmp/ccfd9YHW.s:249    .text:0000000000000128 .L0 
     /tmp/ccfd9YHW.s:264    .text:0000000000000144 .L0 
     /tmp/ccfd9YHW.s:67     .rodata.str1.8:0000000000000028 .LC4
     /tmp/ccfd9YHW.s:269    .text:0000000000000154 .L0 
     /tmp/ccfd9YHW.s:284    .text:0000000000000170 .L0 
     /tmp/ccfd9YHW.s:70     .rodata.str1.8:0000000000000038 .LC5
     /tmp/ccfd9YHW.s:297    .text:0000000000000190 .L0 
     /tmp/ccfd9YHW.s:320    .text:00000000000001c0 .L0 
     /tmp/ccfd9YHW.s:73     .rodata.str1.8:0000000000000058 .LC6
     /tmp/ccfd9YHW.s:360    .text:0000000000000220 .L0 
     /tmp/ccfd9YHW.s:128    .text:0000000000000058 .L4
     /tmp/ccfd9YHW.s:111    .text:0000000000000038 .L5
     /tmp/ccfd9YHW.s:220    .text:00000000000000fc .L6
     /tmp/ccfd9YHW.s:201    .text:00000000000000e0 .L7
     /tmp/ccfd9YHW.s:294    .text:0000000000000190 .L8
     /tmp/ccfd9YHW.s:355    .text:0000000000000220 .L9
     /tmp/ccfd9YHW.s:99     .text:0000000000000018 .LEHB0
     /tmp/ccfd9YHW.s:80     .text:0000000000000000 .LFB19
     /tmp/ccfd9YHW.s:147    .text:0000000000000080 .LEHE0
     /tmp/ccfd9YHW.s:169    .text:00000000000000a4 .LEHB1
     /tmp/ccfd9YHW.s:185    .text:00000000000000cc .LEHE1
     /tmp/ccfd9YHW.s:388    .text:0000000000000258 .L11
     /tmp/ccfd9YHW.s:229    .text:0000000000000104 .LEHB2
     /tmp/ccfd9YHW.s:369    .text:000000000000023c .LEHE2
     /tmp/ccfd9YHW.s:396    .text:000000000000026c .LEHB3
     /tmp/ccfd9YHW.s:399    .text:0000000000000274 .LEHE3
     /tmp/ccfd9YHW.s:1983   .debug_abbrev:0000000000000000 .Ldebug_abbrev0
     /tmp/ccfd9YHW.s:3254   .debug_str:0000000000000b29 .LASF144
     /tmp/ccfd9YHW.s:3138   .debug_str:00000000000005cd .LASF145
     /tmp/ccfd9YHW.s:3216   .debug_str:000000000000091f .LASF146
     /tmp/ccfd9YHW.s:2992   .debug_ranges:0000000000000000 .Ldebug_ranges0
     /tmp/ccfd9YHW.s:3000   .debug_line:0000000000000000 .Ldebug_line0
     /tmp/ccfd9YHW.s:3174   .debug_str:0000000000000710 .LASF0
     /tmp/ccfd9YHW.s:3194   .debug_str:00000000000007e5 .LASF1
     /tmp/ccfd9YHW.s:3154   .debug_str:000000000000063e .LASF2
     /tmp/ccfd9YHW.s:3074   .debug_str:0000000000000335 .LASF3
     /tmp/ccfd9YHW.s:3124   .debug_str:000000000000053d .LASF4
     /tmp/ccfd9YHW.s:3238   .debug_str:0000000000000a8c .LASF5
     /tmp/ccfd9YHW.s:3034   .debug_str:0000000000000177 .LASF6
GAS LISTING /tmp/ccfd9YHW.s 			page 16


     /tmp/ccfd9YHW.s:3198   .debug_str:0000000000000817 .LASF7
     /tmp/ccfd9YHW.s:3172   .debug_str:00000000000006fd .LASF8
     /tmp/ccfd9YHW.s:3272   .debug_str:0000000000000cac .LASF9
     /tmp/ccfd9YHW.s:3108   .debug_str:0000000000000454 .LASF10
     /tmp/ccfd9YHW.s:3210   .debug_str:00000000000008de .LASF11
     /tmp/ccfd9YHW.s:3260   .debug_str:0000000000000c22 .LASF12
     /tmp/ccfd9YHW.s:3036   .debug_str:000000000000017e .LASF13
     /tmp/ccfd9YHW.s:3014   .debug_str:000000000000009c .LASF14
     /tmp/ccfd9YHW.s:3054   .debug_str:000000000000023b .LASF15
     /tmp/ccfd9YHW.s:3228   .debug_str:0000000000000a17 .LASF16
     /tmp/ccfd9YHW.s:3072   .debug_str:000000000000031f .LASF17
     /tmp/ccfd9YHW.s:3150   .debug_str:000000000000061a .LASF50
     /tmp/ccfd9YHW.s:3214   .debug_str:000000000000090d .LASF147
     /tmp/ccfd9YHW.s:3144   .debug_str:00000000000005fd .LASF18
     /tmp/ccfd9YHW.s:3302   .debug_str:0000000000000e0c .LASF19
     /tmp/ccfd9YHW.s:3184   .debug_str:0000000000000787 .LASF148
     /tmp/ccfd9YHW.s:3258   .debug_str:0000000000000c02 .LASF149
     /tmp/ccfd9YHW.s:3270   .debug_str:0000000000000c95 .LASF36
     /tmp/ccfd9YHW.s:3056   .debug_str:0000000000000247 .LASF38
     /tmp/ccfd9YHW.s:3242   .debug_str:0000000000000ab4 .LASF24
     /tmp/ccfd9YHW.s:3202   .debug_str:000000000000083a .LASF26
     /tmp/ccfd9YHW.s:3266   .debug_str:0000000000000c7d .LASF20
     /tmp/ccfd9YHW.s:3224   .debug_str:00000000000009c8 .LASF22
     /tmp/ccfd9YHW.s:3280   .debug_str:0000000000000cf1 .LASF21
     /tmp/ccfd9YHW.s:3024   .debug_str:00000000000000f5 .LASF23
     /tmp/ccfd9YHW.s:3230   .debug_str:0000000000000a2d .LASF25
     /tmp/ccfd9YHW.s:3220   .debug_str:000000000000095b .LASF27
     /tmp/ccfd9YHW.s:3044   .debug_str:00000000000001f1 .LASF28
     /tmp/ccfd9YHW.s:3060   .debug_str:000000000000029c .LASF29
     /tmp/ccfd9YHW.s:3032   .debug_str:000000000000016a .LASF30
     /tmp/ccfd9YHW.s:3276   .debug_str:0000000000000cc2 .LASF31
     /tmp/ccfd9YHW.s:3148   .debug_str:000000000000060c .LASF32
     /tmp/ccfd9YHW.s:3058   .debug_str:0000000000000276 .LASF33
     /tmp/ccfd9YHW.s:3282   .debug_str:0000000000000cfb .LASF34
     /tmp/ccfd9YHW.s:3120   .debug_str:00000000000004f1 .LASF35
     /tmp/ccfd9YHW.s:3094   .debug_str:00000000000003b6 .LASF37
     /tmp/ccfd9YHW.s:3126   .debug_str:0000000000000544 .LASF39
     /tmp/ccfd9YHW.s:3028   .debug_str:000000000000013b .LASF40
     /tmp/ccfd9YHW.s:3286   .debug_str:0000000000000d10 .LASF41
     /tmp/ccfd9YHW.s:3240   .debug_str:0000000000000a9e .LASF42
     /tmp/ccfd9YHW.s:3246   .debug_str:0000000000000ad6 .LASF43
     /tmp/ccfd9YHW.s:3218   .debug_str:0000000000000952 .LASF44
     /tmp/ccfd9YHW.s:3212   .debug_str:00000000000008ed .LASF45
     /tmp/ccfd9YHW.s:3278   .debug_str:0000000000000ce7 .LASF46
     /tmp/ccfd9YHW.s:3134   .debug_str:00000000000005b3 .LASF47
     /tmp/ccfd9YHW.s:3298   .debug_str:0000000000000dde .LASF48
     /tmp/ccfd9YHW.s:3010   .debug_str:000000000000006b .LASF49
     /tmp/ccfd9YHW.s:3110   .debug_str:0000000000000462 .LASF51
     /tmp/ccfd9YHW.s:3042   .debug_str:00000000000001d7 .LASF52
     /tmp/ccfd9YHW.s:3040   .debug_str:00000000000001bc .LASF53
     /tmp/ccfd9YHW.s:3046   .debug_str:0000000000000209 .LASF54
     /tmp/ccfd9YHW.s:3166   .debug_str:000000000000069a .LASF55
     /tmp/ccfd9YHW.s:3244   .debug_str:0000000000000ac6 .LASF94
     /tmp/ccfd9YHW.s:3002   .debug_str:0000000000000000 .LASF96
     /tmp/ccfd9YHW.s:3118   .debug_str:00000000000004dd .LASF56
     /tmp/ccfd9YHW.s:3292   .debug_str:0000000000000d6c .LASF57
     /tmp/ccfd9YHW.s:3062   .debug_str:00000000000002cc .LASF58
GAS LISTING /tmp/ccfd9YHW.s 			page 17


     /tmp/ccfd9YHW.s:3168   .debug_str:00000000000006b4 .LASF59
     /tmp/ccfd9YHW.s:3234   .debug_str:0000000000000a67 .LASF60
     /tmp/ccfd9YHW.s:3204   .debug_str:0000000000000864 .LASF61
     /tmp/ccfd9YHW.s:3256   .debug_str:0000000000000bed .LASF62
     /tmp/ccfd9YHW.s:3038   .debug_str:000000000000018e .LASF63
     /tmp/ccfd9YHW.s:3236   .debug_str:0000000000000a7a .LASF64
     /tmp/ccfd9YHW.s:3006   .debug_str:000000000000002c .LASF65
     /tmp/ccfd9YHW.s:3250   .debug_str:0000000000000af1 .LASF66
     /tmp/ccfd9YHW.s:3080   .debug_str:000000000000034a .LASF67
     /tmp/ccfd9YHW.s:3140   .debug_str:00000000000005da .LASF68
     /tmp/ccfd9YHW.s:3114   .debug_str:0000000000000485 .LASF69
     /tmp/ccfd9YHW.s:3192   .debug_str:00000000000007d2 .LASF70
     /tmp/ccfd9YHW.s:3226   .debug_str:00000000000009eb .LASF71
     /tmp/ccfd9YHW.s:3200   .debug_str:000000000000082a .LASF72
     /tmp/ccfd9YHW.s:3180   .debug_str:0000000000000753 .LASF73
     /tmp/ccfd9YHW.s:3132   .debug_str:00000000000005a8 .LASF74
     /tmp/ccfd9YHW.s:3288   .debug_str:0000000000000d28 .LASF75
     /tmp/ccfd9YHW.s:3102   .debug_str:00000000000003fb .LASF76
     /tmp/ccfd9YHW.s:3004   .debug_str:000000000000001b .LASF77
     /tmp/ccfd9YHW.s:3090   .debug_str:00000000000003ab .LASF78
     /tmp/ccfd9YHW.s:3152   .debug_str:000000000000062a .LASF79
     /tmp/ccfd9YHW.s:3078   .debug_str:0000000000000341 .LASF80
     /tmp/ccfd9YHW.s:3026   .debug_str:0000000000000117 .LASF81
     /tmp/ccfd9YHW.s:3130   .debug_str:0000000000000595 .LASF82
     /tmp/ccfd9YHW.s:3294   .debug_str:0000000000000d99 .LASF83
     /tmp/ccfd9YHW.s:3188   .debug_str:00000000000007a5 .LASF84
     /tmp/ccfd9YHW.s:3252   .debug_str:0000000000000afc .LASF85
     /tmp/ccfd9YHW.s:3268   .debug_str:0000000000000c88 .LASF86
     /tmp/ccfd9YHW.s:3176   .debug_str:000000000000071d .LASF87
     /tmp/ccfd9YHW.s:3158   .debug_str:000000000000066a .LASF88
     /tmp/ccfd9YHW.s:3264   .debug_str:0000000000000c53 .LASF89
     /tmp/ccfd9YHW.s:3160   .debug_str:0000000000000678 .LASF90
     /tmp/ccfd9YHW.s:3128   .debug_str:000000000000056b .LASF91
     /tmp/ccfd9YHW.s:3162   .debug_str:0000000000000686 .LASF92
     /tmp/ccfd9YHW.s:3086   .debug_str:000000000000037b .LASF93
     /tmp/ccfd9YHW.s:3178   .debug_str:0000000000000746 .LASF95
     /tmp/ccfd9YHW.s:3208   .debug_str:00000000000008b2 .LASF97
     /tmp/ccfd9YHW.s:3304   .debug_str:0000000000000e11 .LASF98
     /tmp/ccfd9YHW.s:3222   .debug_str:0000000000000992 .LASF99
     /tmp/ccfd9YHW.s:3050   .debug_str:000000000000021b .LASF100
     /tmp/ccfd9YHW.s:3290   .debug_str:0000000000000d35 .LASF101
     /tmp/ccfd9YHW.s:3022   .debug_str:00000000000000e4 .LASF102
     /tmp/ccfd9YHW.s:3106   .debug_str:0000000000000427 .LASF103
     /tmp/ccfd9YHW.s:3186   .debug_str:0000000000000790 .LASF104
     /tmp/ccfd9YHW.s:3190   .debug_str:00000000000007b4 .LASF105
     /tmp/ccfd9YHW.s:3156   .debug_str:000000000000064c .LASF106
     /tmp/ccfd9YHW.s:3196   .debug_str:00000000000007f8 .LASF107
     /tmp/ccfd9YHW.s:3122   .debug_str:0000000000000518 .LASF108
     /tmp/ccfd9YHW.s:3076   .debug_str:000000000000033b .LASF109
     /tmp/ccfd9YHW.s:3206   .debug_str:0000000000000890 .LASF110
     /tmp/ccfd9YHW.s:3142   .debug_str:00000000000005f7 .LASF111
     /tmp/ccfd9YHW.s:3182   .debug_str:0000000000000765 .LASF112
     /tmp/ccfd9YHW.s:3146   .debug_str:0000000000000606 .LASF113
     /tmp/ccfd9YHW.s:3170   .debug_str:00000000000006db .LASF114
     /tmp/ccfd9YHW.s:3082   .debug_str:000000000000036f .LASF115
     /tmp/ccfd9YHW.s:3116   .debug_str:00000000000004bb .LASF116
     /tmp/ccfd9YHW.s:3084   .debug_str:0000000000000375 .LASF117
GAS LISTING /tmp/ccfd9YHW.s 			page 18


     /tmp/ccfd9YHW.s:3104   .debug_str:0000000000000405 .LASF118
     /tmp/ccfd9YHW.s:3274   .debug_str:0000000000000cbc .LASF119
     /tmp/ccfd9YHW.s:3068   .debug_str:00000000000002f8 .LASF120
     /tmp/ccfd9YHW.s:3088   .debug_str:00000000000003a5 .LASF121
     /tmp/ccfd9YHW.s:3030   .debug_str:0000000000000148 .LASF122
     /tmp/ccfd9YHW.s:3164   .debug_str:0000000000000694 .LASF123
     /tmp/ccfd9YHW.s:3300   .debug_str:0000000000000dea .LASF124
     /tmp/ccfd9YHW.s:3092   .debug_str:00000000000003b0 .LASF125
     /tmp/ccfd9YHW.s:3262   .debug_str:0000000000000c31 .LASF126
     /tmp/ccfd9YHW.s:3284   .debug_str:0000000000000d0a .LASF127
     /tmp/ccfd9YHW.s:3012   .debug_str:000000000000007a .LASF128
     /tmp/ccfd9YHW.s:3052   .debug_str:0000000000000236 .LASF129
     /tmp/ccfd9YHW.s:3096   .debug_str:00000000000003c5 .LASF130
     /tmp/ccfd9YHW.s:3016   .debug_str:00000000000000ac .LASF131
     /tmp/ccfd9YHW.s:3064   .debug_str:00000000000002da .LASF132
     /tmp/ccfd9YHW.s:3048   .debug_str:0000000000000216 .LASF133
     /tmp/ccfd9YHW.s:401    .text:0000000000000274 .LFE19
     /tmp/ccfd9YHW.s:3098   .debug_str:00000000000003e7 .LASF134
     /tmp/ccfd9YHW.s:2839   .debug_loc:0000000000000000 .LLST1
     /tmp/ccfd9YHW.s:2846   .debug_loc:0000000000000023 .LLST2
     /tmp/ccfd9YHW.s:108    .text:0000000000000034 .LBB39
     /tmp/ccfd9YHW.s:129    .text:0000000000000058 .LBE39
     /tmp/ccfd9YHW.s:2853   .debug_loc:0000000000000046 .LLST3
     /tmp/ccfd9YHW.s:138    .text:000000000000006c .LBB40
     /tmp/ccfd9YHW.s:151    .text:0000000000000084 .LBE40
     /tmp/ccfd9YHW.s:2864   .debug_loc:000000000000007c .LLST4
     /tmp/ccfd9YHW.s:143    .text:0000000000000074 .LVL13
     /tmp/ccfd9YHW.s:146    .text:0000000000000080 .LVL14
     /tmp/ccfd9YHW.s:152    .text:0000000000000084 .LBB42
     /tmp/ccfd9YHW.s:225    .text:00000000000000fc .LBE42
     /tmp/ccfd9YHW.s:2873   .debug_loc:00000000000000a1 .LLST5
     /tmp/ccfd9YHW.s:2888   .debug_loc:00000000000000dd .LLST6
     /tmp/ccfd9YHW.s:2903   .debug_loc:0000000000000119 .LLST7
     /tmp/ccfd9YHW.s:197    .text:00000000000000dc .LBB45
     /tmp/ccfd9YHW.s:222    .text:00000000000000fc .LBE45
     /tmp/ccfd9YHW.s:2914   .debug_loc:000000000000014f .LLST8
     /tmp/ccfd9YHW.s:172    .text:00000000000000ac .LVL16
     /tmp/ccfd9YHW.s:184    .text:00000000000000cc .LVL17
     /tmp/ccfd9YHW.s:233    .text:000000000000010c .LBB46
     /tmp/ccfd9YHW.s:237    .text:000000000000010c .LBE46
     /tmp/ccfd9YHW.s:253    .text:0000000000000138 .LBB48
     /tmp/ccfd9YHW.s:257    .text:0000000000000138 .LBE48
     /tmp/ccfd9YHW.s:273    .text:0000000000000164 .LBB50
     /tmp/ccfd9YHW.s:277    .text:0000000000000164 .LBE50
     /tmp/ccfd9YHW.s:301    .text:00000000000001a0 .LBB52
     /tmp/ccfd9YHW.s:314    .text:00000000000001b8 .LBE52
     /tmp/ccfd9YHW.s:2936   .debug_loc:00000000000001ae .LLST9
     /tmp/ccfd9YHW.s:307    .text:00000000000001a8 .LVL34
     /tmp/ccfd9YHW.s:310    .text:00000000000001b4 .LVL35
     /tmp/ccfd9YHW.s:315    .text:00000000000001b8 .LBB54
     /tmp/ccfd9YHW.s:337    .text:0000000000000200 .LBE54
     /tmp/ccfd9YHW.s:2945   .debug_loc:00000000000001d3 .LLST10
     /tmp/ccfd9YHW.s:346    .text:000000000000020c .LBB56
     /tmp/ccfd9YHW.s:357    .text:0000000000000220 .LBE56
     /tmp/ccfd9YHW.s:2952   .debug_loc:00000000000001f6 .LLST11
     /tmp/ccfd9YHW.s:351    .text:0000000000000214 .LVL40
     /tmp/ccfd9YHW.s:354    .text:0000000000000220 .LVL41
GAS LISTING /tmp/ccfd9YHW.s 			page 19


     /tmp/ccfd9YHW.s:102    .text:0000000000000020 .LVL6
     /tmp/ccfd9YHW.s:106    .text:0000000000000030 .LVL7
     /tmp/ccfd9YHW.s:133    .text:0000000000000060 .LVL11
     /tmp/ccfd9YHW.s:136    .text:000000000000006c .LVL12
     /tmp/ccfd9YHW.s:231    .text:000000000000010c .LVL23
     /tmp/ccfd9YHW.s:241    .text:0000000000000118 .LVL24
     /tmp/ccfd9YHW.s:246    .text:0000000000000128 .LVL25
     /tmp/ccfd9YHW.s:251    .text:0000000000000138 .LVL26
     /tmp/ccfd9YHW.s:261    .text:0000000000000144 .LVL27
     /tmp/ccfd9YHW.s:266    .text:0000000000000154 .LVL28
     /tmp/ccfd9YHW.s:271    .text:0000000000000164 .LVL29
     /tmp/ccfd9YHW.s:281    .text:0000000000000170 .LVL30
     /tmp/ccfd9YHW.s:286    .text:0000000000000180 .LVL31
     /tmp/ccfd9YHW.s:293    .text:0000000000000190 .LVL32
     /tmp/ccfd9YHW.s:299    .text:00000000000001a0 .LVL33
     /tmp/ccfd9YHW.s:341    .text:0000000000000208 .LVL38
     /tmp/ccfd9YHW.s:362    .text:0000000000000230 .LVL42
     /tmp/ccfd9YHW.s:368    .text:000000000000023c .LVL43
     /tmp/ccfd9YHW.s:394    .text:0000000000000268 .LVL46
     /tmp/ccfd9YHW.s:398    .text:0000000000000274 .LVL47
     /tmp/ccfd9YHW.s:3248   .debug_str:0000000000000aec .LASF135
     /tmp/ccfd9YHW.s:3070   .debug_str:000000000000031a .LASF136
     /tmp/ccfd9YHW.s:3020   .debug_str:00000000000000c6 .LASF138
     /tmp/ccfd9YHW.s:11     .text._ZN16KObjectAllocatordlEPv:0000000000000000 .LFB10
     /tmp/ccfd9YHW.s:54     .text._ZN16KObjectAllocatordlEPv:0000000000000054 .LFE10
     /tmp/ccfd9YHW.s:2959   .debug_loc:0000000000000219 .LLST0
     /tmp/ccfd9YHW.s:30     .text._ZN16KObjectAllocatordlEPv:0000000000000020 .LVL1
     /tmp/ccfd9YHW.s:33     .text._ZN16KObjectAllocatordlEPv:000000000000002c .LVL2
     /tmp/ccfd9YHW.s:37     .text._ZN16KObjectAllocatordlEPv:0000000000000034 .LVL3
     /tmp/ccfd9YHW.s:40     .text._ZN16KObjectAllocatordlEPv:0000000000000040 .LVL4
     /tmp/ccfd9YHW.s:3008   .debug_str:0000000000000057 .LASF137
     /tmp/ccfd9YHW.s:3232   .debug_str:0000000000000a4c .LASF139
     /tmp/ccfd9YHW.s:3296   .debug_str:0000000000000dcb .LASF140
     /tmp/ccfd9YHW.s:3018   .debug_str:00000000000000ba .LASF142
     /tmp/ccfd9YHW.s:3112   .debug_str:0000000000000473 .LASF141
     /tmp/ccfd9YHW.s:3100   .debug_str:00000000000003ee .LASF143
     /tmp/ccfd9YHW.s:3136   .debug_str:00000000000005be .LASF150
     /tmp/ccfd9YHW.s:3066   .debug_str:00000000000002e0 .LASF151
     /tmp/ccfd9YHW.s:221    .text:00000000000000fc .LVL22
     /tmp/ccfd9YHW.s:312    .text:00000000000001b8 .LVL36
     /tmp/ccfd9YHW.s:335    .text:0000000000000200 .LVL37
     /tmp/ccfd9YHW.s:381    .text:000000000000024c .LVL44
     /tmp/ccfd9YHW.s:112    .text:0000000000000038 .LVL8
     /tmp/ccfd9YHW.s:125    .text:0000000000000054 .LVL9
     /tmp/ccfd9YHW.s:127    .text:0000000000000058 .LVL10
     /tmp/ccfd9YHW.s:149    .text:0000000000000084 .LVL15
     /tmp/ccfd9YHW.s:387    .text:0000000000000258 .LVL45
     /tmp/ccfd9YHW.s:196    .text:00000000000000dc .LVL18
     /tmp/ccfd9YHW.s:200    .text:00000000000000e0 .LVL19
     /tmp/ccfd9YHW.s:210    .text:00000000000000ec .LVL20
     /tmp/ccfd9YHW.s:217    .text:00000000000000f8 .LVL21
     /tmp/ccfd9YHW.s:345    .text:000000000000020c .LVL39
     /tmp/ccfd9YHW.s:15     .text._ZN16KObjectAllocatordlEPv:0000000000000000 .LVL0
     /tmp/ccfd9YHW.s:49     .text._ZN16KObjectAllocatordlEPv:000000000000004c .LVL5
     /tmp/ccfd9YHW.s:445    .debug_info:0000000000000000 .Ldebug_info0
     /tmp/ccfd9YHW.s:5      .text:0000000000000000 .Ltext0
     /tmp/ccfd9YHW.s:439    .text:0000000000000274 .Letext0
GAS LISTING /tmp/ccfd9YHW.s 			page 20


     /tmp/ccfd9YHW.s:404    .gcc_except_table:0000000000000000 .LLSDA19

UNDEFINED SYMBOLS
_ZN15MemoryAllocator8instanceEv
_ZN15MemoryAllocator9kmem_freeEPv
_ZN15MemoryAllocator10kmem_allocEm
_Z11printStringPKc
_Z12printIntegerm
_ZN20KObjectAllocatorTest8runTestsEv
_ZN19MemoryAllocatorTest8runTestsEv
_Unwind_Resume
__gxx_personality_v0
