GAS LISTING /tmp/ccxXhH7Y.s 			page 1


   1              		.file	"main.cpp"
   2              		.option pic
   3              		.option norelax
   4              		.text
   5              	.Ltext0:
   6              		.section	.text._ZN16KObjectAllocatordlEPv,"axG",@progbits,_ZN16KObjectAllocatordlEPv,comdat
   7              		.align	2
   8              		.weak	_ZN16KObjectAllocatordlEPv
  10              	_ZN16KObjectAllocatordlEPv:
  11              	.LFB10:
  12              		.file 1 "src/../h/kObjectAllocator.hpp"
   1:src/../h/kObjectAllocator.hpp **** #ifndef KOBJECTALLOCATOR_HPP
   2:src/../h/kObjectAllocator.hpp **** #define KOBJECTALLOCATOR_HPP
   3:src/../h/kObjectAllocator.hpp **** 
   4:src/../h/kObjectAllocator.hpp **** #include "../h/memoryAllocator.hpp"
   5:src/../h/kObjectAllocator.hpp **** 
   6:src/../h/kObjectAllocator.hpp **** class KObjectAllocatorTest;
   7:src/../h/kObjectAllocator.hpp **** 
   8:src/../h/kObjectAllocator.hpp **** /*          ^
   9:src/../h/kObjectAllocator.hpp ****  *          |
  10:src/../h/kObjectAllocator.hpp ****  *          |
  11:src/../h/kObjectAllocator.hpp ****  *          |
  12:src/../h/kObjectAllocator.hpp ****  * DELETE THIS CLASS DECLARATION
  13:src/../h/kObjectAllocator.hpp ****  */
  14:src/../h/kObjectAllocator.hpp **** 
  15:src/../h/kObjectAllocator.hpp **** 
  16:src/../h/kObjectAllocator.hpp **** class KObjectAllocator {
  17:src/../h/kObjectAllocator.hpp **** public:
  18:src/../h/kObjectAllocator.hpp **** 
  19:src/../h/kObjectAllocator.hpp ****     /*
  20:src/../h/kObjectAllocator.hpp ****      *
  21:src/../h/kObjectAllocator.hpp ****      *
  22:src/../h/kObjectAllocator.hpp ****      *
  23:src/../h/kObjectAllocator.hpp ****      *
  24:src/../h/kObjectAllocator.hpp ****      *
  25:src/../h/kObjectAllocator.hpp ****      *
  26:src/../h/kObjectAllocator.hpp ****      *                      #####################################
  27:src/../h/kObjectAllocator.hpp ****      *                      #####################################
  28:src/../h/kObjectAllocator.hpp ****      *                      #####################################
  29:src/../h/kObjectAllocator.hpp ****      *                     ### NE SMEJU SE PREDATI TESTOVI !!! ###
  30:src/../h/kObjectAllocator.hpp ****      *                      #####################################
  31:src/../h/kObjectAllocator.hpp ****      *                      #####################################
  32:src/../h/kObjectAllocator.hpp ****      *                      #####################################
  33:src/../h/kObjectAllocator.hpp ****      *
  34:src/../h/kObjectAllocator.hpp ****      *
  35:src/../h/kObjectAllocator.hpp ****      *
  36:src/../h/kObjectAllocator.hpp ****      *
  37:src/../h/kObjectAllocator.hpp ****      *
  38:src/../h/kObjectAllocator.hpp ****      *
  39:src/../h/kObjectAllocator.hpp ****      */
  40:src/../h/kObjectAllocator.hpp ****     friend KObjectAllocatorTest;
  41:src/../h/kObjectAllocator.hpp **** 
  42:src/../h/kObjectAllocator.hpp ****     /*                         ^
  43:src/../h/kObjectAllocator.hpp ****      *                         |
  44:src/../h/kObjectAllocator.hpp ****      *      DELETE THIS FRIEND |
  45:src/../h/kObjectAllocator.hpp ****      *
  46:src/../h/kObjectAllocator.hpp ****      */
GAS LISTING /tmp/ccxXhH7Y.s 			page 2


  47:src/../h/kObjectAllocator.hpp **** 
  48:src/../h/kObjectAllocator.hpp **** 
  49:src/../h/kObjectAllocator.hpp ****     KObjectAllocator(size_t objectSize) : KObjectAllocator(objectSize, 320) {}
  50:src/../h/kObjectAllocator.hpp ****     KObjectAllocator(size_t objectSize, size_t initialObjectNumber)
  51:src/../h/kObjectAllocator.hpp ****             : initialNumberOfObject(initialObjectNumber), numberOfObjects(initialObjectNumber),  ob
  52:src/../h/kObjectAllocator.hpp ****         bitVectors = (uint8**) MemoryAllocator::instance()->kmem_alloc(1 * sizeof(uint*));
  53:src/../h/kObjectAllocator.hpp ****         objectVectors = (uint8**) MemoryAllocator::instance()->kmem_alloc(1 * sizeof(uint*));
  54:src/../h/kObjectAllocator.hpp ****         numberOfObjects = numberOfObjects / 8 * 8 + 8 * (numberOfObjects / 8 * 8 != numberOfObjects
  55:src/../h/kObjectAllocator.hpp ****         // one bit for each object which indicates whether memory
  56:src/../h/kObjectAllocator.hpp ****         // corresponding to that object is allocated or free
  57:src/../h/kObjectAllocator.hpp ****         memorySizeForBits = numberOfObjects / 8;
  58:src/../h/kObjectAllocator.hpp ****         bitVectors[0] = (uint8*) MemoryAllocator::instance()->kmem_alloc(
  59:src/../h/kObjectAllocator.hpp ****                 memorySizeForBits + numberOfObjects * objectSize
  60:src/../h/kObjectAllocator.hpp ****         );
  61:src/../h/kObjectAllocator.hpp ****         objectVectors[0] = bitVectors[0] + memorySizeForBits;   // start of memory for objects
  62:src/../h/kObjectAllocator.hpp ****         for (size_t i = 0; i < memorySizeForBits; bitVectors[0][i++] = 0);
  63:src/../h/kObjectAllocator.hpp ****     }
  64:src/../h/kObjectAllocator.hpp ****     void* operator new(size_t size) {
  65:src/../h/kObjectAllocator.hpp ****         return MemoryAllocator::instance()->kmem_alloc(size);
  66:src/../h/kObjectAllocator.hpp ****     }
  67:src/../h/kObjectAllocator.hpp ****     void operator delete(void* p) {
  13              		.loc 1 67 10
  14              		.cfi_startproc
  15              	.LVL0:
  16 0000 130101FE 		addi	sp,sp,-32
  17              		.cfi_def_cfa_offset 32
  18 0004 233C1100 		sd	ra,24(sp)
  19 0008 23388100 		sd	s0,16(sp)
  20 000c 23349100 		sd	s1,8(sp)
  21 0010 23302101 		sd	s2,0(sp)
  22              		.cfi_offset 1, -8
  23              		.cfi_offset 8, -16
  24              		.cfi_offset 9, -24
  25              		.cfi_offset 18, -32
  26 0014 13040102 		addi	s0,sp,32
  27              		.cfi_def_cfa 8, 0
  28 0018 13090500 		mv	s2,a0
  68:src/../h/kObjectAllocator.hpp ****         for (size_t i = 0; i < ((KObjectAllocator*) p)->numberOfAllocations; ++i)
  29              		.loc 1 68 9
  30              	.LVL1:
  31              	.LBB15:
  32              		.loc 1 68 21 is_stmt 0
  33 001c 93040000 		li	s1,0
  34              	.LVL2:
  35              	.L3:
  36              		.loc 1 68 30 is_stmt 1 discriminator 3
  37              		.loc 1 68 57 is_stmt 0 discriminator 3
  38 0020 83370903 		ld	a5,48(s2)
  39              		.loc 1 68 30 discriminator 3
  40 0024 63F6F402 		bleu	a5,s1,.L2
  69:src/../h/kObjectAllocator.hpp ****             MemoryAllocator::instance()->kmem_free(((KObjectAllocator*) p)->bitVectors[i]);
  41              		.loc 1 69 13 is_stmt 1 discriminator 2
  42              		.loc 1 69 51 is_stmt 0 discriminator 2
  43 0028 97000000 		call	_ZN15MemoryAllocator8instanceEv@plt
  43      E7800000 
  44              	.LVL3:
  45              		.loc 1 69 77 discriminator 2
GAS LISTING /tmp/ccxXhH7Y.s 			page 3


  46 0030 83378902 		ld	a5,40(s2)
  47              		.loc 1 69 89 discriminator 2
  48 0034 13973400 		slli	a4,s1,3
  49 0038 B387E700 		add	a5,a5,a4
  50              		.loc 1 69 51 discriminator 2
  51 003c 83B50700 		ld	a1,0(a5)
  52 0040 97000000 		call	_ZN15MemoryAllocator9kmem_freeEPv@plt
  52      E7800000 
  53              	.LVL4:
  68:src/../h/kObjectAllocator.hpp ****         for (size_t i = 0; i < ((KObjectAllocator*) p)->numberOfAllocations; ++i)
  54              		.loc 1 68 9 is_stmt 1 discriminator 2
  55 0048 93841400 		addi	s1,s1,1
  56              	.LVL5:
  57 004c 6FF05FFD 		j	.L3
  58              	.L2:
  59              	.LBE15:
  70:src/../h/kObjectAllocator.hpp ****         MemoryAllocator::instance()->kmem_free(((KObjectAllocator*) p)->bitVectors);
  60              		.loc 1 70 9
  61              		.loc 1 70 47 is_stmt 0
  62 0050 97000000 		call	_ZN15MemoryAllocator8instanceEv@plt
  62      E7800000 
  63              	.LVL6:
  64 0058 83358902 		ld	a1,40(s2)
  65 005c 97000000 		call	_ZN15MemoryAllocator9kmem_freeEPv@plt
  65      E7800000 
  66              	.LVL7:
  71:src/../h/kObjectAllocator.hpp ****         MemoryAllocator::instance()->kmem_free(((KObjectAllocator*) p)->objectVectors);
  67              		.loc 1 71 9 is_stmt 1
  68              		.loc 1 71 47 is_stmt 0
  69 0064 97000000 		call	_ZN15MemoryAllocator8instanceEv@plt
  69      E7800000 
  70              	.LVL8:
  71 006c 83350902 		ld	a1,32(s2)
  72 0070 97000000 		call	_ZN15MemoryAllocator9kmem_freeEPv@plt
  72      E7800000 
  73              	.LVL9:
  72:src/../h/kObjectAllocator.hpp ****         MemoryAllocator::instance()->kmem_free(p);
  74              		.loc 1 72 9 is_stmt 1
  75              		.loc 1 72 47 is_stmt 0
  76 0078 97000000 		call	_ZN15MemoryAllocator8instanceEv@plt
  76      E7800000 
  77              	.LVL10:
  78 0080 93050900 		mv	a1,s2
  79 0084 97000000 		call	_ZN15MemoryAllocator9kmem_freeEPv@plt
  79      E7800000 
  80              	.LVL11:
  73:src/../h/kObjectAllocator.hpp ****     }
  81              		.loc 1 73 5
  82 008c 83308101 		ld	ra,24(sp)
  83              		.cfi_restore 1
  84 0090 03340101 		ld	s0,16(sp)
  85              		.cfi_restore 8
  86              		.cfi_def_cfa 2, 32
  87 0094 83348100 		ld	s1,8(sp)
  88              		.cfi_restore 9
  89              	.LVL12:
  90 0098 03390100 		ld	s2,0(sp)
GAS LISTING /tmp/ccxXhH7Y.s 			page 4


  91              		.cfi_restore 18
  92              	.LVL13:
  93 009c 13010102 		addi	sp,sp,32
  94              		.cfi_def_cfa_offset 0
  95 00a0 67800000 		jr	ra
  96              		.cfi_endproc
  97              	.LFE10:
  99              		.section	.rodata.str1.8,"aMS",@progbits,1
 100              		.align	3
 101              	.LC0:
 102 0000 6F626A65 		.string	"objectNumber: "
 102      63744E75 
 102      6D626572 
 102      3A2000
 103 000f 00       		.align	3
 104              	.LC1:
 105 0010 0A00     		.string	"\n"
 106 0012 00000000 		.align	3
 106      0000
 107              	.LC2:
 108 0018 6D656D6F 		.string	"memoryForBits: "
 108      7279466F 
 108      72426974 
 108      733A2000 
 109              		.align	3
 110              	.LC3:
 111 0028 0A0A0A6F 		.string	"\n\n\nobjectNumber: "
 111      626A6563 
 111      744E756D 
 111      6265723A 
 111      2000
 112 003a 00000000 		.align	3
 112      0000
 113              	.LC4:
 114 0040 0A6F626A 		.string	"\nobjArr[7]: "
 114      4172725B 
 114      375D3A20 
 114      00
 115 004d 000000   		.align	3
 116              	.LC5:
 117 0050 0A6F626A 		.string	"\nobjArr[8]: "
 117      4172725B 
 117      385D3A20 
 117      00
 118 005d 000000   		.align	3
 119              	.LC6:
 120 0060 0A6F626A 		.string	"\nobjArr[9]: "
 120      4172725B 
 120      395D3A20 
 120      00
 121 006d 000000   		.align	3
 122              	.LC7:
 123 0070 0A4D656D 		.string	"\nMemory tests:\n"
 123      6F727920 
 123      74657374 
 123      733A0A00 
 124              		.text
GAS LISTING /tmp/ccxXhH7Y.s 			page 5


 125              		.align	2
 126              		.globl	main
 128              	main:
 129              	.LFB21:
 130              		.file 2 "src/main.cpp"
   1:src/main.cpp  **** #include "../h/print.hpp"
   2:src/main.cpp  **** #include "../h/memoryAllocator.hpp"
   3:src/main.cpp  **** #include "../h/kObjectAllocator.hpp"
   4:src/main.cpp  **** 
   5:src/main.cpp  **** // tests delete this before submition !!!!!!!!!!!
   6:src/main.cpp  **** #include "../h/memoryAllocatorTest.hpp"
   7:src/main.cpp  **** #include "../h/kObjectAllocatorTest.hpp"
   8:src/main.cpp  **** 
   9:src/main.cpp  **** int main() {
 131              		.loc 2 9 12 is_stmt 1
 132              		.cfi_startproc
 133              		.cfi_personality 0x9b,DW.ref.__gxx_personality_v0
 134              		.cfi_lsda 0x1b,.LLSDA21
 135 0000 130101F8 		addi	sp,sp,-128
 136              		.cfi_def_cfa_offset 128
 137 0004 233C1106 		sd	ra,120(sp)
 138 0008 23388106 		sd	s0,112(sp)
 139 000c 23349106 		sd	s1,104(sp)
 140 0010 23302107 		sd	s2,96(sp)
 141              		.cfi_offset 1, -8
 142              		.cfi_offset 8, -16
 143              		.cfi_offset 9, -24
 144              		.cfi_offset 18, -32
 145 0014 13040108 		addi	s0,sp,128
 146              		.cfi_def_cfa 8, 0
  10:src/main.cpp  **** 
  11:src/main.cpp  ****     uint64* arr = (uint64*) MemoryAllocator::instance()->kmem_alloc(64 * 100);
 147              		.loc 2 11 5
 148              	.LEHB0:
 149              		.loc 2 11 68 is_stmt 0
 150 0018 97000000 		call	_ZN15MemoryAllocator8instanceEv@plt
 150      E7800000 
 151              	.LVL14:
 152 0020 B7250000 		li	a1,8192
 153 0024 93850590 		addi	a1,a1,-1792
 154 0028 97000000 		call	_ZN15MemoryAllocator10kmem_allocEm@plt
 154      E7800000 
 155              	.LVL15:
 156 0030 93040500 		mv	s1,a0
 157              	.LBB34:
  12:src/main.cpp  ****     for (int i = 0; i < 100; ++i) arr[i] = (uint64) -1;
 158              		.loc 2 12 14
 159 0034 93070000 		li	a5,0
 160              	.L7:
 161              	.LVL16:
 162              		.loc 2 12 23 is_stmt 1 discriminator 3
 163 0038 13073006 		li	a4,99
 164 003c 634EF700 		bgt	a5,a4,.L6
 165              		.loc 2 12 35 discriminator 2
 166              		.loc 2 12 40 is_stmt 0 discriminator 2
 167 0040 13973700 		slli	a4,a5,3
 168 0044 3387E400 		add	a4,s1,a4
GAS LISTING /tmp/ccxXhH7Y.s 			page 6


 169              		.loc 2 12 42 discriminator 2
 170 0048 9306F0FF 		li	a3,-1
 171 004c 2330D700 		sd	a3,0(a4)
 172              		.loc 2 12 5 is_stmt 1 discriminator 2
 173 0050 9B871700 		addiw	a5,a5,1
 174              	.LVL17:
 175 0054 6FF05FFE 		j	.L7
 176              	.LVL18:
 177              	.L6:
 178              	.LBE34:
  13:src/main.cpp  ****     MemoryAllocator::instance()->kmem_free(arr);
 179              		.loc 2 13 5
 180              		.loc 2 13 43 is_stmt 0
 181 0058 97000000 		call	_ZN15MemoryAllocator8instanceEv@plt
 181      E7800000 
 182              	.LVL19:
 183 0060 93850400 		mv	a1,s1
 184 0064 97000000 		call	_ZN15MemoryAllocator9kmem_freeEPv@plt
 184      E7800000 
 185              	.LVL20:
  14:src/main.cpp  **** 
  15:src/main.cpp  ****     KObjectAllocator* newObj = new KObjectAllocator(sizeof(uint8), 4);
 186              		.loc 2 15 5 is_stmt 1
 187              	.LBB35:
 188              	.LBB36:
  65:src/../h/kObjectAllocator.hpp ****     }
 189              		.loc 1 65 9
  65:src/../h/kObjectAllocator.hpp ****     }
 190              		.loc 1 65 55 is_stmt 0
 191 006c 97000000 		call	_ZN15MemoryAllocator8instanceEv@plt
 191      E7800000 
 192              	.LVL21:
 193 0074 93050004 		li	a1,64
 194 0078 97000000 		call	_ZN15MemoryAllocator10kmem_allocEm@plt
 194      E7800000 
 195              	.LVL22:
 196              	.LEHE0:
 197 0080 93040500 		mv	s1,a0
 198              	.LVL23:
 199              	.LBE36:
 200              	.LBE35:
 201              	.LBB37:
 202              	.LBB38:
  51:src/../h/kObjectAllocator.hpp ****         bitVectors = (uint8**) MemoryAllocator::instance()->kmem_alloc(1 * sizeof(uint*));
 203              		.loc 1 51 119
 204 0084 93074000 		li	a5,4
 205 0088 2330F500 		sd	a5,0(a0)
 206 008c 2334F500 		sd	a5,8(a0)
 207 0090 93071000 		li	a5,1
 208 0094 233CF500 		sd	a5,24(a0)
 209 0098 2338F502 		sd	a5,48(a0)
 210 009c 233C0502 		sd	zero,56(a0)
 211              	.LBB39:
  52:src/../h/kObjectAllocator.hpp ****         objectVectors = (uint8**) MemoryAllocator::instance()->kmem_alloc(1 * sizeof(uint*));
 212              		.loc 1 52 9 is_stmt 1
 213              	.LEHB1:
  52:src/../h/kObjectAllocator.hpp ****         objectVectors = (uint8**) MemoryAllocator::instance()->kmem_alloc(1 * sizeof(uint*));
GAS LISTING /tmp/ccxXhH7Y.s 			page 7


 214              		.loc 1 52 71 is_stmt 0
 215 00a0 97000000 		call	_ZN15MemoryAllocator8instanceEv@plt
 215      E7800000 
 216              	.LVL24:
 217 00a8 93058000 		li	a1,8
 218 00ac 97000000 		call	_ZN15MemoryAllocator10kmem_allocEm@plt
 218      E7800000 
 219              	.LVL25:
  52:src/../h/kObjectAllocator.hpp ****         objectVectors = (uint8**) MemoryAllocator::instance()->kmem_alloc(1 * sizeof(uint*));
 220              		.loc 1 52 20
 221 00b4 23B4A402 		sd	a0,40(s1)
  53:src/../h/kObjectAllocator.hpp ****         numberOfObjects = numberOfObjects / 8 * 8 + 8 * (numberOfObjects / 8 * 8 != numberOfObjects
 222              		.loc 1 53 9 is_stmt 1
  53:src/../h/kObjectAllocator.hpp ****         numberOfObjects = numberOfObjects / 8 * 8 + 8 * (numberOfObjects / 8 * 8 != numberOfObjects
 223              		.loc 1 53 74 is_stmt 0
 224 00b8 97000000 		call	_ZN15MemoryAllocator8instanceEv@plt
 224      E7800000 
 225              	.LVL26:
 226 00c0 93058000 		li	a1,8
 227 00c4 97000000 		call	_ZN15MemoryAllocator10kmem_allocEm@plt
 227      E7800000 
 228              	.LVL27:
  53:src/../h/kObjectAllocator.hpp ****         numberOfObjects = numberOfObjects / 8 * 8 + 8 * (numberOfObjects / 8 * 8 != numberOfObjects
 229              		.loc 1 53 23
 230 00cc 23B0A402 		sd	a0,32(s1)
  54:src/../h/kObjectAllocator.hpp ****         // one bit for each object which indicates whether memory
 231              		.loc 1 54 9 is_stmt 1
  54:src/../h/kObjectAllocator.hpp ****         // one bit for each object which indicates whether memory
 232              		.loc 1 54 27 is_stmt 0
 233 00d0 03B78400 		ld	a4,8(s1)
  54:src/../h/kObjectAllocator.hpp ****         // one bit for each object which indicates whether memory
 234              		.loc 1 54 47
 235 00d4 937787FF 		andi	a5,a4,-8
  54:src/../h/kObjectAllocator.hpp ****         // one bit for each object which indicates whether memory
 236              		.loc 1 54 55
 237 00d8 6302F702 		beq	a4,a5,.L19
 238 00dc 13078000 		li	a4,8
 239              	.L8:
  54:src/../h/kObjectAllocator.hpp ****         // one bit for each object which indicates whether memory
 240              		.loc 1 54 51
 241 00e0 B387E700 		add	a5,a5,a4
  54:src/../h/kObjectAllocator.hpp ****         // one bit for each object which indicates whether memory
 242              		.loc 1 54 25
 243 00e4 23B4F400 		sd	a5,8(s1)
  57:src/../h/kObjectAllocator.hpp ****         bitVectors[0] = (uint8*) MemoryAllocator::instance()->kmem_alloc(
 244              		.loc 1 57 9 is_stmt 1
  57:src/../h/kObjectAllocator.hpp ****         bitVectors[0] = (uint8*) MemoryAllocator::instance()->kmem_alloc(
 245              		.loc 1 57 45 is_stmt 0
 246 00e8 93D73700 		srli	a5,a5,3
  57:src/../h/kObjectAllocator.hpp ****         bitVectors[0] = (uint8*) MemoryAllocator::instance()->kmem_alloc(
 247              		.loc 1 57 27
 248 00ec 23B8F400 		sd	a5,16(s1)
  58:src/../h/kObjectAllocator.hpp ****                 memorySizeForBits + numberOfObjects * objectSize
 249              		.loc 1 58 9 is_stmt 1
  58:src/../h/kObjectAllocator.hpp ****                 memorySizeForBits + numberOfObjects * objectSize
 250              		.loc 1 58 73 is_stmt 0
 251 00f0 97000000 		call	_ZN15MemoryAllocator8instanceEv@plt
GAS LISTING /tmp/ccxXhH7Y.s 			page 8


 251      E7800000 
 252              	.LVL28:
 253 00f8 6F00C000 		j	.L23
 254              	.L19:
  54:src/../h/kObjectAllocator.hpp ****         // one bit for each object which indicates whether memory
 255              		.loc 1 54 55
 256 00fc 13070000 		li	a4,0
 257 0100 6FF01FFE 		j	.L8
 258              	.L23:
  59:src/../h/kObjectAllocator.hpp ****         );
 259              		.loc 1 59 17
 260 0104 83B50401 		ld	a1,16(s1)
  59:src/../h/kObjectAllocator.hpp ****         );
 261              		.loc 1 59 37
 262 0108 83B78400 		ld	a5,8(s1)
  58:src/../h/kObjectAllocator.hpp ****                 memorySizeForBits + numberOfObjects * objectSize
 263              		.loc 1 58 9
 264 010c 03B98402 		ld	s2,40(s1)
  58:src/../h/kObjectAllocator.hpp ****                 memorySizeForBits + numberOfObjects * objectSize
 265              		.loc 1 58 73
 266 0110 B385F500 		add	a1,a1,a5
 267 0114 97000000 		call	_ZN15MemoryAllocator10kmem_allocEm@plt
 267      E7800000 
 268              	.LVL29:
 269              	.LEHE1:
  58:src/../h/kObjectAllocator.hpp ****                 memorySizeForBits + numberOfObjects * objectSize
 270              		.loc 1 58 23
 271 011c 2330A900 		sd	a0,0(s2)
  61:src/../h/kObjectAllocator.hpp ****         for (size_t i = 0; i < memorySizeForBits; bitVectors[0][i++] = 0);
 272              		.loc 1 61 9 is_stmt 1
  61:src/../h/kObjectAllocator.hpp ****         for (size_t i = 0; i < memorySizeForBits; bitVectors[0][i++] = 0);
 273              		.loc 1 61 28 is_stmt 0
 274 0120 83B78402 		ld	a5,40(s1)
  61:src/../h/kObjectAllocator.hpp ****         for (size_t i = 0; i < memorySizeForBits; bitVectors[0][i++] = 0);
 275              		.loc 1 61 40
 276 0124 83B70700 		ld	a5,0(a5)
  61:src/../h/kObjectAllocator.hpp ****         for (size_t i = 0; i < memorySizeForBits; bitVectors[0][i++] = 0);
 277              		.loc 1 61 44
 278 0128 83B60401 		ld	a3,16(s1)
  61:src/../h/kObjectAllocator.hpp ****         for (size_t i = 0; i < memorySizeForBits; bitVectors[0][i++] = 0);
 279              		.loc 1 61 9
 280 012c 03B70402 		ld	a4,32(s1)
  61:src/../h/kObjectAllocator.hpp ****         for (size_t i = 0; i < memorySizeForBits; bitVectors[0][i++] = 0);
 281              		.loc 1 61 42
 282 0130 B387D700 		add	a5,a5,a3
  61:src/../h/kObjectAllocator.hpp ****         for (size_t i = 0; i < memorySizeForBits; bitVectors[0][i++] = 0);
 283              		.loc 1 61 26
 284 0134 2330F700 		sd	a5,0(a4)
  62:src/../h/kObjectAllocator.hpp ****     }
 285              		.loc 1 62 9 is_stmt 1
 286              	.LVL30:
 287              	.LBB40:
  62:src/../h/kObjectAllocator.hpp ****     }
 288              		.loc 1 62 21 is_stmt 0
 289 0138 93070000 		li	a5,0
 290              	.LVL31:
 291              	.L10:
GAS LISTING /tmp/ccxXhH7Y.s 			page 9


  62:src/../h/kObjectAllocator.hpp ****     }
 292              		.loc 1 62 30 is_stmt 1
  62:src/../h/kObjectAllocator.hpp ****     }
 293              		.loc 1 62 32 is_stmt 0
 294 013c 03B70401 		ld	a4,16(s1)
  62:src/../h/kObjectAllocator.hpp ****     }
 295              		.loc 1 62 30
 296 0140 63FEE700 		bleu	a4,a5,.L9
  62:src/../h/kObjectAllocator.hpp ****     }
 297              		.loc 1 62 9 is_stmt 1
  62:src/../h/kObjectAllocator.hpp ****     }
 298              		.loc 1 62 51 is_stmt 0
 299 0144 03B78402 		ld	a4,40(s1)
  62:src/../h/kObjectAllocator.hpp ****     }
 300              		.loc 1 62 63
 301 0148 03370700 		ld	a4,0(a4)
 302              	.LVL32:
  62:src/../h/kObjectAllocator.hpp ****     }
 303              		.loc 1 62 68
 304 014c 3307F700 		add	a4,a4,a5
  62:src/../h/kObjectAllocator.hpp ****     }
 305              		.loc 1 62 70
 306 0150 23000700 		sb	zero,0(a4)
  62:src/../h/kObjectAllocator.hpp ****     }
 307              		.loc 1 62 66
 308 0154 93871700 		addi	a5,a5,1
 309              	.LVL33:
  62:src/../h/kObjectAllocator.hpp ****     }
 310              		.loc 1 62 9
 311 0158 6FF05FFE 		j	.L10
 312              	.L9:
 313              	.LVL34:
 314              	.LBE40:
 315              	.LBE39:
 316              	.LBE38:
 317              	.LBE37:
  16:src/main.cpp  ****     printString("objectNumber: "); printInteger(newObj->getNumberOfObjects()); printString("\n");
 318              		.loc 2 16 5 is_stmt 1 discriminator 3
 319              		.loc 2 16 16 is_stmt 0 discriminator 3
 320 015c 17050000 		lla	a0,.LC0
 320      13050500 
 321              	.LEHB2:
 322 0164 97000000 		call	_Z11printStringPKc@plt
 322      E7800000 
 323              	.LVL35:
 324              		.loc 2 16 36 is_stmt 1 discriminator 3
 325              	.LBB41:
 326              	.LBB42:
  74:src/../h/kObjectAllocator.hpp ****     void printInternalMemory();
  75:src/../h/kObjectAllocator.hpp ****     size_t getObjectSize() { return objectSize; }
  76:src/../h/kObjectAllocator.hpp ****     size_t getInitialNumberOfObjects() { return initialNumberOfObject; }
  77:src/../h/kObjectAllocator.hpp ****     size_t getNumberOfObjects() { return numberOfObjects; }
 327              		.loc 1 77 35 discriminator 3
 328              	.LBE42:
 329              	.LBE41:
 330              		.loc 2 16 48 is_stmt 0 discriminator 3
 331 016c 03B58400 		ld	a0,8(s1)
GAS LISTING /tmp/ccxXhH7Y.s 			page 10


 332 0170 97000000 		call	_Z12printIntegerm@plt
 332      E7800000 
 333              	.LVL36:
 334              		.loc 2 16 80 is_stmt 1 discriminator 3
 335              		.loc 2 16 91 is_stmt 0 discriminator 3
 336 0178 17050000 		lla	a0,.LC1
 336      13050500 
 337 0180 97000000 		call	_Z11printStringPKc@plt
 337      E7800000 
 338              	.LVL37:
  17:src/main.cpp  ****     printString("memoryForBits: "); printInteger(newObj->getMemorySizeForBits()); printString("\n")
 339              		.loc 2 17 5 is_stmt 1 discriminator 3
 340              		.loc 2 17 16 is_stmt 0 discriminator 3
 341 0188 17050000 		lla	a0,.LC2
 341      13050500 
 342 0190 97000000 		call	_Z11printStringPKc@plt
 342      E7800000 
 343              	.LVL38:
 344              		.loc 2 17 37 is_stmt 1 discriminator 3
 345              	.LBB43:
 346              	.LBB44:
  78:src/../h/kObjectAllocator.hpp ****     size_t getMemorySizeForBits() { return memorySizeForBits; }
 347              		.loc 1 78 37 discriminator 3
 348              	.LBE44:
 349              	.LBE43:
 350              		.loc 2 17 49 is_stmt 0 discriminator 3
 351 0198 03B50401 		ld	a0,16(s1)
 352 019c 97000000 		call	_Z12printIntegerm@plt
 352      E7800000 
 353              	.LVL39:
 354              		.loc 2 17 83 is_stmt 1 discriminator 3
 355              		.loc 2 17 94 is_stmt 0 discriminator 3
 356 01a4 17050000 		lla	a0,.LC1
 356      13050500 
 357 01ac 97000000 		call	_Z11printStringPKc@plt
 357      E7800000 
 358              	.LVL40:
 359              	.LBB45:
  18:src/main.cpp  ****     //newObj->printInternalMemory();
  19:src/main.cpp  **** 
  20:src/main.cpp  ****     void* objArr[10];
  21:src/main.cpp  ****     for (int i = 0; i < 10; ++i) {
 360              		.loc 2 21 14 discriminator 3
 361 01b4 13090000 		li	s2,0
 362 01b8 6F000006 		j	.L14
 363              	.LVL41:
 364              	.L12:
  22:src/main.cpp  ****         objArr[i] = newObj->allocateNewObject();
  23:src/main.cpp  ****         if (i == 3 || i == 7 || i == 8 ) {
  24:src/main.cpp  ****             printString("\n\n\nobjectNumber: "); printInteger(newObj->getNumberOfObjects()); printS
 365              		.loc 2 24 13 is_stmt 1
 366              		.loc 2 24 24 is_stmt 0
 367 01bc 17050000 		lla	a0,.LC3
 367      13050500 
 368 01c4 97000000 		call	_Z11printStringPKc@plt
 368      E7800000 
 369              	.LVL42:
GAS LISTING /tmp/ccxXhH7Y.s 			page 11


 370              		.loc 2 24 50 is_stmt 1
 371              	.LBB46:
 372              	.LBB47:
  77:src/../h/kObjectAllocator.hpp ****     size_t getMemorySizeForBits() { return memorySizeForBits; }
 373              		.loc 1 77 35
 374              	.LBE47:
 375              	.LBE46:
 376              		.loc 2 24 62 is_stmt 0
 377 01cc 03B58400 		ld	a0,8(s1)
 378 01d0 97000000 		call	_Z12printIntegerm@plt
 378      E7800000 
 379              	.LVL43:
 380              		.loc 2 24 94 is_stmt 1
 381              		.loc 2 24 105 is_stmt 0
 382 01d8 17050000 		lla	a0,.LC1
 382      13050500 
 383 01e0 97000000 		call	_Z11printStringPKc@plt
 383      E7800000 
 384              	.LVL44:
  25:src/main.cpp  ****             printString("memoryForBits: "); printInteger(newObj->getMemorySizeForBits()); printStri
 385              		.loc 2 25 13 is_stmt 1
 386              		.loc 2 25 24 is_stmt 0
 387 01e8 17050000 		lla	a0,.LC2
 387      13050500 
 388 01f0 97000000 		call	_Z11printStringPKc@plt
 388      E7800000 
 389              	.LVL45:
 390              		.loc 2 25 45 is_stmt 1
 391              	.LBB48:
 392              	.LBB49:
 393              		.loc 1 78 37
 394              	.LBE49:
 395              	.LBE48:
 396              		.loc 2 25 57 is_stmt 0
 397 01f8 03B50401 		ld	a0,16(s1)
 398 01fc 97000000 		call	_Z12printIntegerm@plt
 398      E7800000 
 399              	.LVL46:
 400              		.loc 2 25 91 is_stmt 1
 401              		.loc 2 25 102 is_stmt 0
 402 0204 17050000 		lla	a0,.LC1
 402      13050500 
 403 020c 97000000 		call	_Z11printStringPKc@plt
 403      E7800000 
 404              	.LVL47:
 405              	.L13:
  21:src/main.cpp  ****         objArr[i] = newObj->allocateNewObject();
 406              		.loc 2 21 5 is_stmt 1 discriminator 2
 407 0214 1B091900 		addiw	s2,s2,1
 408              	.LVL48:
 409              	.L14:
  21:src/main.cpp  ****         objArr[i] = newObj->allocateNewObject();
 410              		.loc 2 21 23 discriminator 1
 411 0218 93079000 		li	a5,9
 412 021c 63CE2703 		bgt	s2,a5,.L11
  22:src/main.cpp  ****         if (i == 3 || i == 7 || i == 8 ) {
 413              		.loc 2 22 9
GAS LISTING /tmp/ccxXhH7Y.s 			page 12


  22:src/main.cpp  ****         if (i == 3 || i == 7 || i == 8 ) {
 414              		.loc 2 22 46 is_stmt 0
 415 0220 13850400 		mv	a0,s1
 416 0224 97000000 		call	_ZN16KObjectAllocator17allocateNewObjectEv@plt
 416      E7800000 
 417              	.LVL49:
  22:src/main.cpp  ****         if (i == 3 || i == 7 || i == 8 ) {
 418              		.loc 2 22 19
 419 022c 93173900 		slli	a5,s2,3
 420 0230 130704FE 		addi	a4,s0,-32
 421 0234 B307F700 		add	a5,a4,a5
 422 0238 23B8A7FA 		sd	a0,-80(a5)
  23:src/main.cpp  ****             printString("\n\n\nobjectNumber: "); printInteger(newObj->getNumberOfObjects()); printS
 423              		.loc 2 23 9 is_stmt 1
 424 023c 93073000 		li	a5,3
 425 0240 E30EF9F6 		beq	s2,a5,.L12
  23:src/main.cpp  ****             printString("\n\n\nobjectNumber: "); printInteger(newObj->getNumberOfObjects()); printS
 426              		.loc 2 23 20 is_stmt 0 discriminator 1
 427 0244 93077000 		li	a5,7
 428 0248 E30AF9F6 		beq	s2,a5,.L12
  23:src/main.cpp  ****             printString("\n\n\nobjectNumber: "); printInteger(newObj->getNumberOfObjects()); printS
 429              		.loc 2 23 30 discriminator 2
 430 024c 93078000 		li	a5,8
 431 0250 E312F9FC 		bne	s2,a5,.L13
 432 0254 6FF09FF6 		j	.L12
 433              	.L11:
 434              	.LBE45:
  26:src/main.cpp  ****             //newObj->printInternalMemory();
  27:src/main.cpp  ****         }
  28:src/main.cpp  ****     }
  29:src/main.cpp  **** 
  30:src/main.cpp  ****     printString("\nobjArr[7]: "); printInteger((uint64) objArr[7]);
 435              		.loc 2 30 5 is_stmt 1
 436              		.loc 2 30 16 is_stmt 0
 437 0258 17050000 		lla	a0,.LC4
 437      13050500 
 438 0260 97000000 		call	_Z11printStringPKc@plt
 438      E7800000 
 439              	.LVL50:
 440              		.loc 2 30 35 is_stmt 1
 441              		.loc 2 30 47 is_stmt 0
 442 0268 033584FC 		ld	a0,-56(s0)
 443 026c 97000000 		call	_Z12printIntegerm@plt
 443      E7800000 
 444              	.LVL51:
  31:src/main.cpp  ****     printString("\nobjArr[8]: "); printInteger((uint64) objArr[8]);
 445              		.loc 2 31 5 is_stmt 1
 446              		.loc 2 31 16 is_stmt 0
 447 0274 17050000 		lla	a0,.LC5
 447      13050500 
 448 027c 97000000 		call	_Z11printStringPKc@plt
 448      E7800000 
 449              	.LVL52:
 450              		.loc 2 31 35 is_stmt 1
 451              		.loc 2 31 47 is_stmt 0
 452 0284 033504FD 		ld	a0,-48(s0)
 453 0288 97000000 		call	_Z12printIntegerm@plt
GAS LISTING /tmp/ccxXhH7Y.s 			page 13


 453      E7800000 
 454              	.LVL53:
  32:src/main.cpp  ****     printString("\nobjArr[9]: "); printInteger((uint64) objArr[9]); printString("\n");
 455              		.loc 2 32 5 is_stmt 1
 456              		.loc 2 32 16 is_stmt 0
 457 0290 17050000 		lla	a0,.LC6
 457      13050500 
 458 0298 97000000 		call	_Z11printStringPKc@plt
 458      E7800000 
 459              	.LVL54:
 460              		.loc 2 32 35 is_stmt 1
 461              		.loc 2 32 47 is_stmt 0
 462 02a0 033584FD 		ld	a0,-40(s0)
 463 02a4 97000000 		call	_Z12printIntegerm@plt
 463      E7800000 
 464              	.LVL55:
 465              		.loc 2 32 69 is_stmt 1
 466              		.loc 2 32 80 is_stmt 0
 467 02ac 17050000 		lla	a0,.LC1
 467      13050500 
 468 02b4 97000000 		call	_Z11printStringPKc@plt
 468      E7800000 
 469              	.LVL56:
 470              	.LBB50:
  33:src/main.cpp  ****     for (int i = 0; i < 10; ++i) newObj->freeObject(objArr[i]);
 471              		.loc 2 33 14
 472 02bc 13090000 		li	s2,0
 473              	.LVL57:
 474              	.L16:
 475              		.loc 2 33 23 is_stmt 1 discriminator 4
 476 02c0 93079000 		li	a5,9
 477 02c4 63C42703 		bgt	s2,a5,.L15
 478              		.loc 2 33 34 discriminator 2
 479              		.loc 2 33 52 is_stmt 0 discriminator 2
 480 02c8 93173900 		slli	a5,s2,3
 481 02cc 130704FE 		addi	a4,s0,-32
 482 02d0 B307F700 		add	a5,a4,a5
 483 02d4 83B507FB 		ld	a1,-80(a5)
 484 02d8 13850400 		mv	a0,s1
 485 02dc 97000000 		call	_ZN16KObjectAllocator10freeObjectEPv@plt
 485      E7800000 
 486              	.LVL58:
 487              		.loc 2 33 5 is_stmt 1 discriminator 2
 488 02e4 1B091900 		addiw	s2,s2,1
 489              	.LVL59:
 490 02e8 6FF09FFD 		j	.L16
 491              	.LVL60:
 492              	.L15:
 493              	.LBE50:
  34:src/main.cpp  **** 
  35:src/main.cpp  **** 
  36:src/main.cpp  ****     delete newObj;
 494              		.loc 2 36 5
 495              		.loc 2 36 18 is_stmt 0
 496 02ec 63880400 		beqz	s1,.L17
 497              		.loc 2 36 12 discriminator 1
 498 02f0 13850400 		mv	a0,s1
GAS LISTING /tmp/ccxXhH7Y.s 			page 14


 499 02f4 97000000 		call	_ZN16KObjectAllocatordlEPv
 499      E7800000 
 500              	.LVL61:
 501              	.L17:
  37:src/main.cpp  **** 
  38:src/main.cpp  ****     /*printString("\nKObjectAllocator tests:\n");
  39:src/main.cpp  ****     KObjectAllocatorTest* t2 = new KObjectAllocatorTest;
  40:src/main.cpp  ****     t2->runTests();
  41:src/main.cpp  ****     delete t2;*/
  42:src/main.cpp  **** 
  43:src/main.cpp  ****     printString("\nMemory tests:\n");
 502              		.loc 2 43 5 is_stmt 1
 503              		.loc 2 43 16 is_stmt 0
 504 02fc 17050000 		lla	a0,.LC7
 504      13050500 
 505 0304 97000000 		call	_Z11printStringPKc@plt
 505      E7800000 
 506              	.LVL62:
  44:src/main.cpp  ****     MemoryAllocatorTest t1;
 507              		.loc 2 44 5 is_stmt 1
  45:src/main.cpp  ****     t1.runTests();
 508              		.loc 2 45 5
 509              		.loc 2 45 16 is_stmt 0
 510 030c 130584F8 		addi	a0,s0,-120
 511 0310 97000000 		call	_ZN19MemoryAllocatorTest8runTestsEv@plt
 511      E7800000 
 512              	.LVL63:
 513              	.LEHE2:
  46:src/main.cpp  **** 
  47:src/main.cpp  **** 
  48:src/main.cpp  ****     return 0;
 514              		.loc 2 48 5 is_stmt 1
  49:src/main.cpp  **** }...
 515              		.loc 2 49 1 is_stmt 0
 516 0318 13050000 		li	a0,0
 517 031c 83308107 		ld	ra,120(sp)
 518              		.cfi_remember_state
 519              		.cfi_restore 1
 520 0320 03340107 		ld	s0,112(sp)
 521              		.cfi_restore 8
 522              		.cfi_def_cfa 2, 128
 523 0324 83348106 		ld	s1,104(sp)
 524              		.cfi_restore 9
 525              	.LVL64:
 526 0328 03390106 		ld	s2,96(sp)
 527              		.cfi_restore 18
 528              	.LVL65:
 529 032c 13010108 		addi	sp,sp,128
 530              		.cfi_def_cfa_offset 0
 531 0330 67800000 		jr	ra
 532              	.LVL66:
 533              	.L20:
 534              		.cfi_restore_state
 535 0334 13090500 		mv	s2,a0
  15:src/main.cpp  ****     KObjectAllocator* newObj = new KObjectAllocator(sizeof(uint8), 4);
 536              		.loc 2 15 69
 537 0338 13850400 		mv	a0,s1
GAS LISTING /tmp/ccxXhH7Y.s 			page 15


 538 033c 97000000 		call	_ZN16KObjectAllocatordlEPv
 538      E7800000 
 539              	.LVL67:
 540 0344 13050900 		mv	a0,s2
 541              	.LEHB3:
 542 0348 97000000 		call	_Unwind_Resume@plt
 542      E7800000 
 543              	.LVL68:
 544              	.LEHE3:
 545              		.cfi_endproc
 546              	.LFE21:
 547              		.globl	__gxx_personality_v0
 548              		.section	.gcc_except_table,"a",@progbits
 549              	.LLSDA21:
 550 0000 FF       		.byte	0xff
 551 0001 FF       		.byte	0xff
 552 0002 03       		.byte	0x3
 553 0003 34       		.byte	0x34
 554 0004 00000000 		.4byte	.LEHB0-.LFB21
 555 0008 00000000 		.4byte	.LEHE0-.LEHB0
 556 000c 00000000 		.4byte	0
 557 0010 00       		.byte	0
 558 0011 00000000 		.4byte	.LEHB1-.LFB21
 559 0015 00000000 		.4byte	.LEHE1-.LEHB1
 560 0019 00000000 		.4byte	.L20-.LFB21
 561 001d 00       		.byte	0
 562 001e 00000000 		.4byte	.LEHB2-.LFB21
 563 0022 00000000 		.4byte	.LEHE2-.LEHB2
 564 0026 00000000 		.4byte	0
 565 002a 00       		.byte	0
 566 002b 00000000 		.4byte	.LEHB3-.LFB21
 567 002f 00000000 		.4byte	.LEHE3-.LEHB3
 568 0033 00000000 		.4byte	0
 569 0037 00       		.byte	0
 570              		.text
 572              	.Letext0:
 573              		.file 3 "src/../h/../lib/hw.h"
 574              		.file 4 "src/../h/memoryAllocator.hpp"
 575              		.file 5 "src/../h/memoryAllocatorTest.hpp"
 576              		.file 6 "src/../h/print.hpp"
 3289              		.align	3
 3292              	DW.ref.__gxx_personality_v0:
 3293 0000 00000000 		.dword	__gxx_personality_v0
 3293      00000000 
 3294              		.ident	"GCC: (Ubuntu 9.4.0-1ubuntu1~20.04) 9.4.0"
 3295              		.section	.note.GNU-stack,"",@progbits
GAS LISTING /tmp/ccxXhH7Y.s 			page 16


DEFINED SYMBOLS
                            *ABS*:0000000000000000 main.cpp
     /tmp/ccxXhH7Y.s:10     .text._ZN16KObjectAllocatordlEPv:0000000000000000 _ZN16KObjectAllocatordlEPv
     /tmp/ccxXhH7Y.s:14     .text._ZN16KObjectAllocatordlEPv:0000000000000000 .L0 
     /tmp/ccxXhH7Y.s:16     .text._ZN16KObjectAllocatordlEPv:0000000000000000 .L0 
     /tmp/ccxXhH7Y.s:17     .text._ZN16KObjectAllocatordlEPv:0000000000000004 .L0 
     /tmp/ccxXhH7Y.s:22     .text._ZN16KObjectAllocatordlEPv:0000000000000014 .L0 
     /tmp/ccxXhH7Y.s:23     .text._ZN16KObjectAllocatordlEPv:0000000000000014 .L0 
     /tmp/ccxXhH7Y.s:24     .text._ZN16KObjectAllocatordlEPv:0000000000000014 .L0 
     /tmp/ccxXhH7Y.s:25     .text._ZN16KObjectAllocatordlEPv:0000000000000014 .L0 
     /tmp/ccxXhH7Y.s:27     .text._ZN16KObjectAllocatordlEPv:0000000000000018 .L0 
     /tmp/ccxXhH7Y.s:32     .text._ZN16KObjectAllocatordlEPv:000000000000001c .L0 
     /tmp/ccxXhH7Y.s:33     .text._ZN16KObjectAllocatordlEPv:000000000000001c .L0 
     /tmp/ccxXhH7Y.s:37     .text._ZN16KObjectAllocatordlEPv:0000000000000020 .L0 
     /tmp/ccxXhH7Y.s:38     .text._ZN16KObjectAllocatordlEPv:0000000000000020 .L0 
     /tmp/ccxXhH7Y.s:40     .text._ZN16KObjectAllocatordlEPv:0000000000000024 .L0 
     /tmp/ccxXhH7Y.s:42     .text._ZN16KObjectAllocatordlEPv:0000000000000028 .L0 
     /tmp/ccxXhH7Y.s:43     .text._ZN16KObjectAllocatordlEPv:0000000000000028 .L0 
     /tmp/ccxXhH7Y.s:46     .text._ZN16KObjectAllocatordlEPv:0000000000000030 .L0 
     /tmp/ccxXhH7Y.s:48     .text._ZN16KObjectAllocatordlEPv:0000000000000034 .L0 
     /tmp/ccxXhH7Y.s:51     .text._ZN16KObjectAllocatordlEPv:000000000000003c .L0 
     /tmp/ccxXhH7Y.s:55     .text._ZN16KObjectAllocatordlEPv:0000000000000048 .L0 
     /tmp/ccxXhH7Y.s:61     .text._ZN16KObjectAllocatordlEPv:0000000000000050 .L0 
     /tmp/ccxXhH7Y.s:62     .text._ZN16KObjectAllocatordlEPv:0000000000000050 .L0 
     /tmp/ccxXhH7Y.s:68     .text._ZN16KObjectAllocatordlEPv:0000000000000064 .L0 
     /tmp/ccxXhH7Y.s:69     .text._ZN16KObjectAllocatordlEPv:0000000000000064 .L0 
     /tmp/ccxXhH7Y.s:75     .text._ZN16KObjectAllocatordlEPv:0000000000000078 .L0 
     /tmp/ccxXhH7Y.s:76     .text._ZN16KObjectAllocatordlEPv:0000000000000078 .L0 
     /tmp/ccxXhH7Y.s:82     .text._ZN16KObjectAllocatordlEPv:000000000000008c .L0 
     /tmp/ccxXhH7Y.s:83     .text._ZN16KObjectAllocatordlEPv:0000000000000090 .L0 
     /tmp/ccxXhH7Y.s:85     .text._ZN16KObjectAllocatordlEPv:0000000000000094 .L0 
     /tmp/ccxXhH7Y.s:86     .text._ZN16KObjectAllocatordlEPv:0000000000000094 .L0 
     /tmp/ccxXhH7Y.s:88     .text._ZN16KObjectAllocatordlEPv:0000000000000098 .L0 
     /tmp/ccxXhH7Y.s:91     .text._ZN16KObjectAllocatordlEPv:000000000000009c .L0 
     /tmp/ccxXhH7Y.s:94     .text._ZN16KObjectAllocatordlEPv:00000000000000a0 .L0 
     /tmp/ccxXhH7Y.s:96     .text._ZN16KObjectAllocatordlEPv:00000000000000a4 .L0 
     /tmp/ccxXhH7Y.s:128    .text:0000000000000000 main
     /tmp/ccxXhH7Y.s:132    .text:0000000000000000 .L0 
     /tmp/ccxXhH7Y.s:3292   .data.rel.local.DW.ref.__gxx_personality_v0:0000000000000000 DW.ref.__gxx_personality_v0
     /tmp/ccxXhH7Y.s:135    .text:0000000000000000 .L0 
     /tmp/ccxXhH7Y.s:136    .text:0000000000000004 .L0 
     /tmp/ccxXhH7Y.s:141    .text:0000000000000014 .L0 
     /tmp/ccxXhH7Y.s:142    .text:0000000000000014 .L0 
     /tmp/ccxXhH7Y.s:143    .text:0000000000000014 .L0 
     /tmp/ccxXhH7Y.s:144    .text:0000000000000014 .L0 
     /tmp/ccxXhH7Y.s:146    .text:0000000000000018 .L0 
     /tmp/ccxXhH7Y.s:149    .text:0000000000000018 .L0 
     /tmp/ccxXhH7Y.s:150    .text:0000000000000018 .L0 
     /tmp/ccxXhH7Y.s:159    .text:0000000000000034 .L0 
     /tmp/ccxXhH7Y.s:163    .text:0000000000000038 .L0 
     /tmp/ccxXhH7Y.s:166    .text:0000000000000040 .L0 
     /tmp/ccxXhH7Y.s:167    .text:0000000000000040 .L0 
     /tmp/ccxXhH7Y.s:170    .text:0000000000000048 .L0 
     /tmp/ccxXhH7Y.s:173    .text:0000000000000050 .L0 
     /tmp/ccxXhH7Y.s:180    .text:0000000000000058 .L0 
     /tmp/ccxXhH7Y.s:181    .text:0000000000000058 .L0 
     /tmp/ccxXhH7Y.s:189    .text:000000000000006c .L0 
GAS LISTING /tmp/ccxXhH7Y.s 			page 17


     /tmp/ccxXhH7Y.s:190    .text:000000000000006c .L0 
     /tmp/ccxXhH7Y.s:191    .text:000000000000006c .L0 
     /tmp/ccxXhH7Y.s:204    .text:0000000000000084 .L0 
     /tmp/ccxXhH7Y.s:214    .text:00000000000000a0 .L0 
     /tmp/ccxXhH7Y.s:215    .text:00000000000000a0 .L0 
     /tmp/ccxXhH7Y.s:221    .text:00000000000000b4 .L0 
     /tmp/ccxXhH7Y.s:223    .text:00000000000000b8 .L0 
     /tmp/ccxXhH7Y.s:224    .text:00000000000000b8 .L0 
     /tmp/ccxXhH7Y.s:230    .text:00000000000000cc .L0 
     /tmp/ccxXhH7Y.s:232    .text:00000000000000d0 .L0 
     /tmp/ccxXhH7Y.s:233    .text:00000000000000d0 .L0 
     /tmp/ccxXhH7Y.s:235    .text:00000000000000d4 .L0 
     /tmp/ccxXhH7Y.s:237    .text:00000000000000d8 .L0 
     /tmp/ccxXhH7Y.s:241    .text:00000000000000e0 .L0 
     /tmp/ccxXhH7Y.s:243    .text:00000000000000e4 .L0 
     /tmp/ccxXhH7Y.s:245    .text:00000000000000e8 .L0 
     /tmp/ccxXhH7Y.s:246    .text:00000000000000e8 .L0 
     /tmp/ccxXhH7Y.s:248    .text:00000000000000ec .L0 
     /tmp/ccxXhH7Y.s:250    .text:00000000000000f0 .L0 
     /tmp/ccxXhH7Y.s:251    .text:00000000000000f0 .L0 
     /tmp/ccxXhH7Y.s:256    .text:00000000000000fc .L0 
     /tmp/ccxXhH7Y.s:260    .text:0000000000000104 .L0 
     /tmp/ccxXhH7Y.s:262    .text:0000000000000108 .L0 
     /tmp/ccxXhH7Y.s:264    .text:000000000000010c .L0 
     /tmp/ccxXhH7Y.s:266    .text:0000000000000110 .L0 
     /tmp/ccxXhH7Y.s:271    .text:000000000000011c .L0 
     /tmp/ccxXhH7Y.s:273    .text:0000000000000120 .L0 
     /tmp/ccxXhH7Y.s:274    .text:0000000000000120 .L0 
     /tmp/ccxXhH7Y.s:276    .text:0000000000000124 .L0 
     /tmp/ccxXhH7Y.s:278    .text:0000000000000128 .L0 
     /tmp/ccxXhH7Y.s:280    .text:000000000000012c .L0 
     /tmp/ccxXhH7Y.s:282    .text:0000000000000130 .L0 
     /tmp/ccxXhH7Y.s:284    .text:0000000000000134 .L0 
     /tmp/ccxXhH7Y.s:288    .text:0000000000000138 .L0 
     /tmp/ccxXhH7Y.s:289    .text:0000000000000138 .L0 
     /tmp/ccxXhH7Y.s:293    .text:000000000000013c .L0 
     /tmp/ccxXhH7Y.s:294    .text:000000000000013c .L0 
     /tmp/ccxXhH7Y.s:296    .text:0000000000000140 .L0 
     /tmp/ccxXhH7Y.s:298    .text:0000000000000144 .L0 
     /tmp/ccxXhH7Y.s:299    .text:0000000000000144 .L0 
     /tmp/ccxXhH7Y.s:301    .text:0000000000000148 .L0 
     /tmp/ccxXhH7Y.s:304    .text:000000000000014c .L0 
     /tmp/ccxXhH7Y.s:306    .text:0000000000000150 .L0 
     /tmp/ccxXhH7Y.s:308    .text:0000000000000154 .L0 
     /tmp/ccxXhH7Y.s:311    .text:0000000000000158 .L0 
     /tmp/ccxXhH7Y.s:319    .text:000000000000015c .L0 
     /tmp/ccxXhH7Y.s:320    .text:000000000000015c .L0 
     /tmp/ccxXhH7Y.s:327    .text:000000000000016c .L0 
     /tmp/ccxXhH7Y.s:330    .text:000000000000016c .L0 
     /tmp/ccxXhH7Y.s:331    .text:000000000000016c .L0 
     /tmp/ccxXhH7Y.s:335    .text:0000000000000178 .L0 
     /tmp/ccxXhH7Y.s:336    .text:0000000000000178 .L0 
     /tmp/ccxXhH7Y.s:340    .text:0000000000000188 .L0 
     /tmp/ccxXhH7Y.s:341    .text:0000000000000188 .L0 
     /tmp/ccxXhH7Y.s:347    .text:0000000000000198 .L0 
     /tmp/ccxXhH7Y.s:350    .text:0000000000000198 .L0 
     /tmp/ccxXhH7Y.s:351    .text:0000000000000198 .L0 
GAS LISTING /tmp/ccxXhH7Y.s 			page 18


     /tmp/ccxXhH7Y.s:355    .text:00000000000001a4 .L0 
     /tmp/ccxXhH7Y.s:356    .text:00000000000001a4 .L0 
     /tmp/ccxXhH7Y.s:361    .text:00000000000001b4 .L0 
     /tmp/ccxXhH7Y.s:366    .text:00000000000001bc .L0 
     /tmp/ccxXhH7Y.s:367    .text:00000000000001bc .L0 
     /tmp/ccxXhH7Y.s:373    .text:00000000000001cc .L0 
     /tmp/ccxXhH7Y.s:376    .text:00000000000001cc .L0 
     /tmp/ccxXhH7Y.s:377    .text:00000000000001cc .L0 
     /tmp/ccxXhH7Y.s:381    .text:00000000000001d8 .L0 
     /tmp/ccxXhH7Y.s:382    .text:00000000000001d8 .L0 
     /tmp/ccxXhH7Y.s:386    .text:00000000000001e8 .L0 
     /tmp/ccxXhH7Y.s:387    .text:00000000000001e8 .L0 
     /tmp/ccxXhH7Y.s:393    .text:00000000000001f8 .L0 
     /tmp/ccxXhH7Y.s:396    .text:00000000000001f8 .L0 
     /tmp/ccxXhH7Y.s:397    .text:00000000000001f8 .L0 
     /tmp/ccxXhH7Y.s:401    .text:0000000000000204 .L0 
     /tmp/ccxXhH7Y.s:402    .text:0000000000000204 .L0 
     /tmp/ccxXhH7Y.s:407    .text:0000000000000214 .L0 
     /tmp/ccxXhH7Y.s:411    .text:0000000000000218 .L0 
     /tmp/ccxXhH7Y.s:414    .text:0000000000000220 .L0 
     /tmp/ccxXhH7Y.s:415    .text:0000000000000220 .L0 
     /tmp/ccxXhH7Y.s:419    .text:000000000000022c .L0 
     /tmp/ccxXhH7Y.s:424    .text:000000000000023c .L0 
     /tmp/ccxXhH7Y.s:427    .text:0000000000000244 .L0 
     /tmp/ccxXhH7Y.s:430    .text:000000000000024c .L0 
     /tmp/ccxXhH7Y.s:436    .text:0000000000000258 .L0 
     /tmp/ccxXhH7Y.s:437    .text:0000000000000258 .L0 
     /tmp/ccxXhH7Y.s:441    .text:0000000000000268 .L0 
     /tmp/ccxXhH7Y.s:442    .text:0000000000000268 .L0 
     /tmp/ccxXhH7Y.s:446    .text:0000000000000274 .L0 
     /tmp/ccxXhH7Y.s:447    .text:0000000000000274 .L0 
     /tmp/ccxXhH7Y.s:451    .text:0000000000000284 .L0 
     /tmp/ccxXhH7Y.s:452    .text:0000000000000284 .L0 
     /tmp/ccxXhH7Y.s:456    .text:0000000000000290 .L0 
     /tmp/ccxXhH7Y.s:457    .text:0000000000000290 .L0 
     /tmp/ccxXhH7Y.s:461    .text:00000000000002a0 .L0 
     /tmp/ccxXhH7Y.s:462    .text:00000000000002a0 .L0 
     /tmp/ccxXhH7Y.s:466    .text:00000000000002ac .L0 
     /tmp/ccxXhH7Y.s:467    .text:00000000000002ac .L0 
     /tmp/ccxXhH7Y.s:472    .text:00000000000002bc .L0 
     /tmp/ccxXhH7Y.s:476    .text:00000000000002c0 .L0 
     /tmp/ccxXhH7Y.s:479    .text:00000000000002c8 .L0 
     /tmp/ccxXhH7Y.s:480    .text:00000000000002c8 .L0 
     /tmp/ccxXhH7Y.s:488    .text:00000000000002e4 .L0 
     /tmp/ccxXhH7Y.s:495    .text:00000000000002ec .L0 
     /tmp/ccxXhH7Y.s:496    .text:00000000000002ec .L0 
     /tmp/ccxXhH7Y.s:498    .text:00000000000002f0 .L0 
     /tmp/ccxXhH7Y.s:503    .text:00000000000002fc .L0 
     /tmp/ccxXhH7Y.s:504    .text:00000000000002fc .L0 
     /tmp/ccxXhH7Y.s:508    .text:000000000000030c .L0 
     /tmp/ccxXhH7Y.s:509    .text:000000000000030c .L0 
     /tmp/ccxXhH7Y.s:510    .text:000000000000030c .L0 
     /tmp/ccxXhH7Y.s:515    .text:0000000000000318 .L0 
     /tmp/ccxXhH7Y.s:516    .text:0000000000000318 .L0 
     /tmp/ccxXhH7Y.s:518    .text:0000000000000320 .L0 
     /tmp/ccxXhH7Y.s:519    .text:0000000000000320 .L0 
     /tmp/ccxXhH7Y.s:521    .text:0000000000000324 .L0 
GAS LISTING /tmp/ccxXhH7Y.s 			page 19


     /tmp/ccxXhH7Y.s:522    .text:0000000000000324 .L0 
     /tmp/ccxXhH7Y.s:524    .text:0000000000000328 .L0 
     /tmp/ccxXhH7Y.s:527    .text:000000000000032c .L0 
     /tmp/ccxXhH7Y.s:530    .text:0000000000000330 .L0 
     /tmp/ccxXhH7Y.s:534    .text:0000000000000334 .L0 
     /tmp/ccxXhH7Y.s:537    .text:0000000000000338 .L0 
     /tmp/ccxXhH7Y.s:545    .text:0000000000000350 .L0 
     /tmp/ccxXhH7Y.s:99     .text._ZN16KObjectAllocatordlEPv:00000000000000a4 .L0 
     /tmp/ccxXhH7Y.s:577    .text:0000000000000350 .L0 
     /tmp/ccxXhH7Y.s:101    .rodata.str1.8:0000000000000000 .LC0
     /tmp/ccxXhH7Y.s:320    .text:000000000000015c .L0 
     /tmp/ccxXhH7Y.s:104    .rodata.str1.8:0000000000000010 .LC1
     /tmp/ccxXhH7Y.s:336    .text:0000000000000178 .L0 
     /tmp/ccxXhH7Y.s:107    .rodata.str1.8:0000000000000018 .LC2
     /tmp/ccxXhH7Y.s:341    .text:0000000000000188 .L0 
     /tmp/ccxXhH7Y.s:356    .text:00000000000001a4 .L0 
     /tmp/ccxXhH7Y.s:110    .rodata.str1.8:0000000000000028 .LC3
     /tmp/ccxXhH7Y.s:367    .text:00000000000001bc .L0 
     /tmp/ccxXhH7Y.s:382    .text:00000000000001d8 .L0 
     /tmp/ccxXhH7Y.s:387    .text:00000000000001e8 .L0 
     /tmp/ccxXhH7Y.s:402    .text:0000000000000204 .L0 
     /tmp/ccxXhH7Y.s:113    .rodata.str1.8:0000000000000040 .LC4
     /tmp/ccxXhH7Y.s:437    .text:0000000000000258 .L0 
     /tmp/ccxXhH7Y.s:116    .rodata.str1.8:0000000000000050 .LC5
     /tmp/ccxXhH7Y.s:447    .text:0000000000000274 .L0 
     /tmp/ccxXhH7Y.s:119    .rodata.str1.8:0000000000000060 .LC6
     /tmp/ccxXhH7Y.s:457    .text:0000000000000290 .L0 
     /tmp/ccxXhH7Y.s:467    .text:00000000000002ac .L0 
     /tmp/ccxXhH7Y.s:122    .rodata.str1.8:0000000000000070 .LC7
     /tmp/ccxXhH7Y.s:504    .text:00000000000002fc .L0 
     /tmp/ccxXhH7Y.s:177    .text:0000000000000058 .L6
     /tmp/ccxXhH7Y.s:160    .text:0000000000000038 .L7
     /tmp/ccxXhH7Y.s:254    .text:00000000000000fc .L19
     /tmp/ccxXhH7Y.s:258    .text:0000000000000104 .L23
     /tmp/ccxXhH7Y.s:239    .text:00000000000000e0 .L8
     /tmp/ccxXhH7Y.s:312    .text:000000000000015c .L9
     /tmp/ccxXhH7Y.s:291    .text:000000000000013c .L10
     /tmp/ccxXhH7Y.s:409    .text:0000000000000218 .L14
     /tmp/ccxXhH7Y.s:433    .text:0000000000000258 .L11
     /tmp/ccxXhH7Y.s:364    .text:00000000000001bc .L12
     /tmp/ccxXhH7Y.s:405    .text:0000000000000214 .L13
     /tmp/ccxXhH7Y.s:492    .text:00000000000002ec .L15
     /tmp/ccxXhH7Y.s:474    .text:00000000000002c0 .L16
     /tmp/ccxXhH7Y.s:501    .text:00000000000002fc .L17
     /tmp/ccxXhH7Y.s:58     .text._ZN16KObjectAllocatordlEPv:0000000000000050 .L2
     /tmp/ccxXhH7Y.s:35     .text._ZN16KObjectAllocatordlEPv:0000000000000020 .L3
     /tmp/ccxXhH7Y.s:148    .text:0000000000000018 .LEHB0
     /tmp/ccxXhH7Y.s:129    .text:0000000000000000 .LFB21
     /tmp/ccxXhH7Y.s:196    .text:0000000000000080 .LEHE0
     /tmp/ccxXhH7Y.s:213    .text:00000000000000a0 .LEHB1
     /tmp/ccxXhH7Y.s:269    .text:000000000000011c .LEHE1
     /tmp/ccxXhH7Y.s:533    .text:0000000000000334 .L20
     /tmp/ccxXhH7Y.s:321    .text:0000000000000164 .LEHB2
     /tmp/ccxXhH7Y.s:513    .text:0000000000000318 .LEHE2
     /tmp/ccxXhH7Y.s:541    .text:0000000000000348 .LEHB3
     /tmp/ccxXhH7Y.s:544    .text:0000000000000350 .LEHE3
     /tmp/ccxXhH7Y.s:2022   .debug_abbrev:0000000000000000 .Ldebug_abbrev0
GAS LISTING /tmp/ccxXhH7Y.s 			page 20


     /tmp/ccxXhH7Y.s:3242   .debug_str:00000000000009ab .LASF120
     /tmp/ccxXhH7Y.s:3130   .debug_str:0000000000000493 .LASF121
     /tmp/ccxXhH7Y.s:3196   .debug_str:0000000000000742 .LASF122
     /tmp/ccxXhH7Y.s:3018   .debug_ranges:0000000000000000 .Ldebug_ranges0
     /tmp/ccxXhH7Y.s:3026   .debug_line:0000000000000000 .Ldebug_line0
     /tmp/ccxXhH7Y.s:3160   .debug_str:00000000000005a1 .LASF0
     /tmp/ccxXhH7Y.s:3176   .debug_str:0000000000000638 .LASF1
     /tmp/ccxXhH7Y.s:3142   .debug_str:00000000000004f8 .LASF2
     /tmp/ccxXhH7Y.s:3084   .debug_str:0000000000000287 .LASF3
     /tmp/ccxXhH7Y.s:3118   .debug_str:0000000000000412 .LASF4
     /tmp/ccxXhH7Y.s:3222   .debug_str:00000000000008e3 .LASF5
     /tmp/ccxXhH7Y.s:3050   .debug_str:00000000000000f6 .LASF6
     /tmp/ccxXhH7Y.s:3178   .debug_str:000000000000064b .LASF7
     /tmp/ccxXhH7Y.s:3158   .debug_str:000000000000058e .LASF8
     /tmp/ccxXhH7Y.s:3260   .debug_str:0000000000000b38 .LASF9
     /tmp/ccxXhH7Y.s:3104   .debug_str:0000000000000341 .LASF10
     /tmp/ccxXhH7Y.s:3190   .debug_str:0000000000000701 .LASF11
     /tmp/ccxXhH7Y.s:3248   .debug_str:0000000000000ac2 .LASF12
     /tmp/ccxXhH7Y.s:3052   .debug_str:00000000000000fd .LASF13
     /tmp/ccxXhH7Y.s:3036   .debug_str:0000000000000069 .LASF14
     /tmp/ccxXhH7Y.s:3068   .debug_str:00000000000001b5 .LASF15
     /tmp/ccxXhH7Y.s:3212   .debug_str:000000000000086e .LASF16
     /tmp/ccxXhH7Y.s:3082   .debug_str:0000000000000271 .LASF17
     /tmp/ccxXhH7Y.s:3138   .debug_str:00000000000004d4 .LASF50
     /tmp/ccxXhH7Y.s:3194   .debug_str:0000000000000730 .LASF123
     /tmp/ccxXhH7Y.s:3134   .debug_str:00000000000004bd .LASF18
     /tmp/ccxXhH7Y.s:3282   .debug_str:0000000000000c5b .LASF19
     /tmp/ccxXhH7Y.s:3170   .debug_str:000000000000060d .LASF124
     /tmp/ccxXhH7Y.s:3246   .debug_str:0000000000000aa2 .LASF125
     /tmp/ccxXhH7Y.s:3258   .debug_str:0000000000000b21 .LASF36
     /tmp/ccxXhH7Y.s:3070   .debug_str:00000000000001c1 .LASF38
     /tmp/ccxXhH7Y.s:3228   .debug_str:0000000000000920 .LASF24
     /tmp/ccxXhH7Y.s:3182   .debug_str:000000000000066e .LASF26
     /tmp/ccxXhH7Y.s:3252   .debug_str:0000000000000afb .LASF20
     /tmp/ccxXhH7Y.s:3208   .debug_str:000000000000081f .LASF22
     /tmp/ccxXhH7Y.s:3266   .debug_str:0000000000000b77 .LASF21
     /tmp/ccxXhH7Y.s:3042   .debug_str:0000000000000096 .LASF23
     /tmp/ccxXhH7Y.s:3214   .debug_str:0000000000000884 .LASF25
     /tmp/ccxXhH7Y.s:3204   .debug_str:00000000000007b2 .LASF27
     /tmp/ccxXhH7Y.s:3060   .debug_str:0000000000000170 .LASF28
     /tmp/ccxXhH7Y.s:3074   .debug_str:0000000000000216 .LASF29
     /tmp/ccxXhH7Y.s:3048   .debug_str:00000000000000e9 .LASF30
     /tmp/ccxXhH7Y.s:3262   .debug_str:0000000000000b48 .LASF31
     /tmp/ccxXhH7Y.s:3136   .debug_str:00000000000004c6 .LASF32
     /tmp/ccxXhH7Y.s:3072   .debug_str:00000000000001f0 .LASF33
     /tmp/ccxXhH7Y.s:3268   .debug_str:0000000000000b81 .LASF34
     /tmp/ccxXhH7Y.s:3116   .debug_str:00000000000003eb .LASF35
     /tmp/ccxXhH7Y.s:3098   .debug_str:00000000000002f8 .LASF37
     /tmp/ccxXhH7Y.s:3120   .debug_str:0000000000000419 .LASF39
     /tmp/ccxXhH7Y.s:3046   .debug_str:00000000000000dc .LASF40
     /tmp/ccxXhH7Y.s:3270   .debug_str:0000000000000b90 .LASF41
     /tmp/ccxXhH7Y.s:3226   .debug_str:000000000000090a .LASF42
     /tmp/ccxXhH7Y.s:3232   .debug_str:0000000000000942 .LASF43
     /tmp/ccxXhH7Y.s:3198   .debug_str:0000000000000775 .LASF44
     /tmp/ccxXhH7Y.s:3192   .debug_str:0000000000000710 .LASF45
     /tmp/ccxXhH7Y.s:3264   .debug_str:0000000000000b6d .LASF46
     /tmp/ccxXhH7Y.s:3128   .debug_str:0000000000000488 .LASF47
GAS LISTING /tmp/ccxXhH7Y.s 			page 21


     /tmp/ccxXhH7Y.s:3280   .debug_str:0000000000000c4f .LASF48
     /tmp/ccxXhH7Y.s:3034   .debug_str:000000000000005a .LASF49
     /tmp/ccxXhH7Y.s:3106   .debug_str:000000000000034f .LASF51
     /tmp/ccxXhH7Y.s:3058   .debug_str:0000000000000156 .LASF52
     /tmp/ccxXhH7Y.s:3056   .debug_str:000000000000013b .LASF53
     /tmp/ccxXhH7Y.s:3062   .debug_str:0000000000000188 .LASF54
     /tmp/ccxXhH7Y.s:3152   .debug_str:0000000000000542 .LASF55
     /tmp/ccxXhH7Y.s:3230   .debug_str:0000000000000932 .LASF100
     /tmp/ccxXhH7Y.s:3028   .debug_str:0000000000000000 .LASF102
     /tmp/ccxXhH7Y.s:3114   .debug_str:00000000000003d7 .LASF56
     /tmp/ccxXhH7Y.s:3274   .debug_str:0000000000000bdf .LASF57
     /tmp/ccxXhH7Y.s:3076   .debug_str:0000000000000246 .LASF58
     /tmp/ccxXhH7Y.s:3156   .debug_str:0000000000000567 .LASF59
     /tmp/ccxXhH7Y.s:3202   .debug_str:0000000000000798 .LASF60
     /tmp/ccxXhH7Y.s:3244   .debug_str:0000000000000a6f .LASF61
     /tmp/ccxXhH7Y.s:3218   .debug_str:00000000000008be .LASF62
     /tmp/ccxXhH7Y.s:3186   .debug_str:00000000000006a9 .LASF63
     /tmp/ccxXhH7Y.s:3224   .debug_str:00000000000008f5 .LASF64
     /tmp/ccxXhH7Y.s:3054   .debug_str:000000000000010d .LASF65
     /tmp/ccxXhH7Y.s:3168   .debug_str:00000000000005f6 .LASF66
     /tmp/ccxXhH7Y.s:3276   .debug_str:0000000000000c0c .LASF67
     /tmp/ccxXhH7Y.s:3220   .debug_str:00000000000008d1 .LASF68
     /tmp/ccxXhH7Y.s:3030   .debug_str:000000000000001b .LASF69
     /tmp/ccxXhH7Y.s:3236   .debug_str:000000000000095d .LASF70
     /tmp/ccxXhH7Y.s:3090   .debug_str:000000000000029d .LASF71
     /tmp/ccxXhH7Y.s:3132   .debug_str:00000000000004a0 .LASF72
     /tmp/ccxXhH7Y.s:3110   .debug_str:0000000000000392 .LASF73
     /tmp/ccxXhH7Y.s:3174   .debug_str:0000000000000625 .LASF74
     /tmp/ccxXhH7Y.s:3210   .debug_str:0000000000000842 .LASF75
     /tmp/ccxXhH7Y.s:3240   .debug_str:0000000000000995 .LASF76
     /tmp/ccxXhH7Y.s:3180   .debug_str:000000000000065e .LASF77
     /tmp/ccxXhH7Y.s:3166   .debug_str:00000000000005e4 .LASF78
     /tmp/ccxXhH7Y.s:3126   .debug_str:000000000000047d .LASF79
     /tmp/ccxXhH7Y.s:3256   .debug_str:0000000000000b13 .LASF80
     /tmp/ccxXhH7Y.s:3154   .debug_str:000000000000055c .LASF81
     /tmp/ccxXhH7Y.s:3284   .debug_str:0000000000000c60 .LASF82
     /tmp/ccxXhH7Y.s:3184   .debug_str:0000000000000698 .LASF83
     /tmp/ccxXhH7Y.s:3094   .debug_str:00000000000002ec .LASF84
     /tmp/ccxXhH7Y.s:3140   .debug_str:00000000000004e4 .LASF85
     /tmp/ccxXhH7Y.s:3088   .debug_str:0000000000000294 .LASF86
     /tmp/ccxXhH7Y.s:3044   .debug_str:00000000000000b8 .LASF87
     /tmp/ccxXhH7Y.s:3124   .debug_str:000000000000046a .LASF88
     /tmp/ccxXhH7Y.s:3108   .debug_str:0000000000000360 .LASF89
     /tmp/ccxXhH7Y.s:3172   .debug_str:0000000000000616 .LASF90
     /tmp/ccxXhH7Y.s:3238   .debug_str:0000000000000968 .LASF91
     /tmp/ccxXhH7Y.s:3254   .debug_str:0000000000000b06 .LASF92
     /tmp/ccxXhH7Y.s:3162   .debug_str:00000000000005ae .LASF93
     /tmp/ccxXhH7Y.s:3144   .debug_str:0000000000000506 .LASF94
     /tmp/ccxXhH7Y.s:3250   .debug_str:0000000000000ad1 .LASF95
     /tmp/ccxXhH7Y.s:3146   .debug_str:0000000000000514 .LASF96
     /tmp/ccxXhH7Y.s:3122   .debug_str:0000000000000440 .LASF97
     /tmp/ccxXhH7Y.s:3148   .debug_str:0000000000000522 .LASF98
     /tmp/ccxXhH7Y.s:3092   .debug_str:00000000000002c2 .LASF99
     /tmp/ccxXhH7Y.s:3164   .debug_str:00000000000005d7 .LASF101
     /tmp/ccxXhH7Y.s:3188   .debug_str:00000000000006d5 .LASF103
     /tmp/ccxXhH7Y.s:3200   .debug_str:000000000000077e .LASF104
     /tmp/ccxXhH7Y.s:3206   .debug_str:00000000000007e9 .LASF105
GAS LISTING /tmp/ccxXhH7Y.s 			page 22


     /tmp/ccxXhH7Y.s:3066   .debug_str:000000000000019a .LASF106
     /tmp/ccxXhH7Y.s:3272   .debug_str:0000000000000ba8 .LASF107
     /tmp/ccxXhH7Y.s:3040   .debug_str:0000000000000085 .LASF108
     /tmp/ccxXhH7Y.s:3102   .debug_str:0000000000000314 .LASF109
     /tmp/ccxXhH7Y.s:3064   .debug_str:0000000000000195 .LASF110
     /tmp/ccxXhH7Y.s:546    .text:0000000000000350 .LFE21
     /tmp/ccxXhH7Y.s:3096   .debug_str:00000000000002f1 .LASF111
     /tmp/ccxXhH7Y.s:2869   .debug_loc:0000000000000000 .LLST2
     /tmp/ccxXhH7Y.s:3086   .debug_str:000000000000028d .LASF112
     /tmp/ccxXhH7Y.s:157    .text:0000000000000034 .LBB34
     /tmp/ccxXhH7Y.s:178    .text:0000000000000058 .LBE34
     /tmp/ccxXhH7Y.s:2876   .debug_loc:0000000000000023 .LLST3
     /tmp/ccxXhH7Y.s:359    .text:00000000000001b4 .LBB45
     /tmp/ccxXhH7Y.s:434    .text:0000000000000258 .LBE45
     /tmp/ccxXhH7Y.s:2887   .debug_loc:0000000000000059 .LLST9
     /tmp/ccxXhH7Y.s:371    .text:00000000000001cc .LBB46
     /tmp/ccxXhH7Y.s:375    .text:00000000000001cc .LBE46
     /tmp/ccxXhH7Y.s:391    .text:00000000000001f8 .LBB48
     /tmp/ccxXhH7Y.s:395    .text:00000000000001f8 .LBE48
     /tmp/ccxXhH7Y.s:369    .text:00000000000001cc .LVL42
     /tmp/ccxXhH7Y.s:379    .text:00000000000001d8 .LVL43
     /tmp/ccxXhH7Y.s:384    .text:00000000000001e8 .LVL44
     /tmp/ccxXhH7Y.s:389    .text:00000000000001f8 .LVL45
     /tmp/ccxXhH7Y.s:399    .text:0000000000000204 .LVL46
     /tmp/ccxXhH7Y.s:404    .text:0000000000000214 .LVL47
     /tmp/ccxXhH7Y.s:417    .text:000000000000022c .LVL49
     /tmp/ccxXhH7Y.s:470    .text:00000000000002bc .LBB50
     /tmp/ccxXhH7Y.s:493    .text:00000000000002ec .LBE50
     /tmp/ccxXhH7Y.s:2894   .debug_loc:000000000000007c .LLST10
     /tmp/ccxXhH7Y.s:486    .text:00000000000002e4 .LVL58
     /tmp/ccxXhH7Y.s:187    .text:000000000000006c .LBB35
     /tmp/ccxXhH7Y.s:200    .text:0000000000000084 .LBE35
     /tmp/ccxXhH7Y.s:2905   .debug_loc:00000000000000b2 .LLST4
     /tmp/ccxXhH7Y.s:192    .text:0000000000000074 .LVL21
     /tmp/ccxXhH7Y.s:195    .text:0000000000000080 .LVL22
     /tmp/ccxXhH7Y.s:201    .text:0000000000000084 .LBB37
     /tmp/ccxXhH7Y.s:317    .text:000000000000015c .LBE37
     /tmp/ccxXhH7Y.s:2914   .debug_loc:00000000000000d7 .LLST5
     /tmp/ccxXhH7Y.s:2927   .debug_loc:000000000000010f .LLST6
     /tmp/ccxXhH7Y.s:2940   .debug_loc:0000000000000147 .LLST7
     /tmp/ccxXhH7Y.s:287    .text:0000000000000138 .LBB40
     /tmp/ccxXhH7Y.s:314    .text:000000000000015c .LBE40
     /tmp/ccxXhH7Y.s:2951   .debug_loc:000000000000017d .LLST8
     /tmp/ccxXhH7Y.s:216    .text:00000000000000a8 .LVL24
     /tmp/ccxXhH7Y.s:219    .text:00000000000000b4 .LVL25
     /tmp/ccxXhH7Y.s:225    .text:00000000000000c0 .LVL26
     /tmp/ccxXhH7Y.s:228    .text:00000000000000cc .LVL27
     /tmp/ccxXhH7Y.s:252    .text:00000000000000f8 .LVL28
     /tmp/ccxXhH7Y.s:268    .text:000000000000011c .LVL29
     /tmp/ccxXhH7Y.s:325    .text:000000000000016c .LBB41
     /tmp/ccxXhH7Y.s:329    .text:000000000000016c .LBE41
     /tmp/ccxXhH7Y.s:345    .text:0000000000000198 .LBB43
     /tmp/ccxXhH7Y.s:349    .text:0000000000000198 .LBE43
     /tmp/ccxXhH7Y.s:151    .text:0000000000000020 .LVL14
     /tmp/ccxXhH7Y.s:155    .text:0000000000000030 .LVL15
     /tmp/ccxXhH7Y.s:182    .text:0000000000000060 .LVL19
     /tmp/ccxXhH7Y.s:185    .text:000000000000006c .LVL20
GAS LISTING /tmp/ccxXhH7Y.s 			page 23


     /tmp/ccxXhH7Y.s:323    .text:000000000000016c .LVL35
     /tmp/ccxXhH7Y.s:333    .text:0000000000000178 .LVL36
     /tmp/ccxXhH7Y.s:338    .text:0000000000000188 .LVL37
     /tmp/ccxXhH7Y.s:343    .text:0000000000000198 .LVL38
     /tmp/ccxXhH7Y.s:353    .text:00000000000001a4 .LVL39
     /tmp/ccxXhH7Y.s:358    .text:00000000000001b4 .LVL40
     /tmp/ccxXhH7Y.s:439    .text:0000000000000268 .LVL50
     /tmp/ccxXhH7Y.s:444    .text:0000000000000274 .LVL51
     /tmp/ccxXhH7Y.s:449    .text:0000000000000284 .LVL52
     /tmp/ccxXhH7Y.s:454    .text:0000000000000290 .LVL53
     /tmp/ccxXhH7Y.s:459    .text:00000000000002a0 .LVL54
     /tmp/ccxXhH7Y.s:464    .text:00000000000002ac .LVL55
     /tmp/ccxXhH7Y.s:469    .text:00000000000002bc .LVL56
     /tmp/ccxXhH7Y.s:500    .text:00000000000002fc .LVL61
     /tmp/ccxXhH7Y.s:506    .text:000000000000030c .LVL62
     /tmp/ccxXhH7Y.s:512    .text:0000000000000318 .LVL63
     /tmp/ccxXhH7Y.s:539    .text:0000000000000344 .LVL67
     /tmp/ccxXhH7Y.s:543    .text:0000000000000350 .LVL68
     /tmp/ccxXhH7Y.s:3080   .debug_str:000000000000026c .LASF113
     /tmp/ccxXhH7Y.s:11     .text._ZN16KObjectAllocatordlEPv:0000000000000000 .LFB10
     /tmp/ccxXhH7Y.s:97     .text._ZN16KObjectAllocatordlEPv:00000000000000a4 .LFE10
     /tmp/ccxXhH7Y.s:2973   .debug_loc:00000000000001dc .LLST0
     /tmp/ccxXhH7Y.s:31     .text._ZN16KObjectAllocatordlEPv:000000000000001c .LBB15
     /tmp/ccxXhH7Y.s:59     .text._ZN16KObjectAllocatordlEPv:0000000000000050 .LBE15
     /tmp/ccxXhH7Y.s:2991   .debug_loc:0000000000000228 .LLST1
     /tmp/ccxXhH7Y.s:44     .text._ZN16KObjectAllocatordlEPv:0000000000000030 .LVL3
     /tmp/ccxXhH7Y.s:53     .text._ZN16KObjectAllocatordlEPv:0000000000000048 .LVL4
     /tmp/ccxXhH7Y.s:63     .text._ZN16KObjectAllocatordlEPv:0000000000000058 .LVL6
     /tmp/ccxXhH7Y.s:66     .text._ZN16KObjectAllocatordlEPv:0000000000000064 .LVL7
     /tmp/ccxXhH7Y.s:70     .text._ZN16KObjectAllocatordlEPv:000000000000006c .LVL8
     /tmp/ccxXhH7Y.s:73     .text._ZN16KObjectAllocatordlEPv:0000000000000078 .LVL9
     /tmp/ccxXhH7Y.s:77     .text._ZN16KObjectAllocatordlEPv:0000000000000080 .LVL10
     /tmp/ccxXhH7Y.s:80     .text._ZN16KObjectAllocatordlEPv:000000000000008c .LVL11
     /tmp/ccxXhH7Y.s:3234   .debug_str:0000000000000958 .LASF114
     /tmp/ccxXhH7Y.s:3032   .debug_str:0000000000000046 .LASF115
     /tmp/ccxXhH7Y.s:3216   .debug_str:00000000000008a3 .LASF126
     /tmp/ccxXhH7Y.s:3278   .debug_str:0000000000000c3c .LASF116
     /tmp/ccxXhH7Y.s:3038   .debug_str:0000000000000079 .LASF118
     /tmp/ccxXhH7Y.s:3150   .debug_str:0000000000000530 .LASF117
     /tmp/ccxXhH7Y.s:3100   .debug_str:0000000000000307 .LASF119
     /tmp/ccxXhH7Y.s:3112   .debug_str:00000000000003c8 .LASF127
     /tmp/ccxXhH7Y.s:3078   .debug_str:0000000000000254 .LASF128
     /tmp/ccxXhH7Y.s:313    .text:000000000000015c .LVL34
     /tmp/ccxXhH7Y.s:525    .text:0000000000000328 .LVL64
     /tmp/ccxXhH7Y.s:161    .text:0000000000000038 .LVL16
     /tmp/ccxXhH7Y.s:174    .text:0000000000000054 .LVL17
     /tmp/ccxXhH7Y.s:176    .text:0000000000000058 .LVL18
     /tmp/ccxXhH7Y.s:363    .text:00000000000001bc .LVL41
     /tmp/ccxXhH7Y.s:473    .text:00000000000002c0 .LVL57
     /tmp/ccxXhH7Y.s:489    .text:00000000000002e8 .LVL59
     /tmp/ccxXhH7Y.s:491    .text:00000000000002ec .LVL60
     /tmp/ccxXhH7Y.s:528    .text:000000000000032c .LVL65
     /tmp/ccxXhH7Y.s:198    .text:0000000000000084 .LVL23
     /tmp/ccxXhH7Y.s:532    .text:0000000000000334 .LVL66
     /tmp/ccxXhH7Y.s:286    .text:0000000000000138 .LVL30
     /tmp/ccxXhH7Y.s:290    .text:000000000000013c .LVL31
     /tmp/ccxXhH7Y.s:302    .text:000000000000014c .LVL32
GAS LISTING /tmp/ccxXhH7Y.s 			page 24


     /tmp/ccxXhH7Y.s:309    .text:0000000000000158 .LVL33
     /tmp/ccxXhH7Y.s:15     .text._ZN16KObjectAllocatordlEPv:0000000000000000 .LVL0
     /tmp/ccxXhH7Y.s:34     .text._ZN16KObjectAllocatordlEPv:0000000000000020 .LVL2
     /tmp/ccxXhH7Y.s:92     .text._ZN16KObjectAllocatordlEPv:000000000000009c .LVL13
     /tmp/ccxXhH7Y.s:30     .text._ZN16KObjectAllocatordlEPv:000000000000001c .LVL1
     /tmp/ccxXhH7Y.s:89     .text._ZN16KObjectAllocatordlEPv:0000000000000098 .LVL12
     /tmp/ccxXhH7Y.s:578    .debug_info:0000000000000000 .Ldebug_info0
     /tmp/ccxXhH7Y.s:5      .text:0000000000000000 .Ltext0
     /tmp/ccxXhH7Y.s:572    .text:0000000000000350 .Letext0
     /tmp/ccxXhH7Y.s:549    .gcc_except_table:0000000000000000 .LLSDA21

UNDEFINED SYMBOLS
_ZN15MemoryAllocator8instanceEv
_ZN15MemoryAllocator9kmem_freeEPv
_ZN15MemoryAllocator10kmem_allocEm
_Z11printStringPKc
_Z12printIntegerm
_ZN16KObjectAllocator17allocateNewObjectEv
_ZN16KObjectAllocator10freeObjectEPv
_ZN19MemoryAllocatorTest8runTestsEv
_Unwind_Resume
__gxx_personality_v0
