GAS LISTING /tmp/ccT966oq.s 			page 1


   1              		.file	"main.cpp"
   2              		.option pic
   3              		.option norelax
   4              		.text
   5              	.Ltext0:
   6              		.section	.rodata.str1.8,"aMS",@progbits,1
   7              		.align	3
   8              	.LC0:
   9 0000 414C4F43 		.string	"ALOCATED:::::::::::::::::::::::::::::::::::"
   9      41544544 
   9      3A3A3A3A 
   9      3A3A3A3A 
   9      3A3A3A3A 
  10 002c 00000000 		.align	3
  11              	.LC1:
  12 0030 46524545 		.string	"FREE:::::::::::::::::::::::::::::::::::::::"
  12      3A3A3A3A 
  12      3A3A3A3A 
  12      3A3A3A3A 
  12      3A3A3A3A 
  13              		.text
  14              		.align	2
  15              		.globl	main
  17              	main:
  18              	.LFB3:
  19              		.file 1 "src/main.cpp"
   1:src/main.cpp  **** #include "../h/print.hpp"
   2:src/main.cpp  **** #include "../h/memoryAllocator.hpp"
   3:src/main.cpp  **** 
   4:src/main.cpp  **** int main() {
  20              		.loc 1 4 12
  21              		.cfi_startproc
  22 0000 130101FE 		addi	sp,sp,-32
  23              		.cfi_def_cfa_offset 32
  24 0004 233C1100 		sd	ra,24(sp)
  25 0008 23388100 		sd	s0,16(sp)
  26 000c 23349100 		sd	s1,8(sp)
  27              		.cfi_offset 1, -8
  28              		.cfi_offset 8, -16
  29              		.cfi_offset 9, -24
  30 0010 13040102 		addi	s0,sp,32
  31              		.cfi_def_cfa 8, 0
   5:src/main.cpp  **** 
   6:src/main.cpp  ****     //MemoryAllocator::instance()->printFreeMemoryHeadData();
   7:src/main.cpp  ****     MemoryAllocator::instance()->printInstanceMemorySpaceParams();
  32              		.loc 1 7 5
  33              		.loc 1 7 64 is_stmt 0
  34 0014 97000000 		call	_ZN15MemoryAllocator8instanceEv@plt
  34      E7800000 
  35              	.LVL0:
  36 001c 97000000 		call	_ZN15MemoryAllocator30printInstanceMemorySpaceParamsEv@plt
  36      E7800000 
  37              	.LVL1:
   8:src/main.cpp  **** 
   9:src/main.cpp  ****     printString("ALOCATED:::::::::::::::::::::::::::::::::::");
  38              		.loc 1 9 5 is_stmt 1
  39              		.loc 1 9 16 is_stmt 0
GAS LISTING /tmp/ccT966oq.s 			page 2


  40 0024 17050000 		lla	a0,.LC0
  40      13050500 
  41 002c 97000000 		call	_Z11printStringPKc@plt
  41      E7800000 
  42              	.LVL2:
  10:src/main.cpp  ****     void* p = MemoryAllocator::instance()->kmem_alloc(120);
  43              		.loc 1 10 5 is_stmt 1
  44              		.loc 1 10 54 is_stmt 0
  45 0034 97000000 		call	_ZN15MemoryAllocator8instanceEv@plt
  45      E7800000 
  46              	.LVL3:
  47 003c 93058007 		li	a1,120
  48 0040 97000000 		call	_ZN15MemoryAllocator10kmem_allocEm@plt
  48      E7800000 
  49              	.LVL4:
  50 0048 93040500 		mv	s1,a0
  51              	.LVL5:
  11:src/main.cpp  ****     //MemoryAllocator::instance()->printFreeMemoryHeadData();
  12:src/main.cpp  ****     MemoryAllocator::instance()->printInstanceMemorySpaceParams();
  52              		.loc 1 12 5 is_stmt 1
  53              		.loc 1 12 64 is_stmt 0
  54 004c 97000000 		call	_ZN15MemoryAllocator8instanceEv@plt
  54      E7800000 
  55              	.LVL6:
  56 0054 97000000 		call	_ZN15MemoryAllocator30printInstanceMemorySpaceParamsEv@plt
  56      E7800000 
  57              	.LVL7:
  13:src/main.cpp  **** 
  14:src/main.cpp  ****     printString("FREE:::::::::::::::::::::::::::::::::::::::");
  58              		.loc 1 14 5 is_stmt 1
  59              		.loc 1 14 16 is_stmt 0
  60 005c 17050000 		lla	a0,.LC1
  60      13050500 
  61 0064 97000000 		call	_Z11printStringPKc@plt
  61      E7800000 
  62              	.LVL8:
  15:src/main.cpp  ****     MemoryAllocator::instance()->kmem_free(p);
  63              		.loc 1 15 5 is_stmt 1
  64              		.loc 1 15 43 is_stmt 0
  65 006c 97000000 		call	_ZN15MemoryAllocator8instanceEv@plt
  65      E7800000 
  66              	.LVL9:
  67 0074 93850400 		mv	a1,s1
  68 0078 97000000 		call	_ZN15MemoryAllocator9kmem_freeEPv@plt
  68      E7800000 
  69              	.LVL10:
  16:src/main.cpp  ****     //MemoryAllocator::instance()->printFreeMemoryHeadData();
  17:src/main.cpp  ****     MemoryAllocator::instance()->printInstanceMemorySpaceParams();
  70              		.loc 1 17 5 is_stmt 1
  71              		.loc 1 17 64 is_stmt 0
  72 0080 97000000 		call	_ZN15MemoryAllocator8instanceEv@plt
  72      E7800000 
  73              	.LVL11:
  74 0088 97000000 		call	_ZN15MemoryAllocator30printInstanceMemorySpaceParamsEv@plt
  74      E7800000 
  75              	.LVL12:
  18:src/main.cpp  **** 
GAS LISTING /tmp/ccT966oq.s 			page 3


  19:src/main.cpp  **** 
  20:src/main.cpp  **** 
  21:src/main.cpp  ****     return 0;
  76              		.loc 1 21 5 is_stmt 1
  22:src/main.cpp  **** }...
  77              		.loc 1 22 1 is_stmt 0
  78 0090 13050000 		li	a0,0
  79 0094 83308101 		ld	ra,24(sp)
  80              		.cfi_restore 1
  81 0098 03340101 		ld	s0,16(sp)
  82              		.cfi_restore 8
  83              		.cfi_def_cfa 2, 32
  84 009c 83348100 		ld	s1,8(sp)
  85              		.cfi_restore 9
  86              	.LVL13:
  87 00a0 13010102 		addi	sp,sp,32
  88              		.cfi_def_cfa_offset 0
  89 00a4 67800000 		jr	ra
  90              		.cfi_endproc
  91              	.LFE3:
  93              	.Letext0:
  94              		.file 2 "src/../h/../lib/hw.h"
  95              		.file 3 "src/../h/memoryAllocator.hpp"
  96              		.file 4 "src/../h/print.hpp"
GAS LISTING /tmp/ccT966oq.s 			page 4


DEFINED SYMBOLS
                            *ABS*:0000000000000000 main.cpp
     /tmp/ccT966oq.s:17     .text:0000000000000000 main
     /tmp/ccT966oq.s:21     .text:0000000000000000 .L0 
     /tmp/ccT966oq.s:22     .text:0000000000000000 .L0 
     /tmp/ccT966oq.s:23     .text:0000000000000004 .L0 
     /tmp/ccT966oq.s:27     .text:0000000000000010 .L0 
     /tmp/ccT966oq.s:28     .text:0000000000000010 .L0 
     /tmp/ccT966oq.s:29     .text:0000000000000010 .L0 
     /tmp/ccT966oq.s:31     .text:0000000000000014 .L0 
     /tmp/ccT966oq.s:33     .text:0000000000000014 .L0 
     /tmp/ccT966oq.s:34     .text:0000000000000014 .L0 
     /tmp/ccT966oq.s:39     .text:0000000000000024 .L0 
     /tmp/ccT966oq.s:40     .text:0000000000000024 .L0 
     /tmp/ccT966oq.s:44     .text:0000000000000034 .L0 
     /tmp/ccT966oq.s:45     .text:0000000000000034 .L0 
     /tmp/ccT966oq.s:53     .text:000000000000004c .L0 
     /tmp/ccT966oq.s:54     .text:000000000000004c .L0 
     /tmp/ccT966oq.s:59     .text:000000000000005c .L0 
     /tmp/ccT966oq.s:60     .text:000000000000005c .L0 
     /tmp/ccT966oq.s:64     .text:000000000000006c .L0 
     /tmp/ccT966oq.s:65     .text:000000000000006c .L0 
     /tmp/ccT966oq.s:71     .text:0000000000000080 .L0 
     /tmp/ccT966oq.s:72     .text:0000000000000080 .L0 
     /tmp/ccT966oq.s:77     .text:0000000000000090 .L0 
     /tmp/ccT966oq.s:78     .text:0000000000000090 .L0 
     /tmp/ccT966oq.s:80     .text:0000000000000098 .L0 
     /tmp/ccT966oq.s:82     .text:000000000000009c .L0 
     /tmp/ccT966oq.s:83     .text:000000000000009c .L0 
     /tmp/ccT966oq.s:85     .text:00000000000000a0 .L0 
     /tmp/ccT966oq.s:88     .text:00000000000000a4 .L0 
     /tmp/ccT966oq.s:90     .text:00000000000000a8 .L0 
     /tmp/ccT966oq.s:97     .text:00000000000000a8 .L0 
     /tmp/ccT966oq.s:8      .rodata.str1.8:0000000000000000 .LC0
     /tmp/ccT966oq.s:40     .text:0000000000000024 .L0 
     /tmp/ccT966oq.s:11     .rodata.str1.8:0000000000000030 .LC1
     /tmp/ccT966oq.s:60     .text:000000000000005c .L0 
     /tmp/ccT966oq.s:558    .debug_abbrev:0000000000000000 .Ldebug_abbrev0
     /tmp/ccT966oq.s:1124   .debug_str:000000000000026c .LASF51
     /tmp/ccT966oq.s:1134   .debug_str:000000000000039c .LASF52
     /tmp/ccT966oq.s:1116   .debug_str:0000000000000202 .LASF53
     /tmp/ccT966oq.s:5      .text:0000000000000000 .Ltext0
     /tmp/ccT966oq.s:93     .text:00000000000000a8 .Letext0
     /tmp/ccT966oq.s:1064   .debug_line:0000000000000000 .Ldebug_line0
     /tmp/ccT966oq.s:1136   .debug_str:00000000000003a9 .LASF0
     /tmp/ccT966oq.s:1110   .debug_str:00000000000001d7 .LASF1
     /tmp/ccT966oq.s:1104   .debug_str:0000000000000187 .LASF2
     /tmp/ccT966oq.s:1162   .debug_str:0000000000000486 .LASF3
     /tmp/ccT966oq.s:1082   .debug_str:00000000000000ab .LASF4
     /tmp/ccT966oq.s:1106   .debug_str:0000000000000195 .LASF5
     /tmp/ccT966oq.s:1072   .debug_str:0000000000000043 .LASF6
     /tmp/ccT966oq.s:1068   .debug_str:0000000000000020 .LASF7
     /tmp/ccT966oq.s:1094   .debug_str:0000000000000122 .LASF8
     /tmp/ccT966oq.s:1142   .debug_str:00000000000003d5 .LASF9
     /tmp/ccT966oq.s:1080   .debug_str:000000000000009d .LASF10
     /tmp/ccT966oq.s:1184   .debug_str:0000000000000576 .LASF11
     /tmp/ccT966oq.s:1098   .debug_str:0000000000000141 .LASF12
GAS LISTING /tmp/ccT966oq.s 			page 5


     /tmp/ccT966oq.s:1170   .debug_str:00000000000004f4 .LASF13
     /tmp/ccT966oq.s:1150   .debug_str:0000000000000410 .LASF14
     /tmp/ccT966oq.s:1112   .debug_str:00000000000001ea .LASF15
     /tmp/ccT966oq.s:1088   .debug_str:00000000000000f0 .LASF16
     /tmp/ccT966oq.s:1146   .debug_str:00000000000003ef .LASF17
     /tmp/ccT966oq.s:1070   .debug_str:0000000000000033 .LASF54
     /tmp/ccT966oq.s:1180   .debug_str:000000000000053e .LASF55
     /tmp/ccT966oq.s:1074   .debug_str:000000000000004a .LASF18
     /tmp/ccT966oq.s:1176   .debug_str:0000000000000521 .LASF19
     /tmp/ccT966oq.s:1154   .debug_str:0000000000000447 .LASF56
     /tmp/ccT966oq.s:1166   .debug_str:00000000000004b1 .LASF57
     /tmp/ccT966oq.s:1158   .debug_str:0000000000000459 .LASF36
     /tmp/ccT966oq.s:1086   .debug_str:00000000000000c1 .LASF38
     /tmp/ccT966oq.s:1138   .debug_str:00000000000003b6 .LASF24
     /tmp/ccT966oq.s:1126   .debug_str:0000000000000330 .LASF26
     /tmp/ccT966oq.s:1148   .debug_str:0000000000000405 .LASF20
     /tmp/ccT966oq.s:1168   .debug_str:00000000000004d1 .LASF22
     /tmp/ccT966oq.s:1144   .debug_str:00000000000003e5 .LASF21
     /tmp/ccT966oq.s:1122   .debug_str:000000000000024a .LASF23
     /tmp/ccT966oq.s:1102   .debug_str:0000000000000168 .LASF25
     /tmp/ccT966oq.s:1076   .debug_str:0000000000000053 .LASF27
     /tmp/ccT966oq.s:1100   .debug_str:0000000000000150 .LASF28
     /tmp/ccT966oq.s:1108   .debug_str:00000000000001a7 .LASF29
     /tmp/ccT966oq.s:1092   .debug_str:0000000000000115 .LASF30
     /tmp/ccT966oq.s:1164   .debug_str:000000000000048c .LASF31
     /tmp/ccT966oq.s:1174   .debug_str:0000000000000513 .LASF32
     /tmp/ccT966oq.s:1182   .debug_str:0000000000000550 .LASF33
     /tmp/ccT966oq.s:1172   .debug_str:0000000000000504 .LASF34
     /tmp/ccT966oq.s:1152   .debug_str:0000000000000420 .LASF35
     /tmp/ccT966oq.s:1084   .debug_str:00000000000000b2 .LASF37
     /tmp/ccT966oq.s:1130   .debug_str:0000000000000370 .LASF39
     /tmp/ccT966oq.s:1140   .debug_str:00000000000003c8 .LASF40
     /tmp/ccT966oq.s:1178   .debug_str:0000000000000526 .LASF41
     /tmp/ccT966oq.s:1160   .debug_str:0000000000000470 .LASF42
     /tmp/ccT966oq.s:1128   .debug_str:000000000000035a .LASF43
     /tmp/ccT966oq.s:1156   .debug_str:0000000000000450 .LASF44
     /tmp/ccT966oq.s:1066   .debug_str:0000000000000000 .LASF45
     /tmp/ccT966oq.s:1118   .debug_str:0000000000000235 .LASF46
     /tmp/ccT966oq.s:1120   .debug_str:000000000000023f .LASF47
     /tmp/ccT966oq.s:1096   .debug_str:0000000000000135 .LASF48
     /tmp/ccT966oq.s:1090   .debug_str:0000000000000106 .LASF49
     /tmp/ccT966oq.s:1132   .debug_str:0000000000000397 .LASF50
     /tmp/ccT966oq.s:18     .text:0000000000000000 .LFB3
     /tmp/ccT966oq.s:91     .text:00000000000000a8 .LFE3
     /tmp/ccT966oq.s:1044   .debug_loc:0000000000000000 .LLST0
     /tmp/ccT966oq.s:35     .text:000000000000001c .LVL0
     /tmp/ccT966oq.s:37     .text:0000000000000024 .LVL1
     /tmp/ccT966oq.s:42     .text:0000000000000034 .LVL2
     /tmp/ccT966oq.s:46     .text:000000000000003c .LVL3
     /tmp/ccT966oq.s:49     .text:0000000000000048 .LVL4
     /tmp/ccT966oq.s:55     .text:0000000000000054 .LVL6
     /tmp/ccT966oq.s:57     .text:000000000000005c .LVL7
     /tmp/ccT966oq.s:62     .text:000000000000006c .LVL8
     /tmp/ccT966oq.s:66     .text:0000000000000074 .LVL9
     /tmp/ccT966oq.s:69     .text:0000000000000080 .LVL10
     /tmp/ccT966oq.s:73     .text:0000000000000088 .LVL11
     /tmp/ccT966oq.s:75     .text:0000000000000090 .LVL12
GAS LISTING /tmp/ccT966oq.s 			page 6


     /tmp/ccT966oq.s:1078   .debug_str:000000000000008a .LASF58
     /tmp/ccT966oq.s:1114   .debug_str:00000000000001f6 .LASF59
     /tmp/ccT966oq.s:51     .text:000000000000004c .LVL5
     /tmp/ccT966oq.s:86     .text:00000000000000a0 .LVL13
     /tmp/ccT966oq.s:98     .debug_info:0000000000000000 .Ldebug_info0

UNDEFINED SYMBOLS
_ZN15MemoryAllocator8instanceEv
_ZN15MemoryAllocator30printInstanceMemorySpaceParamsEv
_Z11printStringPKc
_ZN15MemoryAllocator10kmem_allocEm
_ZN15MemoryAllocator9kmem_freeEPv
