GAS LISTING /tmp/cc1n5tIB.s 			page 1


   1              		.file	"main.cpp"
   2              		.option pic
   3              		.option norelax
   4              		.text
   5              	.Ltext0:
   6              		.section	.rodata.str1.8,"aMS",@progbits,1
   7              		.align	3
   8              	.LC0:
   9 0000 0A00     		.string	"\n"
  10 0002 00000000 		.align	3
  10      0000
  11              	.LC1:
  12 0008 0A4D656D 		.string	"\nMemory tests:\n"
  12      6F727920 
  12      74657374 
  12      733A0A00 
  13              		.text
  14              		.align	2
  15              		.globl	main
  17              	main:
  18              	.LFB8:
  19              		.file 1 "src/main.cpp"
   1:src/main.cpp  **** #include "../h/print.hpp"
   2:src/main.cpp  **** #include "../h/memoryAllocator.hpp"
   3:src/main.cpp  **** #include "../h/memoryAllocatorTest.hpp"
   4:src/main.cpp  **** #include "../h/kObjectAllocator.hpp"
   5:src/main.cpp  **** 
   6:src/main.cpp  **** int main() {
  20              		.loc 1 6 12
  21              		.cfi_startproc
  22              		.cfi_personality 0x9b,DW.ref.__gxx_personality_v0
  23              		.cfi_lsda 0x1b,.LLSDA8
  24 0000 130101FD 		addi	sp,sp,-48
  25              		.cfi_def_cfa_offset 48
  26 0004 23341102 		sd	ra,40(sp)
  27 0008 23308102 		sd	s0,32(sp)
  28 000c 233C9100 		sd	s1,24(sp)
  29 0010 23382101 		sd	s2,16(sp)
  30              		.cfi_offset 1, -8
  31              		.cfi_offset 8, -16
  32              		.cfi_offset 9, -24
  33              		.cfi_offset 18, -32
  34 0014 13040103 		addi	s0,sp,48
  35              		.cfi_def_cfa 8, 0
   7:src/main.cpp  **** 
   8:src/main.cpp  ****     uint64* arr = (uint64*) MemoryAllocator::instance()->kmem_alloc(64 * 100);
  36              		.loc 1 8 5
  37              	.LEHB0:
  38              		.loc 1 8 68 is_stmt 0
  39 0018 97000000 		call	_ZN15MemoryAllocator8instanceEv@plt
  39      E7800000 
  40              	.LVL0:
  41 0020 B7250000 		li	a1,8192
  42 0024 93850590 		addi	a1,a1,-1792
  43 0028 97000000 		call	_ZN15MemoryAllocator10kmem_allocEm@plt
  43      E7800000 
  44              	.LVL1:
GAS LISTING /tmp/cc1n5tIB.s 			page 2


  45 0030 93040500 		mv	s1,a0
  46              	.LBB21:
   9:src/main.cpp  ****     for (int i = 0; i < 100; ++i) arr[i] = (uint64) -1;
  47              		.loc 1 9 14
  48 0034 93070000 		li	a5,0
  49              	.L3:
  50              	.LVL2:
  51              		.loc 1 9 23 is_stmt 1 discriminator 3
  52 0038 13073006 		li	a4,99
  53 003c 634EF700 		bgt	a5,a4,.L2
  54              		.loc 1 9 35 discriminator 2
  55              		.loc 1 9 40 is_stmt 0 discriminator 2
  56 0040 13973700 		slli	a4,a5,3
  57 0044 3387E400 		add	a4,s1,a4
  58              		.loc 1 9 42 discriminator 2
  59 0048 9306F0FF 		li	a3,-1
  60 004c 2330D700 		sd	a3,0(a4)
  61              		.loc 1 9 5 is_stmt 1 discriminator 2
  62 0050 9B871700 		addiw	a5,a5,1
  63              	.LVL3:
  64 0054 6FF05FFE 		j	.L3
  65              	.LVL4:
  66              	.L2:
  67              	.LBE21:
  10:src/main.cpp  ****     MemoryAllocator::instance()->kmem_free(arr);
  68              		.loc 1 10 5
  69              		.loc 1 10 43 is_stmt 0
  70 0058 97000000 		call	_ZN15MemoryAllocator8instanceEv@plt
  70      E7800000 
  71              	.LVL5:
  72 0060 93850400 		mv	a1,s1
  73 0064 97000000 		call	_ZN15MemoryAllocator9kmem_freeEPv@plt
  73      E7800000 
  74              	.LVL6:
  11:src/main.cpp  **** 
  12:src/main.cpp  ****     KObjectAllocator* newObj = new KObjectAllocator(10);
  75              		.loc 1 12 5 is_stmt 1
  76              	.LBB22:
  77              	.LBB23:
  78              		.file 2 "src/../h/kObjectAllocator.hpp"
   1:src/../h/kObjectAllocator.hpp **** #ifndef KOBJECTALLOCATOR_HPP
   2:src/../h/kObjectAllocator.hpp **** #define KOBJECTALLOCATOR_HPP
   3:src/../h/kObjectAllocator.hpp **** 
   4:src/../h/kObjectAllocator.hpp **** #include "../h/memoryAllocator.hpp"
   5:src/../h/kObjectAllocator.hpp **** 
   6:src/../h/kObjectAllocator.hpp **** class KObjectAllocator {
   7:src/../h/kObjectAllocator.hpp **** public:
   8:src/../h/kObjectAllocator.hpp ****     KObjectAllocator(size_t objectSize) : objectSize(objectSize) {
   9:src/../h/kObjectAllocator.hpp ****         bitVector = (uint8*) MemoryAllocator::instance()->kmem_alloc(
  10:src/../h/kObjectAllocator.hpp ****             memoryForBits + initialObjectNumber * objectSize
  11:src/../h/kObjectAllocator.hpp ****         );
  12:src/../h/kObjectAllocator.hpp ****         objectVector = bitVector + memoryForBits;
  13:src/../h/kObjectAllocator.hpp ****         for (size_t i = 0; i < memoryForBits; bitVector[i++] = 0);
  14:src/../h/kObjectAllocator.hpp ****     }
  15:src/../h/kObjectAllocator.hpp ****     void* operator new(size_t size) {
  16:src/../h/kObjectAllocator.hpp ****         return MemoryAllocator::instance()->kmem_alloc(size);
  79              		.loc 2 16 9
GAS LISTING /tmp/cc1n5tIB.s 			page 3


  80              		.loc 2 16 55 is_stmt 0
  81 006c 97000000 		call	_ZN15MemoryAllocator8instanceEv@plt
  81      E7800000 
  82              	.LVL7:
  83 0074 93058002 		li	a1,40
  84 0078 97000000 		call	_ZN15MemoryAllocator10kmem_allocEm@plt
  84      E7800000 
  85              	.LVL8:
  86              	.LEHE0:
  87 0080 93040500 		mv	s1,a0
  88              	.LVL9:
  89              	.LBE23:
  90              	.LBE22:
  91              	.LBB24:
  92              	.LBB25:
   8:src/../h/kObjectAllocator.hpp ****         bitVector = (uint8*) MemoryAllocator::instance()->kmem_alloc(
  93              		.loc 2 8 64
  94 0084 9307A000 		li	a5,10
  95 0088 2330F500 		sd	a5,0(a0)
  96 008c 93070014 		li	a5,320
  97 0090 2334F500 		sd	a5,8(a0)
  98 0094 93078002 		li	a5,40
  99 0098 2338F500 		sd	a5,16(a0)
 100              	.LBB26:
   9:src/../h/kObjectAllocator.hpp ****             memoryForBits + initialObjectNumber * objectSize
 101              		.loc 2 9 9 is_stmt 1
 102              	.LEHB1:
   9:src/../h/kObjectAllocator.hpp ****             memoryForBits + initialObjectNumber * objectSize
 103              		.loc 2 9 69 is_stmt 0
 104 009c 97000000 		call	_ZN15MemoryAllocator8instanceEv@plt
 104      E7800000 
 105              	.LVL10:
  10:src/../h/kObjectAllocator.hpp ****         );
 106              		.loc 2 10 13
 107 00a4 83B50401 		ld	a1,16(s1)
  10:src/../h/kObjectAllocator.hpp ****         );
 108              		.loc 2 10 29
 109 00a8 03B78400 		ld	a4,8(s1)
  10:src/../h/kObjectAllocator.hpp ****         );
 110              		.loc 2 10 49
 111 00ac 93172700 		slli	a5,a4,2
 112 00b0 B387E700 		add	a5,a5,a4
 113 00b4 93971700 		slli	a5,a5,1
   9:src/../h/kObjectAllocator.hpp ****             memoryForBits + initialObjectNumber * objectSize
 114              		.loc 2 9 69
 115 00b8 B385F500 		add	a1,a1,a5
 116 00bc 97000000 		call	_ZN15MemoryAllocator10kmem_allocEm@plt
 116      E7800000 
 117              	.LVL11:
 118              	.LEHE1:
   9:src/../h/kObjectAllocator.hpp ****             memoryForBits + initialObjectNumber * objectSize
 119              		.loc 2 9 19
 120 00c4 23B0A402 		sd	a0,32(s1)
  12:src/../h/kObjectAllocator.hpp ****         for (size_t i = 0; i < memoryForBits; bitVector[i++] = 0);
 121              		.loc 2 12 9 is_stmt 1
  12:src/../h/kObjectAllocator.hpp ****         for (size_t i = 0; i < memoryForBits; bitVector[i++] = 0);
 122              		.loc 2 12 36 is_stmt 0
GAS LISTING /tmp/cc1n5tIB.s 			page 4


 123 00c8 83B70401 		ld	a5,16(s1)
  12:src/../h/kObjectAllocator.hpp ****         for (size_t i = 0; i < memoryForBits; bitVector[i++] = 0);
 124              		.loc 2 12 34
 125 00cc 3305F500 		add	a0,a0,a5
  12:src/../h/kObjectAllocator.hpp ****         for (size_t i = 0; i < memoryForBits; bitVector[i++] = 0);
 126              		.loc 2 12 22
 127 00d0 23BCA400 		sd	a0,24(s1)
  13:src/../h/kObjectAllocator.hpp ****     }
 128              		.loc 2 13 9 is_stmt 1
 129              	.LVL12:
 130              	.LBB27:
  13:src/../h/kObjectAllocator.hpp ****     }
 131              		.loc 2 13 21 is_stmt 0
 132 00d4 93070000 		li	a5,0
 133              	.LVL13:
 134              	.L5:
  13:src/../h/kObjectAllocator.hpp ****     }
 135              		.loc 2 13 30 is_stmt 1
  13:src/../h/kObjectAllocator.hpp ****     }
 136              		.loc 2 13 32 is_stmt 0
 137 00d8 03B70401 		ld	a4,16(s1)
  13:src/../h/kObjectAllocator.hpp ****     }
 138              		.loc 2 13 30
 139 00dc 63FCE700 		bleu	a4,a5,.L4
  13:src/../h/kObjectAllocator.hpp ****     }
 140              		.loc 2 13 9 is_stmt 1
  13:src/../h/kObjectAllocator.hpp ****     }
 141              		.loc 2 13 47 is_stmt 0
 142 00e0 03B70402 		ld	a4,32(s1)
 143              	.LVL14:
  13:src/../h/kObjectAllocator.hpp ****     }
 144              		.loc 2 13 60
 145 00e4 3307F700 		add	a4,a4,a5
  13:src/../h/kObjectAllocator.hpp ****     }
 146              		.loc 2 13 62
 147 00e8 23000700 		sb	zero,0(a4)
  13:src/../h/kObjectAllocator.hpp ****     }
 148              		.loc 2 13 58
 149 00ec 93871700 		addi	a5,a5,1
 150              	.LVL15:
  13:src/../h/kObjectAllocator.hpp ****     }
 151              		.loc 2 13 9
 152 00f0 6FF09FFE 		j	.L5
 153              	.L4:
 154              	.LVL16:
 155              	.LBE27:
 156              	.LBE26:
 157              	.LBE25:
 158              	.LBE24:
  13:src/main.cpp  ****     newObj->printInternalMemory();
 159              		.loc 1 13 5 is_stmt 1 discriminator 3
 160              		.loc 1 13 32 is_stmt 0 discriminator 3
 161 00f4 13850400 		mv	a0,s1
 162              	.LEHB2:
 163 00f8 97000000 		call	_ZN16KObjectAllocator19printInternalMemoryEv@plt
 163      E7800000 
 164              	.LVL17:
GAS LISTING /tmp/cc1n5tIB.s 			page 5


  14:src/main.cpp  ****     delete newObj;
 165              		.loc 1 14 5 is_stmt 1 discriminator 3
 166              		.loc 1 14 18 is_stmt 0 discriminator 3
 167 0100 638C0400 		beqz	s1,.L6
 168              	.LVL18:
 169              	.LBB28:
 170              	.LBB29:
  17:src/../h/kObjectAllocator.hpp ****     }
  18:src/../h/kObjectAllocator.hpp ****     void operator delete(void* p) {
  19:src/../h/kObjectAllocator.hpp ****         MemoryAllocator::instance()->kmem_free(p);
 171              		.loc 2 19 9 is_stmt 1 discriminator 1
 172              		.loc 2 19 47 is_stmt 0 discriminator 1
 173 0104 97000000 		call	_ZN15MemoryAllocator8instanceEv@plt
 173      E7800000 
 174              	.LVL19:
 175 010c 93850400 		mv	a1,s1
 176 0110 97000000 		call	_ZN15MemoryAllocator9kmem_freeEPv@plt
 176      E7800000 
 177              	.LVL20:
 178              	.L6:
 179              	.LBE29:
 180              	.LBE28:
  15:src/main.cpp  **** 
  16:src/main.cpp  ****     printString("\n");
 181              		.loc 1 16 5 is_stmt 1
 182              		.loc 1 16 16 is_stmt 0
 183 0118 17050000 		lla	a0,.LC0
 183      13050500 
 184 0120 97000000 		call	_Z11printStringPKc@plt
 184      E7800000 
 185              	.LVL21:
  17:src/main.cpp  ****     printInteger((uint8) -1 >> 4 & (uint8) 1);
 186              		.loc 1 17 5 is_stmt 1
 187              		.loc 1 17 17 is_stmt 0
 188 0128 13051000 		li	a0,1
 189 012c 97000000 		call	_Z12printIntegerm@plt
 189      E7800000 
 190              	.LVL22:
  18:src/main.cpp  **** 
  19:src/main.cpp  ****     printString("\nMemory tests:\n");
 191              		.loc 1 19 5 is_stmt 1
 192              		.loc 1 19 16 is_stmt 0
 193 0134 17050000 		lla	a0,.LC1
 193      13050500 
 194 013c 97000000 		call	_Z11printStringPKc@plt
 194      E7800000 
 195              	.LVL23:
  20:src/main.cpp  ****     MemoryAllocatorTest t1;
 196              		.loc 1 20 5 is_stmt 1
  21:src/main.cpp  ****     t1.runTests();
 197              		.loc 1 21 5
 198              		.loc 1 21 16 is_stmt 0
 199 0144 130584FD 		addi	a0,s0,-40
 200 0148 97000000 		call	_ZN19MemoryAllocatorTest8runTestsEv@plt
 200      E7800000 
 201              	.LVL24:
 202              	.LEHE2:
GAS LISTING /tmp/cc1n5tIB.s 			page 6


  22:src/main.cpp  **** 
  23:src/main.cpp  **** 
  24:src/main.cpp  ****     return 0;
 203              		.loc 1 24 5 is_stmt 1
  25:src/main.cpp  **** }...
 204              		.loc 1 25 1 is_stmt 0
 205 0150 13050000 		li	a0,0
 206 0154 83308102 		ld	ra,40(sp)
 207              		.cfi_remember_state
 208              		.cfi_restore 1
 209 0158 03340102 		ld	s0,32(sp)
 210              		.cfi_restore 8
 211              		.cfi_def_cfa 2, 48
 212 015c 83348101 		ld	s1,24(sp)
 213              		.cfi_restore 9
 214              	.LVL25:
 215 0160 03390101 		ld	s2,16(sp)
 216              		.cfi_restore 18
 217 0164 13010103 		addi	sp,sp,48
 218              		.cfi_def_cfa_offset 0
 219 0168 67800000 		jr	ra
 220              	.LVL26:
 221              	.L8:
 222              		.cfi_restore_state
 223 016c 13090500 		mv	s2,a0
 224              	.LVL27:
 225              	.LBB30:
 226              	.LBB31:
 227              		.loc 2 19 9 is_stmt 1
 228              		.loc 2 19 47 is_stmt 0
 229 0170 97000000 		call	_ZN15MemoryAllocator8instanceEv@plt
 229      E7800000 
 230              	.LVL28:
 231 0178 93850400 		mv	a1,s1
 232 017c 97000000 		call	_ZN15MemoryAllocator9kmem_freeEPv@plt
 232      E7800000 
 233              	.LVL29:
 234 0184 13050900 		mv	a0,s2
 235              	.LEHB3:
 236 0188 97000000 		call	_Unwind_Resume@plt
 236      E7800000 
 237              	.LVL30:
 238              	.LEHE3:
 239              	.LBE31:
 240              	.LBE30:
 241              		.cfi_endproc
 242              	.LFE8:
 243              		.globl	__gxx_personality_v0
 244              		.section	.gcc_except_table,"a",@progbits
 245              	.LLSDA8:
 246 0000 FF       		.byte	0xff
 247 0001 FF       		.byte	0xff
 248 0002 03       		.byte	0x3
 249 0003 34       		.byte	0x34
 250 0004 00000000 		.4byte	.LEHB0-.LFB8
 251 0008 00000000 		.4byte	.LEHE0-.LEHB0
 252 000c 00000000 		.4byte	0
GAS LISTING /tmp/cc1n5tIB.s 			page 7


 253 0010 00       		.byte	0
 254 0011 00000000 		.4byte	.LEHB1-.LFB8
 255 0015 00000000 		.4byte	.LEHE1-.LEHB1
 256 0019 00000000 		.4byte	.L8-.LFB8
 257 001d 00       		.byte	0
 258 001e 00000000 		.4byte	.LEHB2-.LFB8
 259 0022 00000000 		.4byte	.LEHE2-.LEHB2
 260 0026 00000000 		.4byte	0
 261 002a 00       		.byte	0
 262 002b 00000000 		.4byte	.LEHB3-.LFB8
 263 002f 00000000 		.4byte	.LEHE3-.LEHB3
 264 0033 00000000 		.4byte	0
 265 0037 00       		.byte	0
 266              		.text
 268              	.Letext0:
 269              		.file 3 "src/../h/../lib/hw.h"
 270              		.file 4 "src/../h/memoryAllocator.hpp"
 271              		.file 5 "src/../h/memoryAllocatorTest.hpp"
 272              		.file 6 "src/../h/print.hpp"
 2357              		.align	3
 2360              	DW.ref.__gxx_personality_v0:
 2361 0000 00000000 		.dword	__gxx_personality_v0
 2361      00000000 
 2362              		.ident	"GCC: (Ubuntu 9.4.0-1ubuntu1~20.04) 9.4.0"
 2363              		.section	.note.GNU-stack,"",@progbits
GAS LISTING /tmp/cc1n5tIB.s 			page 8


DEFINED SYMBOLS
                            *ABS*:0000000000000000 main.cpp
     /tmp/cc1n5tIB.s:17     .text:0000000000000000 main
     /tmp/cc1n5tIB.s:21     .text:0000000000000000 .L0 
     /tmp/cc1n5tIB.s:2360   .data.rel.local.DW.ref.__gxx_personality_v0:0000000000000000 DW.ref.__gxx_personality_v0
     /tmp/cc1n5tIB.s:24     .text:0000000000000000 .L0 
     /tmp/cc1n5tIB.s:25     .text:0000000000000004 .L0 
     /tmp/cc1n5tIB.s:30     .text:0000000000000014 .L0 
     /tmp/cc1n5tIB.s:31     .text:0000000000000014 .L0 
     /tmp/cc1n5tIB.s:32     .text:0000000000000014 .L0 
     /tmp/cc1n5tIB.s:33     .text:0000000000000014 .L0 
     /tmp/cc1n5tIB.s:35     .text:0000000000000018 .L0 
     /tmp/cc1n5tIB.s:38     .text:0000000000000018 .L0 
     /tmp/cc1n5tIB.s:39     .text:0000000000000018 .L0 
     /tmp/cc1n5tIB.s:48     .text:0000000000000034 .L0 
     /tmp/cc1n5tIB.s:52     .text:0000000000000038 .L0 
     /tmp/cc1n5tIB.s:55     .text:0000000000000040 .L0 
     /tmp/cc1n5tIB.s:56     .text:0000000000000040 .L0 
     /tmp/cc1n5tIB.s:59     .text:0000000000000048 .L0 
     /tmp/cc1n5tIB.s:62     .text:0000000000000050 .L0 
     /tmp/cc1n5tIB.s:69     .text:0000000000000058 .L0 
     /tmp/cc1n5tIB.s:70     .text:0000000000000058 .L0 
     /tmp/cc1n5tIB.s:79     .text:000000000000006c .L0 
     /tmp/cc1n5tIB.s:80     .text:000000000000006c .L0 
     /tmp/cc1n5tIB.s:81     .text:000000000000006c .L0 
     /tmp/cc1n5tIB.s:94     .text:0000000000000084 .L0 
     /tmp/cc1n5tIB.s:103    .text:000000000000009c .L0 
     /tmp/cc1n5tIB.s:104    .text:000000000000009c .L0 
     /tmp/cc1n5tIB.s:107    .text:00000000000000a4 .L0 
     /tmp/cc1n5tIB.s:109    .text:00000000000000a8 .L0 
     /tmp/cc1n5tIB.s:111    .text:00000000000000ac .L0 
     /tmp/cc1n5tIB.s:115    .text:00000000000000b8 .L0 
     /tmp/cc1n5tIB.s:120    .text:00000000000000c4 .L0 
     /tmp/cc1n5tIB.s:122    .text:00000000000000c8 .L0 
     /tmp/cc1n5tIB.s:123    .text:00000000000000c8 .L0 
     /tmp/cc1n5tIB.s:125    .text:00000000000000cc .L0 
     /tmp/cc1n5tIB.s:127    .text:00000000000000d0 .L0 
     /tmp/cc1n5tIB.s:131    .text:00000000000000d4 .L0 
     /tmp/cc1n5tIB.s:132    .text:00000000000000d4 .L0 
     /tmp/cc1n5tIB.s:136    .text:00000000000000d8 .L0 
     /tmp/cc1n5tIB.s:137    .text:00000000000000d8 .L0 
     /tmp/cc1n5tIB.s:139    .text:00000000000000dc .L0 
     /tmp/cc1n5tIB.s:141    .text:00000000000000e0 .L0 
     /tmp/cc1n5tIB.s:142    .text:00000000000000e0 .L0 
     /tmp/cc1n5tIB.s:145    .text:00000000000000e4 .L0 
     /tmp/cc1n5tIB.s:147    .text:00000000000000e8 .L0 
     /tmp/cc1n5tIB.s:149    .text:00000000000000ec .L0 
     /tmp/cc1n5tIB.s:152    .text:00000000000000f0 .L0 
     /tmp/cc1n5tIB.s:160    .text:00000000000000f4 .L0 
     /tmp/cc1n5tIB.s:161    .text:00000000000000f4 .L0 
     /tmp/cc1n5tIB.s:166    .text:0000000000000100 .L0 
     /tmp/cc1n5tIB.s:167    .text:0000000000000100 .L0 
     /tmp/cc1n5tIB.s:172    .text:0000000000000104 .L0 
     /tmp/cc1n5tIB.s:173    .text:0000000000000104 .L0 
     /tmp/cc1n5tIB.s:182    .text:0000000000000118 .L0 
     /tmp/cc1n5tIB.s:183    .text:0000000000000118 .L0 
     /tmp/cc1n5tIB.s:187    .text:0000000000000128 .L0 
GAS LISTING /tmp/cc1n5tIB.s 			page 9


     /tmp/cc1n5tIB.s:188    .text:0000000000000128 .L0 
     /tmp/cc1n5tIB.s:192    .text:0000000000000134 .L0 
     /tmp/cc1n5tIB.s:193    .text:0000000000000134 .L0 
     /tmp/cc1n5tIB.s:197    .text:0000000000000144 .L0 
     /tmp/cc1n5tIB.s:198    .text:0000000000000144 .L0 
     /tmp/cc1n5tIB.s:199    .text:0000000000000144 .L0 
     /tmp/cc1n5tIB.s:204    .text:0000000000000150 .L0 
     /tmp/cc1n5tIB.s:205    .text:0000000000000150 .L0 
     /tmp/cc1n5tIB.s:207    .text:0000000000000158 .L0 
     /tmp/cc1n5tIB.s:208    .text:0000000000000158 .L0 
     /tmp/cc1n5tIB.s:210    .text:000000000000015c .L0 
     /tmp/cc1n5tIB.s:211    .text:000000000000015c .L0 
     /tmp/cc1n5tIB.s:213    .text:0000000000000160 .L0 
     /tmp/cc1n5tIB.s:216    .text:0000000000000164 .L0 
     /tmp/cc1n5tIB.s:218    .text:0000000000000168 .L0 
     /tmp/cc1n5tIB.s:222    .text:000000000000016c .L0 
     /tmp/cc1n5tIB.s:228    .text:0000000000000170 .L0 
     /tmp/cc1n5tIB.s:229    .text:0000000000000170 .L0 
     /tmp/cc1n5tIB.s:241    .text:0000000000000190 .L0 
     /tmp/cc1n5tIB.s:273    .text:0000000000000190 .L0 
     /tmp/cc1n5tIB.s:8      .rodata.str1.8:0000000000000000 .LC0
     /tmp/cc1n5tIB.s:183    .text:0000000000000118 .L0 
     /tmp/cc1n5tIB.s:11     .rodata.str1.8:0000000000000008 .LC1
     /tmp/cc1n5tIB.s:193    .text:0000000000000134 .L0 
     /tmp/cc1n5tIB.s:66     .text:0000000000000058 .L2
     /tmp/cc1n5tIB.s:49     .text:0000000000000038 .L3
     /tmp/cc1n5tIB.s:153    .text:00000000000000f4 .L4
     /tmp/cc1n5tIB.s:134    .text:00000000000000d8 .L5
     /tmp/cc1n5tIB.s:178    .text:0000000000000118 .L6
     /tmp/cc1n5tIB.s:37     .text:0000000000000018 .LEHB0
     /tmp/cc1n5tIB.s:18     .text:0000000000000000 .LFB8
     /tmp/cc1n5tIB.s:86     .text:0000000000000080 .LEHE0
     /tmp/cc1n5tIB.s:102    .text:000000000000009c .LEHB1
     /tmp/cc1n5tIB.s:118    .text:00000000000000c4 .LEHE1
     /tmp/cc1n5tIB.s:221    .text:000000000000016c .L8
     /tmp/cc1n5tIB.s:162    .text:00000000000000f8 .LEHB2
     /tmp/cc1n5tIB.s:202    .text:0000000000000150 .LEHE2
     /tmp/cc1n5tIB.s:235    .text:0000000000000188 .LEHB3
     /tmp/cc1n5tIB.s:238    .text:0000000000000190 .LEHE3
     /tmp/cc1n5tIB.s:1234   .debug_abbrev:0000000000000000 .Ldebug_abbrev0
     /tmp/cc1n5tIB.s:2310   .debug_str:0000000000000748 .LASF97
     /tmp/cc1n5tIB.s:2228   .debug_str:0000000000000386 .LASF98
     /tmp/cc1n5tIB.s:2280   .debug_str:00000000000005a3 .LASF99
     /tmp/cc1n5tIB.s:5      .text:0000000000000000 .Ltext0
     /tmp/cc1n5tIB.s:268    .text:0000000000000190 .Letext0
     /tmp/cc1n5tIB.s:2138   .debug_line:0000000000000000 .Ldebug_line0
     /tmp/cc1n5tIB.s:2254   .debug_str:0000000000000460 .LASF0
     /tmp/cc1n5tIB.s:2264   .debug_str:00000000000004bb .LASF1
     /tmp/cc1n5tIB.s:2240   .debug_str:00000000000003e9 .LASF2
     /tmp/cc1n5tIB.s:2188   .debug_str:000000000000021d .LASF3
     /tmp/cc1n5tIB.s:2218   .debug_str:0000000000000318 .LASF4
     /tmp/cc1n5tIB.s:2296   .debug_str:00000000000006b6 .LASF5
     /tmp/cc1n5tIB.s:2160   .debug_str:00000000000000dd .LASF6
     /tmp/cc1n5tIB.s:2266   .debug_str:00000000000004ce .LASF7
     /tmp/cc1n5tIB.s:2252   .debug_str:000000000000044d .LASF8
     /tmp/cc1n5tIB.s:2324   .debug_str:0000000000000894 .LASF9
     /tmp/cc1n5tIB.s:2204   .debug_str:0000000000000288 .LASF10
GAS LISTING /tmp/cc1n5tIB.s 			page 10


     /tmp/cc1n5tIB.s:2274   .debug_str:0000000000000562 .LASF11
     /tmp/cc1n5tIB.s:2314   .debug_str:000000000000082c .LASF12
     /tmp/cc1n5tIB.s:2162   .debug_str:00000000000000e4 .LASF13
     /tmp/cc1n5tIB.s:2146   .debug_str:0000000000000050 .LASF14
     /tmp/cc1n5tIB.s:2174   .debug_str:0000000000000159 .LASF15
     /tmp/cc1n5tIB.s:2290   .debug_str:000000000000066f .LASF16
     /tmp/cc1n5tIB.s:2186   .debug_str:0000000000000207 .LASF17
     /tmp/cc1n5tIB.s:2236   .debug_str:00000000000003c5 .LASF50
     /tmp/cc1n5tIB.s:2278   .debug_str:0000000000000591 .LASF100
     /tmp/cc1n5tIB.s:2230   .debug_str:0000000000000393 .LASF18
     /tmp/cc1n5tIB.s:2348   .debug_str:00000000000009c6 .LASF19
     /tmp/cc1n5tIB.s:2260   .debug_str:00000000000004a3 .LASF101
     /tmp/cc1n5tIB.s:2312   .debug_str:000000000000080c .LASF102
     /tmp/cc1n5tIB.s:2322   .debug_str:000000000000087d .LASF36
     /tmp/cc1n5tIB.s:2176   .debug_str:0000000000000165 .LASF38
     /tmp/cc1n5tIB.s:2300   .debug_str:00000000000006de .LASF24
     /tmp/cc1n5tIB.s:2268   .debug_str:00000000000004e1 .LASF26
     /tmp/cc1n5tIB.s:2318   .debug_str:0000000000000865 .LASF20
     /tmp/cc1n5tIB.s:2288   .debug_str:000000000000064c .LASF22
     /tmp/cc1n5tIB.s:2330   .debug_str:00000000000008d3 .LASF21
     /tmp/cc1n5tIB.s:2152   .debug_str:000000000000007d .LASF23
     /tmp/cc1n5tIB.s:2292   .debug_str:0000000000000685 .LASF25
     /tmp/cc1n5tIB.s:2284   .debug_str:00000000000005df .LASF27
     /tmp/cc1n5tIB.s:2166   .debug_str:000000000000010e .LASF28
     /tmp/cc1n5tIB.s:2180   .debug_str:00000000000001ba .LASF29
     /tmp/cc1n5tIB.s:2158   .debug_str:00000000000000d0 .LASF30
     /tmp/cc1n5tIB.s:2326   .debug_str:00000000000008a4 .LASF31
     /tmp/cc1n5tIB.s:2234   .debug_str:00000000000003b7 .LASF32
     /tmp/cc1n5tIB.s:2178   .debug_str:0000000000000194 .LASF33
     /tmp/cc1n5tIB.s:2332   .debug_str:00000000000008dd .LASF34
     /tmp/cc1n5tIB.s:2216   .debug_str:00000000000002f1 .LASF35
     /tmp/cc1n5tIB.s:2198   .debug_str:0000000000000262 .LASF37
     /tmp/cc1n5tIB.s:2220   .debug_str:000000000000031f .LASF39
     /tmp/cc1n5tIB.s:2156   .debug_str:00000000000000c3 .LASF40
     /tmp/cc1n5tIB.s:2334   .debug_str:00000000000008ec .LASF41
     /tmp/cc1n5tIB.s:2298   .debug_str:00000000000006c8 .LASF42
     /tmp/cc1n5tIB.s:2304   .debug_str:0000000000000700 .LASF43
     /tmp/cc1n5tIB.s:2282   .debug_str:00000000000005d6 .LASF44
     /tmp/cc1n5tIB.s:2276   .debug_str:0000000000000571 .LASF45
     /tmp/cc1n5tIB.s:2328   .debug_str:00000000000008c9 .LASF46
     /tmp/cc1n5tIB.s:2226   .debug_str:000000000000037b .LASF47
     /tmp/cc1n5tIB.s:2346   .debug_str:00000000000009ba .LASF48
     /tmp/cc1n5tIB.s:2144   .debug_str:0000000000000041 .LASF49
     /tmp/cc1n5tIB.s:2238   .debug_str:00000000000003d5 .LASF51
     /tmp/cc1n5tIB.s:2190   .debug_str:0000000000000223 .LASF52
     /tmp/cc1n5tIB.s:2154   .debug_str:000000000000009f .LASF53
     /tmp/cc1n5tIB.s:2168   .debug_str:0000000000000126 .LASF54
     /tmp/cc1n5tIB.s:2342   .debug_str:0000000000000975 .LASF55
     /tmp/cc1n5tIB.s:2262   .debug_str:00000000000004ac .LASF56
     /tmp/cc1n5tIB.s:2308   .debug_str:000000000000071b .LASF57
     /tmp/cc1n5tIB.s:2320   .debug_str:0000000000000870 .LASF58
     /tmp/cc1n5tIB.s:2256   .debug_str:000000000000046d .LASF59
     /tmp/cc1n5tIB.s:2242   .debug_str:00000000000003f7 .LASF60
     /tmp/cc1n5tIB.s:2316   .debug_str:000000000000083b .LASF61
     /tmp/cc1n5tIB.s:2244   .debug_str:0000000000000405 .LASF62
     /tmp/cc1n5tIB.s:2222   .debug_str:0000000000000346 .LASF63
     /tmp/cc1n5tIB.s:2246   .debug_str:0000000000000413 .LASF64
GAS LISTING /tmp/cc1n5tIB.s 			page 11


     /tmp/cc1n5tIB.s:2194   .debug_str:0000000000000233 .LASF65
     /tmp/cc1n5tIB.s:2258   .debug_str:0000000000000496 .LASF70
     /tmp/cc1n5tIB.s:2272   .debug_str:0000000000000536 .LASF72
     /tmp/cc1n5tIB.s:2350   .debug_str:00000000000009cb .LASF66
     /tmp/cc1n5tIB.s:2286   .debug_str:0000000000000616 .LASF67
     /tmp/cc1n5tIB.s:2172   .debug_str:000000000000013e .LASF68
     /tmp/cc1n5tIB.s:2338   .debug_str:0000000000000911 .LASF69
     /tmp/cc1n5tIB.s:2150   .debug_str:000000000000006c .LASF71
     /tmp/cc1n5tIB.s:2140   .debug_str:0000000000000000 .LASF73
     /tmp/cc1n5tIB.s:2196   .debug_str:000000000000025d .LASF74
     /tmp/cc1n5tIB.s:2206   .debug_str:0000000000000296 .LASF75
     /tmp/cc1n5tIB.s:2164   .debug_str:00000000000000f4 .LASF76
     /tmp/cc1n5tIB.s:2208   .debug_str:00000000000002a7 .LASF77
     /tmp/cc1n5tIB.s:2250   .debug_str:0000000000000433 .LASF78
     /tmp/cc1n5tIB.s:2302   .debug_str:00000000000006f0 .LASF79
     /tmp/cc1n5tIB.s:2232   .debug_str:000000000000039c .LASF80
     /tmp/cc1n5tIB.s:2214   .debug_str:00000000000002dd .LASF81
     /tmp/cc1n5tIB.s:2340   .debug_str:0000000000000948 .LASF82
     /tmp/cc1n5tIB.s:2294   .debug_str:00000000000006a4 .LASF83
     /tmp/cc1n5tIB.s:2270   .debug_str:000000000000050b .LASF84
     /tmp/cc1n5tIB.s:2224   .debug_str:0000000000000370 .LASF85
     /tmp/cc1n5tIB.s:2142   .debug_str:000000000000002d .LASF86
     /tmp/cc1n5tIB.s:2352   .debug_str:00000000000009e5 .LASF87
     /tmp/cc1n5tIB.s:2336   .debug_str:0000000000000904 .LASF88
     /tmp/cc1n5tIB.s:2202   .debug_str:000000000000027e .LASF89
     /tmp/cc1n5tIB.s:2170   .debug_str:0000000000000139 .LASF90
     /tmp/cc1n5tIB.s:242    .text:0000000000000190 .LFE8
     /tmp/cc1n5tIB.s:2192   .debug_str:000000000000022c .LASF91
     /tmp/cc1n5tIB.s:2038   .debug_loc:0000000000000000 .LLST0
     /tmp/cc1n5tIB.s:46     .text:0000000000000034 .LBB21
     /tmp/cc1n5tIB.s:67     .text:0000000000000058 .LBE21
     /tmp/cc1n5tIB.s:2045   .debug_loc:0000000000000023 .LLST1
     /tmp/cc1n5tIB.s:76     .text:000000000000006c .LBB22
     /tmp/cc1n5tIB.s:90     .text:0000000000000084 .LBE22
     /tmp/cc1n5tIB.s:2056   .debug_loc:0000000000000059 .LLST2
     /tmp/cc1n5tIB.s:82     .text:0000000000000074 .LVL7
     /tmp/cc1n5tIB.s:85     .text:0000000000000080 .LVL8
     /tmp/cc1n5tIB.s:91     .text:0000000000000084 .LBB24
     /tmp/cc1n5tIB.s:158    .text:00000000000000f4 .LBE24
     /tmp/cc1n5tIB.s:2065   .debug_loc:000000000000007e .LLST3
     /tmp/cc1n5tIB.s:2078   .debug_loc:00000000000000b6 .LLST4
     /tmp/cc1n5tIB.s:130    .text:00000000000000d4 .LBB27
     /tmp/cc1n5tIB.s:155    .text:00000000000000f4 .LBE27
     /tmp/cc1n5tIB.s:2089   .debug_loc:00000000000000ec .LLST5
     /tmp/cc1n5tIB.s:105    .text:00000000000000a4 .LVL10
     /tmp/cc1n5tIB.s:117    .text:00000000000000c4 .LVL11
     /tmp/cc1n5tIB.s:169    .text:0000000000000104 .LBB28
     /tmp/cc1n5tIB.s:180    .text:0000000000000118 .LBE28
     /tmp/cc1n5tIB.s:2111   .debug_loc:000000000000014b .LLST6
     /tmp/cc1n5tIB.s:174    .text:000000000000010c .LVL19
     /tmp/cc1n5tIB.s:177    .text:0000000000000118 .LVL20
     /tmp/cc1n5tIB.s:225    .text:0000000000000170 .LBB30
     /tmp/cc1n5tIB.s:240    .text:0000000000000190 .LBE30
     /tmp/cc1n5tIB.s:2118   .debug_loc:000000000000016e .LLST7
     /tmp/cc1n5tIB.s:230    .text:0000000000000178 .LVL28
     /tmp/cc1n5tIB.s:233    .text:0000000000000184 .LVL29
     /tmp/cc1n5tIB.s:40     .text:0000000000000020 .LVL0
GAS LISTING /tmp/cc1n5tIB.s 			page 12


     /tmp/cc1n5tIB.s:44     .text:0000000000000030 .LVL1
     /tmp/cc1n5tIB.s:71     .text:0000000000000060 .LVL5
     /tmp/cc1n5tIB.s:74     .text:000000000000006c .LVL6
     /tmp/cc1n5tIB.s:164    .text:0000000000000100 .LVL17
     /tmp/cc1n5tIB.s:185    .text:0000000000000128 .LVL21
     /tmp/cc1n5tIB.s:190    .text:0000000000000134 .LVL22
     /tmp/cc1n5tIB.s:195    .text:0000000000000144 .LVL23
     /tmp/cc1n5tIB.s:201    .text:0000000000000150 .LVL24
     /tmp/cc1n5tIB.s:237    .text:0000000000000190 .LVL30
     /tmp/cc1n5tIB.s:2306   .debug_str:0000000000000716 .LASF92
     /tmp/cc1n5tIB.s:2184   .debug_str:0000000000000202 .LASF103
     /tmp/cc1n5tIB.s:2210   .debug_str:00000000000002b4 .LASF104
     /tmp/cc1n5tIB.s:2344   .debug_str:00000000000009a7 .LASF93
     /tmp/cc1n5tIB.s:2148   .debug_str:0000000000000060 .LASF95
     /tmp/cc1n5tIB.s:2248   .debug_str:0000000000000421 .LASF94
     /tmp/cc1n5tIB.s:2200   .debug_str:0000000000000271 .LASF96
     /tmp/cc1n5tIB.s:2212   .debug_str:00000000000002ce .LASF105
     /tmp/cc1n5tIB.s:2182   .debug_str:00000000000001ea .LASF106
     /tmp/cc1n5tIB.s:154    .text:00000000000000f4 .LVL16
     /tmp/cc1n5tIB.s:214    .text:0000000000000160 .LVL25
     /tmp/cc1n5tIB.s:50     .text:0000000000000038 .LVL2
     /tmp/cc1n5tIB.s:63     .text:0000000000000054 .LVL3
     /tmp/cc1n5tIB.s:65     .text:0000000000000058 .LVL4
     /tmp/cc1n5tIB.s:88     .text:0000000000000084 .LVL9
     /tmp/cc1n5tIB.s:220    .text:000000000000016c .LVL26
     /tmp/cc1n5tIB.s:129    .text:00000000000000d4 .LVL12
     /tmp/cc1n5tIB.s:133    .text:00000000000000d8 .LVL13
     /tmp/cc1n5tIB.s:143    .text:00000000000000e4 .LVL14
     /tmp/cc1n5tIB.s:150    .text:00000000000000f0 .LVL15
     /tmp/cc1n5tIB.s:168    .text:0000000000000104 .LVL18
     /tmp/cc1n5tIB.s:224    .text:0000000000000170 .LVL27
     /tmp/cc1n5tIB.s:274    .debug_info:0000000000000000 .Ldebug_info0
     /tmp/cc1n5tIB.s:245    .gcc_except_table:0000000000000000 .LLSDA8

UNDEFINED SYMBOLS
_ZN15MemoryAllocator8instanceEv
_ZN15MemoryAllocator10kmem_allocEm
_ZN15MemoryAllocator9kmem_freeEPv
_ZN16KObjectAllocator19printInternalMemoryEv
_Z11printStringPKc
_Z12printIntegerm
_ZN19MemoryAllocatorTest8runTestsEv
_Unwind_Resume
__gxx_personality_v0
