GAS LISTING /tmp/ccCcKt8h.s 			page 1


   1              		.file	"main.cpp"
   2              		.option pic
   3              		.option norelax
   4              		.text
   5              	.Ltext0:
   6              		.section	.rodata.str1.8,"aMS",@progbits,1
   7              		.align	3
   8              	.LC0:
   9 0000 693A2000 		.string	"i: "
  10 0004 00000000 		.align	3
  11              	.LC1:
  12 0008 0A00     		.string	"\n"
  13 000a 00000000 		.align	3
  13      0000
  14              	.LC2:
  15 0010 0A4D656D 		.string	"\nMemory tests:\n"
  15      6F727920 
  15      74657374 
  15      733A0A00 
  16              		.text
  17              		.align	2
  18              		.globl	main
  20              	main:
  21              	.LFB8:
  22              		.file 1 "src/main.cpp"
   1:src/main.cpp  **** #include "../h/print.hpp"
   2:src/main.cpp  **** #include "../h/memoryAllocator.hpp"
   3:src/main.cpp  **** #include "../h/memoryAllocatorTest.hpp"
   4:src/main.cpp  **** #include "../h/kObjectAllocator.hpp"
   5:src/main.cpp  **** 
   6:src/main.cpp  **** int main() {
  23              		.loc 1 6 12
  24              		.cfi_startproc
  25              		.cfi_personality 0x9b,DW.ref.__gxx_personality_v0
  26              		.cfi_lsda 0x1b,.LLSDA8
  27 0000 130101F6 		addi	sp,sp,-160
  28              		.cfi_def_cfa_offset 160
  29 0004 233C1108 		sd	ra,152(sp)
  30 0008 23388108 		sd	s0,144(sp)
  31 000c 23349108 		sd	s1,136(sp)
  32 0010 23302109 		sd	s2,128(sp)
  33 0014 233C3107 		sd	s3,120(sp)
  34 0018 23384107 		sd	s4,112(sp)
  35 001c 23345107 		sd	s5,104(sp)
  36 0020 23306107 		sd	s6,96(sp)
  37 0024 233C7105 		sd	s7,88(sp)
  38 0028 23388105 		sd	s8,80(sp)
  39 002c 23349105 		sd	s9,72(sp)
  40 0030 2330A105 		sd	s10,64(sp)
  41 0034 233CB103 		sd	s11,56(sp)
  42              		.cfi_offset 1, -8
  43              		.cfi_offset 8, -16
  44              		.cfi_offset 9, -24
  45              		.cfi_offset 18, -32
  46              		.cfi_offset 19, -40
  47              		.cfi_offset 20, -48
  48              		.cfi_offset 21, -56
GAS LISTING /tmp/ccCcKt8h.s 			page 2


  49              		.cfi_offset 22, -64
  50              		.cfi_offset 23, -72
  51              		.cfi_offset 24, -80
  52              		.cfi_offset 25, -88
  53              		.cfi_offset 26, -96
  54              		.cfi_offset 27, -104
  55 0038 1304010A 		addi	s0,sp,160
  56              		.cfi_def_cfa 8, 0
   7:src/main.cpp  **** 
   8:src/main.cpp  ****     uint64* arr = (uint64*) MemoryAllocator::instance()->kmem_alloc(64 * 100);
  57              		.loc 1 8 5
  58              	.LEHB0:
  59              		.loc 1 8 68 is_stmt 0
  60 003c 97000000 		call	_ZN15MemoryAllocator8instanceEv@plt
  60      E7800000 
  61              	.LVL0:
  62 0044 B7250000 		li	a1,8192
  63 0048 93850590 		addi	a1,a1,-1792
  64 004c 97000000 		call	_ZN15MemoryAllocator10kmem_allocEm@plt
  64      E7800000 
  65              	.LVL1:
  66 0054 93040500 		mv	s1,a0
  67              	.LBB21:
   9:src/main.cpp  ****     for (int i = 0; i < 100; ++i) arr[i] = (uint64) -1;
  68              		.loc 1 9 14
  69 0058 93070000 		li	a5,0
  70              	.L3:
  71              	.LVL2:
  72              		.loc 1 9 23 is_stmt 1 discriminator 3
  73 005c 13073006 		li	a4,99
  74 0060 634EF700 		bgt	a5,a4,.L2
  75              		.loc 1 9 35 discriminator 2
  76              		.loc 1 9 40 is_stmt 0 discriminator 2
  77 0064 13973700 		slli	a4,a5,3
  78 0068 3387E400 		add	a4,s1,a4
  79              		.loc 1 9 42 discriminator 2
  80 006c 9306F0FF 		li	a3,-1
  81 0070 2330D700 		sd	a3,0(a4)
  82              		.loc 1 9 5 is_stmt 1 discriminator 2
  83 0074 9B871700 		addiw	a5,a5,1
  84              	.LVL3:
  85 0078 6FF05FFE 		j	.L3
  86              	.LVL4:
  87              	.L2:
  88              	.LBE21:
  10:src/main.cpp  ****     MemoryAllocator::instance()->kmem_free(arr);
  89              		.loc 1 10 5
  90              		.loc 1 10 43 is_stmt 0
  91 007c 97000000 		call	_ZN15MemoryAllocator8instanceEv@plt
  91      E7800000 
  92              	.LVL5:
  93 0084 93850400 		mv	a1,s1
  94 0088 97000000 		call	_ZN15MemoryAllocator9kmem_freeEPv@plt
  94      E7800000 
  95              	.LVL6:
  11:src/main.cpp  **** 
  12:src/main.cpp  ****     KObjectAllocator* newObj = new KObjectAllocator(1);
GAS LISTING /tmp/ccCcKt8h.s 			page 3


  96              		.loc 1 12 5 is_stmt 1
  97              	.LBB22:
  98              	.LBB23:
  99              		.file 2 "src/../h/kObjectAllocator.hpp"
   1:src/../h/kObjectAllocator.hpp **** #ifndef KOBJECTALLOCATOR_HPP
   2:src/../h/kObjectAllocator.hpp **** #define KOBJECTALLOCATOR_HPP
   3:src/../h/kObjectAllocator.hpp **** 
   4:src/../h/kObjectAllocator.hpp **** #include "../h/memoryAllocator.hpp"
   5:src/../h/kObjectAllocator.hpp **** 
   6:src/../h/kObjectAllocator.hpp **** class KObjectAllocator {
   7:src/../h/kObjectAllocator.hpp **** public:
   8:src/../h/kObjectAllocator.hpp ****     KObjectAllocator(size_t objectSize) : objectSize(objectSize) {
   9:src/../h/kObjectAllocator.hpp ****         bitVector = (uint8*) MemoryAllocator::instance()->kmem_alloc(
  10:src/../h/kObjectAllocator.hpp ****             memoryForBits + initialObjectNumber * objectSize
  11:src/../h/kObjectAllocator.hpp ****         );
  12:src/../h/kObjectAllocator.hpp ****         objectVector = bitVector + memoryForBits;
  13:src/../h/kObjectAllocator.hpp ****         for (size_t i = 0; i < memoryForBits; bitVector[i++] = 0);
  14:src/../h/kObjectAllocator.hpp ****     }
  15:src/../h/kObjectAllocator.hpp ****     void* operator new(size_t size) {
  16:src/../h/kObjectAllocator.hpp ****         return MemoryAllocator::instance()->kmem_alloc(size);
 100              		.loc 2 16 9
 101              		.loc 2 16 55 is_stmt 0
 102 0090 97000000 		call	_ZN15MemoryAllocator8instanceEv@plt
 102      E7800000 
 103              	.LVL7:
 104 0098 93058002 		li	a1,40
 105 009c 97000000 		call	_ZN15MemoryAllocator10kmem_allocEm@plt
 105      E7800000 
 106              	.LVL8:
 107              	.LEHE0:
 108 00a4 93040500 		mv	s1,a0
 109              	.LVL9:
 110              	.LBE23:
 111              	.LBE22:
 112              	.LBB24:
 113              	.LBB25:
   8:src/../h/kObjectAllocator.hpp ****         bitVector = (uint8*) MemoryAllocator::instance()->kmem_alloc(
 114              		.loc 2 8 64
 115 00a8 93071000 		li	a5,1
 116 00ac 2330F500 		sd	a5,0(a0)
 117 00b0 93070014 		li	a5,320
 118 00b4 2334F500 		sd	a5,8(a0)
 119 00b8 93078002 		li	a5,40
 120 00bc 2338F500 		sd	a5,16(a0)
 121              	.LBB26:
   9:src/../h/kObjectAllocator.hpp ****             memoryForBits + initialObjectNumber * objectSize
 122              		.loc 2 9 9 is_stmt 1
 123              	.LEHB1:
   9:src/../h/kObjectAllocator.hpp ****             memoryForBits + initialObjectNumber * objectSize
 124              		.loc 2 9 69 is_stmt 0
 125 00c0 97000000 		call	_ZN15MemoryAllocator8instanceEv@plt
 125      E7800000 
 126              	.LVL10:
  10:src/../h/kObjectAllocator.hpp ****         );
 127              		.loc 2 10 13
 128 00c8 83B50401 		ld	a1,16(s1)
  10:src/../h/kObjectAllocator.hpp ****         );
GAS LISTING /tmp/ccCcKt8h.s 			page 4


 129              		.loc 2 10 29
 130 00cc 83B78400 		ld	a5,8(s1)
   9:src/../h/kObjectAllocator.hpp ****             memoryForBits + initialObjectNumber * objectSize
 131              		.loc 2 9 69
 132 00d0 B385F500 		add	a1,a1,a5
 133 00d4 97000000 		call	_ZN15MemoryAllocator10kmem_allocEm@plt
 133      E7800000 
 134              	.LVL11:
 135              	.LEHE1:
   9:src/../h/kObjectAllocator.hpp ****             memoryForBits + initialObjectNumber * objectSize
 136              		.loc 2 9 19
 137 00dc 23B0A402 		sd	a0,32(s1)
  12:src/../h/kObjectAllocator.hpp ****         for (size_t i = 0; i < memoryForBits; bitVector[i++] = 0);
 138              		.loc 2 12 9 is_stmt 1
  12:src/../h/kObjectAllocator.hpp ****         for (size_t i = 0; i < memoryForBits; bitVector[i++] = 0);
 139              		.loc 2 12 36 is_stmt 0
 140 00e0 83B70401 		ld	a5,16(s1)
  12:src/../h/kObjectAllocator.hpp ****         for (size_t i = 0; i < memoryForBits; bitVector[i++] = 0);
 141              		.loc 2 12 34
 142 00e4 3305F500 		add	a0,a0,a5
  12:src/../h/kObjectAllocator.hpp ****         for (size_t i = 0; i < memoryForBits; bitVector[i++] = 0);
 143              		.loc 2 12 22
 144 00e8 23BCA400 		sd	a0,24(s1)
  13:src/../h/kObjectAllocator.hpp ****     }
 145              		.loc 2 13 9 is_stmt 1
 146              	.LVL12:
 147              	.LBB27:
  13:src/../h/kObjectAllocator.hpp ****     }
 148              		.loc 2 13 21 is_stmt 0
 149 00ec 93070000 		li	a5,0
 150              	.LVL13:
 151              	.L5:
  13:src/../h/kObjectAllocator.hpp ****     }
 152              		.loc 2 13 30 is_stmt 1
  13:src/../h/kObjectAllocator.hpp ****     }
 153              		.loc 2 13 32 is_stmt 0
 154 00f0 03B70401 		ld	a4,16(s1)
  13:src/../h/kObjectAllocator.hpp ****     }
 155              		.loc 2 13 30
 156 00f4 63FCE700 		bleu	a4,a5,.L4
  13:src/../h/kObjectAllocator.hpp ****     }
 157              		.loc 2 13 9 is_stmt 1
  13:src/../h/kObjectAllocator.hpp ****     }
 158              		.loc 2 13 47 is_stmt 0
 159 00f8 03B70402 		ld	a4,32(s1)
 160              	.LVL14:
  13:src/../h/kObjectAllocator.hpp ****     }
 161              		.loc 2 13 60
 162 00fc 3307F700 		add	a4,a4,a5
  13:src/../h/kObjectAllocator.hpp ****     }
 163              		.loc 2 13 62
 164 0100 23000700 		sb	zero,0(a4)
  13:src/../h/kObjectAllocator.hpp ****     }
 165              		.loc 2 13 58
 166 0104 93871700 		addi	a5,a5,1
 167              	.LVL15:
  13:src/../h/kObjectAllocator.hpp ****     }
GAS LISTING /tmp/ccCcKt8h.s 			page 5


 168              		.loc 2 13 9
 169 0108 6FF09FFE 		j	.L5
 170              	.L4:
 171              	.LVL16:
 172              	.LBE27:
 173              	.LBE26:
 174              	.LBE25:
 175              	.LBE24:
  13:src/main.cpp  ****     uint8* i0 = (uint8*) newObj->allocateNewObject();
 176              		.loc 1 13 5 is_stmt 1 discriminator 3
 177              		.loc 1 13 51 is_stmt 0 discriminator 3
 178 010c 13850400 		mv	a0,s1
 179              	.LEHB2:
 180 0110 97000000 		call	_ZN16KObjectAllocator17allocateNewObjectEv@plt
 180      E7800000 
 181              	.LVL17:
 182 0118 93090500 		mv	s3,a0
 183              	.LVL18:
  14:src/main.cpp  ****     uint8* i1 = (uint8*) newObj->allocateNewObject();
 184              		.loc 1 14 5 is_stmt 1 discriminator 3
 185              		.loc 1 14 51 is_stmt 0 discriminator 3
 186 011c 13850400 		mv	a0,s1
 187              	.LVL19:
 188 0120 97000000 		call	_ZN16KObjectAllocator17allocateNewObjectEv@plt
 188      E7800000 
 189              	.LVL20:
 190 0128 930D0500 		mv	s11,a0
 191              	.LVL21:
  15:src/main.cpp  ****     uint8* i2 = (uint8*) newObj->allocateNewObject();
 192              		.loc 1 15 5 is_stmt 1 discriminator 3
 193              		.loc 1 15 51 is_stmt 0 discriminator 3
 194 012c 13850400 		mv	a0,s1
 195              	.LVL22:
 196 0130 97000000 		call	_ZN16KObjectAllocator17allocateNewObjectEv@plt
 196      E7800000 
 197              	.LVL23:
 198 0138 130D0500 		mv	s10,a0
 199              	.LVL24:
  16:src/main.cpp  ****     uint8* i3 = (uint8*) newObj->allocateNewObject();
 200              		.loc 1 16 5 is_stmt 1 discriminator 3
 201              		.loc 1 16 51 is_stmt 0 discriminator 3
 202 013c 13850400 		mv	a0,s1
 203              	.LVL25:
 204 0140 97000000 		call	_ZN16KObjectAllocator17allocateNewObjectEv@plt
 204      E7800000 
 205              	.LVL26:
 206 0148 930C0500 		mv	s9,a0
 207              	.LVL27:
  17:src/main.cpp  ****     uint8* i4 = (uint8*) newObj->allocateNewObject();
 208              		.loc 1 17 5 is_stmt 1 discriminator 3
 209              		.loc 1 17 51 is_stmt 0 discriminator 3
 210 014c 13850400 		mv	a0,s1
 211              	.LVL28:
 212 0150 97000000 		call	_ZN16KObjectAllocator17allocateNewObjectEv@plt
 212      E7800000 
 213              	.LVL29:
 214 0158 130C0500 		mv	s8,a0
GAS LISTING /tmp/ccCcKt8h.s 			page 6


 215              	.LVL30:
  18:src/main.cpp  ****     uint8* i5 = (uint8*) newObj->allocateNewObject();
 216              		.loc 1 18 5 is_stmt 1 discriminator 3
 217              		.loc 1 18 51 is_stmt 0 discriminator 3
 218 015c 13850400 		mv	a0,s1
 219              	.LVL31:
 220 0160 97000000 		call	_ZN16KObjectAllocator17allocateNewObjectEv@plt
 220      E7800000 
 221              	.LVL32:
 222 0168 930B0500 		mv	s7,a0
 223              	.LVL33:
  19:src/main.cpp  ****     uint8* i6 = (uint8*) newObj->allocateNewObject();
 224              		.loc 1 19 5 is_stmt 1 discriminator 3
 225              		.loc 1 19 51 is_stmt 0 discriminator 3
 226 016c 13850400 		mv	a0,s1
 227              	.LVL34:
 228 0170 97000000 		call	_ZN16KObjectAllocator17allocateNewObjectEv@plt
 228      E7800000 
 229              	.LVL35:
 230 0178 130B0500 		mv	s6,a0
 231              	.LVL36:
  20:src/main.cpp  ****     uint8* i7 = (uint8*) newObj->allocateNewObject();
 232              		.loc 1 20 5 is_stmt 1 discriminator 3
 233              		.loc 1 20 51 is_stmt 0 discriminator 3
 234 017c 13850400 		mv	a0,s1
 235              	.LVL37:
 236 0180 97000000 		call	_ZN16KObjectAllocator17allocateNewObjectEv@plt
 236      E7800000 
 237              	.LVL38:
 238 0188 930A0500 		mv	s5,a0
 239              	.LVL39:
  21:src/main.cpp  ****     uint8* i8 = (uint8*) newObj->allocateNewObject();
 240              		.loc 1 21 5 is_stmt 1 discriminator 3
 241              		.loc 1 21 51 is_stmt 0 discriminator 3
 242 018c 13850400 		mv	a0,s1
 243              	.LVL40:
 244 0190 97000000 		call	_ZN16KObjectAllocator17allocateNewObjectEv@plt
 244      E7800000 
 245              	.LVL41:
 246 0198 130A0500 		mv	s4,a0
 247              	.LVL42:
  22:src/main.cpp  ****     uint8* i9 = (uint8*) newObj->allocateNewObject();
 248              		.loc 1 22 5 is_stmt 1 discriminator 3
 249              		.loc 1 22 51 is_stmt 0 discriminator 3
 250 019c 13850400 		mv	a0,s1
 251              	.LVL43:
 252 01a0 97000000 		call	_ZN16KObjectAllocator17allocateNewObjectEv@plt
 252      E7800000 
 253              	.LVL44:
 254 01a8 233CA4F6 		sd	a0,-136(s0)
 255              	.LVL45:
  23:src/main.cpp  ****     uint8* i10 = (uint8*) newObj->allocateNewObject();
 256              		.loc 1 23 5 is_stmt 1 discriminator 3
 257              		.loc 1 23 52 is_stmt 0 discriminator 3
 258 01ac 13850400 		mv	a0,s1
 259              	.LVL46:
 260 01b0 97000000 		call	_ZN16KObjectAllocator17allocateNewObjectEv@plt
GAS LISTING /tmp/ccCcKt8h.s 			page 7


 260      E7800000 
 261              	.LVL47:
 262 01b8 2338A4F6 		sd	a0,-144(s0)
 263              	.LVL48:
  24:src/main.cpp  ****     uint8* i11 = (uint8*) newObj->allocateNewObject();
 264              		.loc 1 24 5 is_stmt 1 discriminator 3
 265              		.loc 1 24 52 is_stmt 0 discriminator 3
 266 01bc 13850400 		mv	a0,s1
 267              	.LVL49:
 268 01c0 97000000 		call	_ZN16KObjectAllocator17allocateNewObjectEv@plt
 268      E7800000 
 269              	.LVL50:
 270 01c8 2334A4F6 		sd	a0,-152(s0)
 271              	.LVL51:
  25:src/main.cpp  ****     uint8* i12 = (uint8*) newObj->allocateNewObject();
 272              		.loc 1 25 5 is_stmt 1 discriminator 3
 273              		.loc 1 25 52 is_stmt 0 discriminator 3
 274 01cc 13850400 		mv	a0,s1
 275              	.LVL52:
 276 01d0 97000000 		call	_ZN16KObjectAllocator17allocateNewObjectEv@plt
 276      E7800000 
 277              	.LVL53:
 278 01d8 2330A4F6 		sd	a0,-160(s0)
 279              	.LVL54:
  26:src/main.cpp  **** 
  27:src/main.cpp  ****     *i0 = 1; printString("i: "); printInteger((uint64) i0); printString("\n");
 280              		.loc 1 27 5 is_stmt 1 discriminator 3
 281              		.loc 1 27 9 is_stmt 0 discriminator 3
 282 01dc 13091000 		li	s2,1
 283 01e0 23802901 		sb	s2,0(s3)
 284              		.loc 1 27 14 is_stmt 1 discriminator 3
 285              		.loc 1 27 25 is_stmt 0 discriminator 3
 286 01e4 17050000 		lla	a0,.LC0
 286      13050500 
 287              	.LVL55:
 288 01ec 97000000 		call	_Z11printStringPKc@plt
 288      E7800000 
 289              	.LVL56:
 290              		.loc 1 27 34 is_stmt 1 discriminator 3
 291              		.loc 1 27 46 is_stmt 0 discriminator 3
 292 01f4 13850900 		mv	a0,s3
 293 01f8 97000000 		call	_Z12printIntegerm@plt
 293      E7800000 
 294              	.LVL57:
 295              		.loc 1 27 61 is_stmt 1 discriminator 3
 296              		.loc 1 27 72 is_stmt 0 discriminator 3
 297 0200 17050000 		lla	a0,.LC1
 297      13050500 
 298 0208 97000000 		call	_Z11printStringPKc@plt
 298      E7800000 
 299              	.LVL58:
  28:src/main.cpp  ****     *i1 = 1; printString("i: "); printInteger((uint64) i1); printString("\n");
 300              		.loc 1 28 5 is_stmt 1 discriminator 3
 301              		.loc 1 28 9 is_stmt 0 discriminator 3
 302 0210 23802D01 		sb	s2,0(s11)
 303              		.loc 1 28 14 is_stmt 1 discriminator 3
 304              		.loc 1 28 25 is_stmt 0 discriminator 3
GAS LISTING /tmp/ccCcKt8h.s 			page 8


 305 0214 17050000 		lla	a0,.LC0
 305      13050500 
 306 021c 97000000 		call	_Z11printStringPKc@plt
 306      E7800000 
 307              	.LVL59:
 308              		.loc 1 28 34 is_stmt 1 discriminator 3
 309              		.loc 1 28 46 is_stmt 0 discriminator 3
 310 0224 13850D00 		mv	a0,s11
 311 0228 97000000 		call	_Z12printIntegerm@plt
 311      E7800000 
 312              	.LVL60:
 313              		.loc 1 28 61 is_stmt 1 discriminator 3
 314              		.loc 1 28 72 is_stmt 0 discriminator 3
 315 0230 17050000 		lla	a0,.LC1
 315      13050500 
 316 0238 97000000 		call	_Z11printStringPKc@plt
 316      E7800000 
 317              	.LVL61:
  29:src/main.cpp  ****     *i2 = 1; printString("i: "); printInteger((uint64) i2); printString("\n");
 318              		.loc 1 29 5 is_stmt 1 discriminator 3
 319              		.loc 1 29 9 is_stmt 0 discriminator 3
 320 0240 23002D01 		sb	s2,0(s10)
 321              		.loc 1 29 14 is_stmt 1 discriminator 3
 322              		.loc 1 29 25 is_stmt 0 discriminator 3
 323 0244 17050000 		lla	a0,.LC0
 323      13050500 
 324 024c 97000000 		call	_Z11printStringPKc@plt
 324      E7800000 
 325              	.LVL62:
 326              		.loc 1 29 34 is_stmt 1 discriminator 3
 327              		.loc 1 29 46 is_stmt 0 discriminator 3
 328 0254 13050D00 		mv	a0,s10
 329 0258 97000000 		call	_Z12printIntegerm@plt
 329      E7800000 
 330              	.LVL63:
 331              		.loc 1 29 61 is_stmt 1 discriminator 3
 332              		.loc 1 29 72 is_stmt 0 discriminator 3
 333 0260 17050000 		lla	a0,.LC1
 333      13050500 
 334 0268 97000000 		call	_Z11printStringPKc@plt
 334      E7800000 
 335              	.LVL64:
  30:src/main.cpp  ****     *i3 = 1; printString("i: "); printInteger((uint64) i3); printString("\n");
 336              		.loc 1 30 5 is_stmt 1 discriminator 3
 337              		.loc 1 30 9 is_stmt 0 discriminator 3
 338 0270 23802C01 		sb	s2,0(s9)
 339              		.loc 1 30 14 is_stmt 1 discriminator 3
 340              		.loc 1 30 25 is_stmt 0 discriminator 3
 341 0274 17050000 		lla	a0,.LC0
 341      13050500 
 342 027c 97000000 		call	_Z11printStringPKc@plt
 342      E7800000 
 343              	.LVL65:
 344              		.loc 1 30 34 is_stmt 1 discriminator 3
 345              		.loc 1 30 46 is_stmt 0 discriminator 3
 346 0284 13850C00 		mv	a0,s9
 347 0288 97000000 		call	_Z12printIntegerm@plt
GAS LISTING /tmp/ccCcKt8h.s 			page 9


 347      E7800000 
 348              	.LVL66:
 349              		.loc 1 30 61 is_stmt 1 discriminator 3
 350              		.loc 1 30 72 is_stmt 0 discriminator 3
 351 0290 17050000 		lla	a0,.LC1
 351      13050500 
 352 0298 97000000 		call	_Z11printStringPKc@plt
 352      E7800000 
 353              	.LVL67:
  31:src/main.cpp  ****     *i4 = 1; printString("i: "); printInteger((uint64) i4); printString("\n");
 354              		.loc 1 31 5 is_stmt 1 discriminator 3
 355              		.loc 1 31 9 is_stmt 0 discriminator 3
 356 02a0 23002C01 		sb	s2,0(s8)
 357              		.loc 1 31 14 is_stmt 1 discriminator 3
 358              		.loc 1 31 25 is_stmt 0 discriminator 3
 359 02a4 17050000 		lla	a0,.LC0
 359      13050500 
 360 02ac 97000000 		call	_Z11printStringPKc@plt
 360      E7800000 
 361              	.LVL68:
 362              		.loc 1 31 34 is_stmt 1 discriminator 3
 363              		.loc 1 31 46 is_stmt 0 discriminator 3
 364 02b4 13050C00 		mv	a0,s8
 365 02b8 97000000 		call	_Z12printIntegerm@plt
 365      E7800000 
 366              	.LVL69:
 367              		.loc 1 31 61 is_stmt 1 discriminator 3
 368              		.loc 1 31 72 is_stmt 0 discriminator 3
 369 02c0 17050000 		lla	a0,.LC1
 369      13050500 
 370 02c8 97000000 		call	_Z11printStringPKc@plt
 370      E7800000 
 371              	.LVL70:
  32:src/main.cpp  ****     *i5 = 1; printString("i: "); printInteger((uint64) i5); printString("\n");
 372              		.loc 1 32 5 is_stmt 1 discriminator 3
 373              		.loc 1 32 9 is_stmt 0 discriminator 3
 374 02d0 23802B01 		sb	s2,0(s7)
 375              		.loc 1 32 14 is_stmt 1 discriminator 3
 376              		.loc 1 32 25 is_stmt 0 discriminator 3
 377 02d4 17050000 		lla	a0,.LC0
 377      13050500 
 378 02dc 97000000 		call	_Z11printStringPKc@plt
 378      E7800000 
 379              	.LVL71:
 380              		.loc 1 32 34 is_stmt 1 discriminator 3
 381              		.loc 1 32 46 is_stmt 0 discriminator 3
 382 02e4 13850B00 		mv	a0,s7
 383 02e8 97000000 		call	_Z12printIntegerm@plt
 383      E7800000 
 384              	.LVL72:
 385              		.loc 1 32 61 is_stmt 1 discriminator 3
 386              		.loc 1 32 72 is_stmt 0 discriminator 3
 387 02f0 17050000 		lla	a0,.LC1
 387      13050500 
 388 02f8 97000000 		call	_Z11printStringPKc@plt
 388      E7800000 
 389              	.LVL73:
GAS LISTING /tmp/ccCcKt8h.s 			page 10


  33:src/main.cpp  ****     *i6 = 1; printString("i: "); printInteger((uint64) i6); printString("\n");
 390              		.loc 1 33 5 is_stmt 1 discriminator 3
 391              		.loc 1 33 9 is_stmt 0 discriminator 3
 392 0300 23002B01 		sb	s2,0(s6)
 393              		.loc 1 33 14 is_stmt 1 discriminator 3
 394              		.loc 1 33 25 is_stmt 0 discriminator 3
 395 0304 17050000 		lla	a0,.LC0
 395      13050500 
 396 030c 97000000 		call	_Z11printStringPKc@plt
 396      E7800000 
 397              	.LVL74:
 398              		.loc 1 33 34 is_stmt 1 discriminator 3
 399              		.loc 1 33 46 is_stmt 0 discriminator 3
 400 0314 13050B00 		mv	a0,s6
 401 0318 97000000 		call	_Z12printIntegerm@plt
 401      E7800000 
 402              	.LVL75:
 403              		.loc 1 33 61 is_stmt 1 discriminator 3
 404              		.loc 1 33 72 is_stmt 0 discriminator 3
 405 0320 17050000 		lla	a0,.LC1
 405      13050500 
 406 0328 97000000 		call	_Z11printStringPKc@plt
 406      E7800000 
 407              	.LVL76:
  34:src/main.cpp  ****     *i7 = 1; printString("i: "); printInteger((uint64) i7); printString("\n");
 408              		.loc 1 34 5 is_stmt 1 discriminator 3
 409              		.loc 1 34 9 is_stmt 0 discriminator 3
 410 0330 23802A01 		sb	s2,0(s5)
 411              		.loc 1 34 14 is_stmt 1 discriminator 3
 412              		.loc 1 34 25 is_stmt 0 discriminator 3
 413 0334 17050000 		lla	a0,.LC0
 413      13050500 
 414 033c 97000000 		call	_Z11printStringPKc@plt
 414      E7800000 
 415              	.LVL77:
 416              		.loc 1 34 34 is_stmt 1 discriminator 3
 417              		.loc 1 34 46 is_stmt 0 discriminator 3
 418 0344 13850A00 		mv	a0,s5
 419 0348 97000000 		call	_Z12printIntegerm@plt
 419      E7800000 
 420              	.LVL78:
 421              		.loc 1 34 61 is_stmt 1 discriminator 3
 422              		.loc 1 34 72 is_stmt 0 discriminator 3
 423 0350 17050000 		lla	a0,.LC1
 423      13050500 
 424 0358 97000000 		call	_Z11printStringPKc@plt
 424      E7800000 
 425              	.LVL79:
  35:src/main.cpp  ****     *i8 = 1; printString("i: "); printInteger((uint64) i8); printString("\n");
 426              		.loc 1 35 5 is_stmt 1 discriminator 3
 427              		.loc 1 35 9 is_stmt 0 discriminator 3
 428 0360 23002A01 		sb	s2,0(s4)
 429              		.loc 1 35 14 is_stmt 1 discriminator 3
 430              		.loc 1 35 25 is_stmt 0 discriminator 3
 431 0364 17050000 		lla	a0,.LC0
 431      13050500 
 432 036c 97000000 		call	_Z11printStringPKc@plt
GAS LISTING /tmp/ccCcKt8h.s 			page 11


 432      E7800000 
 433              	.LVL80:
 434              		.loc 1 35 34 is_stmt 1 discriminator 3
 435              		.loc 1 35 46 is_stmt 0 discriminator 3
 436 0374 13050A00 		mv	a0,s4
 437 0378 97000000 		call	_Z12printIntegerm@plt
 437      E7800000 
 438              	.LVL81:
 439              		.loc 1 35 61 is_stmt 1 discriminator 3
 440              		.loc 1 35 72 is_stmt 0 discriminator 3
 441 0380 17050000 		lla	a0,.LC1
 441      13050500 
 442 0388 97000000 		call	_Z11printStringPKc@plt
 442      E7800000 
 443              	.LVL82:
  36:src/main.cpp  ****     *i9 = 1; printString("i: "); printInteger((uint64) i9); printString("\n");
 444              		.loc 1 36 5 is_stmt 1 discriminator 3
 445              		.loc 1 36 9 is_stmt 0 discriminator 3
 446 0390 033B84F7 		ld	s6,-136(s0)
 447              	.LVL83:
 448 0394 23002B01 		sb	s2,0(s6)
 449              		.loc 1 36 14 is_stmt 1 discriminator 3
 450              		.loc 1 36 25 is_stmt 0 discriminator 3
 451 0398 17050000 		lla	a0,.LC0
 451      13050500 
 452 03a0 97000000 		call	_Z11printStringPKc@plt
 452      E7800000 
 453              	.LVL84:
 454              		.loc 1 36 34 is_stmt 1 discriminator 3
 455              		.loc 1 36 46 is_stmt 0 discriminator 3
 456 03a8 13050B00 		mv	a0,s6
 457 03ac 97000000 		call	_Z12printIntegerm@plt
 457      E7800000 
 458              	.LVL85:
 459              		.loc 1 36 61 is_stmt 1 discriminator 3
 460              		.loc 1 36 72 is_stmt 0 discriminator 3
 461 03b4 17050000 		lla	a0,.LC1
 461      13050500 
 462 03bc 97000000 		call	_Z11printStringPKc@plt
 462      E7800000 
 463              	.LVL86:
  37:src/main.cpp  ****     *i10 = 1; printString("i: "); printInteger((uint64) i10); printString("\n");
 464              		.loc 1 37 5 is_stmt 1 discriminator 3
 465              		.loc 1 37 10 is_stmt 0 discriminator 3
 466 03c4 033B04F7 		ld	s6,-144(s0)
 467 03c8 23002B01 		sb	s2,0(s6)
 468              		.loc 1 37 15 is_stmt 1 discriminator 3
 469              		.loc 1 37 26 is_stmt 0 discriminator 3
 470 03cc 17050000 		lla	a0,.LC0
 470      13050500 
 471 03d4 97000000 		call	_Z11printStringPKc@plt
 471      E7800000 
 472              	.LVL87:
 473              		.loc 1 37 35 is_stmt 1 discriminator 3
 474              		.loc 1 37 47 is_stmt 0 discriminator 3
 475 03dc 13050B00 		mv	a0,s6
 476 03e0 97000000 		call	_Z12printIntegerm@plt
GAS LISTING /tmp/ccCcKt8h.s 			page 12


 476      E7800000 
 477              	.LVL88:
 478              		.loc 1 37 63 is_stmt 1 discriminator 3
 479              		.loc 1 37 74 is_stmt 0 discriminator 3
 480 03e8 17050000 		lla	a0,.LC1
 480      13050500 
 481 03f0 97000000 		call	_Z11printStringPKc@plt
 481      E7800000 
 482              	.LVL89:
  38:src/main.cpp  ****     *i11 = 1; printString("i: "); printInteger((uint64) i11); printString("\n");
 483              		.loc 1 38 5 is_stmt 1 discriminator 3
 484              		.loc 1 38 10 is_stmt 0 discriminator 3
 485 03f8 033B84F6 		ld	s6,-152(s0)
 486 03fc 23002B01 		sb	s2,0(s6)
 487              		.loc 1 38 15 is_stmt 1 discriminator 3
 488              		.loc 1 38 26 is_stmt 0 discriminator 3
 489 0400 17050000 		lla	a0,.LC0
 489      13050500 
 490 0408 97000000 		call	_Z11printStringPKc@plt
 490      E7800000 
 491              	.LVL90:
 492              		.loc 1 38 35 is_stmt 1 discriminator 3
 493              		.loc 1 38 47 is_stmt 0 discriminator 3
 494 0410 13050B00 		mv	a0,s6
 495 0414 97000000 		call	_Z12printIntegerm@plt
 495      E7800000 
 496              	.LVL91:
 497              		.loc 1 38 63 is_stmt 1 discriminator 3
 498              		.loc 1 38 74 is_stmt 0 discriminator 3
 499 041c 17050000 		lla	a0,.LC1
 499      13050500 
 500 0424 97000000 		call	_Z11printStringPKc@plt
 500      E7800000 
 501              	.LVL92:
  39:src/main.cpp  ****     *i12 = 1; printString("i: "); printInteger((uint64) i12); printString("\n");
 502              		.loc 1 39 5 is_stmt 1 discriminator 3
 503              		.loc 1 39 10 is_stmt 0 discriminator 3
 504 042c 033B04F6 		ld	s6,-160(s0)
 505 0430 23002B01 		sb	s2,0(s6)
 506              		.loc 1 39 15 is_stmt 1 discriminator 3
 507              		.loc 1 39 26 is_stmt 0 discriminator 3
 508 0434 17050000 		lla	a0,.LC0
 508      13050500 
 509 043c 97000000 		call	_Z11printStringPKc@plt
 509      E7800000 
 510              	.LVL93:
 511              		.loc 1 39 35 is_stmt 1 discriminator 3
 512              		.loc 1 39 47 is_stmt 0 discriminator 3
 513 0444 13050B00 		mv	a0,s6
 514 0448 97000000 		call	_Z12printIntegerm@plt
 514      E7800000 
 515              	.LVL94:
 516              		.loc 1 39 63 is_stmt 1 discriminator 3
 517              		.loc 1 39 74 is_stmt 0 discriminator 3
 518 0450 17050000 		lla	a0,.LC1
 518      13050500 
 519 0458 97000000 		call	_Z11printStringPKc@plt
GAS LISTING /tmp/ccCcKt8h.s 			page 13


 519      E7800000 
 520              	.LVL95:
  40:src/main.cpp  **** 
  41:src/main.cpp  ****     newObj->freeObject(i7);
 521              		.loc 1 41 5 is_stmt 1 discriminator 3
 522              		.loc 1 41 23 is_stmt 0 discriminator 3
 523 0460 93850A00 		mv	a1,s5
 524 0464 13850400 		mv	a0,s1
 525 0468 97000000 		call	_ZN16KObjectAllocator10freeObjectEPv@plt
 525      E7800000 
 526              	.LVL96:
  42:src/main.cpp  ****     newObj->freeObject(i8);
 527              		.loc 1 42 5 is_stmt 1 discriminator 3
 528              		.loc 1 42 23 is_stmt 0 discriminator 3
 529 0470 93050A00 		mv	a1,s4
 530 0474 13850400 		mv	a0,s1
 531 0478 97000000 		call	_ZN16KObjectAllocator10freeObjectEPv@plt
 531      E7800000 
 532              	.LVL97:
  43:src/main.cpp  ****     newObj->freeObject(i0);
 533              		.loc 1 43 5 is_stmt 1 discriminator 3
 534              		.loc 1 43 23 is_stmt 0 discriminator 3
 535 0480 93850900 		mv	a1,s3
 536 0484 13850400 		mv	a0,s1
 537 0488 97000000 		call	_ZN16KObjectAllocator10freeObjectEPv@plt
 537      E7800000 
 538              	.LVL98:
  44:src/main.cpp  **** 
  45:src/main.cpp  ****     newObj->printInternalMemory();
 539              		.loc 1 45 5 is_stmt 1 discriminator 3
 540              		.loc 1 45 32 is_stmt 0 discriminator 3
 541 0490 13850400 		mv	a0,s1
 542 0494 97000000 		call	_ZN16KObjectAllocator19printInternalMemoryEv@plt
 542      E7800000 
 543              	.LVL99:
  46:src/main.cpp  **** 
  47:src/main.cpp  ****     printInteger(sizeof(int));
 544              		.loc 1 47 5 is_stmt 1 discriminator 3
 545              		.loc 1 47 17 is_stmt 0 discriminator 3
 546 049c 13054000 		li	a0,4
 547 04a0 97000000 		call	_Z12printIntegerm@plt
 547      E7800000 
 548              	.LVL100:
  48:src/main.cpp  **** 
  49:src/main.cpp  ****     delete newObj;
 549              		.loc 1 49 5 is_stmt 1 discriminator 3
 550              		.loc 1 49 18 is_stmt 0 discriminator 3
 551 04a8 638C0400 		beqz	s1,.L6
 552              	.LVL101:
 553              	.LBB28:
 554              	.LBB29:
  17:src/../h/kObjectAllocator.hpp ****     }
  18:src/../h/kObjectAllocator.hpp ****     void operator delete(void* p) {
  19:src/../h/kObjectAllocator.hpp ****         MemoryAllocator::instance()->kmem_free(p);
 555              		.loc 2 19 9 is_stmt 1 discriminator 1
 556              		.loc 2 19 47 is_stmt 0 discriminator 1
 557 04ac 97000000 		call	_ZN15MemoryAllocator8instanceEv@plt
GAS LISTING /tmp/ccCcKt8h.s 			page 14


 557      E7800000 
 558              	.LVL102:
 559 04b4 93850400 		mv	a1,s1
 560 04b8 97000000 		call	_ZN15MemoryAllocator9kmem_freeEPv@plt
 560      E7800000 
 561              	.LVL103:
 562              	.L6:
 563              	.LBE29:
 564              	.LBE28:
  50:src/main.cpp  **** 
  51:src/main.cpp  ****     printString("\nMemory tests:\n");
 565              		.loc 1 51 5 is_stmt 1
 566              		.loc 1 51 16 is_stmt 0
 567 04c0 17050000 		lla	a0,.LC2
 567      13050500 
 568 04c8 97000000 		call	_Z11printStringPKc@plt
 568      E7800000 
 569              	.LVL104:
  52:src/main.cpp  ****     MemoryAllocatorTest t1;
 570              		.loc 1 52 5 is_stmt 1
  53:src/main.cpp  ****     t1.runTests();
 571              		.loc 1 53 5
 572              		.loc 1 53 16 is_stmt 0
 573 04d0 130584F8 		addi	a0,s0,-120
 574 04d4 97000000 		call	_ZN19MemoryAllocatorTest8runTestsEv@plt
 574      E7800000 
 575              	.LVL105:
 576              	.LEHE2:
  54:src/main.cpp  **** 
  55:src/main.cpp  **** 
  56:src/main.cpp  ****     return 0;
 577              		.loc 1 56 5 is_stmt 1
  57:src/main.cpp  **** }...
 578              		.loc 1 57 1 is_stmt 0
 579 04dc 13050000 		li	a0,0
 580 04e0 83308109 		ld	ra,152(sp)
 581              		.cfi_remember_state
 582              		.cfi_restore 1
 583 04e4 03340109 		ld	s0,144(sp)
 584              		.cfi_restore 8
 585              		.cfi_def_cfa 2, 160
 586              	.LVL106:
 587 04e8 83348108 		ld	s1,136(sp)
 588              		.cfi_restore 9
 589              	.LVL107:
 590 04ec 03390108 		ld	s2,128(sp)
 591              		.cfi_restore 18
 592 04f0 83398107 		ld	s3,120(sp)
 593              		.cfi_restore 19
 594              	.LVL108:
 595 04f4 033A0107 		ld	s4,112(sp)
 596              		.cfi_restore 20
 597              	.LVL109:
 598 04f8 833A8106 		ld	s5,104(sp)
 599              		.cfi_restore 21
 600              	.LVL110:
 601 04fc 033B0106 		ld	s6,96(sp)
GAS LISTING /tmp/ccCcKt8h.s 			page 15


 602              		.cfi_restore 22
 603 0500 833B8105 		ld	s7,88(sp)
 604              		.cfi_restore 23
 605              	.LVL111:
 606 0504 033C0105 		ld	s8,80(sp)
 607              		.cfi_restore 24
 608              	.LVL112:
 609 0508 833C8104 		ld	s9,72(sp)
 610              		.cfi_restore 25
 611              	.LVL113:
 612 050c 033D0104 		ld	s10,64(sp)
 613              		.cfi_restore 26
 614              	.LVL114:
 615 0510 833D8103 		ld	s11,56(sp)
 616              		.cfi_restore 27
 617              	.LVL115:
 618 0514 1301010A 		addi	sp,sp,160
 619              		.cfi_def_cfa_offset 0
 620              	.LVL116:
 621 0518 67800000 		jr	ra
 622              	.LVL117:
 623              	.L8:
 624              		.cfi_restore_state
 625 051c 13090500 		mv	s2,a0
 626              	.LVL118:
 627              	.LBB30:
 628              	.LBB31:
 629              		.loc 2 19 9 is_stmt 1
 630              		.loc 2 19 47 is_stmt 0
 631 0520 97000000 		call	_ZN15MemoryAllocator8instanceEv@plt
 631      E7800000 
 632              	.LVL119:
 633 0528 93850400 		mv	a1,s1
 634 052c 97000000 		call	_ZN15MemoryAllocator9kmem_freeEPv@plt
 634      E7800000 
 635              	.LVL120:
 636 0534 13050900 		mv	a0,s2
 637              	.LEHB3:
 638 0538 97000000 		call	_Unwind_Resume@plt
 638      E7800000 
 639              	.LVL121:
 640              	.LEHE3:
 641              	.LBE31:
 642              	.LBE30:
 643              		.cfi_endproc
 644              	.LFE8:
 645              		.globl	__gxx_personality_v0
 646              		.section	.gcc_except_table,"a",@progbits
 647              	.LLSDA8:
 648 0000 FF       		.byte	0xff
 649 0001 FF       		.byte	0xff
 650 0002 03       		.byte	0x3
 651 0003 34       		.byte	0x34
 652 0004 00000000 		.4byte	.LEHB0-.LFB8
 653 0008 00000000 		.4byte	.LEHE0-.LEHB0
 654 000c 00000000 		.4byte	0
 655 0010 00       		.byte	0
GAS LISTING /tmp/ccCcKt8h.s 			page 16


 656 0011 00000000 		.4byte	.LEHB1-.LFB8
 657 0015 00000000 		.4byte	.LEHE1-.LEHB1
 658 0019 00000000 		.4byte	.L8-.LFB8
 659 001d 00       		.byte	0
 660 001e 00000000 		.4byte	.LEHB2-.LFB8
 661 0022 00000000 		.4byte	.LEHE2-.LEHB2
 662 0026 00000000 		.4byte	0
 663 002a 00       		.byte	0
 664 002b 00000000 		.4byte	.LEHB3-.LFB8
 665 002f 00000000 		.4byte	.LEHE3-.LEHB3
 666 0033 00000000 		.4byte	0
 667 0037 00       		.byte	0
 668              		.text
 670              	.Letext0:
 671              		.file 3 "src/../h/../lib/hw.h"
 672              		.file 4 "src/../h/memoryAllocator.hpp"
 673              		.file 5 "src/../h/memoryAllocatorTest.hpp"
 674              		.file 6 "src/../h/print.hpp"
 3667              		.align	3
 3670              	DW.ref.__gxx_personality_v0:
 3671 0000 00000000 		.dword	__gxx_personality_v0
 3671      00000000 
 3672              		.ident	"GCC: (Ubuntu 9.4.0-1ubuntu1~20.04) 9.4.0"
 3673              		.section	.note.GNU-stack,"",@progbits
GAS LISTING /tmp/ccCcKt8h.s 			page 17


DEFINED SYMBOLS
                            *ABS*:0000000000000000 main.cpp
     /tmp/ccCcKt8h.s:20     .text:0000000000000000 main
     /tmp/ccCcKt8h.s:24     .text:0000000000000000 .L0 
     /tmp/ccCcKt8h.s:3670   .data.rel.local.DW.ref.__gxx_personality_v0:0000000000000000 DW.ref.__gxx_personality_v0
     /tmp/ccCcKt8h.s:27     .text:0000000000000000 .L0 
     /tmp/ccCcKt8h.s:28     .text:0000000000000004 .L0 
     /tmp/ccCcKt8h.s:42     .text:0000000000000038 .L0 
     /tmp/ccCcKt8h.s:43     .text:0000000000000038 .L0 
     /tmp/ccCcKt8h.s:44     .text:0000000000000038 .L0 
     /tmp/ccCcKt8h.s:45     .text:0000000000000038 .L0 
     /tmp/ccCcKt8h.s:46     .text:0000000000000038 .L0 
     /tmp/ccCcKt8h.s:47     .text:0000000000000038 .L0 
     /tmp/ccCcKt8h.s:48     .text:0000000000000038 .L0 
     /tmp/ccCcKt8h.s:49     .text:0000000000000038 .L0 
     /tmp/ccCcKt8h.s:50     .text:0000000000000038 .L0 
     /tmp/ccCcKt8h.s:51     .text:0000000000000038 .L0 
     /tmp/ccCcKt8h.s:52     .text:0000000000000038 .L0 
     /tmp/ccCcKt8h.s:53     .text:0000000000000038 .L0 
     /tmp/ccCcKt8h.s:54     .text:0000000000000038 .L0 
     /tmp/ccCcKt8h.s:56     .text:000000000000003c .L0 
     /tmp/ccCcKt8h.s:59     .text:000000000000003c .L0 
     /tmp/ccCcKt8h.s:60     .text:000000000000003c .L0 
     /tmp/ccCcKt8h.s:69     .text:0000000000000058 .L0 
     /tmp/ccCcKt8h.s:73     .text:000000000000005c .L0 
     /tmp/ccCcKt8h.s:76     .text:0000000000000064 .L0 
     /tmp/ccCcKt8h.s:77     .text:0000000000000064 .L0 
     /tmp/ccCcKt8h.s:80     .text:000000000000006c .L0 
     /tmp/ccCcKt8h.s:83     .text:0000000000000074 .L0 
     /tmp/ccCcKt8h.s:90     .text:000000000000007c .L0 
     /tmp/ccCcKt8h.s:91     .text:000000000000007c .L0 
     /tmp/ccCcKt8h.s:100    .text:0000000000000090 .L0 
     /tmp/ccCcKt8h.s:101    .text:0000000000000090 .L0 
     /tmp/ccCcKt8h.s:102    .text:0000000000000090 .L0 
     /tmp/ccCcKt8h.s:115    .text:00000000000000a8 .L0 
     /tmp/ccCcKt8h.s:124    .text:00000000000000c0 .L0 
     /tmp/ccCcKt8h.s:125    .text:00000000000000c0 .L0 
     /tmp/ccCcKt8h.s:128    .text:00000000000000c8 .L0 
     /tmp/ccCcKt8h.s:130    .text:00000000000000cc .L0 
     /tmp/ccCcKt8h.s:132    .text:00000000000000d0 .L0 
     /tmp/ccCcKt8h.s:137    .text:00000000000000dc .L0 
     /tmp/ccCcKt8h.s:139    .text:00000000000000e0 .L0 
     /tmp/ccCcKt8h.s:140    .text:00000000000000e0 .L0 
     /tmp/ccCcKt8h.s:142    .text:00000000000000e4 .L0 
     /tmp/ccCcKt8h.s:144    .text:00000000000000e8 .L0 
     /tmp/ccCcKt8h.s:148    .text:00000000000000ec .L0 
     /tmp/ccCcKt8h.s:149    .text:00000000000000ec .L0 
     /tmp/ccCcKt8h.s:153    .text:00000000000000f0 .L0 
     /tmp/ccCcKt8h.s:154    .text:00000000000000f0 .L0 
     /tmp/ccCcKt8h.s:156    .text:00000000000000f4 .L0 
     /tmp/ccCcKt8h.s:158    .text:00000000000000f8 .L0 
     /tmp/ccCcKt8h.s:159    .text:00000000000000f8 .L0 
     /tmp/ccCcKt8h.s:162    .text:00000000000000fc .L0 
     /tmp/ccCcKt8h.s:164    .text:0000000000000100 .L0 
     /tmp/ccCcKt8h.s:166    .text:0000000000000104 .L0 
     /tmp/ccCcKt8h.s:169    .text:0000000000000108 .L0 
     /tmp/ccCcKt8h.s:177    .text:000000000000010c .L0 
GAS LISTING /tmp/ccCcKt8h.s 			page 18


     /tmp/ccCcKt8h.s:178    .text:000000000000010c .L0 
     /tmp/ccCcKt8h.s:185    .text:000000000000011c .L0 
     /tmp/ccCcKt8h.s:186    .text:000000000000011c .L0 
     /tmp/ccCcKt8h.s:193    .text:000000000000012c .L0 
     /tmp/ccCcKt8h.s:194    .text:000000000000012c .L0 
     /tmp/ccCcKt8h.s:201    .text:000000000000013c .L0 
     /tmp/ccCcKt8h.s:202    .text:000000000000013c .L0 
     /tmp/ccCcKt8h.s:209    .text:000000000000014c .L0 
     /tmp/ccCcKt8h.s:210    .text:000000000000014c .L0 
     /tmp/ccCcKt8h.s:217    .text:000000000000015c .L0 
     /tmp/ccCcKt8h.s:218    .text:000000000000015c .L0 
     /tmp/ccCcKt8h.s:225    .text:000000000000016c .L0 
     /tmp/ccCcKt8h.s:226    .text:000000000000016c .L0 
     /tmp/ccCcKt8h.s:233    .text:000000000000017c .L0 
     /tmp/ccCcKt8h.s:234    .text:000000000000017c .L0 
     /tmp/ccCcKt8h.s:241    .text:000000000000018c .L0 
     /tmp/ccCcKt8h.s:242    .text:000000000000018c .L0 
     /tmp/ccCcKt8h.s:249    .text:000000000000019c .L0 
     /tmp/ccCcKt8h.s:250    .text:000000000000019c .L0 
     /tmp/ccCcKt8h.s:257    .text:00000000000001ac .L0 
     /tmp/ccCcKt8h.s:258    .text:00000000000001ac .L0 
     /tmp/ccCcKt8h.s:265    .text:00000000000001bc .L0 
     /tmp/ccCcKt8h.s:266    .text:00000000000001bc .L0 
     /tmp/ccCcKt8h.s:273    .text:00000000000001cc .L0 
     /tmp/ccCcKt8h.s:274    .text:00000000000001cc .L0 
     /tmp/ccCcKt8h.s:281    .text:00000000000001dc .L0 
     /tmp/ccCcKt8h.s:282    .text:00000000000001dc .L0 
     /tmp/ccCcKt8h.s:285    .text:00000000000001e4 .L0 
     /tmp/ccCcKt8h.s:286    .text:00000000000001e4 .L0 
     /tmp/ccCcKt8h.s:291    .text:00000000000001f4 .L0 
     /tmp/ccCcKt8h.s:292    .text:00000000000001f4 .L0 
     /tmp/ccCcKt8h.s:296    .text:0000000000000200 .L0 
     /tmp/ccCcKt8h.s:297    .text:0000000000000200 .L0 
     /tmp/ccCcKt8h.s:301    .text:0000000000000210 .L0 
     /tmp/ccCcKt8h.s:302    .text:0000000000000210 .L0 
     /tmp/ccCcKt8h.s:304    .text:0000000000000214 .L0 
     /tmp/ccCcKt8h.s:305    .text:0000000000000214 .L0 
     /tmp/ccCcKt8h.s:309    .text:0000000000000224 .L0 
     /tmp/ccCcKt8h.s:310    .text:0000000000000224 .L0 
     /tmp/ccCcKt8h.s:314    .text:0000000000000230 .L0 
     /tmp/ccCcKt8h.s:315    .text:0000000000000230 .L0 
     /tmp/ccCcKt8h.s:319    .text:0000000000000240 .L0 
     /tmp/ccCcKt8h.s:320    .text:0000000000000240 .L0 
     /tmp/ccCcKt8h.s:322    .text:0000000000000244 .L0 
     /tmp/ccCcKt8h.s:323    .text:0000000000000244 .L0 
     /tmp/ccCcKt8h.s:327    .text:0000000000000254 .L0 
     /tmp/ccCcKt8h.s:328    .text:0000000000000254 .L0 
     /tmp/ccCcKt8h.s:332    .text:0000000000000260 .L0 
     /tmp/ccCcKt8h.s:333    .text:0000000000000260 .L0 
     /tmp/ccCcKt8h.s:337    .text:0000000000000270 .L0 
     /tmp/ccCcKt8h.s:338    .text:0000000000000270 .L0 
     /tmp/ccCcKt8h.s:340    .text:0000000000000274 .L0 
     /tmp/ccCcKt8h.s:341    .text:0000000000000274 .L0 
     /tmp/ccCcKt8h.s:345    .text:0000000000000284 .L0 
     /tmp/ccCcKt8h.s:346    .text:0000000000000284 .L0 
     /tmp/ccCcKt8h.s:350    .text:0000000000000290 .L0 
     /tmp/ccCcKt8h.s:351    .text:0000000000000290 .L0 
GAS LISTING /tmp/ccCcKt8h.s 			page 19


     /tmp/ccCcKt8h.s:355    .text:00000000000002a0 .L0 
     /tmp/ccCcKt8h.s:356    .text:00000000000002a0 .L0 
     /tmp/ccCcKt8h.s:358    .text:00000000000002a4 .L0 
     /tmp/ccCcKt8h.s:359    .text:00000000000002a4 .L0 
     /tmp/ccCcKt8h.s:363    .text:00000000000002b4 .L0 
     /tmp/ccCcKt8h.s:364    .text:00000000000002b4 .L0 
     /tmp/ccCcKt8h.s:368    .text:00000000000002c0 .L0 
     /tmp/ccCcKt8h.s:369    .text:00000000000002c0 .L0 
     /tmp/ccCcKt8h.s:373    .text:00000000000002d0 .L0 
     /tmp/ccCcKt8h.s:374    .text:00000000000002d0 .L0 
     /tmp/ccCcKt8h.s:376    .text:00000000000002d4 .L0 
     /tmp/ccCcKt8h.s:377    .text:00000000000002d4 .L0 
     /tmp/ccCcKt8h.s:381    .text:00000000000002e4 .L0 
     /tmp/ccCcKt8h.s:382    .text:00000000000002e4 .L0 
     /tmp/ccCcKt8h.s:386    .text:00000000000002f0 .L0 
     /tmp/ccCcKt8h.s:387    .text:00000000000002f0 .L0 
     /tmp/ccCcKt8h.s:391    .text:0000000000000300 .L0 
     /tmp/ccCcKt8h.s:392    .text:0000000000000300 .L0 
     /tmp/ccCcKt8h.s:394    .text:0000000000000304 .L0 
     /tmp/ccCcKt8h.s:395    .text:0000000000000304 .L0 
     /tmp/ccCcKt8h.s:399    .text:0000000000000314 .L0 
     /tmp/ccCcKt8h.s:400    .text:0000000000000314 .L0 
     /tmp/ccCcKt8h.s:404    .text:0000000000000320 .L0 
     /tmp/ccCcKt8h.s:405    .text:0000000000000320 .L0 
     /tmp/ccCcKt8h.s:409    .text:0000000000000330 .L0 
     /tmp/ccCcKt8h.s:410    .text:0000000000000330 .L0 
     /tmp/ccCcKt8h.s:412    .text:0000000000000334 .L0 
     /tmp/ccCcKt8h.s:413    .text:0000000000000334 .L0 
     /tmp/ccCcKt8h.s:417    .text:0000000000000344 .L0 
     /tmp/ccCcKt8h.s:418    .text:0000000000000344 .L0 
     /tmp/ccCcKt8h.s:422    .text:0000000000000350 .L0 
     /tmp/ccCcKt8h.s:423    .text:0000000000000350 .L0 
     /tmp/ccCcKt8h.s:427    .text:0000000000000360 .L0 
     /tmp/ccCcKt8h.s:428    .text:0000000000000360 .L0 
     /tmp/ccCcKt8h.s:430    .text:0000000000000364 .L0 
     /tmp/ccCcKt8h.s:431    .text:0000000000000364 .L0 
     /tmp/ccCcKt8h.s:435    .text:0000000000000374 .L0 
     /tmp/ccCcKt8h.s:436    .text:0000000000000374 .L0 
     /tmp/ccCcKt8h.s:440    .text:0000000000000380 .L0 
     /tmp/ccCcKt8h.s:441    .text:0000000000000380 .L0 
     /tmp/ccCcKt8h.s:445    .text:0000000000000390 .L0 
     /tmp/ccCcKt8h.s:446    .text:0000000000000390 .L0 
     /tmp/ccCcKt8h.s:450    .text:0000000000000398 .L0 
     /tmp/ccCcKt8h.s:451    .text:0000000000000398 .L0 
     /tmp/ccCcKt8h.s:455    .text:00000000000003a8 .L0 
     /tmp/ccCcKt8h.s:456    .text:00000000000003a8 .L0 
     /tmp/ccCcKt8h.s:460    .text:00000000000003b4 .L0 
     /tmp/ccCcKt8h.s:461    .text:00000000000003b4 .L0 
     /tmp/ccCcKt8h.s:465    .text:00000000000003c4 .L0 
     /tmp/ccCcKt8h.s:466    .text:00000000000003c4 .L0 
     /tmp/ccCcKt8h.s:469    .text:00000000000003cc .L0 
     /tmp/ccCcKt8h.s:470    .text:00000000000003cc .L0 
     /tmp/ccCcKt8h.s:474    .text:00000000000003dc .L0 
     /tmp/ccCcKt8h.s:475    .text:00000000000003dc .L0 
     /tmp/ccCcKt8h.s:479    .text:00000000000003e8 .L0 
     /tmp/ccCcKt8h.s:480    .text:00000000000003e8 .L0 
     /tmp/ccCcKt8h.s:484    .text:00000000000003f8 .L0 
GAS LISTING /tmp/ccCcKt8h.s 			page 20


     /tmp/ccCcKt8h.s:485    .text:00000000000003f8 .L0 
     /tmp/ccCcKt8h.s:488    .text:0000000000000400 .L0 
     /tmp/ccCcKt8h.s:489    .text:0000000000000400 .L0 
     /tmp/ccCcKt8h.s:493    .text:0000000000000410 .L0 
     /tmp/ccCcKt8h.s:494    .text:0000000000000410 .L0 
     /tmp/ccCcKt8h.s:498    .text:000000000000041c .L0 
     /tmp/ccCcKt8h.s:499    .text:000000000000041c .L0 
     /tmp/ccCcKt8h.s:503    .text:000000000000042c .L0 
     /tmp/ccCcKt8h.s:504    .text:000000000000042c .L0 
     /tmp/ccCcKt8h.s:507    .text:0000000000000434 .L0 
     /tmp/ccCcKt8h.s:508    .text:0000000000000434 .L0 
     /tmp/ccCcKt8h.s:512    .text:0000000000000444 .L0 
     /tmp/ccCcKt8h.s:513    .text:0000000000000444 .L0 
     /tmp/ccCcKt8h.s:517    .text:0000000000000450 .L0 
     /tmp/ccCcKt8h.s:518    .text:0000000000000450 .L0 
     /tmp/ccCcKt8h.s:522    .text:0000000000000460 .L0 
     /tmp/ccCcKt8h.s:523    .text:0000000000000460 .L0 
     /tmp/ccCcKt8h.s:528    .text:0000000000000470 .L0 
     /tmp/ccCcKt8h.s:529    .text:0000000000000470 .L0 
     /tmp/ccCcKt8h.s:534    .text:0000000000000480 .L0 
     /tmp/ccCcKt8h.s:535    .text:0000000000000480 .L0 
     /tmp/ccCcKt8h.s:540    .text:0000000000000490 .L0 
     /tmp/ccCcKt8h.s:541    .text:0000000000000490 .L0 
     /tmp/ccCcKt8h.s:545    .text:000000000000049c .L0 
     /tmp/ccCcKt8h.s:546    .text:000000000000049c .L0 
     /tmp/ccCcKt8h.s:550    .text:00000000000004a8 .L0 
     /tmp/ccCcKt8h.s:551    .text:00000000000004a8 .L0 
     /tmp/ccCcKt8h.s:556    .text:00000000000004ac .L0 
     /tmp/ccCcKt8h.s:557    .text:00000000000004ac .L0 
     /tmp/ccCcKt8h.s:566    .text:00000000000004c0 .L0 
     /tmp/ccCcKt8h.s:567    .text:00000000000004c0 .L0 
     /tmp/ccCcKt8h.s:571    .text:00000000000004d0 .L0 
     /tmp/ccCcKt8h.s:572    .text:00000000000004d0 .L0 
     /tmp/ccCcKt8h.s:573    .text:00000000000004d0 .L0 
     /tmp/ccCcKt8h.s:578    .text:00000000000004dc .L0 
     /tmp/ccCcKt8h.s:579    .text:00000000000004dc .L0 
     /tmp/ccCcKt8h.s:581    .text:00000000000004e4 .L0 
     /tmp/ccCcKt8h.s:582    .text:00000000000004e4 .L0 
     /tmp/ccCcKt8h.s:584    .text:00000000000004e8 .L0 
     /tmp/ccCcKt8h.s:585    .text:00000000000004e8 .L0 
     /tmp/ccCcKt8h.s:588    .text:00000000000004ec .L0 
     /tmp/ccCcKt8h.s:591    .text:00000000000004f0 .L0 
     /tmp/ccCcKt8h.s:593    .text:00000000000004f4 .L0 
     /tmp/ccCcKt8h.s:596    .text:00000000000004f8 .L0 
     /tmp/ccCcKt8h.s:599    .text:00000000000004fc .L0 
     /tmp/ccCcKt8h.s:602    .text:0000000000000500 .L0 
     /tmp/ccCcKt8h.s:604    .text:0000000000000504 .L0 
     /tmp/ccCcKt8h.s:607    .text:0000000000000508 .L0 
     /tmp/ccCcKt8h.s:610    .text:000000000000050c .L0 
     /tmp/ccCcKt8h.s:613    .text:0000000000000510 .L0 
     /tmp/ccCcKt8h.s:616    .text:0000000000000514 .L0 
     /tmp/ccCcKt8h.s:619    .text:0000000000000518 .L0 
     /tmp/ccCcKt8h.s:624    .text:000000000000051c .L0 
     /tmp/ccCcKt8h.s:630    .text:0000000000000520 .L0 
     /tmp/ccCcKt8h.s:631    .text:0000000000000520 .L0 
     /tmp/ccCcKt8h.s:643    .text:0000000000000540 .L0 
     /tmp/ccCcKt8h.s:675    .text:0000000000000540 .L0 
GAS LISTING /tmp/ccCcKt8h.s 			page 21


     /tmp/ccCcKt8h.s:8      .rodata.str1.8:0000000000000000 .LC0
     /tmp/ccCcKt8h.s:286    .text:00000000000001e4 .L0 
     /tmp/ccCcKt8h.s:11     .rodata.str1.8:0000000000000008 .LC1
     /tmp/ccCcKt8h.s:297    .text:0000000000000200 .L0 
     /tmp/ccCcKt8h.s:305    .text:0000000000000214 .L0 
     /tmp/ccCcKt8h.s:315    .text:0000000000000230 .L0 
     /tmp/ccCcKt8h.s:323    .text:0000000000000244 .L0 
     /tmp/ccCcKt8h.s:333    .text:0000000000000260 .L0 
     /tmp/ccCcKt8h.s:341    .text:0000000000000274 .L0 
     /tmp/ccCcKt8h.s:351    .text:0000000000000290 .L0 
     /tmp/ccCcKt8h.s:359    .text:00000000000002a4 .L0 
     /tmp/ccCcKt8h.s:369    .text:00000000000002c0 .L0 
     /tmp/ccCcKt8h.s:377    .text:00000000000002d4 .L0 
     /tmp/ccCcKt8h.s:387    .text:00000000000002f0 .L0 
     /tmp/ccCcKt8h.s:395    .text:0000000000000304 .L0 
     /tmp/ccCcKt8h.s:405    .text:0000000000000320 .L0 
     /tmp/ccCcKt8h.s:413    .text:0000000000000334 .L0 
     /tmp/ccCcKt8h.s:423    .text:0000000000000350 .L0 
     /tmp/ccCcKt8h.s:431    .text:0000000000000364 .L0 
     /tmp/ccCcKt8h.s:441    .text:0000000000000380 .L0 
     /tmp/ccCcKt8h.s:451    .text:0000000000000398 .L0 
     /tmp/ccCcKt8h.s:461    .text:00000000000003b4 .L0 
     /tmp/ccCcKt8h.s:470    .text:00000000000003cc .L0 
     /tmp/ccCcKt8h.s:480    .text:00000000000003e8 .L0 
     /tmp/ccCcKt8h.s:489    .text:0000000000000400 .L0 
     /tmp/ccCcKt8h.s:499    .text:000000000000041c .L0 
     /tmp/ccCcKt8h.s:508    .text:0000000000000434 .L0 
     /tmp/ccCcKt8h.s:518    .text:0000000000000450 .L0 
     /tmp/ccCcKt8h.s:14     .rodata.str1.8:0000000000000010 .LC2
     /tmp/ccCcKt8h.s:567    .text:00000000000004c0 .L0 
     /tmp/ccCcKt8h.s:87     .text:000000000000007c .L2
     /tmp/ccCcKt8h.s:70     .text:000000000000005c .L3
     /tmp/ccCcKt8h.s:170    .text:000000000000010c .L4
     /tmp/ccCcKt8h.s:151    .text:00000000000000f0 .L5
     /tmp/ccCcKt8h.s:562    .text:00000000000004c0 .L6
     /tmp/ccCcKt8h.s:58     .text:000000000000003c .LEHB0
     /tmp/ccCcKt8h.s:21     .text:0000000000000000 .LFB8
     /tmp/ccCcKt8h.s:107    .text:00000000000000a4 .LEHE0
     /tmp/ccCcKt8h.s:123    .text:00000000000000c0 .LEHB1
     /tmp/ccCcKt8h.s:135    .text:00000000000000dc .LEHE1
     /tmp/ccCcKt8h.s:623    .text:000000000000051c .L8
     /tmp/ccCcKt8h.s:179    .text:0000000000000110 .LEHB2
     /tmp/ccCcKt8h.s:576    .text:00000000000004dc .LEHE2
     /tmp/ccCcKt8h.s:637    .text:0000000000000538 .LEHB3
     /tmp/ccCcKt8h.s:640    .text:0000000000000540 .LEHE3
     /tmp/ccCcKt8h.s:2353   .debug_abbrev:0000000000000000 .Ldebug_abbrev0
     /tmp/ccCcKt8h.s:3620   .debug_str:0000000000000778 .LASF99
     /tmp/ccCcKt8h.s:3534   .debug_str:0000000000000391 .LASF100
     /tmp/ccCcKt8h.s:3588   .debug_str:00000000000005c8 .LASF101
     /tmp/ccCcKt8h.s:5      .text:0000000000000000 .Ltext0
     /tmp/ccCcKt8h.s:670    .text:0000000000000540 .Letext0
     /tmp/ccCcKt8h.s:3444   .debug_line:0000000000000000 .Ldebug_line0
     /tmp/ccCcKt8h.s:3562   .debug_str:0000000000000485 .LASF0
     /tmp/ccCcKt8h.s:3572   .debug_str:00000000000004e0 .LASF1
     /tmp/ccCcKt8h.s:3546   .debug_str:00000000000003f4 .LASF2
     /tmp/ccCcKt8h.s:3494   .debug_str:000000000000021d .LASF3
     /tmp/ccCcKt8h.s:3524   .debug_str:0000000000000323 .LASF4
GAS LISTING /tmp/ccCcKt8h.s 			page 22


     /tmp/ccCcKt8h.s:3604   .debug_str:00000000000006db .LASF5
     /tmp/ccCcKt8h.s:3466   .debug_str:00000000000000dd .LASF6
     /tmp/ccCcKt8h.s:3574   .debug_str:00000000000004f3 .LASF7
     /tmp/ccCcKt8h.s:3560   .debug_str:0000000000000472 .LASF8
     /tmp/ccCcKt8h.s:3634   .debug_str:00000000000008c4 .LASF9
     /tmp/ccCcKt8h.s:3512   .debug_str:00000000000002ad .LASF10
     /tmp/ccCcKt8h.s:3582   .debug_str:0000000000000587 .LASF11
     /tmp/ccCcKt8h.s:3624   .debug_str:000000000000085c .LASF12
     /tmp/ccCcKt8h.s:3468   .debug_str:00000000000000e4 .LASF13
     /tmp/ccCcKt8h.s:3452   .debug_str:0000000000000050 .LASF14
     /tmp/ccCcKt8h.s:3480   .debug_str:0000000000000159 .LASF15
     /tmp/ccCcKt8h.s:3598   .debug_str:0000000000000694 .LASF16
     /tmp/ccCcKt8h.s:3492   .debug_str:0000000000000207 .LASF17
     /tmp/ccCcKt8h.s:3542   .debug_str:00000000000003d0 .LASF50
     /tmp/ccCcKt8h.s:3586   .debug_str:00000000000005b6 .LASF102
     /tmp/ccCcKt8h.s:3536   .debug_str:000000000000039e .LASF18
     /tmp/ccCcKt8h.s:3658   .debug_str:00000000000009f6 .LASF19
     /tmp/ccCcKt8h.s:3568   .debug_str:00000000000004c8 .LASF103
     /tmp/ccCcKt8h.s:3622   .debug_str:000000000000083c .LASF104
     /tmp/ccCcKt8h.s:3632   .debug_str:00000000000008ad .LASF36
     /tmp/ccCcKt8h.s:3482   .debug_str:0000000000000165 .LASF38
     /tmp/ccCcKt8h.s:3608   .debug_str:0000000000000703 .LASF24
     /tmp/ccCcKt8h.s:3576   .debug_str:0000000000000506 .LASF26
     /tmp/ccCcKt8h.s:3628   .debug_str:0000000000000895 .LASF20
     /tmp/ccCcKt8h.s:3596   .debug_str:0000000000000671 .LASF22
     /tmp/ccCcKt8h.s:3640   .debug_str:0000000000000903 .LASF21
     /tmp/ccCcKt8h.s:3458   .debug_str:000000000000007d .LASF23
     /tmp/ccCcKt8h.s:3600   .debug_str:00000000000006aa .LASF25
     /tmp/ccCcKt8h.s:3592   .debug_str:0000000000000604 .LASF27
     /tmp/ccCcKt8h.s:3472   .debug_str:000000000000010e .LASF28
     /tmp/ccCcKt8h.s:3486   .debug_str:00000000000001ba .LASF29
     /tmp/ccCcKt8h.s:3464   .debug_str:00000000000000d0 .LASF30
     /tmp/ccCcKt8h.s:3636   .debug_str:00000000000008d4 .LASF31
     /tmp/ccCcKt8h.s:3540   .debug_str:00000000000003c2 .LASF32
     /tmp/ccCcKt8h.s:3484   .debug_str:0000000000000194 .LASF33
     /tmp/ccCcKt8h.s:3642   .debug_str:000000000000090d .LASF34
     /tmp/ccCcKt8h.s:3522   .debug_str:00000000000002fc .LASF35
     /tmp/ccCcKt8h.s:3506   .debug_str:0000000000000287 .LASF37
     /tmp/ccCcKt8h.s:3526   .debug_str:000000000000032a .LASF39
     /tmp/ccCcKt8h.s:3462   .debug_str:00000000000000c3 .LASF40
     /tmp/ccCcKt8h.s:3644   .debug_str:000000000000091c .LASF41
     /tmp/ccCcKt8h.s:3606   .debug_str:00000000000006ed .LASF42
     /tmp/ccCcKt8h.s:3612   .debug_str:0000000000000725 .LASF43
     /tmp/ccCcKt8h.s:3590   .debug_str:00000000000005fb .LASF44
     /tmp/ccCcKt8h.s:3584   .debug_str:0000000000000596 .LASF45
     /tmp/ccCcKt8h.s:3638   .debug_str:00000000000008f9 .LASF46
     /tmp/ccCcKt8h.s:3532   .debug_str:0000000000000386 .LASF47
     /tmp/ccCcKt8h.s:3656   .debug_str:00000000000009ea .LASF48
     /tmp/ccCcKt8h.s:3450   .debug_str:0000000000000041 .LASF49
     /tmp/ccCcKt8h.s:3544   .debug_str:00000000000003e0 .LASF51
     /tmp/ccCcKt8h.s:3496   .debug_str:0000000000000223 .LASF52
     /tmp/ccCcKt8h.s:3460   .debug_str:000000000000009f .LASF53
     /tmp/ccCcKt8h.s:3474   .debug_str:0000000000000126 .LASF54
     /tmp/ccCcKt8h.s:3652   .debug_str:00000000000009a5 .LASF55
     /tmp/ccCcKt8h.s:3570   .debug_str:00000000000004d1 .LASF56
     /tmp/ccCcKt8h.s:3618   .debug_str:000000000000074b .LASF57
     /tmp/ccCcKt8h.s:3630   .debug_str:00000000000008a0 .LASF58
GAS LISTING /tmp/ccCcKt8h.s 			page 23


     /tmp/ccCcKt8h.s:3564   .debug_str:0000000000000492 .LASF59
     /tmp/ccCcKt8h.s:3548   .debug_str:0000000000000402 .LASF60
     /tmp/ccCcKt8h.s:3626   .debug_str:000000000000086b .LASF61
     /tmp/ccCcKt8h.s:3550   .debug_str:0000000000000410 .LASF62
     /tmp/ccCcKt8h.s:3528   .debug_str:0000000000000351 .LASF63
     /tmp/ccCcKt8h.s:3552   .debug_str:000000000000041e .LASF64
     /tmp/ccCcKt8h.s:3500   .debug_str:0000000000000251 .LASF65
     /tmp/ccCcKt8h.s:3566   .debug_str:00000000000004bb .LASF70
     /tmp/ccCcKt8h.s:3580   .debug_str:000000000000055b .LASF72
     /tmp/ccCcKt8h.s:3660   .debug_str:00000000000009fb .LASF66
     /tmp/ccCcKt8h.s:3594   .debug_str:000000000000063b .LASF67
     /tmp/ccCcKt8h.s:3478   .debug_str:000000000000013e .LASF68
     /tmp/ccCcKt8h.s:3648   .debug_str:0000000000000941 .LASF69
     /tmp/ccCcKt8h.s:3456   .debug_str:000000000000006c .LASF71
     /tmp/ccCcKt8h.s:3446   .debug_str:0000000000000000 .LASF73
     /tmp/ccCcKt8h.s:3502   .debug_str:000000000000027b .LASF74
     /tmp/ccCcKt8h.s:3514   .debug_str:00000000000002bb .LASF75
     /tmp/ccCcKt8h.s:3470   .debug_str:00000000000000f4 .LASF76
     /tmp/ccCcKt8h.s:3516   .debug_str:00000000000002cc .LASF77
     /tmp/ccCcKt8h.s:3556   .debug_str:000000000000043e .LASF78
     /tmp/ccCcKt8h.s:3610   .debug_str:0000000000000715 .LASF79
     /tmp/ccCcKt8h.s:3538   .debug_str:00000000000003a7 .LASF80
     /tmp/ccCcKt8h.s:3520   .debug_str:00000000000002e8 .LASF81
     /tmp/ccCcKt8h.s:3650   .debug_str:0000000000000978 .LASF82
     /tmp/ccCcKt8h.s:3602   .debug_str:00000000000006c9 .LASF83
     /tmp/ccCcKt8h.s:3578   .debug_str:0000000000000530 .LASF84
     /tmp/ccCcKt8h.s:3616   .debug_str:0000000000000740 .LASF85
     /tmp/ccCcKt8h.s:3498   .debug_str:000000000000022c .LASF86
     /tmp/ccCcKt8h.s:3530   .debug_str:000000000000037b .LASF87
     /tmp/ccCcKt8h.s:3448   .debug_str:000000000000002d .LASF88
     /tmp/ccCcKt8h.s:3662   .debug_str:0000000000000a15 .LASF89
     /tmp/ccCcKt8h.s:3646   .debug_str:0000000000000934 .LASF90
     /tmp/ccCcKt8h.s:3510   .debug_str:00000000000002a3 .LASF91
     /tmp/ccCcKt8h.s:3476   .debug_str:0000000000000139 .LASF92
     /tmp/ccCcKt8h.s:644    .text:0000000000000540 .LFE8
     /tmp/ccCcKt8h.s:3504   .debug_str:0000000000000280 .LASF93
     /tmp/ccCcKt8h.s:3157   .debug_loc:0000000000000000 .LLST0
     /tmp/ccCcKt8h.s:3164   .debug_loc:0000000000000023 .LLST1
     /tmp/ccCcKt8h.s:3175   .debug_loc:0000000000000059 .LLST2
     /tmp/ccCcKt8h.s:3186   .debug_loc:000000000000008f .LLST3
     /tmp/ccCcKt8h.s:3197   .debug_loc:00000000000000c5 .LLST4
     /tmp/ccCcKt8h.s:3208   .debug_loc:00000000000000fb .LLST5
     /tmp/ccCcKt8h.s:3219   .debug_loc:0000000000000131 .LLST6
     /tmp/ccCcKt8h.s:3230   .debug_loc:0000000000000167 .LLST7
     /tmp/ccCcKt8h.s:3241   .debug_loc:000000000000019d .LLST8
     /tmp/ccCcKt8h.s:3252   .debug_loc:00000000000001d3 .LLST9
     /tmp/ccCcKt8h.s:3263   .debug_loc:0000000000000209 .LLST10
     /tmp/ccCcKt8h.s:3285   .debug_loc:000000000000026a .LLST11
     /tmp/ccCcKt8h.s:3307   .debug_loc:00000000000002cb .LLST12
     /tmp/ccCcKt8h.s:3329   .debug_loc:000000000000032c .LLST13
     /tmp/ccCcKt8h.s:67     .text:0000000000000058 .LBB21
     /tmp/ccCcKt8h.s:88     .text:000000000000007c .LBE21
     /tmp/ccCcKt8h.s:3351   .debug_loc:000000000000038d .LLST14
     /tmp/ccCcKt8h.s:97     .text:0000000000000090 .LBB22
     /tmp/ccCcKt8h.s:111    .text:00000000000000a8 .LBE22
     /tmp/ccCcKt8h.s:3362   .debug_loc:00000000000003c3 .LLST15
     /tmp/ccCcKt8h.s:103    .text:0000000000000098 .LVL7
GAS LISTING /tmp/ccCcKt8h.s 			page 24


     /tmp/ccCcKt8h.s:106    .text:00000000000000a4 .LVL8
     /tmp/ccCcKt8h.s:112    .text:00000000000000a8 .LBB24
     /tmp/ccCcKt8h.s:175    .text:000000000000010c .LBE24
     /tmp/ccCcKt8h.s:3371   .debug_loc:00000000000003e8 .LLST16
     /tmp/ccCcKt8h.s:3384   .debug_loc:0000000000000420 .LLST17
     /tmp/ccCcKt8h.s:147    .text:00000000000000ec .LBB27
     /tmp/ccCcKt8h.s:172    .text:000000000000010c .LBE27
     /tmp/ccCcKt8h.s:3395   .debug_loc:0000000000000456 .LLST18
     /tmp/ccCcKt8h.s:126    .text:00000000000000c8 .LVL10
     /tmp/ccCcKt8h.s:134    .text:00000000000000dc .LVL11
     /tmp/ccCcKt8h.s:553    .text:00000000000004ac .LBB28
     /tmp/ccCcKt8h.s:564    .text:00000000000004c0 .LBE28
     /tmp/ccCcKt8h.s:3417   .debug_loc:00000000000004b5 .LLST19
     /tmp/ccCcKt8h.s:558    .text:00000000000004b4 .LVL102
     /tmp/ccCcKt8h.s:561    .text:00000000000004c0 .LVL103
     /tmp/ccCcKt8h.s:627    .text:0000000000000520 .LBB30
     /tmp/ccCcKt8h.s:642    .text:0000000000000540 .LBE30
     /tmp/ccCcKt8h.s:3424   .debug_loc:00000000000004d8 .LLST20
     /tmp/ccCcKt8h.s:632    .text:0000000000000528 .LVL119
     /tmp/ccCcKt8h.s:635    .text:0000000000000534 .LVL120
     /tmp/ccCcKt8h.s:61     .text:0000000000000044 .LVL0
     /tmp/ccCcKt8h.s:65     .text:0000000000000054 .LVL1
     /tmp/ccCcKt8h.s:92     .text:0000000000000084 .LVL5
     /tmp/ccCcKt8h.s:95     .text:0000000000000090 .LVL6
     /tmp/ccCcKt8h.s:181    .text:0000000000000118 .LVL17
     /tmp/ccCcKt8h.s:189    .text:0000000000000128 .LVL20
     /tmp/ccCcKt8h.s:197    .text:0000000000000138 .LVL23
     /tmp/ccCcKt8h.s:205    .text:0000000000000148 .LVL26
     /tmp/ccCcKt8h.s:213    .text:0000000000000158 .LVL29
     /tmp/ccCcKt8h.s:221    .text:0000000000000168 .LVL32
     /tmp/ccCcKt8h.s:229    .text:0000000000000178 .LVL35
     /tmp/ccCcKt8h.s:237    .text:0000000000000188 .LVL38
     /tmp/ccCcKt8h.s:245    .text:0000000000000198 .LVL41
     /tmp/ccCcKt8h.s:253    .text:00000000000001a8 .LVL44
     /tmp/ccCcKt8h.s:261    .text:00000000000001b8 .LVL47
     /tmp/ccCcKt8h.s:269    .text:00000000000001c8 .LVL50
     /tmp/ccCcKt8h.s:277    .text:00000000000001d8 .LVL53
     /tmp/ccCcKt8h.s:289    .text:00000000000001f4 .LVL56
     /tmp/ccCcKt8h.s:294    .text:0000000000000200 .LVL57
     /tmp/ccCcKt8h.s:299    .text:0000000000000210 .LVL58
     /tmp/ccCcKt8h.s:307    .text:0000000000000224 .LVL59
     /tmp/ccCcKt8h.s:312    .text:0000000000000230 .LVL60
     /tmp/ccCcKt8h.s:317    .text:0000000000000240 .LVL61
     /tmp/ccCcKt8h.s:325    .text:0000000000000254 .LVL62
     /tmp/ccCcKt8h.s:330    .text:0000000000000260 .LVL63
     /tmp/ccCcKt8h.s:335    .text:0000000000000270 .LVL64
     /tmp/ccCcKt8h.s:343    .text:0000000000000284 .LVL65
     /tmp/ccCcKt8h.s:348    .text:0000000000000290 .LVL66
     /tmp/ccCcKt8h.s:353    .text:00000000000002a0 .LVL67
     /tmp/ccCcKt8h.s:361    .text:00000000000002b4 .LVL68
     /tmp/ccCcKt8h.s:366    .text:00000000000002c0 .LVL69
     /tmp/ccCcKt8h.s:371    .text:00000000000002d0 .LVL70
     /tmp/ccCcKt8h.s:379    .text:00000000000002e4 .LVL71
     /tmp/ccCcKt8h.s:384    .text:00000000000002f0 .LVL72
     /tmp/ccCcKt8h.s:389    .text:0000000000000300 .LVL73
     /tmp/ccCcKt8h.s:397    .text:0000000000000314 .LVL74
     /tmp/ccCcKt8h.s:402    .text:0000000000000320 .LVL75
GAS LISTING /tmp/ccCcKt8h.s 			page 25


     /tmp/ccCcKt8h.s:407    .text:0000000000000330 .LVL76
     /tmp/ccCcKt8h.s:415    .text:0000000000000344 .LVL77
     /tmp/ccCcKt8h.s:420    .text:0000000000000350 .LVL78
     /tmp/ccCcKt8h.s:425    .text:0000000000000360 .LVL79
     /tmp/ccCcKt8h.s:433    .text:0000000000000374 .LVL80
     /tmp/ccCcKt8h.s:438    .text:0000000000000380 .LVL81
     /tmp/ccCcKt8h.s:443    .text:0000000000000390 .LVL82
     /tmp/ccCcKt8h.s:453    .text:00000000000003a8 .LVL84
     /tmp/ccCcKt8h.s:458    .text:00000000000003b4 .LVL85
     /tmp/ccCcKt8h.s:463    .text:00000000000003c4 .LVL86
     /tmp/ccCcKt8h.s:472    .text:00000000000003dc .LVL87
     /tmp/ccCcKt8h.s:477    .text:00000000000003e8 .LVL88
     /tmp/ccCcKt8h.s:482    .text:00000000000003f8 .LVL89
     /tmp/ccCcKt8h.s:491    .text:0000000000000410 .LVL90
     /tmp/ccCcKt8h.s:496    .text:000000000000041c .LVL91
     /tmp/ccCcKt8h.s:501    .text:000000000000042c .LVL92
     /tmp/ccCcKt8h.s:510    .text:0000000000000444 .LVL93
     /tmp/ccCcKt8h.s:515    .text:0000000000000450 .LVL94
     /tmp/ccCcKt8h.s:520    .text:0000000000000460 .LVL95
     /tmp/ccCcKt8h.s:526    .text:0000000000000470 .LVL96
     /tmp/ccCcKt8h.s:532    .text:0000000000000480 .LVL97
     /tmp/ccCcKt8h.s:538    .text:0000000000000490 .LVL98
     /tmp/ccCcKt8h.s:543    .text:000000000000049c .LVL99
     /tmp/ccCcKt8h.s:548    .text:00000000000004a8 .LVL100
     /tmp/ccCcKt8h.s:569    .text:00000000000004d0 .LVL104
     /tmp/ccCcKt8h.s:575    .text:00000000000004dc .LVL105
     /tmp/ccCcKt8h.s:639    .text:0000000000000540 .LVL121
     /tmp/ccCcKt8h.s:3614   .debug_str:000000000000073b .LASF94
     /tmp/ccCcKt8h.s:3490   .debug_str:0000000000000202 .LASF105
     /tmp/ccCcKt8h.s:3558   .debug_str:0000000000000458 .LASF106
     /tmp/ccCcKt8h.s:3654   .debug_str:00000000000009d7 .LASF95
     /tmp/ccCcKt8h.s:3454   .debug_str:0000000000000060 .LASF97
     /tmp/ccCcKt8h.s:3554   .debug_str:000000000000042c .LASF96
     /tmp/ccCcKt8h.s:3508   .debug_str:0000000000000296 .LASF98
     /tmp/ccCcKt8h.s:3518   .debug_str:00000000000002d9 .LASF107
     /tmp/ccCcKt8h.s:3488   .debug_str:00000000000001ea .LASF108
     /tmp/ccCcKt8h.s:171    .text:000000000000010c .LVL16
     /tmp/ccCcKt8h.s:589    .text:00000000000004ec .LVL107
     /tmp/ccCcKt8h.s:183    .text:000000000000011c .LVL18
     /tmp/ccCcKt8h.s:187    .text:0000000000000120 .LVL19
     /tmp/ccCcKt8h.s:594    .text:00000000000004f4 .LVL108
     /tmp/ccCcKt8h.s:191    .text:000000000000012c .LVL21
     /tmp/ccCcKt8h.s:195    .text:0000000000000130 .LVL22
     /tmp/ccCcKt8h.s:617    .text:0000000000000514 .LVL115
     /tmp/ccCcKt8h.s:199    .text:000000000000013c .LVL24
     /tmp/ccCcKt8h.s:203    .text:0000000000000140 .LVL25
     /tmp/ccCcKt8h.s:614    .text:0000000000000510 .LVL114
     /tmp/ccCcKt8h.s:207    .text:000000000000014c .LVL27
     /tmp/ccCcKt8h.s:211    .text:0000000000000150 .LVL28
     /tmp/ccCcKt8h.s:611    .text:000000000000050c .LVL113
     /tmp/ccCcKt8h.s:215    .text:000000000000015c .LVL30
     /tmp/ccCcKt8h.s:219    .text:0000000000000160 .LVL31
     /tmp/ccCcKt8h.s:608    .text:0000000000000508 .LVL112
     /tmp/ccCcKt8h.s:223    .text:000000000000016c .LVL33
     /tmp/ccCcKt8h.s:227    .text:0000000000000170 .LVL34
     /tmp/ccCcKt8h.s:605    .text:0000000000000504 .LVL111
     /tmp/ccCcKt8h.s:231    .text:000000000000017c .LVL36
GAS LISTING /tmp/ccCcKt8h.s 			page 26


     /tmp/ccCcKt8h.s:235    .text:0000000000000180 .LVL37
     /tmp/ccCcKt8h.s:447    .text:0000000000000394 .LVL83
     /tmp/ccCcKt8h.s:239    .text:000000000000018c .LVL39
     /tmp/ccCcKt8h.s:243    .text:0000000000000190 .LVL40
     /tmp/ccCcKt8h.s:600    .text:00000000000004fc .LVL110
     /tmp/ccCcKt8h.s:247    .text:000000000000019c .LVL42
     /tmp/ccCcKt8h.s:251    .text:00000000000001a0 .LVL43
     /tmp/ccCcKt8h.s:597    .text:00000000000004f8 .LVL109
     /tmp/ccCcKt8h.s:255    .text:00000000000001ac .LVL45
     /tmp/ccCcKt8h.s:259    .text:00000000000001b0 .LVL46
     /tmp/ccCcKt8h.s:586    .text:00000000000004e8 .LVL106
     /tmp/ccCcKt8h.s:620    .text:0000000000000518 .LVL116
     /tmp/ccCcKt8h.s:622    .text:000000000000051c .LVL117
     /tmp/ccCcKt8h.s:263    .text:00000000000001bc .LVL48
     /tmp/ccCcKt8h.s:267    .text:00000000000001c0 .LVL49
     /tmp/ccCcKt8h.s:271    .text:00000000000001cc .LVL51
     /tmp/ccCcKt8h.s:275    .text:00000000000001d0 .LVL52
     /tmp/ccCcKt8h.s:279    .text:00000000000001dc .LVL54
     /tmp/ccCcKt8h.s:287    .text:00000000000001ec .LVL55
     /tmp/ccCcKt8h.s:71     .text:000000000000005c .LVL2
     /tmp/ccCcKt8h.s:84     .text:0000000000000078 .LVL3
     /tmp/ccCcKt8h.s:86     .text:000000000000007c .LVL4
     /tmp/ccCcKt8h.s:109    .text:00000000000000a8 .LVL9
     /tmp/ccCcKt8h.s:146    .text:00000000000000ec .LVL12
     /tmp/ccCcKt8h.s:150    .text:00000000000000f0 .LVL13
     /tmp/ccCcKt8h.s:160    .text:00000000000000fc .LVL14
     /tmp/ccCcKt8h.s:167    .text:0000000000000108 .LVL15
     /tmp/ccCcKt8h.s:552    .text:00000000000004ac .LVL101
     /tmp/ccCcKt8h.s:626    .text:0000000000000520 .LVL118
     /tmp/ccCcKt8h.s:676    .debug_info:0000000000000000 .Ldebug_info0
     /tmp/ccCcKt8h.s:647    .gcc_except_table:0000000000000000 .LLSDA8

UNDEFINED SYMBOLS
_ZN15MemoryAllocator8instanceEv
_ZN15MemoryAllocator10kmem_allocEm
_ZN15MemoryAllocator9kmem_freeEPv
_ZN16KObjectAllocator17allocateNewObjectEv
_Z11printStringPKc
_Z12printIntegerm
_ZN16KObjectAllocator10freeObjectEPv
_ZN16KObjectAllocator19printInternalMemoryEv
_ZN19MemoryAllocatorTest8runTestsEv
_Unwind_Resume
__gxx_personality_v0
