GAS LISTING /tmp/ccRSzuj4.s 			page 1


   1              		.file	"main.cpp"
   2              		.option pic
   3              		.option norelax
   4              		.text
   5              	.Ltext0:
   6              		.section	.text._ZN16KObjectAllocatordlEPv,"axG",@progbits,_ZN16KObjectAllocatordlEPv,comdat
   7              		.align	2
   8              		.weak	_ZN16KObjectAllocatordlEPv
  10              	_ZN16KObjectAllocatordlEPv:
  11              	.LFB10:
  12              		.file 1 "src/../h/kObjectAllocator.hpp"
   1:src/../h/kObjectAllocator.hpp **** #ifndef KOBJECTALLOCATOR_HPP
   2:src/../h/kObjectAllocator.hpp **** #define KOBJECTALLOCATOR_HPP
   3:src/../h/kObjectAllocator.hpp **** 
   4:src/../h/kObjectAllocator.hpp **** #include "../h/memoryAllocator.hpp"
   5:src/../h/kObjectAllocator.hpp **** 
   6:src/../h/kObjectAllocator.hpp **** class KObjectAllocatorTest;
   7:src/../h/kObjectAllocator.hpp **** 
   8:src/../h/kObjectAllocator.hpp **** /*          ^
   9:src/../h/kObjectAllocator.hpp ****  *          |
  10:src/../h/kObjectAllocator.hpp ****  *          |
  11:src/../h/kObjectAllocator.hpp ****  *          |
  12:src/../h/kObjectAllocator.hpp ****  * DELETE THIS CLASS DECLARATION
  13:src/../h/kObjectAllocator.hpp ****  */
  14:src/../h/kObjectAllocator.hpp **** 
  15:src/../h/kObjectAllocator.hpp **** 
  16:src/../h/kObjectAllocator.hpp **** class KObjectAllocator {
  17:src/../h/kObjectAllocator.hpp **** public:
  18:src/../h/kObjectAllocator.hpp **** 
  19:src/../h/kObjectAllocator.hpp ****     /*
  20:src/../h/kObjectAllocator.hpp ****      *
  21:src/../h/kObjectAllocator.hpp ****      *
  22:src/../h/kObjectAllocator.hpp ****      *
  23:src/../h/kObjectAllocator.hpp ****      *
  24:src/../h/kObjectAllocator.hpp ****      *
  25:src/../h/kObjectAllocator.hpp ****      *
  26:src/../h/kObjectAllocator.hpp ****      *                      #####################################
  27:src/../h/kObjectAllocator.hpp ****      *                      #####################################
  28:src/../h/kObjectAllocator.hpp ****      *                      #####################################
  29:src/../h/kObjectAllocator.hpp ****      *                     ### NE SMEJU SE PREDATI TESTOVI !!! ###
  30:src/../h/kObjectAllocator.hpp ****      *                      #####################################
  31:src/../h/kObjectAllocator.hpp ****      *                      #####################################
  32:src/../h/kObjectAllocator.hpp ****      *                      #####################################
  33:src/../h/kObjectAllocator.hpp ****      *
  34:src/../h/kObjectAllocator.hpp ****      *
  35:src/../h/kObjectAllocator.hpp ****      *
  36:src/../h/kObjectAllocator.hpp ****      *
  37:src/../h/kObjectAllocator.hpp ****      *
  38:src/../h/kObjectAllocator.hpp ****      *
  39:src/../h/kObjectAllocator.hpp ****      */
  40:src/../h/kObjectAllocator.hpp ****     friend KObjectAllocatorTest;
  41:src/../h/kObjectAllocator.hpp **** 
  42:src/../h/kObjectAllocator.hpp ****     /*                         ^
  43:src/../h/kObjectAllocator.hpp ****      *                         |
  44:src/../h/kObjectAllocator.hpp ****      *      DELETE THIS FRIEND |
  45:src/../h/kObjectAllocator.hpp ****      *
  46:src/../h/kObjectAllocator.hpp ****      */
GAS LISTING /tmp/ccRSzuj4.s 			page 2


  47:src/../h/kObjectAllocator.hpp **** 
  48:src/../h/kObjectAllocator.hpp **** 
  49:src/../h/kObjectAllocator.hpp ****     KObjectAllocator(size_t objectSize) : KObjectAllocator(objectSize, 320) {}
  50:src/../h/kObjectAllocator.hpp ****     KObjectAllocator(size_t objectSize, size_t initialObjectNumber)
  51:src/../h/kObjectAllocator.hpp ****             : initialNumberOfObjects(initialObjectNumber), numberOfObjects(initialObjectNumber),  o
  52:src/../h/kObjectAllocator.hpp ****         bitVectors = (uint8**) MemoryAllocator::instance()->kmem_alloc(numberOfAllocations * sizeof
  53:src/../h/kObjectAllocator.hpp ****         objectVectors = (uint8**) MemoryAllocator::instance()->kmem_alloc(numberOfAllocations * siz
  54:src/../h/kObjectAllocator.hpp ****         initialNumberOfObjects = numberOfObjects = numberOfObjects / 8 * 8 + 8 * (numberOfObjects /
  55:src/../h/kObjectAllocator.hpp ****         // one bit for each object which indicates whether memory
  56:src/../h/kObjectAllocator.hpp ****         // corresponding to that object is allocated or free
  57:src/../h/kObjectAllocator.hpp ****         memorySizeForBits = numberOfObjects / 8;
  58:src/../h/kObjectAllocator.hpp ****         bitVectors[0] = (uint8*) MemoryAllocator::instance()->kmem_alloc(
  59:src/../h/kObjectAllocator.hpp ****                 memorySizeForBits + initialNumberOfObjects * objectSize
  60:src/../h/kObjectAllocator.hpp ****         );
  61:src/../h/kObjectAllocator.hpp ****         objectVectors[0] = bitVectors[0] + memorySizeForBits;   // start of memory for objects
  62:src/../h/kObjectAllocator.hpp ****         for (size_t i = 0; i < memorySizeForBits; bitVectors[0][i++] = 0);
  63:src/../h/kObjectAllocator.hpp ****     }
  64:src/../h/kObjectAllocator.hpp ****     void* operator new(size_t size) {
  65:src/../h/kObjectAllocator.hpp ****         return MemoryAllocator::instance()->kmem_alloc(size);
  66:src/../h/kObjectAllocator.hpp ****     }
  67:src/../h/kObjectAllocator.hpp ****     void operator delete(void* p) {
  13              		.loc 1 67 10
  14              		.cfi_startproc
  15              	.LVL0:
  16 0000 130101FE 		addi	sp,sp,-32
  17              		.cfi_def_cfa_offset 32
  18 0004 233C1100 		sd	ra,24(sp)
  19 0008 23388100 		sd	s0,16(sp)
  20 000c 23349100 		sd	s1,8(sp)
  21 0010 23302101 		sd	s2,0(sp)
  22              		.cfi_offset 1, -8
  23              		.cfi_offset 8, -16
  24              		.cfi_offset 9, -24
  25              		.cfi_offset 18, -32
  26 0014 13040102 		addi	s0,sp,32
  27              		.cfi_def_cfa 8, 0
  28 0018 13090500 		mv	s2,a0
  68:src/../h/kObjectAllocator.hpp ****         for (size_t i = 0; i < ((KObjectAllocator*) p)->numberOfAllocations; ++i)
  29              		.loc 1 68 9
  30              	.LVL1:
  31              	.LBB13:
  32              		.loc 1 68 21 is_stmt 0
  33 001c 93040000 		li	s1,0
  34              	.LVL2:
  35              	.L3:
  36              		.loc 1 68 30 is_stmt 1 discriminator 3
  37              		.loc 1 68 57 is_stmt 0 discriminator 3
  38 0020 83370903 		ld	a5,48(s2)
  39              		.loc 1 68 30 discriminator 3
  40 0024 63F6F402 		bleu	a5,s1,.L2
  69:src/../h/kObjectAllocator.hpp ****             MemoryAllocator::instance()->kmem_free(((KObjectAllocator*) p)->bitVectors[i]);
  41              		.loc 1 69 13 is_stmt 1 discriminator 2
  42              		.loc 1 69 51 is_stmt 0 discriminator 2
  43 0028 97000000 		call	_ZN15MemoryAllocator8instanceEv@plt
  43      E7800000 
  44              	.LVL3:
  45              		.loc 1 69 77 discriminator 2
GAS LISTING /tmp/ccRSzuj4.s 			page 3


  46 0030 83378902 		ld	a5,40(s2)
  47              		.loc 1 69 89 discriminator 2
  48 0034 13973400 		slli	a4,s1,3
  49 0038 B387E700 		add	a5,a5,a4
  50              		.loc 1 69 51 discriminator 2
  51 003c 83B50700 		ld	a1,0(a5)
  52 0040 97000000 		call	_ZN15MemoryAllocator9kmem_freeEPv@plt
  52      E7800000 
  53              	.LVL4:
  68:src/../h/kObjectAllocator.hpp ****         for (size_t i = 0; i < ((KObjectAllocator*) p)->numberOfAllocations; ++i)
  54              		.loc 1 68 9 is_stmt 1 discriminator 2
  55 0048 93841400 		addi	s1,s1,1
  56              	.LVL5:
  57 004c 6FF05FFD 		j	.L3
  58              	.L2:
  59              	.LBE13:
  70:src/../h/kObjectAllocator.hpp ****         MemoryAllocator::instance()->kmem_free(((KObjectAllocator*) p)->bitVectors);
  60              		.loc 1 70 9
  61              		.loc 1 70 47 is_stmt 0
  62 0050 97000000 		call	_ZN15MemoryAllocator8instanceEv@plt
  62      E7800000 
  63              	.LVL6:
  64 0058 83358902 		ld	a1,40(s2)
  65 005c 97000000 		call	_ZN15MemoryAllocator9kmem_freeEPv@plt
  65      E7800000 
  66              	.LVL7:
  71:src/../h/kObjectAllocator.hpp ****         MemoryAllocator::instance()->kmem_free(((KObjectAllocator*) p)->objectVectors);
  67              		.loc 1 71 9 is_stmt 1
  68              		.loc 1 71 47 is_stmt 0
  69 0064 97000000 		call	_ZN15MemoryAllocator8instanceEv@plt
  69      E7800000 
  70              	.LVL8:
  71 006c 83350902 		ld	a1,32(s2)
  72 0070 97000000 		call	_ZN15MemoryAllocator9kmem_freeEPv@plt
  72      E7800000 
  73              	.LVL9:
  72:src/../h/kObjectAllocator.hpp ****         MemoryAllocator::instance()->kmem_free(p);
  74              		.loc 1 72 9 is_stmt 1
  75              		.loc 1 72 47 is_stmt 0
  76 0078 97000000 		call	_ZN15MemoryAllocator8instanceEv@plt
  76      E7800000 
  77              	.LVL10:
  78 0080 93050900 		mv	a1,s2
  79 0084 97000000 		call	_ZN15MemoryAllocator9kmem_freeEPv@plt
  79      E7800000 
  80              	.LVL11:
  73:src/../h/kObjectAllocator.hpp ****     }
  81              		.loc 1 73 5
  82 008c 83308101 		ld	ra,24(sp)
  83              		.cfi_restore 1
  84 0090 03340101 		ld	s0,16(sp)
  85              		.cfi_restore 8
  86              		.cfi_def_cfa 2, 32
  87 0094 83348100 		ld	s1,8(sp)
  88              		.cfi_restore 9
  89              	.LVL12:
  90 0098 03390100 		ld	s2,0(sp)
GAS LISTING /tmp/ccRSzuj4.s 			page 4


  91              		.cfi_restore 18
  92              	.LVL13:
  93 009c 13010102 		addi	sp,sp,32
  94              		.cfi_def_cfa_offset 0
  95 00a0 67800000 		jr	ra
  96              		.cfi_endproc
  97              	.LFE10:
  99              		.section	.rodata.str1.8,"aMS",@progbits,1
 100              		.align	3
 101              	.LC0:
 102 0000 0A00     		.string	"\n"
 103 0002 00000000 		.align	3
 103      0000
 104              	.LC1:
 105 0008 0A4D656D 		.string	"\nMemory tests:\n"
 105      6F727920 
 105      74657374 
 105      733A0A00 
 106              		.text
 107              		.align	2
 108              		.globl	main
 110              	main:
 111              	.LFB21:
 112              		.file 2 "src/main.cpp"
   1:src/main.cpp  **** #include "../h/print.hpp"
   2:src/main.cpp  **** #include "../h/memoryAllocator.hpp"
   3:src/main.cpp  **** #include "../h/kObjectAllocator.hpp"
   4:src/main.cpp  **** 
   5:src/main.cpp  **** // tests delete this before submition !!!!!!!!!!!
   6:src/main.cpp  **** #include "../h/memoryAllocatorTest.hpp"
   7:src/main.cpp  **** #include "../h/kObjectAllocatorTest.hpp"
   8:src/main.cpp  **** 
   9:src/main.cpp  **** int main() {
 113              		.loc 2 9 12 is_stmt 1
 114              		.cfi_startproc
 115              		.cfi_personality 0x9b,DW.ref.__gxx_personality_v0
 116              		.cfi_lsda 0x1b,.LLSDA21
 117 0000 13010181 		addi	sp,sp,-2032
 118              		.cfi_def_cfa_offset 2032
 119 0004 2334117E 		sd	ra,2024(sp)
 120 0008 2330817E 		sd	s0,2016(sp)
 121 000c 233C917C 		sd	s1,2008(sp)
 122 0010 2338217D 		sd	s2,2000(sp)
 123 0014 2334317D 		sd	s3,1992(sp)
 124 0018 2330417D 		sd	s4,1984(sp)
 125              		.cfi_offset 1, -8
 126              		.cfi_offset 8, -16
 127              		.cfi_offset 9, -24
 128              		.cfi_offset 18, -32
 129              		.cfi_offset 19, -40
 130              		.cfi_offset 20, -48
 131 001c 1304017F 		addi	s0,sp,2032
 132              		.cfi_def_cfa 8, 0
 133 0020 130101B3 		addi	sp,sp,-1232
  10:src/main.cpp  **** 
  11:src/main.cpp  ****     //KObjectAllocator* newObj = new KObjectAllocator(sizeof(uint8), 4);
  12:src/main.cpp  ****     KObjectAllocator* newObj = new KObjectAllocator(sizeof(uint8));
GAS LISTING /tmp/ccRSzuj4.s 			page 5


 134              		.loc 2 12 5
 135              	.LVL14:
 136              	.LBB28:
 137              	.LBB29:
  65:src/../h/kObjectAllocator.hpp ****     }
 138              		.loc 1 65 9
 139              	.LEHB0:
  65:src/../h/kObjectAllocator.hpp ****     }
 140              		.loc 1 65 55 is_stmt 0
 141 0024 97000000 		call	_ZN15MemoryAllocator8instanceEv@plt
 141      E7800000 
 142              	.LVL15:
 143 002c 93050004 		li	a1,64
 144 0030 97000000 		call	_ZN15MemoryAllocator10kmem_allocEm@plt
 144      E7800000 
 145              	.LVL16:
 146              	.LEHE0:
 147 0038 93090500 		mv	s3,a0
 148              	.LVL17:
 149              	.LBE29:
 150              	.LBE28:
 151              	.LBB30:
 152              	.LBB31:
 153              	.LBB32:
  51:src/../h/kObjectAllocator.hpp ****         bitVectors = (uint8**) MemoryAllocator::instance()->kmem_alloc(numberOfAllocations * sizeof
 154              		.loc 1 51 120
 155 003c 93070014 		li	a5,320
 156 0040 2330F500 		sd	a5,0(a0)
 157 0044 2334F500 		sd	a5,8(a0)
 158 0048 93071000 		li	a5,1
 159 004c 233CF500 		sd	a5,24(a0)
 160 0050 2338F502 		sd	a5,48(a0)
 161 0054 233C0502 		sd	zero,56(a0)
 162              	.LBB33:
  52:src/../h/kObjectAllocator.hpp ****         objectVectors = (uint8**) MemoryAllocator::instance()->kmem_alloc(numberOfAllocations * siz
 163              		.loc 1 52 9 is_stmt 1
 164              	.LEHB1:
  52:src/../h/kObjectAllocator.hpp ****         objectVectors = (uint8**) MemoryAllocator::instance()->kmem_alloc(numberOfAllocations * siz
 165              		.loc 1 52 71 is_stmt 0
 166 0058 97000000 		call	_ZN15MemoryAllocator8instanceEv@plt
 166      E7800000 
 167              	.LVL18:
  52:src/../h/kObjectAllocator.hpp ****         objectVectors = (uint8**) MemoryAllocator::instance()->kmem_alloc(numberOfAllocations * siz
 168              		.loc 1 52 72
 169 0060 83B50903 		ld	a1,48(s3)
  52:src/../h/kObjectAllocator.hpp ****         objectVectors = (uint8**) MemoryAllocator::instance()->kmem_alloc(numberOfAllocations * siz
 170              		.loc 1 52 71
 171 0064 93953500 		slli	a1,a1,3
 172 0068 97000000 		call	_ZN15MemoryAllocator10kmem_allocEm@plt
 172      E7800000 
 173              	.LVL19:
  52:src/../h/kObjectAllocator.hpp ****         objectVectors = (uint8**) MemoryAllocator::instance()->kmem_alloc(numberOfAllocations * siz
 174              		.loc 1 52 20
 175 0070 23B4A902 		sd	a0,40(s3)
  53:src/../h/kObjectAllocator.hpp ****         initialNumberOfObjects = numberOfObjects = numberOfObjects / 8 * 8 + 8 * (numberOfObjects /
 176              		.loc 1 53 9 is_stmt 1
  53:src/../h/kObjectAllocator.hpp ****         initialNumberOfObjects = numberOfObjects = numberOfObjects / 8 * 8 + 8 * (numberOfObjects /
GAS LISTING /tmp/ccRSzuj4.s 			page 6


 177              		.loc 1 53 74 is_stmt 0
 178 0074 97000000 		call	_ZN15MemoryAllocator8instanceEv@plt
 178      E7800000 
 179              	.LVL20:
  53:src/../h/kObjectAllocator.hpp ****         initialNumberOfObjects = numberOfObjects = numberOfObjects / 8 * 8 + 8 * (numberOfObjects /
 180              		.loc 1 53 75
 181 007c 83B50903 		ld	a1,48(s3)
  53:src/../h/kObjectAllocator.hpp ****         initialNumberOfObjects = numberOfObjects = numberOfObjects / 8 * 8 + 8 * (numberOfObjects /
 182              		.loc 1 53 74
 183 0080 93953500 		slli	a1,a1,3
 184 0084 97000000 		call	_ZN15MemoryAllocator10kmem_allocEm@plt
 184      E7800000 
 185              	.LVL21:
  53:src/../h/kObjectAllocator.hpp ****         initialNumberOfObjects = numberOfObjects = numberOfObjects / 8 * 8 + 8 * (numberOfObjects /
 186              		.loc 1 53 23
 187 008c 23B0A902 		sd	a0,32(s3)
  54:src/../h/kObjectAllocator.hpp ****         // one bit for each object which indicates whether memory
 188              		.loc 1 54 9 is_stmt 1
  54:src/../h/kObjectAllocator.hpp ****         // one bit for each object which indicates whether memory
 189              		.loc 1 54 52 is_stmt 0
 190 0090 03B78900 		ld	a4,8(s3)
  54:src/../h/kObjectAllocator.hpp ****         // one bit for each object which indicates whether memory
 191              		.loc 1 54 72
 192 0094 937787FF 		andi	a5,a4,-8
  54:src/../h/kObjectAllocator.hpp ****         // one bit for each object which indicates whether memory
 193              		.loc 1 54 80
 194 0098 6304F702 		beq	a4,a5,.L17
 195 009c 13078000 		li	a4,8
 196              	.L6:
  54:src/../h/kObjectAllocator.hpp ****         // one bit for each object which indicates whether memory
 197              		.loc 1 54 76
 198 00a0 B387E700 		add	a5,a5,a4
  54:src/../h/kObjectAllocator.hpp ****         // one bit for each object which indicates whether memory
 199              		.loc 1 54 50
 200 00a4 23B4F900 		sd	a5,8(s3)
  54:src/../h/kObjectAllocator.hpp ****         // one bit for each object which indicates whether memory
 201              		.loc 1 54 32
 202 00a8 23B0F900 		sd	a5,0(s3)
  57:src/../h/kObjectAllocator.hpp ****         bitVectors[0] = (uint8*) MemoryAllocator::instance()->kmem_alloc(
 203              		.loc 1 57 9 is_stmt 1
  57:src/../h/kObjectAllocator.hpp ****         bitVectors[0] = (uint8*) MemoryAllocator::instance()->kmem_alloc(
 204              		.loc 1 57 45 is_stmt 0
 205 00ac 93D73700 		srli	a5,a5,3
  57:src/../h/kObjectAllocator.hpp ****         bitVectors[0] = (uint8*) MemoryAllocator::instance()->kmem_alloc(
 206              		.loc 1 57 27
 207 00b0 23B8F900 		sd	a5,16(s3)
  58:src/../h/kObjectAllocator.hpp ****                 memorySizeForBits + initialNumberOfObjects * objectSize
 208              		.loc 1 58 9 is_stmt 1
  58:src/../h/kObjectAllocator.hpp ****                 memorySizeForBits + initialNumberOfObjects * objectSize
 209              		.loc 1 58 73 is_stmt 0
 210 00b4 97000000 		call	_ZN15MemoryAllocator8instanceEv@plt
 210      E7800000 
 211              	.LVL22:
 212 00bc 6F00C000 		j	.L23
 213              	.L17:
  54:src/../h/kObjectAllocator.hpp ****         // one bit for each object which indicates whether memory
 214              		.loc 1 54 80
GAS LISTING /tmp/ccRSzuj4.s 			page 7


 215 00c0 13070000 		li	a4,0
 216 00c4 6FF0DFFD 		j	.L6
 217              	.L23:
  59:src/../h/kObjectAllocator.hpp ****         );
 218              		.loc 1 59 17
 219 00c8 83B50901 		ld	a1,16(s3)
  59:src/../h/kObjectAllocator.hpp ****         );
 220              		.loc 1 59 37
 221 00cc 83B70900 		ld	a5,0(s3)
  58:src/../h/kObjectAllocator.hpp ****                 memorySizeForBits + initialNumberOfObjects * objectSize
 222              		.loc 1 58 9
 223 00d0 83B48902 		ld	s1,40(s3)
  58:src/../h/kObjectAllocator.hpp ****                 memorySizeForBits + initialNumberOfObjects * objectSize
 224              		.loc 1 58 73
 225 00d4 B385F500 		add	a1,a1,a5
 226 00d8 97000000 		call	_ZN15MemoryAllocator10kmem_allocEm@plt
 226      E7800000 
 227              	.LVL23:
 228              	.LEHE1:
  58:src/../h/kObjectAllocator.hpp ****                 memorySizeForBits + initialNumberOfObjects * objectSize
 229              		.loc 1 58 23
 230 00e0 23B0A400 		sd	a0,0(s1)
  61:src/../h/kObjectAllocator.hpp ****         for (size_t i = 0; i < memorySizeForBits; bitVectors[0][i++] = 0);
 231              		.loc 1 61 9 is_stmt 1
  61:src/../h/kObjectAllocator.hpp ****         for (size_t i = 0; i < memorySizeForBits; bitVectors[0][i++] = 0);
 232              		.loc 1 61 28 is_stmt 0
 233 00e4 83B78902 		ld	a5,40(s3)
  61:src/../h/kObjectAllocator.hpp ****         for (size_t i = 0; i < memorySizeForBits; bitVectors[0][i++] = 0);
 234              		.loc 1 61 40
 235 00e8 83B70700 		ld	a5,0(a5)
  61:src/../h/kObjectAllocator.hpp ****         for (size_t i = 0; i < memorySizeForBits; bitVectors[0][i++] = 0);
 236              		.loc 1 61 44
 237 00ec 83B60901 		ld	a3,16(s3)
  61:src/../h/kObjectAllocator.hpp ****         for (size_t i = 0; i < memorySizeForBits; bitVectors[0][i++] = 0);
 238              		.loc 1 61 9
 239 00f0 03B70902 		ld	a4,32(s3)
  61:src/../h/kObjectAllocator.hpp ****         for (size_t i = 0; i < memorySizeForBits; bitVectors[0][i++] = 0);
 240              		.loc 1 61 42
 241 00f4 B387D700 		add	a5,a5,a3
  61:src/../h/kObjectAllocator.hpp ****         for (size_t i = 0; i < memorySizeForBits; bitVectors[0][i++] = 0);
 242              		.loc 1 61 26
 243 00f8 2330F700 		sd	a5,0(a4)
  62:src/../h/kObjectAllocator.hpp ****     }
 244              		.loc 1 62 9 is_stmt 1
 245              	.LVL24:
 246              	.LBB34:
  62:src/../h/kObjectAllocator.hpp ****     }
 247              		.loc 1 62 21 is_stmt 0
 248 00fc 93070000 		li	a5,0
 249              	.LVL25:
 250              	.L8:
  62:src/../h/kObjectAllocator.hpp ****     }
 251              		.loc 1 62 30 is_stmt 1
  62:src/../h/kObjectAllocator.hpp ****     }
 252              		.loc 1 62 32 is_stmt 0
 253 0100 03B70901 		ld	a4,16(s3)
  62:src/../h/kObjectAllocator.hpp ****     }
GAS LISTING /tmp/ccRSzuj4.s 			page 8


 254              		.loc 1 62 30
 255 0104 63FEE700 		bleu	a4,a5,.L18
  62:src/../h/kObjectAllocator.hpp ****     }
 256              		.loc 1 62 9 is_stmt 1
  62:src/../h/kObjectAllocator.hpp ****     }
 257              		.loc 1 62 51 is_stmt 0
 258 0108 03B78902 		ld	a4,40(s3)
  62:src/../h/kObjectAllocator.hpp ****     }
 259              		.loc 1 62 63
 260 010c 03370700 		ld	a4,0(a4)
 261              	.LVL26:
  62:src/../h/kObjectAllocator.hpp ****     }
 262              		.loc 1 62 68
 263 0110 3307F700 		add	a4,a4,a5
  62:src/../h/kObjectAllocator.hpp ****     }
 264              		.loc 1 62 70
 265 0114 23000700 		sb	zero,0(a4)
  62:src/../h/kObjectAllocator.hpp ****     }
 266              		.loc 1 62 66
 267 0118 93871700 		addi	a5,a5,1
 268              	.LVL27:
  62:src/../h/kObjectAllocator.hpp ****     }
 269              		.loc 1 62 9
 270 011c 6FF05FFE 		j	.L8
 271              	.L18:
 272              	.LBE34:
 273              	.LBE33:
 274              	.LBE32:
 275              	.LBE31:
 276              	.LBE30:
 277              	.LBB35:
  13:src/main.cpp  **** 
  14:src/main.cpp  ****     void* objArr[400];
  15:src/main.cpp  ****     size_t objNumber = 0; //newObj->getNumberOfObjects();
  16:src/main.cpp  ****     for (int i = 0; i < 400; ++i) {
 278              		.loc 2 16 14
 279 0120 93040000 		li	s1,0
 280              	.LBE35:
  15:src/main.cpp  ****     for (int i = 0; i < 400; ++i) {
 281              		.loc 2 15 12
 282 0124 130A0000 		li	s4,0
 283 0128 6F004006 		j	.L7
 284              	.LVL28:
 285              	.L24:
 286              	.LBB38:
  17:src/main.cpp  ****         objArr[i] = newObj->allocateNewObject();
  18:src/main.cpp  ****         if (i == 14) newObj->freeObject(objArr[4]);
 287              		.loc 2 18 22 is_stmt 1 discriminator 1
 288              		.loc 2 18 40 is_stmt 0 discriminator 1
 289 012c B7F7FFFF 		li	a5,-4096
 290 0130 B387F600 		add	a5,a3,a5
 291 0134 83B5073A 		ld	a1,928(a5)
 292 0138 13850900 		mv	a0,s3
 293              	.LEHB2:
 294 013c 97000000 		call	_ZN16KObjectAllocator10freeObjectEPv@plt
 294      E7800000 
 295              	.LVL29:
GAS LISTING /tmp/ccRSzuj4.s 			page 9


 296 0144 6F000008 		j	.L10
 297              	.L25:
  19:src/main.cpp  ****         if (i == 14) newObj->freeObject(objArr[9]);
 298              		.loc 2 19 22 is_stmt 1 discriminator 1
 299              		.loc 2 19 40 is_stmt 0 discriminator 1
 300 0148 B7F7FFFF 		li	a5,-4096
 301 014c 130704FD 		addi	a4,s0,-48
 302 0150 B307F700 		add	a5,a4,a5
 303 0154 83B5873C 		ld	a1,968(a5)
 304 0158 13850900 		mv	a0,s3
 305 015c 97000000 		call	_ZN16KObjectAllocator10freeObjectEPv@plt
 305      E7800000 
 306              	.LVL30:
 307 0164 6F008006 		j	.L11
 308              	.L12:
  20:src/main.cpp  ****         *(uint8*) objArr[i] = 128;
  21:src/main.cpp  ****         if (objNumber != newObj->getNumberOfObjects() || i % 100 == 0) {
  22:src/main.cpp  ****             objNumber = newObj->getNumberOfObjects();
 309              		.loc 2 22 13 is_stmt 1
 310              	.LVL31:
 311              	.LBE38:
  74:src/../h/kObjectAllocator.hpp ****     void printInternalMemory();
  75:src/../h/kObjectAllocator.hpp ****     size_t getObjectSize() { return objectSize; }
  76:src/../h/kObjectAllocator.hpp ****     size_t getInitialNumberOfObjects() { return initialNumberOfObjects; }
  77:src/../h/kObjectAllocator.hpp ****     size_t getNumberOfObjects() { return numberOfObjects; }
 312              		.loc 1 77 35
 313              	.LBB39:
  23:src/main.cpp  ****             //printString("\nobjectNumber: "); printInteger(newObj->getNumberOfObjects()); printStr
  24:src/main.cpp  ****             //printString("numberOfAllocations: "); printInteger(newObj->getNumberOfAllocations());
  25:src/main.cpp  ****             //printString("\n\n");
  26:src/main.cpp  ****             newObj->printInternalMemory();
 314              		.loc 2 26 13
 315              		.loc 2 26 40 is_stmt 0
 316 0168 13850900 		mv	a0,s3
 317 016c 97000000 		call	_ZN16KObjectAllocator19printInternalMemoryEv@plt
 317      E7800000 
 318              	.LVL32:
  27:src/main.cpp  ****             printString("\n");
 319              		.loc 2 27 13 is_stmt 1
 320              		.loc 2 27 24 is_stmt 0
 321 0174 17050000 		lla	a0,.LC0
 321      13050500 
 322 017c 97000000 		call	_Z11printStringPKc@plt
 322      E7800000 
 323              	.LVL33:
  22:src/main.cpp  ****             //printString("\nobjectNumber: "); printInteger(newObj->getNumberOfObjects()); printStr
 324              		.loc 2 22 51
 325 0184 130A0900 		mv	s4,s2
 326              	.LVL34:
 327              	.L13:
  16:src/main.cpp  ****         objArr[i] = newObj->allocateNewObject();
 328              		.loc 2 16 5 is_stmt 1 discriminator 2
 329 0188 9B841400 		addiw	s1,s1,1
 330              	.LVL35:
 331              	.L7:
  16:src/main.cpp  ****         objArr[i] = newObj->allocateNewObject();
 332              		.loc 2 16 23 discriminator 1
GAS LISTING /tmp/ccRSzuj4.s 			page 10


 333 018c 9307F018 		li	a5,399
 334 0190 63CE9704 		bgt	s1,a5,.L19
  17:src/main.cpp  ****         if (i == 14) newObj->freeObject(objArr[4]);
 335              		.loc 2 17 9
  17:src/main.cpp  ****         if (i == 14) newObj->freeObject(objArr[4]);
 336              		.loc 2 17 46 is_stmt 0
 337 0194 13850900 		mv	a0,s3
 338 0198 97000000 		call	_ZN16KObjectAllocator17allocateNewObjectEv@plt
 338      E7800000 
 339              	.LVL36:
 340 01a0 13090500 		mv	s2,a0
  17:src/main.cpp  ****         if (i == 14) newObj->freeObject(objArr[4]);
 341              		.loc 2 17 19
 342 01a4 37F7FFFF 		li	a4,-4096
 343 01a8 93973400 		slli	a5,s1,3
 344 01ac 930604FD 		addi	a3,s0,-48
 345 01b0 3387E600 		add	a4,a3,a4
 346 01b4 B307F700 		add	a5,a4,a5
 347 01b8 23B0A738 		sd	a0,896(a5)
  18:src/main.cpp  ****         if (i == 14) newObj->freeObject(objArr[9]);
 348              		.loc 2 18 9 is_stmt 1
 349 01bc 9307E000 		li	a5,14
 350 01c0 E386F4F6 		beq	s1,a5,.L24
 351              	.L10:
  19:src/main.cpp  ****         *(uint8*) objArr[i] = 128;
 352              		.loc 2 19 9
 353 01c4 9307E000 		li	a5,14
 354 01c8 E380F4F8 		beq	s1,a5,.L25
 355              	.L11:
  20:src/main.cpp  ****         if (objNumber != newObj->getNumberOfObjects() || i % 100 == 0) {
 356              		.loc 2 20 9
  20:src/main.cpp  ****         if (objNumber != newObj->getNumberOfObjects() || i % 100 == 0) {
 357              		.loc 2 20 29 is_stmt 0
 358 01cc 930700F8 		li	a5,-128
 359 01d0 2300F900 		sb	a5,0(s2)
  21:src/main.cpp  ****             objNumber = newObj->getNumberOfObjects();
 360              		.loc 2 21 9 is_stmt 1
 361              	.LVL37:
 362              	.LBB36:
 363              	.LBB37:
 364              		.loc 1 77 35
 365              		.loc 1 77 42 is_stmt 0
 366 01d4 03B98900 		ld	s2,8(s3)
 367              	.LVL38:
 368              	.LBE37:
 369              	.LBE36:
  21:src/main.cpp  ****             objNumber = newObj->getNumberOfObjects();
 370              		.loc 2 21 55
 371 01d8 E3182AF9 		bne	s4,s2,.L12
  21:src/main.cpp  ****             objNumber = newObj->getNumberOfObjects();
 372              		.loc 2 21 60 discriminator 2
 373 01dc 93074006 		li	a5,100
 374 01e0 BBE7F402 		remw	a5,s1,a5
  21:src/main.cpp  ****             objNumber = newObj->getNumberOfObjects();
 375              		.loc 2 21 55 discriminator 2
 376 01e4 E39207FA 		bnez	a5,.L13
 377 01e8 6FF01FF8 		j	.L12
GAS LISTING /tmp/ccRSzuj4.s 			page 11


 378              	.L19:
 379              	.LBE39:
 380              	.LBB40:
  28:src/main.cpp  ****         }
  29:src/main.cpp  ****     }
  30:src/main.cpp  **** 
  31:src/main.cpp  ****     for (int i = 0; i < 10; ++i) newObj->freeObject(objArr[i]);
 381              		.loc 2 31 14
 382 01ec 93040000 		li	s1,0
 383              	.LVL39:
 384              	.L9:
 385              		.loc 2 31 23 is_stmt 1 discriminator 4
 386 01f0 93079000 		li	a5,9
 387 01f4 63C89702 		bgt	s1,a5,.L14
 388              		.loc 2 31 34 discriminator 2
 389              		.loc 2 31 52 is_stmt 0 discriminator 2
 390 01f8 B7F7FFFF 		li	a5,-4096
 391 01fc 13973400 		slli	a4,s1,3
 392 0200 930604FD 		addi	a3,s0,-48
 393 0204 B387F600 		add	a5,a3,a5
 394 0208 B387E700 		add	a5,a5,a4
 395 020c 83B50738 		ld	a1,896(a5)
 396 0210 13850900 		mv	a0,s3
 397 0214 97000000 		call	_ZN16KObjectAllocator10freeObjectEPv@plt
 397      E7800000 
 398              	.LVL40:
 399              		.loc 2 31 5 is_stmt 1 discriminator 2
 400 021c 9B841400 		addiw	s1,s1,1
 401              	.LVL41:
 402 0220 6FF01FFD 		j	.L9
 403              	.LVL42:
 404              	.L14:
 405              	.LBE40:
  32:src/main.cpp  **** 
  33:src/main.cpp  **** 
  34:src/main.cpp  ****     delete newObj;
 406              		.loc 2 34 5
 407              		.loc 2 34 18 is_stmt 0
 408 0224 63880900 		beqz	s3,.L15
 409              		.loc 2 34 12 discriminator 1
 410 0228 13850900 		mv	a0,s3
 411 022c 97000000 		call	_ZN16KObjectAllocatordlEPv
 411      E7800000 
 412              	.LVL43:
 413              	.L15:
  35:src/main.cpp  **** 
  36:src/main.cpp  ****     /*printString("\nKObjectAllocator tests:\n");
  37:src/main.cpp  ****     KObjectAllocatorTest* t2 = new KObjectAllocatorTest;
  38:src/main.cpp  ****     t2->runTests();
  39:src/main.cpp  ****     delete t2;*/
  40:src/main.cpp  **** 
  41:src/main.cpp  ****     printString("\nMemory tests:\n");
 414              		.loc 2 41 5 is_stmt 1
 415              		.loc 2 41 16 is_stmt 0
 416 0234 17050000 		lla	a0,.LC1
 416      13050500 
 417 023c 97000000 		call	_Z11printStringPKc@plt
GAS LISTING /tmp/ccRSzuj4.s 			page 12


 417      E7800000 
 418              	.LVL44:
  42:src/main.cpp  ****     MemoryAllocatorTest t1;
 419              		.loc 2 42 5 is_stmt 1
  43:src/main.cpp  ****     t1.runTests();
 420              		.loc 2 43 5
 421              		.loc 2 43 16 is_stmt 0
 422 0244 37F5FFFF 		li	a0,-4096
 423 0248 13058537 		addi	a0,a0,888
 424 024c 930704FD 		addi	a5,s0,-48
 425 0250 3385A700 		add	a0,a5,a0
 426 0254 97000000 		call	_ZN19MemoryAllocatorTest8runTestsEv@plt
 426      E7800000 
 427              	.LVL45:
 428              	.LEHE2:
  44:src/main.cpp  **** 
  45:src/main.cpp  **** 
  46:src/main.cpp  ****     return 0;
 429              		.loc 2 46 5 is_stmt 1
  47:src/main.cpp  **** }...
 430              		.loc 2 47 1 is_stmt 0
 431 025c 13050000 		li	a0,0
 432 0260 1301014D 		addi	sp,sp,1232
 433              		.cfi_remember_state
 434              		.cfi_def_cfa 2, 2032
 435 0264 8330817E 		ld	ra,2024(sp)
 436              		.cfi_restore 1
 437 0268 0334017E 		ld	s0,2016(sp)
 438              		.cfi_restore 8
 439 026c 8334817D 		ld	s1,2008(sp)
 440              		.cfi_restore 9
 441              	.LVL46:
 442 0270 0339017D 		ld	s2,2000(sp)
 443              		.cfi_restore 18
 444 0274 8339817C 		ld	s3,1992(sp)
 445              		.cfi_restore 19
 446 0278 033A017C 		ld	s4,1984(sp)
 447              		.cfi_restore 20
 448              	.LVL47:
 449 027c 1301017F 		addi	sp,sp,2032
 450              		.cfi_def_cfa_offset 0
 451 0280 67800000 		jr	ra
 452              	.LVL48:
 453              	.L20:
 454              		.cfi_restore_state
 455 0284 93040500 		mv	s1,a0
  12:src/main.cpp  ****     KObjectAllocator* newObj = new KObjectAllocator(sizeof(uint8));
 456              		.loc 2 12 66
 457 0288 13850900 		mv	a0,s3
 458 028c 97000000 		call	_ZN16KObjectAllocatordlEPv
 458      E7800000 
 459              	.LVL49:
 460 0294 13850400 		mv	a0,s1
 461              	.LEHB3:
 462 0298 97000000 		call	_Unwind_Resume@plt
 462      E7800000 
 463              	.LVL50:
GAS LISTING /tmp/ccRSzuj4.s 			page 13


 464              	.LEHE3:
 465              		.cfi_endproc
 466              	.LFE21:
 467              		.globl	__gxx_personality_v0
 468              		.section	.gcc_except_table,"a",@progbits
 469              	.LLSDA21:
 470 0000 FF       		.byte	0xff
 471 0001 FF       		.byte	0xff
 472 0002 03       		.byte	0x3
 473 0003 34       		.byte	0x34
 474 0004 00000000 		.4byte	.LEHB0-.LFB21
 475 0008 00000000 		.4byte	.LEHE0-.LEHB0
 476 000c 00000000 		.4byte	0
 477 0010 00       		.byte	0
 478 0011 00000000 		.4byte	.LEHB1-.LFB21
 479 0015 00000000 		.4byte	.LEHE1-.LEHB1
 480 0019 00000000 		.4byte	.L20-.LFB21
 481 001d 00       		.byte	0
 482 001e 00000000 		.4byte	.LEHB2-.LFB21
 483 0022 00000000 		.4byte	.LEHE2-.LEHB2
 484 0026 00000000 		.4byte	0
 485 002a 00       		.byte	0
 486 002b 00000000 		.4byte	.LEHB3-.LFB21
 487 002f 00000000 		.4byte	.LEHE3-.LEHB3
 488 0033 00000000 		.4byte	0
 489 0037 00       		.byte	0
 490              		.text
 492              	.Letext0:
 493              		.file 3 "src/../h/../lib/hw.h"
 494              		.file 4 "src/../h/memoryAllocator.hpp"
 495              		.file 5 "src/../h/memoryAllocatorTest.hpp"
 496              		.file 6 "src/../h/print.hpp"
 3080              		.align	3
 3083              	DW.ref.__gxx_personality_v0:
 3084 0000 00000000 		.dword	__gxx_personality_v0
 3084      00000000 
 3085              		.ident	"GCC: (Ubuntu 9.4.0-1ubuntu1~20.04) 9.4.0"
 3086              		.section	.note.GNU-stack,"",@progbits
GAS LISTING /tmp/ccRSzuj4.s 			page 14


DEFINED SYMBOLS
                            *ABS*:0000000000000000 main.cpp
     /tmp/ccRSzuj4.s:10     .text._ZN16KObjectAllocatordlEPv:0000000000000000 _ZN16KObjectAllocatordlEPv
     /tmp/ccRSzuj4.s:14     .text._ZN16KObjectAllocatordlEPv:0000000000000000 .L0 
     /tmp/ccRSzuj4.s:16     .text._ZN16KObjectAllocatordlEPv:0000000000000000 .L0 
     /tmp/ccRSzuj4.s:17     .text._ZN16KObjectAllocatordlEPv:0000000000000004 .L0 
     /tmp/ccRSzuj4.s:22     .text._ZN16KObjectAllocatordlEPv:0000000000000014 .L0 
     /tmp/ccRSzuj4.s:23     .text._ZN16KObjectAllocatordlEPv:0000000000000014 .L0 
     /tmp/ccRSzuj4.s:24     .text._ZN16KObjectAllocatordlEPv:0000000000000014 .L0 
     /tmp/ccRSzuj4.s:25     .text._ZN16KObjectAllocatordlEPv:0000000000000014 .L0 
     /tmp/ccRSzuj4.s:27     .text._ZN16KObjectAllocatordlEPv:0000000000000018 .L0 
     /tmp/ccRSzuj4.s:32     .text._ZN16KObjectAllocatordlEPv:000000000000001c .L0 
     /tmp/ccRSzuj4.s:33     .text._ZN16KObjectAllocatordlEPv:000000000000001c .L0 
     /tmp/ccRSzuj4.s:37     .text._ZN16KObjectAllocatordlEPv:0000000000000020 .L0 
     /tmp/ccRSzuj4.s:38     .text._ZN16KObjectAllocatordlEPv:0000000000000020 .L0 
     /tmp/ccRSzuj4.s:40     .text._ZN16KObjectAllocatordlEPv:0000000000000024 .L0 
     /tmp/ccRSzuj4.s:42     .text._ZN16KObjectAllocatordlEPv:0000000000000028 .L0 
     /tmp/ccRSzuj4.s:43     .text._ZN16KObjectAllocatordlEPv:0000000000000028 .L0 
     /tmp/ccRSzuj4.s:46     .text._ZN16KObjectAllocatordlEPv:0000000000000030 .L0 
     /tmp/ccRSzuj4.s:48     .text._ZN16KObjectAllocatordlEPv:0000000000000034 .L0 
     /tmp/ccRSzuj4.s:51     .text._ZN16KObjectAllocatordlEPv:000000000000003c .L0 
     /tmp/ccRSzuj4.s:55     .text._ZN16KObjectAllocatordlEPv:0000000000000048 .L0 
     /tmp/ccRSzuj4.s:61     .text._ZN16KObjectAllocatordlEPv:0000000000000050 .L0 
     /tmp/ccRSzuj4.s:62     .text._ZN16KObjectAllocatordlEPv:0000000000000050 .L0 
     /tmp/ccRSzuj4.s:68     .text._ZN16KObjectAllocatordlEPv:0000000000000064 .L0 
     /tmp/ccRSzuj4.s:69     .text._ZN16KObjectAllocatordlEPv:0000000000000064 .L0 
     /tmp/ccRSzuj4.s:75     .text._ZN16KObjectAllocatordlEPv:0000000000000078 .L0 
     /tmp/ccRSzuj4.s:76     .text._ZN16KObjectAllocatordlEPv:0000000000000078 .L0 
     /tmp/ccRSzuj4.s:82     .text._ZN16KObjectAllocatordlEPv:000000000000008c .L0 
     /tmp/ccRSzuj4.s:83     .text._ZN16KObjectAllocatordlEPv:0000000000000090 .L0 
     /tmp/ccRSzuj4.s:85     .text._ZN16KObjectAllocatordlEPv:0000000000000094 .L0 
     /tmp/ccRSzuj4.s:86     .text._ZN16KObjectAllocatordlEPv:0000000000000094 .L0 
     /tmp/ccRSzuj4.s:88     .text._ZN16KObjectAllocatordlEPv:0000000000000098 .L0 
     /tmp/ccRSzuj4.s:91     .text._ZN16KObjectAllocatordlEPv:000000000000009c .L0 
     /tmp/ccRSzuj4.s:94     .text._ZN16KObjectAllocatordlEPv:00000000000000a0 .L0 
     /tmp/ccRSzuj4.s:96     .text._ZN16KObjectAllocatordlEPv:00000000000000a4 .L0 
     /tmp/ccRSzuj4.s:110    .text:0000000000000000 main
     /tmp/ccRSzuj4.s:114    .text:0000000000000000 .L0 
     /tmp/ccRSzuj4.s:3083   .data.rel.local.DW.ref.__gxx_personality_v0:0000000000000000 DW.ref.__gxx_personality_v0
     /tmp/ccRSzuj4.s:117    .text:0000000000000000 .L0 
     /tmp/ccRSzuj4.s:118    .text:0000000000000004 .L0 
     /tmp/ccRSzuj4.s:125    .text:000000000000001c .L0 
     /tmp/ccRSzuj4.s:126    .text:000000000000001c .L0 
     /tmp/ccRSzuj4.s:127    .text:000000000000001c .L0 
     /tmp/ccRSzuj4.s:128    .text:000000000000001c .L0 
     /tmp/ccRSzuj4.s:129    .text:000000000000001c .L0 
     /tmp/ccRSzuj4.s:130    .text:000000000000001c .L0 
     /tmp/ccRSzuj4.s:132    .text:0000000000000020 .L0 
     /tmp/ccRSzuj4.s:138    .text:0000000000000024 .L0 
     /tmp/ccRSzuj4.s:140    .text:0000000000000024 .L0 
     /tmp/ccRSzuj4.s:141    .text:0000000000000024 .L0 
     /tmp/ccRSzuj4.s:155    .text:000000000000003c .L0 
     /tmp/ccRSzuj4.s:165    .text:0000000000000058 .L0 
     /tmp/ccRSzuj4.s:166    .text:0000000000000058 .L0 
     /tmp/ccRSzuj4.s:169    .text:0000000000000060 .L0 
     /tmp/ccRSzuj4.s:171    .text:0000000000000064 .L0 
     /tmp/ccRSzuj4.s:175    .text:0000000000000070 .L0 
GAS LISTING /tmp/ccRSzuj4.s 			page 15


     /tmp/ccRSzuj4.s:177    .text:0000000000000074 .L0 
     /tmp/ccRSzuj4.s:178    .text:0000000000000074 .L0 
     /tmp/ccRSzuj4.s:181    .text:000000000000007c .L0 
     /tmp/ccRSzuj4.s:183    .text:0000000000000080 .L0 
     /tmp/ccRSzuj4.s:187    .text:000000000000008c .L0 
     /tmp/ccRSzuj4.s:189    .text:0000000000000090 .L0 
     /tmp/ccRSzuj4.s:190    .text:0000000000000090 .L0 
     /tmp/ccRSzuj4.s:192    .text:0000000000000094 .L0 
     /tmp/ccRSzuj4.s:194    .text:0000000000000098 .L0 
     /tmp/ccRSzuj4.s:198    .text:00000000000000a0 .L0 
     /tmp/ccRSzuj4.s:200    .text:00000000000000a4 .L0 
     /tmp/ccRSzuj4.s:202    .text:00000000000000a8 .L0 
     /tmp/ccRSzuj4.s:204    .text:00000000000000ac .L0 
     /tmp/ccRSzuj4.s:205    .text:00000000000000ac .L0 
     /tmp/ccRSzuj4.s:207    .text:00000000000000b0 .L0 
     /tmp/ccRSzuj4.s:209    .text:00000000000000b4 .L0 
     /tmp/ccRSzuj4.s:210    .text:00000000000000b4 .L0 
     /tmp/ccRSzuj4.s:215    .text:00000000000000c0 .L0 
     /tmp/ccRSzuj4.s:219    .text:00000000000000c8 .L0 
     /tmp/ccRSzuj4.s:221    .text:00000000000000cc .L0 
     /tmp/ccRSzuj4.s:223    .text:00000000000000d0 .L0 
     /tmp/ccRSzuj4.s:225    .text:00000000000000d4 .L0 
     /tmp/ccRSzuj4.s:230    .text:00000000000000e0 .L0 
     /tmp/ccRSzuj4.s:232    .text:00000000000000e4 .L0 
     /tmp/ccRSzuj4.s:233    .text:00000000000000e4 .L0 
     /tmp/ccRSzuj4.s:235    .text:00000000000000e8 .L0 
     /tmp/ccRSzuj4.s:237    .text:00000000000000ec .L0 
     /tmp/ccRSzuj4.s:239    .text:00000000000000f0 .L0 
     /tmp/ccRSzuj4.s:241    .text:00000000000000f4 .L0 
     /tmp/ccRSzuj4.s:243    .text:00000000000000f8 .L0 
     /tmp/ccRSzuj4.s:247    .text:00000000000000fc .L0 
     /tmp/ccRSzuj4.s:248    .text:00000000000000fc .L0 
     /tmp/ccRSzuj4.s:252    .text:0000000000000100 .L0 
     /tmp/ccRSzuj4.s:253    .text:0000000000000100 .L0 
     /tmp/ccRSzuj4.s:255    .text:0000000000000104 .L0 
     /tmp/ccRSzuj4.s:257    .text:0000000000000108 .L0 
     /tmp/ccRSzuj4.s:258    .text:0000000000000108 .L0 
     /tmp/ccRSzuj4.s:260    .text:000000000000010c .L0 
     /tmp/ccRSzuj4.s:263    .text:0000000000000110 .L0 
     /tmp/ccRSzuj4.s:265    .text:0000000000000114 .L0 
     /tmp/ccRSzuj4.s:267    .text:0000000000000118 .L0 
     /tmp/ccRSzuj4.s:270    .text:000000000000011c .L0 
     /tmp/ccRSzuj4.s:279    .text:0000000000000120 .L0 
     /tmp/ccRSzuj4.s:282    .text:0000000000000124 .L0 
     /tmp/ccRSzuj4.s:288    .text:000000000000012c .L0 
     /tmp/ccRSzuj4.s:289    .text:000000000000012c .L0 
     /tmp/ccRSzuj4.s:299    .text:0000000000000148 .L0 
     /tmp/ccRSzuj4.s:300    .text:0000000000000148 .L0 
     /tmp/ccRSzuj4.s:312    .text:0000000000000168 .L0 
     /tmp/ccRSzuj4.s:314    .text:0000000000000168 .L0 
     /tmp/ccRSzuj4.s:315    .text:0000000000000168 .L0 
     /tmp/ccRSzuj4.s:316    .text:0000000000000168 .L0 
     /tmp/ccRSzuj4.s:320    .text:0000000000000174 .L0 
     /tmp/ccRSzuj4.s:321    .text:0000000000000174 .L0 
     /tmp/ccRSzuj4.s:325    .text:0000000000000184 .L0 
     /tmp/ccRSzuj4.s:329    .text:0000000000000188 .L0 
     /tmp/ccRSzuj4.s:333    .text:000000000000018c .L0 
GAS LISTING /tmp/ccRSzuj4.s 			page 16


     /tmp/ccRSzuj4.s:336    .text:0000000000000194 .L0 
     /tmp/ccRSzuj4.s:337    .text:0000000000000194 .L0 
     /tmp/ccRSzuj4.s:342    .text:00000000000001a4 .L0 
     /tmp/ccRSzuj4.s:349    .text:00000000000001bc .L0 
     /tmp/ccRSzuj4.s:353    .text:00000000000001c4 .L0 
     /tmp/ccRSzuj4.s:357    .text:00000000000001cc .L0 
     /tmp/ccRSzuj4.s:358    .text:00000000000001cc .L0 
     /tmp/ccRSzuj4.s:364    .text:00000000000001d4 .L0 
     /tmp/ccRSzuj4.s:365    .text:00000000000001d4 .L0 
     /tmp/ccRSzuj4.s:366    .text:00000000000001d4 .L0 
     /tmp/ccRSzuj4.s:371    .text:00000000000001d8 .L0 
     /tmp/ccRSzuj4.s:373    .text:00000000000001dc .L0 
     /tmp/ccRSzuj4.s:376    .text:00000000000001e4 .L0 
     /tmp/ccRSzuj4.s:382    .text:00000000000001ec .L0 
     /tmp/ccRSzuj4.s:386    .text:00000000000001f0 .L0 
     /tmp/ccRSzuj4.s:389    .text:00000000000001f8 .L0 
     /tmp/ccRSzuj4.s:390    .text:00000000000001f8 .L0 
     /tmp/ccRSzuj4.s:400    .text:000000000000021c .L0 
     /tmp/ccRSzuj4.s:407    .text:0000000000000224 .L0 
     /tmp/ccRSzuj4.s:408    .text:0000000000000224 .L0 
     /tmp/ccRSzuj4.s:410    .text:0000000000000228 .L0 
     /tmp/ccRSzuj4.s:415    .text:0000000000000234 .L0 
     /tmp/ccRSzuj4.s:416    .text:0000000000000234 .L0 
     /tmp/ccRSzuj4.s:420    .text:0000000000000244 .L0 
     /tmp/ccRSzuj4.s:421    .text:0000000000000244 .L0 
     /tmp/ccRSzuj4.s:422    .text:0000000000000244 .L0 
     /tmp/ccRSzuj4.s:430    .text:000000000000025c .L0 
     /tmp/ccRSzuj4.s:431    .text:000000000000025c .L0 
     /tmp/ccRSzuj4.s:433    .text:0000000000000264 .L0 
     /tmp/ccRSzuj4.s:434    .text:0000000000000264 .L0 
     /tmp/ccRSzuj4.s:436    .text:0000000000000268 .L0 
     /tmp/ccRSzuj4.s:438    .text:000000000000026c .L0 
     /tmp/ccRSzuj4.s:440    .text:0000000000000270 .L0 
     /tmp/ccRSzuj4.s:443    .text:0000000000000274 .L0 
     /tmp/ccRSzuj4.s:445    .text:0000000000000278 .L0 
     /tmp/ccRSzuj4.s:447    .text:000000000000027c .L0 
     /tmp/ccRSzuj4.s:450    .text:0000000000000280 .L0 
     /tmp/ccRSzuj4.s:454    .text:0000000000000284 .L0 
     /tmp/ccRSzuj4.s:457    .text:0000000000000288 .L0 
     /tmp/ccRSzuj4.s:465    .text:00000000000002a0 .L0 
     /tmp/ccRSzuj4.s:99     .text._ZN16KObjectAllocatordlEPv:00000000000000a4 .L0 
     /tmp/ccRSzuj4.s:497    .text:00000000000002a0 .L0 
     /tmp/ccRSzuj4.s:101    .rodata.str1.8:0000000000000000 .LC0
     /tmp/ccRSzuj4.s:321    .text:0000000000000174 .L0 
     /tmp/ccRSzuj4.s:104    .rodata.str1.8:0000000000000008 .LC1
     /tmp/ccRSzuj4.s:416    .text:0000000000000234 .L0 
     /tmp/ccRSzuj4.s:213    .text:00000000000000c0 .L17
     /tmp/ccRSzuj4.s:217    .text:00000000000000c8 .L23
     /tmp/ccRSzuj4.s:196    .text:00000000000000a0 .L6
     /tmp/ccRSzuj4.s:271    .text:0000000000000120 .L18
     /tmp/ccRSzuj4.s:250    .text:0000000000000100 .L8
     /tmp/ccRSzuj4.s:331    .text:000000000000018c .L7
     /tmp/ccRSzuj4.s:351    .text:00000000000001c4 .L10
     /tmp/ccRSzuj4.s:355    .text:00000000000001cc .L11
     /tmp/ccRSzuj4.s:378    .text:00000000000001ec .L19
     /tmp/ccRSzuj4.s:285    .text:000000000000012c .L24
     /tmp/ccRSzuj4.s:297    .text:0000000000000148 .L25
GAS LISTING /tmp/ccRSzuj4.s 			page 17


     /tmp/ccRSzuj4.s:308    .text:0000000000000168 .L12
     /tmp/ccRSzuj4.s:327    .text:0000000000000188 .L13
     /tmp/ccRSzuj4.s:404    .text:0000000000000224 .L14
     /tmp/ccRSzuj4.s:384    .text:00000000000001f0 .L9
     /tmp/ccRSzuj4.s:413    .text:0000000000000234 .L15
     /tmp/ccRSzuj4.s:58     .text._ZN16KObjectAllocatordlEPv:0000000000000050 .L2
     /tmp/ccRSzuj4.s:35     .text._ZN16KObjectAllocatordlEPv:0000000000000020 .L3
     /tmp/ccRSzuj4.s:139    .text:0000000000000024 .LEHB0
     /tmp/ccRSzuj4.s:111    .text:0000000000000000 .LFB21
     /tmp/ccRSzuj4.s:146    .text:0000000000000038 .LEHE0
     /tmp/ccRSzuj4.s:164    .text:0000000000000058 .LEHB1
     /tmp/ccRSzuj4.s:228    .text:00000000000000e0 .LEHE1
     /tmp/ccRSzuj4.s:453    .text:0000000000000284 .L20
     /tmp/ccRSzuj4.s:293    .text:000000000000013c .LEHB2
     /tmp/ccRSzuj4.s:428    .text:000000000000025c .LEHE2
     /tmp/ccRSzuj4.s:461    .text:0000000000000298 .LEHB3
     /tmp/ccRSzuj4.s:464    .text:00000000000002a0 .LEHE3
     /tmp/ccRSzuj4.s:1754   .debug_abbrev:0000000000000000 .Ldebug_abbrev0
     /tmp/ccRSzuj4.s:3033   .debug_str:00000000000009b1 .LASF119
     /tmp/ccRSzuj4.s:2921   .debug_str:0000000000000490 .LASF120
     /tmp/ccRSzuj4.s:2989   .debug_str:000000000000075e .LASF121
     /tmp/ccRSzuj4.s:2801   .debug_ranges:0000000000000000 .Ldebug_ranges0
     /tmp/ccRSzuj4.s:2817   .debug_line:0000000000000000 .Ldebug_line0
     /tmp/ccRSzuj4.s:2953   .debug_str:00000000000005bd .LASF0
     /tmp/ccRSzuj4.s:2969   .debug_str:0000000000000654 .LASF1
     /tmp/ccRSzuj4.s:2937   .debug_str:0000000000000526 .LASF2
     /tmp/ccRSzuj4.s:2877   .debug_str:0000000000000291 .LASF3
     /tmp/ccRSzuj4.s:2909   .debug_str:000000000000040f .LASF4
     /tmp/ccRSzuj4.s:3015   .debug_str:00000000000008ff .LASF5
     /tmp/ccRSzuj4.s:2841   .debug_str:00000000000000f6 .LASF6
     /tmp/ccRSzuj4.s:2971   .debug_str:0000000000000667 .LASF7
     /tmp/ccRSzuj4.s:2951   .debug_str:00000000000005aa .LASF8
     /tmp/ccRSzuj4.s:3051   .debug_str:0000000000000b3e .LASF9
     /tmp/ccRSzuj4.s:2895   .debug_str:000000000000033e .LASF10
     /tmp/ccRSzuj4.s:2983   .debug_str:000000000000071d .LASF11
     /tmp/ccRSzuj4.s:3039   .debug_str:0000000000000ac8 .LASF12
     /tmp/ccRSzuj4.s:2843   .debug_str:00000000000000fd .LASF13
     /tmp/ccRSzuj4.s:2827   .debug_str:0000000000000069 .LASF14
     /tmp/ccRSzuj4.s:2859   .debug_str:00000000000001b5 .LASF15
     /tmp/ccRSzuj4.s:3005   .debug_str:000000000000088a .LASF16
     /tmp/ccRSzuj4.s:2873   .debug_str:0000000000000271 .LASF17
     /tmp/ccRSzuj4.s:2933   .debug_str:0000000000000502 .LASF50
     /tmp/ccRSzuj4.s:2987   .debug_str:000000000000074c .LASF122
     /tmp/ccRSzuj4.s:2927   .debug_str:00000000000004d4 .LASF18
     /tmp/ccRSzuj4.s:3073   .debug_str:0000000000000c61 .LASF19
     /tmp/ccRSzuj4.s:2963   .debug_str:0000000000000629 .LASF123
     /tmp/ccRSzuj4.s:3037   .debug_str:0000000000000aa8 .LASF124
     /tmp/ccRSzuj4.s:3049   .debug_str:0000000000000b27 .LASF36
     /tmp/ccRSzuj4.s:2861   .debug_str:00000000000001c1 .LASF38
     /tmp/ccRSzuj4.s:3021   .debug_str:000000000000093c .LASF24
     /tmp/ccRSzuj4.s:2975   .debug_str:000000000000068a .LASF26
     /tmp/ccRSzuj4.s:3043   .debug_str:0000000000000b01 .LASF20
     /tmp/ccRSzuj4.s:3001   .debug_str:000000000000083b .LASF22
     /tmp/ccRSzuj4.s:3057   .debug_str:0000000000000b7d .LASF21
     /tmp/ccRSzuj4.s:2833   .debug_str:0000000000000096 .LASF23
     /tmp/ccRSzuj4.s:3007   .debug_str:00000000000008a0 .LASF25
     /tmp/ccRSzuj4.s:2997   .debug_str:00000000000007ce .LASF27
GAS LISTING /tmp/ccRSzuj4.s 			page 18


     /tmp/ccRSzuj4.s:2851   .debug_str:0000000000000170 .LASF28
     /tmp/ccRSzuj4.s:2865   .debug_str:0000000000000216 .LASF29
     /tmp/ccRSzuj4.s:2839   .debug_str:00000000000000e9 .LASF30
     /tmp/ccRSzuj4.s:3053   .debug_str:0000000000000b4e .LASF31
     /tmp/ccRSzuj4.s:2931   .debug_str:00000000000004f4 .LASF32
     /tmp/ccRSzuj4.s:2863   .debug_str:00000000000001f0 .LASF33
     /tmp/ccRSzuj4.s:3059   .debug_str:0000000000000b87 .LASF34
     /tmp/ccRSzuj4.s:2907   .debug_str:00000000000003e8 .LASF35
     /tmp/ccRSzuj4.s:2891   .debug_str:0000000000000302 .LASF37
     /tmp/ccRSzuj4.s:2911   .debug_str:0000000000000416 .LASF39
     /tmp/ccRSzuj4.s:2837   .debug_str:00000000000000dc .LASF40
     /tmp/ccRSzuj4.s:3061   .debug_str:0000000000000b96 .LASF41
     /tmp/ccRSzuj4.s:3019   .debug_str:0000000000000926 .LASF42
     /tmp/ccRSzuj4.s:3025   .debug_str:000000000000095e .LASF43
     /tmp/ccRSzuj4.s:2991   .debug_str:0000000000000791 .LASF44
     /tmp/ccRSzuj4.s:2985   .debug_str:000000000000072c .LASF45
     /tmp/ccRSzuj4.s:3055   .debug_str:0000000000000b73 .LASF46
     /tmp/ccRSzuj4.s:2919   .debug_str:0000000000000485 .LASF47
     /tmp/ccRSzuj4.s:3071   .debug_str:0000000000000c55 .LASF48
     /tmp/ccRSzuj4.s:2825   .debug_str:000000000000005a .LASF49
     /tmp/ccRSzuj4.s:2897   .debug_str:000000000000034c .LASF51
     /tmp/ccRSzuj4.s:2849   .debug_str:0000000000000156 .LASF52
     /tmp/ccRSzuj4.s:2847   .debug_str:000000000000013b .LASF53
     /tmp/ccRSzuj4.s:2853   .debug_str:0000000000000188 .LASF54
     /tmp/ccRSzuj4.s:2945   .debug_str:000000000000055e .LASF55
     /tmp/ccRSzuj4.s:3023   .debug_str:000000000000094e .LASF100
     /tmp/ccRSzuj4.s:2819   .debug_str:0000000000000000 .LASF102
     /tmp/ccRSzuj4.s:2905   .debug_str:00000000000003d4 .LASF56
     /tmp/ccRSzuj4.s:3065   .debug_str:0000000000000be5 .LASF57
     /tmp/ccRSzuj4.s:2867   .debug_str:0000000000000246 .LASF58
     /tmp/ccRSzuj4.s:2949   .debug_str:0000000000000583 .LASF59
     /tmp/ccRSzuj4.s:2995   .debug_str:00000000000007b4 .LASF60
     /tmp/ccRSzuj4.s:3035   .debug_str:0000000000000a75 .LASF61
     /tmp/ccRSzuj4.s:3011   .debug_str:00000000000008da .LASF62
     /tmp/ccRSzuj4.s:2979   .debug_str:00000000000006c5 .LASF63
     /tmp/ccRSzuj4.s:3017   .debug_str:0000000000000911 .LASF64
     /tmp/ccRSzuj4.s:2845   .debug_str:000000000000010d .LASF65
     /tmp/ccRSzuj4.s:2961   .debug_str:0000000000000612 .LASF66
     /tmp/ccRSzuj4.s:3067   .debug_str:0000000000000c12 .LASF67
     /tmp/ccRSzuj4.s:3013   .debug_str:00000000000008ed .LASF68
     /tmp/ccRSzuj4.s:2821   .debug_str:000000000000001b .LASF69
     /tmp/ccRSzuj4.s:3029   .debug_str:0000000000000979 .LASF70
     /tmp/ccRSzuj4.s:2883   .debug_str:00000000000002a7 .LASF71
     /tmp/ccRSzuj4.s:2923   .debug_str:000000000000049d .LASF72
     /tmp/ccRSzuj4.s:2901   .debug_str:000000000000038f .LASF73
     /tmp/ccRSzuj4.s:2967   .debug_str:0000000000000641 .LASF74
     /tmp/ccRSzuj4.s:3003   .debug_str:000000000000085e .LASF75
     /tmp/ccRSzuj4.s:2929   .debug_str:00000000000004dd .LASF76
     /tmp/ccRSzuj4.s:2973   .debug_str:000000000000067a .LASF77
     /tmp/ccRSzuj4.s:2959   .debug_str:0000000000000600 .LASF78
     /tmp/ccRSzuj4.s:2917   .debug_str:000000000000047a .LASF79
     /tmp/ccRSzuj4.s:3047   .debug_str:0000000000000b19 .LASF80
     /tmp/ccRSzuj4.s:2947   .debug_str:0000000000000578 .LASF81
     /tmp/ccRSzuj4.s:3075   .debug_str:0000000000000c66 .LASF82
     /tmp/ccRSzuj4.s:2977   .debug_str:00000000000006b4 .LASF83
     /tmp/ccRSzuj4.s:2887   .debug_str:00000000000002f6 .LASF84
     /tmp/ccRSzuj4.s:2935   .debug_str:0000000000000512 .LASF85
GAS LISTING /tmp/ccRSzuj4.s 			page 19


     /tmp/ccRSzuj4.s:2881   .debug_str:000000000000029e .LASF86
     /tmp/ccRSzuj4.s:2835   .debug_str:00000000000000b8 .LASF87
     /tmp/ccRSzuj4.s:2915   .debug_str:0000000000000467 .LASF88
     /tmp/ccRSzuj4.s:2899   .debug_str:000000000000035d .LASF89
     /tmp/ccRSzuj4.s:2965   .debug_str:0000000000000632 .LASF90
     /tmp/ccRSzuj4.s:3031   .debug_str:0000000000000984 .LASF91
     /tmp/ccRSzuj4.s:3045   .debug_str:0000000000000b0c .LASF92
     /tmp/ccRSzuj4.s:2955   .debug_str:00000000000005ca .LASF93
     /tmp/ccRSzuj4.s:2939   .debug_str:0000000000000534 .LASF94
     /tmp/ccRSzuj4.s:3041   .debug_str:0000000000000ad7 .LASF95
     /tmp/ccRSzuj4.s:2941   .debug_str:0000000000000542 .LASF96
     /tmp/ccRSzuj4.s:2913   .debug_str:000000000000043d .LASF97
     /tmp/ccRSzuj4.s:2943   .debug_str:0000000000000550 .LASF98
     /tmp/ccRSzuj4.s:2885   .debug_str:00000000000002cc .LASF99
     /tmp/ccRSzuj4.s:2957   .debug_str:00000000000005f3 .LASF101
     /tmp/ccRSzuj4.s:2981   .debug_str:00000000000006f1 .LASF103
     /tmp/ccRSzuj4.s:2993   .debug_str:000000000000079a .LASF104
     /tmp/ccRSzuj4.s:2999   .debug_str:0000000000000805 .LASF105
     /tmp/ccRSzuj4.s:2857   .debug_str:000000000000019a .LASF106
     /tmp/ccRSzuj4.s:3063   .debug_str:0000000000000bae .LASF107
     /tmp/ccRSzuj4.s:2831   .debug_str:0000000000000085 .LASF108
     /tmp/ccRSzuj4.s:2893   .debug_str:0000000000000311 .LASF109
     /tmp/ccRSzuj4.s:2855   .debug_str:0000000000000195 .LASF110
     /tmp/ccRSzuj4.s:466    .text:00000000000002a0 .LFE21
     /tmp/ccRSzuj4.s:2889   .debug_str:00000000000002fb .LASF116
     /tmp/ccRSzuj4.s:2879   .debug_str:0000000000000297 .LASF111
     /tmp/ccRSzuj4.s:2875   .debug_str:0000000000000287 .LASF112
     /tmp/ccRSzuj4.s:2642   .debug_loc:0000000000000000 .LLST2
     /tmp/ccRSzuj4.s:2657   .debug_loc:0000000000000049 .LLST10
     /tmp/ccRSzuj4.s:362    .text:00000000000001d4 .LBB36
     /tmp/ccRSzuj4.s:369    .text:00000000000001d8 .LBE36
     /tmp/ccRSzuj4.s:2664   .debug_loc:000000000000006c .LLST11
     /tmp/ccRSzuj4.s:295    .text:0000000000000144 .LVL29
     /tmp/ccRSzuj4.s:306    .text:0000000000000164 .LVL30
     /tmp/ccRSzuj4.s:318    .text:0000000000000174 .LVL32
     /tmp/ccRSzuj4.s:323    .text:0000000000000184 .LVL33
     /tmp/ccRSzuj4.s:339    .text:00000000000001a0 .LVL36
     /tmp/ccRSzuj4.s:380    .text:00000000000001ec .LBB40
     /tmp/ccRSzuj4.s:405    .text:0000000000000224 .LBE40
     /tmp/ccRSzuj4.s:2671   .debug_loc:000000000000008f .LLST12
     /tmp/ccRSzuj4.s:398    .text:000000000000021c .LVL40
     /tmp/ccRSzuj4.s:136    .text:0000000000000024 .LBB28
     /tmp/ccRSzuj4.s:150    .text:000000000000003c .LBE28
     /tmp/ccRSzuj4.s:2682   .debug_loc:00000000000000c5 .LLST3
     /tmp/ccRSzuj4.s:142    .text:000000000000002c .LVL15
     /tmp/ccRSzuj4.s:145    .text:0000000000000038 .LVL16
     /tmp/ccRSzuj4.s:151    .text:000000000000003c .LBB30
     /tmp/ccRSzuj4.s:276    .text:0000000000000120 .LBE30
     /tmp/ccRSzuj4.s:2691   .debug_loc:00000000000000ea .LLST4
     /tmp/ccRSzuj4.s:2704   .debug_loc:0000000000000122 .LLST5
     /tmp/ccRSzuj4.s:152    .text:000000000000003c .LBB31
     /tmp/ccRSzuj4.s:275    .text:0000000000000120 .LBE31
     /tmp/ccRSzuj4.s:2719   .debug_loc:000000000000016b .LLST6
     /tmp/ccRSzuj4.s:246    .text:00000000000000fc .LBB34
     /tmp/ccRSzuj4.s:272    .text:0000000000000120 .LBE34
     /tmp/ccRSzuj4.s:2734   .debug_loc:00000000000001a7 .LLST9
     /tmp/ccRSzuj4.s:167    .text:0000000000000060 .LVL18
GAS LISTING /tmp/ccRSzuj4.s 			page 20


     /tmp/ccRSzuj4.s:173    .text:0000000000000070 .LVL19
     /tmp/ccRSzuj4.s:179    .text:000000000000007c .LVL20
     /tmp/ccRSzuj4.s:185    .text:000000000000008c .LVL21
     /tmp/ccRSzuj4.s:211    .text:00000000000000bc .LVL22
     /tmp/ccRSzuj4.s:227    .text:00000000000000e0 .LVL23
     /tmp/ccRSzuj4.s:412    .text:0000000000000234 .LVL43
     /tmp/ccRSzuj4.s:418    .text:0000000000000244 .LVL44
     /tmp/ccRSzuj4.s:427    .text:000000000000025c .LVL45
     /tmp/ccRSzuj4.s:459    .text:0000000000000294 .LVL49
     /tmp/ccRSzuj4.s:463    .text:00000000000002a0 .LVL50
     /tmp/ccRSzuj4.s:2871   .debug_str:000000000000026c .LASF113
     /tmp/ccRSzuj4.s:11     .text._ZN16KObjectAllocatordlEPv:0000000000000000 .LFB10
     /tmp/ccRSzuj4.s:97     .text._ZN16KObjectAllocatordlEPv:00000000000000a4 .LFE10
     /tmp/ccRSzuj4.s:2756   .debug_loc:0000000000000206 .LLST0
     /tmp/ccRSzuj4.s:31     .text._ZN16KObjectAllocatordlEPv:000000000000001c .LBB13
     /tmp/ccRSzuj4.s:59     .text._ZN16KObjectAllocatordlEPv:0000000000000050 .LBE13
     /tmp/ccRSzuj4.s:2774   .debug_loc:0000000000000252 .LLST1
     /tmp/ccRSzuj4.s:44     .text._ZN16KObjectAllocatordlEPv:0000000000000030 .LVL3
     /tmp/ccRSzuj4.s:53     .text._ZN16KObjectAllocatordlEPv:0000000000000048 .LVL4
     /tmp/ccRSzuj4.s:63     .text._ZN16KObjectAllocatordlEPv:0000000000000058 .LVL6
     /tmp/ccRSzuj4.s:66     .text._ZN16KObjectAllocatordlEPv:0000000000000064 .LVL7
     /tmp/ccRSzuj4.s:70     .text._ZN16KObjectAllocatordlEPv:000000000000006c .LVL8
     /tmp/ccRSzuj4.s:73     .text._ZN16KObjectAllocatordlEPv:0000000000000078 .LVL9
     /tmp/ccRSzuj4.s:77     .text._ZN16KObjectAllocatordlEPv:0000000000000080 .LVL10
     /tmp/ccRSzuj4.s:80     .text._ZN16KObjectAllocatordlEPv:000000000000008c .LVL11
     /tmp/ccRSzuj4.s:3027   .debug_str:0000000000000974 .LASF114
     /tmp/ccRSzuj4.s:2823   .debug_str:0000000000000046 .LASF115
     /tmp/ccRSzuj4.s:3009   .debug_str:00000000000008bf .LASF117
     /tmp/ccRSzuj4.s:2925   .debug_str:00000000000004ba .LASF118
     /tmp/ccRSzuj4.s:3069   .debug_str:0000000000000c42 .LASF125
     /tmp/ccRSzuj4.s:2829   .debug_str:0000000000000079 .LASF126
     /tmp/ccRSzuj4.s:2903   .debug_str:00000000000003c5 .LASF127
     /tmp/ccRSzuj4.s:2869   .debug_str:0000000000000254 .LASF128
     /tmp/ccRSzuj4.s:284    .text:000000000000012c .LVL28
     /tmp/ccRSzuj4.s:310    .text:0000000000000168 .LVL31
     /tmp/ccRSzuj4.s:326    .text:0000000000000188 .LVL34
     /tmp/ccRSzuj4.s:448    .text:000000000000027c .LVL47
     /tmp/ccRSzuj4.s:383    .text:00000000000001f0 .LVL39
     /tmp/ccRSzuj4.s:361    .text:00000000000001d4 .LVL37
     /tmp/ccRSzuj4.s:367    .text:00000000000001d8 .LVL38
     /tmp/ccRSzuj4.s:401    .text:0000000000000220 .LVL41
     /tmp/ccRSzuj4.s:403    .text:0000000000000224 .LVL42
     /tmp/ccRSzuj4.s:441    .text:0000000000000270 .LVL46
     /tmp/ccRSzuj4.s:135    .text:0000000000000024 .LVL14
     /tmp/ccRSzuj4.s:148    .text:000000000000003c .LVL17
     /tmp/ccRSzuj4.s:452    .text:0000000000000284 .LVL48
     /tmp/ccRSzuj4.s:245    .text:00000000000000fc .LVL24
     /tmp/ccRSzuj4.s:249    .text:0000000000000100 .LVL25
     /tmp/ccRSzuj4.s:261    .text:0000000000000110 .LVL26
     /tmp/ccRSzuj4.s:268    .text:000000000000011c .LVL27
     /tmp/ccRSzuj4.s:15     .text._ZN16KObjectAllocatordlEPv:0000000000000000 .LVL0
     /tmp/ccRSzuj4.s:34     .text._ZN16KObjectAllocatordlEPv:0000000000000020 .LVL2
     /tmp/ccRSzuj4.s:92     .text._ZN16KObjectAllocatordlEPv:000000000000009c .LVL13
     /tmp/ccRSzuj4.s:30     .text._ZN16KObjectAllocatordlEPv:000000000000001c .LVL1
     /tmp/ccRSzuj4.s:89     .text._ZN16KObjectAllocatordlEPv:0000000000000098 .LVL12
     /tmp/ccRSzuj4.s:498    .debug_info:0000000000000000 .Ldebug_info0
     /tmp/ccRSzuj4.s:5      .text:0000000000000000 .Ltext0
GAS LISTING /tmp/ccRSzuj4.s 			page 21


     /tmp/ccRSzuj4.s:492    .text:00000000000002a0 .Letext0
     /tmp/ccRSzuj4.s:277    .text:0000000000000120 .LBB35
     /tmp/ccRSzuj4.s:280    .text:0000000000000124 .LBE35
     /tmp/ccRSzuj4.s:286    .text:000000000000012c .LBB38
     /tmp/ccRSzuj4.s:311    .text:0000000000000168 .LBE38
     /tmp/ccRSzuj4.s:313    .text:0000000000000168 .LBB39
     /tmp/ccRSzuj4.s:379    .text:00000000000001ec .LBE39
     /tmp/ccRSzuj4.s:469    .gcc_except_table:0000000000000000 .LLSDA21

UNDEFINED SYMBOLS
_ZN15MemoryAllocator8instanceEv
_ZN15MemoryAllocator9kmem_freeEPv
_ZN15MemoryAllocator10kmem_allocEm
_ZN16KObjectAllocator10freeObjectEPv
_ZN16KObjectAllocator19printInternalMemoryEv
_Z11printStringPKc
_ZN16KObjectAllocator17allocateNewObjectEv
_ZN19MemoryAllocatorTest8runTestsEv
_Unwind_Resume
__gxx_personality_v0
