GAS LISTING /tmp/ccWlGd49.s 			page 1


   1              		.file	"main.cpp"
   2              		.option pic
   3              		.option norelax
   4              		.text
   5              	.Ltext0:
   6              		.section	.rodata.str1.8,"aMS",@progbits,1
   7              		.align	3
   8              	.LC1:
   9 0000 0A48656C 		.string	"\nHello there\n"
   9      6C6F2074 
   9      68657265 
   9      0A00
  10 000e 0000     		.align	3
  11              	.LC2:
  12 0010 0A4B4F62 		.string	"\nKObjectAllocator tests:\n"
  12      6A656374 
  12      416C6C6F 
  12      6361746F 
  12      72207465 
  13 002a 00000000 		.align	3
  13      0000
  14              	.LC3:
  15 0030 0A4D656D 		.string	"\nMemory tests:\n"
  15      6F727920 
  15      74657374 
  15      733A0A00 
  16              		.text
  17              		.align	2
  18              		.globl	main
  20              	main:
  21              	.LFB54:
  22              		.file 1 "src/main.cpp"
   1:src/main.cpp  **** #include "../h/print.hpp"
   2:src/main.cpp  **** #include "../h/memoryAllocator.hpp"
   3:src/main.cpp  **** #include "../h/kObjectAllocator.hpp"
   4:src/main.cpp  **** #include "../h/syscall_c.hpp"
   5:src/main.cpp  **** #include "../h/riscv.hpp"
   6:src/main.cpp  **** #include "../h/tcb.hpp"
   7:src/main.cpp  **** 
   8:src/main.cpp  **** // tests delete this before submition !!!!!!!!!!!
   9:src/main.cpp  **** #include "../h/memoryAllocatorTest.hpp"
  10:src/main.cpp  **** #include "../h/kObjectAllocatorTest.hpp"
  11:src/main.cpp  **** 
  12:src/main.cpp  **** int main() {
  23              		.loc 1 12 12
  24              		.cfi_startproc
  25 0000 130101FD 		addi	sp,sp,-48
  26              		.cfi_def_cfa_offset 48
  27 0004 23341102 		sd	ra,40(sp)
  28 0008 23308102 		sd	s0,32(sp)
  29 000c 233C9100 		sd	s1,24(sp)
  30              		.cfi_offset 1, -8
  31              		.cfi_offset 8, -16
  32              		.cfi_offset 9, -24
  33 0010 13040103 		addi	s0,sp,48
  34              		.cfi_def_cfa 8, 0
  13:src/main.cpp  **** 
GAS LISTING /tmp/ccWlGd49.s 			page 2


  14:src/main.cpp  ****     //mem_alloc(12);
  15:src/main.cpp  **** 
  16:src/main.cpp  ****     /*__asm__ volatile ("ld a0, #0x01");
  17:src/main.cpp  ****     uint64 volatile x;
  18:src/main.cpp  ****     __asm__ volatile ("sd a0, %0" : "=m" (x));
  19:src/main.cpp  ****     printString("\nx= ");
  20:src/main.cpp  ****     printInteger(x);
  21:src/main.cpp  ****     printString("\n");
  22:src/main.cpp  ****     __asm__ volatile ("ecall");*/
  23:src/main.cpp  **** 
  24:src/main.cpp  ****     Riscv::w_stvec((uint64) &Riscv::supervisorTrap);
  35              		.loc 1 24 5
  36              		.loc 1 24 19 is_stmt 0
  37 0014 97070000 		la	a5,_ZN5Riscv14supervisorTrapEv
  37      83B70700 
  38              	.LVL0:
  39              	.LBB11:
  40              	.LBB12:
  41              		.file 2 "src/../h/riscv.hpp"
   1:src/../h/riscv.hpp **** #ifndef RISCV_HPP
   2:src/../h/riscv.hpp **** #define RISCV_HPP
   3:src/../h/riscv.hpp **** 
   4:src/../h/riscv.hpp **** #include "../lib/hw.h"
   5:src/../h/riscv.hpp **** 
   6:src/../h/riscv.hpp **** class Riscv
   7:src/../h/riscv.hpp **** {
   8:src/../h/riscv.hpp **** public:
   9:src/../h/riscv.hpp **** 
  10:src/../h/riscv.hpp ****     // pop sstatus.spp and sstatus.spie bits (has to be a non inline function)
  11:src/../h/riscv.hpp ****     static void popSppSpie();
  12:src/../h/riscv.hpp **** 
  13:src/../h/riscv.hpp ****     // read register scause
  14:src/../h/riscv.hpp ****     static uint64 r_scause();
  15:src/../h/riscv.hpp **** 
  16:src/../h/riscv.hpp ****     // write register scause
  17:src/../h/riscv.hpp ****     static void w_scause(uint64 scause);
  18:src/../h/riscv.hpp **** 
  19:src/../h/riscv.hpp ****     // read register sepc
  20:src/../h/riscv.hpp ****     static uint64 r_sepc();
  21:src/../h/riscv.hpp **** 
  22:src/../h/riscv.hpp ****     // write register sepc
  23:src/../h/riscv.hpp ****     static void w_sepc(uint64 sepc);
  24:src/../h/riscv.hpp **** 
  25:src/../h/riscv.hpp ****     // read register stvec
  26:src/../h/riscv.hpp ****     static uint64 r_stvec();
  27:src/../h/riscv.hpp **** 
  28:src/../h/riscv.hpp ****     // write register stvec
  29:src/../h/riscv.hpp ****     static void w_stvec(uint64 stvec);
  30:src/../h/riscv.hpp **** 
  31:src/../h/riscv.hpp ****     // read register stval
  32:src/../h/riscv.hpp ****     static uint64 r_stval();
  33:src/../h/riscv.hpp **** 
  34:src/../h/riscv.hpp ****     // write register stval
  35:src/../h/riscv.hpp ****     static void w_stval(uint64 stval);
  36:src/../h/riscv.hpp **** 
  37:src/../h/riscv.hpp ****     enum BitMaskSip
  38:src/../h/riscv.hpp ****     {
GAS LISTING /tmp/ccWlGd49.s 			page 3


  39:src/../h/riscv.hpp ****         SIP_SSIP = (1 << 1),
  40:src/../h/riscv.hpp ****         SIP_STIP = (1 << 5),
  41:src/../h/riscv.hpp ****         SIP_SEIP = (1 << 9),
  42:src/../h/riscv.hpp ****     };
  43:src/../h/riscv.hpp **** 
  44:src/../h/riscv.hpp ****     // mask set register sip
  45:src/../h/riscv.hpp ****     static void ms_sip(uint64 mask);
  46:src/../h/riscv.hpp **** 
  47:src/../h/riscv.hpp ****     // mask clear register sip
  48:src/../h/riscv.hpp ****     static void mc_sip(uint64 mask);
  49:src/../h/riscv.hpp **** 
  50:src/../h/riscv.hpp ****     // read register sip
  51:src/../h/riscv.hpp ****     static uint64 r_sip();
  52:src/../h/riscv.hpp **** 
  53:src/../h/riscv.hpp ****     // write register sip
  54:src/../h/riscv.hpp ****     static void w_sip(uint64 sip);
  55:src/../h/riscv.hpp **** 
  56:src/../h/riscv.hpp ****     enum BitMaskSstatus
  57:src/../h/riscv.hpp ****     {
  58:src/../h/riscv.hpp ****         SSTATUS_SIE = (1 << 1),
  59:src/../h/riscv.hpp ****         SSTATUS_SPIE = (1 << 5),
  60:src/../h/riscv.hpp ****         SSTATUS_SPP = (1 << 8),
  61:src/../h/riscv.hpp ****     };
  62:src/../h/riscv.hpp **** 
  63:src/../h/riscv.hpp ****     // mask set register sstatus
  64:src/../h/riscv.hpp ****     static void ms_sstatus(uint64 mask);
  65:src/../h/riscv.hpp **** 
  66:src/../h/riscv.hpp ****     // mask clear register sstatus
  67:src/../h/riscv.hpp ****     static void mc_sstatus(uint64 mask);
  68:src/../h/riscv.hpp **** 
  69:src/../h/riscv.hpp ****     // read register sstatus
  70:src/../h/riscv.hpp ****     static uint64 r_sstatus();
  71:src/../h/riscv.hpp **** 
  72:src/../h/riscv.hpp ****     // write register sstatus
  73:src/../h/riscv.hpp ****     static void w_sstatus(uint64 sstatus);
  74:src/../h/riscv.hpp **** 
  75:src/../h/riscv.hpp ****     // supervisor trap
  76:src/../h/riscv.hpp ****     static void supervisorTrap();
  77:src/../h/riscv.hpp **** 
  78:src/../h/riscv.hpp **** private:
  79:src/../h/riscv.hpp **** 
  80:src/../h/riscv.hpp ****     // supervisor trap handler
  81:src/../h/riscv.hpp ****     static void handleSupervisorTrap();
  82:src/../h/riscv.hpp **** 
  83:src/../h/riscv.hpp **** };
  84:src/../h/riscv.hpp **** 
  85:src/../h/riscv.hpp **** inline uint64 Riscv::r_scause()
  86:src/../h/riscv.hpp **** {
  87:src/../h/riscv.hpp ****     uint64 volatile scause;
  88:src/../h/riscv.hpp ****     __asm__ volatile ("csrr %[scause], scause" : [scause] "=r"(scause));
  89:src/../h/riscv.hpp ****     return scause;
  90:src/../h/riscv.hpp **** }
  91:src/../h/riscv.hpp **** 
  92:src/../h/riscv.hpp **** inline void Riscv::w_scause(uint64 scause)
  93:src/../h/riscv.hpp **** {
  94:src/../h/riscv.hpp ****     __asm__ volatile ("csrw scause, %[scause]" : : [scause] "r"(scause));
  95:src/../h/riscv.hpp **** }
GAS LISTING /tmp/ccWlGd49.s 			page 4


  96:src/../h/riscv.hpp **** 
  97:src/../h/riscv.hpp **** inline uint64 Riscv::r_sepc()
  98:src/../h/riscv.hpp **** {
  99:src/../h/riscv.hpp ****     uint64 volatile sepc;
 100:src/../h/riscv.hpp ****     __asm__ volatile ("csrr %[sepc], sepc" : [sepc] "=r"(sepc));
 101:src/../h/riscv.hpp ****     return sepc;
 102:src/../h/riscv.hpp **** }
 103:src/../h/riscv.hpp **** 
 104:src/../h/riscv.hpp **** inline void Riscv::w_sepc(uint64 sepc)
 105:src/../h/riscv.hpp **** {
 106:src/../h/riscv.hpp ****     __asm__ volatile ("csrw sepc, %[sepc]" : : [sepc] "r"(sepc));
 107:src/../h/riscv.hpp **** }
 108:src/../h/riscv.hpp **** 
 109:src/../h/riscv.hpp **** inline uint64 Riscv::r_stvec()
 110:src/../h/riscv.hpp **** {
 111:src/../h/riscv.hpp ****     uint64 volatile stvec;
 112:src/../h/riscv.hpp ****     __asm__ volatile ("csrr %[stvec], stvec" : [stvec] "=r"(stvec));
 113:src/../h/riscv.hpp ****     return stvec;
 114:src/../h/riscv.hpp **** }
 115:src/../h/riscv.hpp **** 
 116:src/../h/riscv.hpp **** inline void Riscv::w_stvec(uint64 stvec)
 117:src/../h/riscv.hpp **** {
 118:src/../h/riscv.hpp ****     __asm__ volatile ("csrw stvec, %[stvec]" : : [stvec] "r"(stvec));
  42              		.loc 2 118 5 is_stmt 1
  43              		.loc 2 118 69 is_stmt 0
  44              	#APP
  45              	# 118 "src/../h/riscv.hpp" 1
 119              	}
  46              		csrw stvec, a5
  47              	# 0 "" 2
  48              	.LVL1:
  49              	#NO_APP
  50              	.LBE12:
  51              	.LBE11:
  25:src/main.cpp  ****     printString("\nHello there\n");
  52              		.loc 1 25 5 is_stmt 1
  53              		.loc 1 25 16 is_stmt 0
  54 0020 17050000 		lla	a0,.LC1
  54      13050500 
  55 0028 97000000 		call	_Z11printStringPKc@plt
  55      E7800000 
  56              	.LVL2:
  26:src/main.cpp  ****     //Riscv::popSppSpie();
  27:src/main.cpp  ****     mem_alloc(12);
  57              		.loc 1 27 5 is_stmt 1
  58              		.loc 1 27 14 is_stmt 0
  59 0030 1305C000 		li	a0,12
  60 0034 97000000 		call	_Z9mem_allocm@plt
  60      E7800000 
  61              	.LVL3:
  28:src/main.cpp  **** 
  29:src/main.cpp  **** 
  30:src/main.cpp  ****     printString("\nKObjectAllocator tests:\n");
  62              		.loc 1 30 5 is_stmt 1
  63              		.loc 1 30 16 is_stmt 0
  64 003c 17050000 		lla	a0,.LC2
  64      13050500 
GAS LISTING /tmp/ccWlGd49.s 			page 5


  65 0044 97000000 		call	_Z11printStringPKc@plt
  65      E7800000 
  66              	.LVL4:
  31:src/main.cpp  ****     KObjectAllocatorTest* t2 = new KObjectAllocatorTest;
  67              		.loc 1 31 5 is_stmt 1
  68              	.LBB13:
  69              	.LBB14:
  70              		.file 3 "src/../h/kObjectAllocatorTest.hpp"
   1:src/../h/kObjectAllocatorTest.hpp **** #ifndef KOBJECTALLOCATORTEST_H
   2:src/../h/kObjectAllocatorTest.hpp **** #define KOBJECTALLOCATORTEST_H
   3:src/../h/kObjectAllocatorTest.hpp **** 
   4:src/../h/kObjectAllocatorTest.hpp **** #include "memoryAllocator.hpp"
   5:src/../h/kObjectAllocatorTest.hpp **** #include "kObjectAllocator.hpp"
   6:src/../h/kObjectAllocatorTest.hpp **** 
   7:src/../h/kObjectAllocatorTest.hpp **** class KObjectAllocatorTest {
   8:src/../h/kObjectAllocatorTest.hpp **** public:
   9:src/../h/kObjectAllocatorTest.hpp ****     KObjectAllocatorTest() {}
  10:src/../h/kObjectAllocatorTest.hpp ****     void* operator new(size_t size) {
  11:src/../h/kObjectAllocatorTest.hpp ****         return MemoryAllocator::instance()->kmem_alloc(size);
  71              		.loc 3 11 9
  72              		.loc 3 11 55 is_stmt 0
  73 004c 97000000 		call	_ZN15MemoryAllocator8instanceEv@plt
  73      E7800000 
  74              	.LVL5:
  75 0054 93050004 		li	a1,64
  76 0058 97000000 		call	_ZN15MemoryAllocator10kmem_allocEm@plt
  76      E7800000 
  77              	.LVL6:
  78 0060 93040500 		mv	s1,a0
  79              	.LVL7:
  80              	.LBE14:
  81              	.LBE13:
  82              	.LBB15:
  83              	.LBB16:
   9:src/../h/kObjectAllocatorTest.hpp ****     void* operator new(size_t size) {
  84              		.loc 3 9 28
  85 0064 93074000 		li	a5,4
  86 0068 2330F500 		sd	a5,0(a0)
  87 006c 97070000 		lla	a5,.LANCHOR0
  87      93870700 
  88 0074 83B80700 		ld	a7,0(a5)
  89 0078 03B88700 		ld	a6,8(a5)
  90 007c 83B50701 		ld	a1,16(a5)
  91 0080 03B68701 		ld	a2,24(a5)
  92 0084 83B60702 		ld	a3,32(a5)
  93 0088 03B78702 		ld	a4,40(a5)
  94 008c 83B70703 		ld	a5,48(a5)
  95 0090 23341501 		sd	a7,8(a0)
  96 0094 23380501 		sd	a6,16(a0)
  97 0098 233CB500 		sd	a1,24(a0)
  98 009c 2330C502 		sd	a2,32(a0)
  99 00a0 2334D502 		sd	a3,40(a0)
 100 00a4 2338E502 		sd	a4,48(a0)
 101 00a8 233CF502 		sd	a5,56(a0)
 102              	.LVL8:
 103              	.LBE16:
 104              	.LBE15:
GAS LISTING /tmp/ccWlGd49.s 			page 6


  32:src/main.cpp  ****     t2->runTests();
 105              		.loc 1 32 5 is_stmt 1
 106              		.loc 1 32 17 is_stmt 0
 107 00ac 97000000 		call	_ZN20KObjectAllocatorTest8runTestsEv@plt
 107      E7800000 
 108              	.LVL9:
  33:src/main.cpp  ****     delete t2;
 109              		.loc 1 33 5 is_stmt 1
 110              		.loc 1 33 14 is_stmt 0
 111 00b4 638C0400 		beqz	s1,.L2
 112              	.LVL10:
 113              	.LBB17:
 114              	.LBB18:
  12:src/../h/kObjectAllocatorTest.hpp ****     }
  13:src/../h/kObjectAllocatorTest.hpp ****     void operator delete(void* p) {
  14:src/../h/kObjectAllocatorTest.hpp ****         MemoryAllocator::instance()->kmem_free(p);
 115              		.loc 3 14 9 is_stmt 1 discriminator 1
 116              		.loc 3 14 47 is_stmt 0 discriminator 1
 117 00b8 97000000 		call	_ZN15MemoryAllocator8instanceEv@plt
 117      E7800000 
 118              	.LVL11:
 119 00c0 93850400 		mv	a1,s1
 120 00c4 97000000 		call	_ZN15MemoryAllocator9kmem_freeEPv@plt
 120      E7800000 
 121              	.LVL12:
 122              	.L2:
 123              	.LBE18:
 124              	.LBE17:
  34:src/main.cpp  **** 
  35:src/main.cpp  ****     printString("\nMemory tests:\n");
 125              		.loc 1 35 5 is_stmt 1
 126              		.loc 1 35 16 is_stmt 0
 127 00cc 17050000 		lla	a0,.LC3
 127      13050500 
 128 00d4 97000000 		call	_Z11printStringPKc@plt
 128      E7800000 
 129              	.LVL13:
  36:src/main.cpp  ****     MemoryAllocatorTest t1;
 130              		.loc 1 36 5 is_stmt 1
  37:src/main.cpp  ****     t1.runTests();
 131              		.loc 1 37 5
 132              		.loc 1 37 16 is_stmt 0
 133 00dc 130584FD 		addi	a0,s0,-40
 134 00e0 97000000 		call	_ZN19MemoryAllocatorTest8runTestsEv@plt
 134      E7800000 
 135              	.LVL14:
  38:src/main.cpp  **** 
  39:src/main.cpp  **** 
  40:src/main.cpp  ****     return 0;
 136              		.loc 1 40 5 is_stmt 1
  41:src/main.cpp  **** }...
 137              		.loc 1 41 1 is_stmt 0
 138 00e8 13050000 		li	a0,0
 139 00ec 83308102 		ld	ra,40(sp)
 140              		.cfi_restore 1
 141 00f0 03340102 		ld	s0,32(sp)
 142              		.cfi_restore 8
GAS LISTING /tmp/ccWlGd49.s 			page 7


 143              		.cfi_def_cfa 2, 48
 144 00f4 83348101 		ld	s1,24(sp)
 145              		.cfi_restore 9
 146              	.LVL15:
 147 00f8 13010103 		addi	sp,sp,48
 148              		.cfi_def_cfa_offset 0
 149 00fc 67800000 		jr	ra
 150              		.cfi_endproc
 151              	.LFE54:
 153              		.section	.rodata
 154              		.align	3
 155              		.set	.LANCHOR0,. + 0
 156              	.LC0:
 157 0000 08000000 		.dword	8
 157      00000000 
 158 0008 04000000 		.dword	4
 158      00000000 
 159 0010 01000000 		.dword	1
 159      00000000 
 160 0018 20000000 		.dword	32
 160      00000000 
 161 0020 10000000 		.dword	16
 161      00000000 
 162 0028 40000000 		.dword	64
 162      00000000 
 163 0030 40000000 		.dword	64
 163      00000000 
 164              		.text
 165              	.Letext0:
 166              		.file 4 "src/../h/../lib/hw.h"
 167              		.file 5 "src/../h/memoryAllocator.hpp"
 168              		.file 6 "src/../h/kObjectAllocator.hpp"
 169              		.file 7 "src/../h/memoryAllocatorTest.hpp"
 170              		.file 8 "src/../h/syscall_c.hpp"
 171              		.file 9 "src/../h/print.hpp"
GAS LISTING /tmp/ccWlGd49.s 			page 8

