GAS LISTING /tmp/cc4aUg83.s 			page 1


   1              		.file	"main.cpp"
   2              		.option pic
   3              		.option norelax
   4              		.text
   5              	.Ltext0:
   6              		.align	2
   7              		.globl	main
   9              	main:
  10              	.LFB3:
  11              		.file 1 "src/main.cpp"
   1:src/main.cpp  **** #include "../h/print.hpp"
   2:src/main.cpp  **** #include "../h/memoryAllocator.hpp"
   3:src/main.cpp  **** 
   4:src/main.cpp  **** int main() {
  12              		.loc 1 4 12
  13              		.cfi_startproc
  14 0000 130101FF 		addi	sp,sp,-16
  15              		.cfi_def_cfa_offset 16
  16 0004 23341100 		sd	ra,8(sp)
  17 0008 23308100 		sd	s0,0(sp)
  18              		.cfi_offset 1, -8
  19              		.cfi_offset 8, -16
  20 000c 13040101 		addi	s0,sp,16
  21              		.cfi_def_cfa 8, 0
   5:src/main.cpp  **** 
   6:src/main.cpp  ****     MemoryAllocator::printMemorySpaceParams();
  22              		.loc 1 6 5
  23              		.loc 1 6 44 is_stmt 0
  24 0010 97000000 		call	_ZN15MemoryAllocator22printMemorySpaceParamsEv@plt
  24      E7800000 
  25              	.LVL0:
   7:src/main.cpp  ****     MemoryAllocator::instance()->printInstanceMemorySpaceParams();
  26              		.loc 1 7 5 is_stmt 1
  27              		.loc 1 7 64 is_stmt 0
  28 0018 97000000 		call	_ZN15MemoryAllocator8instanceEv@plt
  28      E7800000 
  29              	.LVL1:
  30 0020 97000000 		call	_ZN15MemoryAllocator30printInstanceMemorySpaceParamsEv@plt
  30      E7800000 
  31              	.LVL2:
   8:src/main.cpp  ****     MemoryAllocator::printMemorySpaceParams();
  32              		.loc 1 8 5 is_stmt 1
  33              		.loc 1 8 44 is_stmt 0
  34 0028 97000000 		call	_ZN15MemoryAllocator22printMemorySpaceParamsEv@plt
  34      E7800000 
  35              	.LVL3:
   9:src/main.cpp  **** 
  10:src/main.cpp  ****     MemoryAllocator::instance()->printFreeMemoryHeadData();
  36              		.loc 1 10 5 is_stmt 1
  37              		.loc 1 10 57 is_stmt 0
  38 0030 97000000 		call	_ZN15MemoryAllocator8instanceEv@plt
  38      E7800000 
  39              	.LVL4:
  40 0038 97000000 		call	_ZN15MemoryAllocator23printFreeMemoryHeadDataEv@plt
  40      E7800000 
  41              	.LVL5:
  11:src/main.cpp  **** 
GAS LISTING /tmp/cc4aUg83.s 			page 2


  12:src/main.cpp  ****     MemoryAllocator::instance()->kmem_alloc(120);
  42              		.loc 1 12 5 is_stmt 1
  43              		.loc 1 12 44 is_stmt 0
  44 0040 97000000 		call	_ZN15MemoryAllocator8instanceEv@plt
  44      E7800000 
  45              	.LVL6:
  46 0048 93058007 		li	a1,120
  47 004c 97000000 		call	_ZN15MemoryAllocator10kmem_allocEm@plt
  47      E7800000 
  48              	.LVL7:
  13:src/main.cpp  ****     MemoryAllocator::instance()->printFreeMemoryHeadData();
  49              		.loc 1 13 5 is_stmt 1
  50              		.loc 1 13 57 is_stmt 0
  51 0054 97000000 		call	_ZN15MemoryAllocator8instanceEv@plt
  51      E7800000 
  52              	.LVL8:
  53 005c 97000000 		call	_ZN15MemoryAllocator23printFreeMemoryHeadDataEv@plt
  53      E7800000 
  54              	.LVL9:
  14:src/main.cpp  ****     MemoryAllocator::instance()->printInstanceMemorySpaceParams();
  55              		.loc 1 14 5 is_stmt 1
  56              		.loc 1 14 64 is_stmt 0
  57 0064 97000000 		call	_ZN15MemoryAllocator8instanceEv@plt
  57      E7800000 
  58              	.LVL10:
  59 006c 97000000 		call	_ZN15MemoryAllocator30printInstanceMemorySpaceParamsEv@plt
  59      E7800000 
  60              	.LVL11:
  15:src/main.cpp  **** 
  16:src/main.cpp  **** 
  17:src/main.cpp  **** 
  18:src/main.cpp  ****     return 0;
  61              		.loc 1 18 5 is_stmt 1
  19:src/main.cpp  **** }...
  62              		.loc 1 19 1 is_stmt 0
  63 0074 13050000 		li	a0,0
  64 0078 83308100 		ld	ra,8(sp)
  65              		.cfi_restore 1
  66 007c 03340100 		ld	s0,0(sp)
  67              		.cfi_restore 8
  68              		.cfi_def_cfa 2, 16
  69 0080 13010101 		addi	sp,sp,16
  70              		.cfi_def_cfa_offset 0
  71 0084 67800000 		jr	ra
  72              		.cfi_endproc
  73              	.LFE3:
  75              	.Letext0:
  76              		.file 2 "src/../h/../lib/hw.h"
  77              		.file 3 "src/../h/memoryAllocator.hpp"
GAS LISTING /tmp/cc4aUg83.s 			page 3


DEFINED SYMBOLS
                            *ABS*:0000000000000000 main.cpp
     /tmp/cc4aUg83.s:9      .text:0000000000000000 main
     /tmp/cc4aUg83.s:13     .text:0000000000000000 .L0 
     /tmp/cc4aUg83.s:14     .text:0000000000000000 .L0 
     /tmp/cc4aUg83.s:15     .text:0000000000000004 .L0 
     /tmp/cc4aUg83.s:18     .text:000000000000000c .L0 
     /tmp/cc4aUg83.s:19     .text:000000000000000c .L0 
     /tmp/cc4aUg83.s:21     .text:0000000000000010 .L0 
     /tmp/cc4aUg83.s:23     .text:0000000000000010 .L0 
     /tmp/cc4aUg83.s:24     .text:0000000000000010 .L0 
     /tmp/cc4aUg83.s:27     .text:0000000000000018 .L0 
     /tmp/cc4aUg83.s:28     .text:0000000000000018 .L0 
     /tmp/cc4aUg83.s:33     .text:0000000000000028 .L0 
     /tmp/cc4aUg83.s:34     .text:0000000000000028 .L0 
     /tmp/cc4aUg83.s:37     .text:0000000000000030 .L0 
     /tmp/cc4aUg83.s:38     .text:0000000000000030 .L0 
     /tmp/cc4aUg83.s:43     .text:0000000000000040 .L0 
     /tmp/cc4aUg83.s:44     .text:0000000000000040 .L0 
     /tmp/cc4aUg83.s:50     .text:0000000000000054 .L0 
     /tmp/cc4aUg83.s:51     .text:0000000000000054 .L0 
     /tmp/cc4aUg83.s:56     .text:0000000000000064 .L0 
     /tmp/cc4aUg83.s:57     .text:0000000000000064 .L0 
     /tmp/cc4aUg83.s:62     .text:0000000000000074 .L0 
     /tmp/cc4aUg83.s:63     .text:0000000000000074 .L0 
     /tmp/cc4aUg83.s:65     .text:000000000000007c .L0 
     /tmp/cc4aUg83.s:67     .text:0000000000000080 .L0 
     /tmp/cc4aUg83.s:68     .text:0000000000000080 .L0 
     /tmp/cc4aUg83.s:70     .text:0000000000000084 .L0 
     /tmp/cc4aUg83.s:72     .text:0000000000000088 .L0 
     /tmp/cc4aUg83.s:78     .text:0000000000000088 .L0 
     /tmp/cc4aUg83.s:495    .debug_abbrev:0000000000000000 .Ldebug_abbrev0
     /tmp/cc4aUg83.s:1008   .debug_str:000000000000022b .LASF50
     /tmp/cc4aUg83.s:1018   .debug_str:0000000000000366 .LASF51
     /tmp/cc4aUg83.s:1002   .debug_str:00000000000001e3 .LASF52
     /tmp/cc4aUg83.s:5      .text:0000000000000000 .Ltext0
     /tmp/cc4aUg83.s:75     .text:0000000000000088 .Letext0
     /tmp/cc4aUg83.s:954    .debug_line:0000000000000000 .Ldebug_line0
     /tmp/cc4aUg83.s:1020   .debug_str:0000000000000373 .LASF0
     /tmp/cc4aUg83.s:998    .debug_str:00000000000001c4 .LASF1
     /tmp/cc4aUg83.s:992    .debug_str:0000000000000174 .LASF2
     /tmp/cc4aUg83.s:1046   .debug_str:0000000000000450 .LASF3
     /tmp/cc4aUg83.s:970    .debug_str:0000000000000098 .LASF4
     /tmp/cc4aUg83.s:994    .debug_str:0000000000000182 .LASF5
     /tmp/cc4aUg83.s:962    .debug_str:0000000000000043 .LASF6
     /tmp/cc4aUg83.s:958    .debug_str:0000000000000020 .LASF7
     /tmp/cc4aUg83.s:982    .debug_str:000000000000010f .LASF8
     /tmp/cc4aUg83.s:1026   .debug_str:000000000000039f .LASF9
     /tmp/cc4aUg83.s:968    .debug_str:000000000000008a .LASF10
     /tmp/cc4aUg83.s:1068   .debug_str:0000000000000540 .LASF11
     /tmp/cc4aUg83.s:986    .debug_str:000000000000012e .LASF12
     /tmp/cc4aUg83.s:1054   .debug_str:00000000000004be .LASF13
     /tmp/cc4aUg83.s:1034   .debug_str:00000000000003da .LASF14
     /tmp/cc4aUg83.s:1000   .debug_str:00000000000001d7 .LASF15
     /tmp/cc4aUg83.s:976    .debug_str:00000000000000dd .LASF16
     /tmp/cc4aUg83.s:1030   .debug_str:00000000000003b9 .LASF17
     /tmp/cc4aUg83.s:960    .debug_str:0000000000000033 .LASF53
GAS LISTING /tmp/cc4aUg83.s 			page 4


     /tmp/cc4aUg83.s:1064   .debug_str:0000000000000508 .LASF54
     /tmp/cc4aUg83.s:964    .debug_str:000000000000004a .LASF18
     /tmp/cc4aUg83.s:1060   .debug_str:00000000000004eb .LASF19
     /tmp/cc4aUg83.s:1038   .debug_str:0000000000000411 .LASF55
     /tmp/cc4aUg83.s:1050   .debug_str:000000000000047b .LASF56
     /tmp/cc4aUg83.s:1042   .debug_str:0000000000000423 .LASF36
     /tmp/cc4aUg83.s:974    .debug_str:00000000000000ae .LASF38
     /tmp/cc4aUg83.s:1022   .debug_str:0000000000000380 .LASF24
     /tmp/cc4aUg83.s:1010   .debug_str:00000000000002ef .LASF26
     /tmp/cc4aUg83.s:1032   .debug_str:00000000000003cf .LASF20
     /tmp/cc4aUg83.s:1052   .debug_str:000000000000049b .LASF22
     /tmp/cc4aUg83.s:1028   .debug_str:00000000000003af .LASF21
     /tmp/cc4aUg83.s:1012   .debug_str:0000000000000319 .LASF23
     /tmp/cc4aUg83.s:990    .debug_str:0000000000000155 .LASF25
     /tmp/cc4aUg83.s:966    .debug_str:0000000000000053 .LASF27
     /tmp/cc4aUg83.s:988    .debug_str:000000000000013d .LASF28
     /tmp/cc4aUg83.s:996    .debug_str:0000000000000194 .LASF29
     /tmp/cc4aUg83.s:980    .debug_str:0000000000000102 .LASF30
     /tmp/cc4aUg83.s:1048   .debug_str:0000000000000456 .LASF31
     /tmp/cc4aUg83.s:1058   .debug_str:00000000000004dd .LASF32
     /tmp/cc4aUg83.s:1066   .debug_str:000000000000051a .LASF33
     /tmp/cc4aUg83.s:1056   .debug_str:00000000000004ce .LASF34
     /tmp/cc4aUg83.s:1036   .debug_str:00000000000003ea .LASF35
     /tmp/cc4aUg83.s:972    .debug_str:000000000000009f .LASF37
     /tmp/cc4aUg83.s:1014   .debug_str:000000000000033a .LASF39
     /tmp/cc4aUg83.s:1024   .debug_str:0000000000000392 .LASF40
     /tmp/cc4aUg83.s:1062   .debug_str:00000000000004f0 .LASF41
     /tmp/cc4aUg83.s:1044   .debug_str:000000000000043a .LASF42
     /tmp/cc4aUg83.s:1040   .debug_str:000000000000041a .LASF43
     /tmp/cc4aUg83.s:956    .debug_str:0000000000000000 .LASF44
     /tmp/cc4aUg83.s:1004   .debug_str:0000000000000216 .LASF45
     /tmp/cc4aUg83.s:1006   .debug_str:0000000000000220 .LASF46
     /tmp/cc4aUg83.s:984    .debug_str:0000000000000122 .LASF47
     /tmp/cc4aUg83.s:978    .debug_str:00000000000000f3 .LASF48
     /tmp/cc4aUg83.s:1016   .debug_str:0000000000000361 .LASF49
     /tmp/cc4aUg83.s:10     .text:0000000000000000 .LFB3
     /tmp/cc4aUg83.s:73     .text:0000000000000088 .LFE3
     /tmp/cc4aUg83.s:25     .text:0000000000000018 .LVL0
     /tmp/cc4aUg83.s:29     .text:0000000000000020 .LVL1
     /tmp/cc4aUg83.s:31     .text:0000000000000028 .LVL2
     /tmp/cc4aUg83.s:35     .text:0000000000000030 .LVL3
     /tmp/cc4aUg83.s:39     .text:0000000000000038 .LVL4
     /tmp/cc4aUg83.s:41     .text:0000000000000040 .LVL5
     /tmp/cc4aUg83.s:45     .text:0000000000000048 .LVL6
     /tmp/cc4aUg83.s:48     .text:0000000000000054 .LVL7
     /tmp/cc4aUg83.s:52     .text:000000000000005c .LVL8
     /tmp/cc4aUg83.s:54     .text:0000000000000064 .LVL9
     /tmp/cc4aUg83.s:58     .text:000000000000006c .LVL10
     /tmp/cc4aUg83.s:60     .text:0000000000000074 .LVL11
     /tmp/cc4aUg83.s:79     .debug_info:0000000000000000 .Ldebug_info0

UNDEFINED SYMBOLS
_ZN15MemoryAllocator22printMemorySpaceParamsEv
_ZN15MemoryAllocator8instanceEv
_ZN15MemoryAllocator30printInstanceMemorySpaceParamsEv
_ZN15MemoryAllocator23printFreeMemoryHeadDataEv
_ZN15MemoryAllocator10kmem_allocEm
GAS LISTING /tmp/cc4aUg83.s 			page 5


