GAS LISTING /tmp/cclfPASU.s 			page 1


   1              		.file	"memoryAllocatorTest.cpp"
   2              		.option pic
   3              		.option norelax
   4              		.text
   5              	.Ltext0:
   6              		.align	2
   7              		.globl	_ZN19MemoryAllocatorTest16getFreeBlocksCntEv
   9              	_ZN19MemoryAllocatorTest16getFreeBlocksCntEv:
  10              	.LFB6:
  11              		.file 1 "src/memoryAllocatorTest.cpp"
   1:src/memoryAllocatorTest.cpp **** #include "../h/memoryAllocatorTest.hpp"
   2:src/memoryAllocatorTest.cpp **** #include "../lib/hw.h"
   3:src/memoryAllocatorTest.cpp **** #include "../h/memoryAllocator.hpp"
   4:src/memoryAllocatorTest.cpp **** #include "../h/print.hpp"
   5:src/memoryAllocatorTest.cpp **** 
   6:src/memoryAllocatorTest.cpp **** bool MemoryAllocatorTest::runTests() {
   7:src/memoryAllocatorTest.cpp ****     #define SIZE_TEST_NUMBER 13
   8:src/memoryAllocatorTest.cpp **** 
   9:src/memoryAllocatorTest.cpp ****     uint64 sizes[SIZE_TEST_NUMBER];
  10:src/memoryAllocatorTest.cpp ****     sizes[0] = 3.7 * MEM_BLOCK_SIZE;
  11:src/memoryAllocatorTest.cpp ****     sizes[1] = MEM_BLOCK_SIZE;
  12:src/memoryAllocatorTest.cpp ****     sizes[2] = 0.3 * MEM_BLOCK_SIZE;
  13:src/memoryAllocatorTest.cpp ****     sizes[3] = 0;
  14:src/memoryAllocatorTest.cpp ****     sizes[4] = -37;
  15:src/memoryAllocatorTest.cpp ****     sizes[5] = sizeof(MemoryAllocator::SegmentDescriptor) - 1;
  16:src/memoryAllocatorTest.cpp ****     sizes[6] = sizeof(MemoryAllocator::SegmentDescriptor);
  17:src/memoryAllocatorTest.cpp ****     sizes[7] = sizeof(MemoryAllocator::SegmentDescriptor) + 1;
  18:src/memoryAllocatorTest.cpp ****     sizes[8] = MemoryAllocator::minMemoryFragmentSize - 1;
  19:src/memoryAllocatorTest.cpp ****     sizes[9] = MemoryAllocator::minMemoryFragmentSize;
  20:src/memoryAllocatorTest.cpp ****     sizes[10] = MemoryAllocator::minMemoryFragmentSize + 1;
  21:src/memoryAllocatorTest.cpp ****     sizes[11] = MEM_BLOCK_SIZE - 1;
  22:src/memoryAllocatorTest.cpp ****     sizes[12] = MEM_BLOCK_SIZE + 1;
  23:src/memoryAllocatorTest.cpp **** 
  24:src/memoryAllocatorTest.cpp ****     for (int i = 0; i < SIZE_TEST_NUMBER; ++i) {
  25:src/memoryAllocatorTest.cpp ****         void * allocatedMemoryPointer = nullptr;
  26:src/memoryAllocatorTest.cpp ****         if (!testMemoryAllocate(sizes[i], &allocatedMemoryPointer)) {
  27:src/memoryAllocatorTest.cpp ****             printString("Failed testMemoryAllocate test for input ");
  28:src/memoryAllocatorTest.cpp ****             printInteger(sizes[i]); printString("\n"); return false;
  29:src/memoryAllocatorTest.cpp ****         } else printString("Passed ");
  30:src/memoryAllocatorTest.cpp ****         if (!testMemoryFree(sizes[i], allocatedMemoryPointer)) {
  31:src/memoryAllocatorTest.cpp ****             printString("Failed testMemoryFree test for input ");
  32:src/memoryAllocatorTest.cpp ****             printInteger(sizes[i]); printString("\n"); return false;
  33:src/memoryAllocatorTest.cpp ****         } else printString("Passed ");
  34:src/memoryAllocatorTest.cpp ****         if (i != 0 && (i + 1) % 5 == 0) printString("\n");
  35:src/memoryAllocatorTest.cpp ****     }
  36:src/memoryAllocatorTest.cpp **** 
  37:src/memoryAllocatorTest.cpp ****     if (!testFirstFit()) {
  38:src/memoryAllocatorTest.cpp ****         printString("Failed testFirstFit\n"); return false; }
  39:src/memoryAllocatorTest.cpp ****     else printString("Passed ");
  40:src/memoryAllocatorTest.cpp ****     if (!testSegmentDescriptorSize()) {
  41:src/memoryAllocatorTest.cpp ****         printString("Failed testSegmentDescriptorSize\n"); return false; }
  42:src/memoryAllocatorTest.cpp ****     else printString("Passed\n");
  43:src/memoryAllocatorTest.cpp **** 
  44:src/memoryAllocatorTest.cpp ****     return true;
  45:src/memoryAllocatorTest.cpp **** }
  46:src/memoryAllocatorTest.cpp **** 
  47:src/memoryAllocatorTest.cpp **** bool MemoryAllocatorTest::testMemoryAllocate(uint64 size, void** allocatedMemoryPointer) {
GAS LISTING /tmp/cclfPASU.s 			page 2


  48:src/memoryAllocatorTest.cpp ****     if (!testMemoryMetadataValidity()) return false;
  49:src/memoryAllocatorTest.cpp ****     size_t beforeTestTotalFree = MemoryAllocator::instance()->getTotalFree();
  50:src/memoryAllocatorTest.cpp ****     size_t beforeTestTotalTaken = MemoryAllocator::instance()->getTotalTaken();
  51:src/memoryAllocatorTest.cpp ****     size_t beforeTestFreeBlockNo = MemoryAllocator::instance()->getFreeBlockNo();
  52:src/memoryAllocatorTest.cpp **** 
  53:src/memoryAllocatorTest.cpp ****     *allocatedMemoryPointer = MemoryAllocator::instance()->kmem_alloc(size);
  54:src/memoryAllocatorTest.cpp ****     if (*allocatedMemoryPointer == nullptr && size == (uint64) -37) return true;
  55:src/memoryAllocatorTest.cpp ****     MemoryAllocator::SegmentDescriptor* segDesc = (MemoryAllocator::SegmentDescriptor*)
  56:src/memoryAllocatorTest.cpp ****             ((uint8*) *allocatedMemoryPointer - sizeof(MemoryAllocator::SegmentDescriptor));
  57:src/memoryAllocatorTest.cpp **** 
  58:src/memoryAllocatorTest.cpp ****     size_t minNoBlocksForSize = MemoryAllocator::getMinBlockNumber(size);
  59:src/memoryAllocatorTest.cpp ****     size_t addendForSegDesc = minNoBlocksForSize * MEM_BLOCK_SIZE - size < sizeof(MemoryAllocator::
  60:src/memoryAllocatorTest.cpp ****     size_t allocatedMemory = (minNoBlocksForSize + addendForSegDesc) * MEM_BLOCK_SIZE;
  61:src/memoryAllocatorTest.cpp **** 
  62:src/memoryAllocatorTest.cpp ****     if (!testMemoryMetadataValidity()) return false;
  63:src/memoryAllocatorTest.cpp ****     size_t afterTestTotalFree = MemoryAllocator::instance()->getTotalFree();
  64:src/memoryAllocatorTest.cpp ****     size_t afterTestTotalTaken = MemoryAllocator::instance()->getTotalTaken();
  65:src/memoryAllocatorTest.cpp ****     size_t afterTestFreeBlockNo = MemoryAllocator::instance()->getFreeBlockNo();
  66:src/memoryAllocatorTest.cpp **** 
  67:src/memoryAllocatorTest.cpp ****     if (beforeTestTotalFree != afterTestTotalFree + allocatedMemory) return false;
  68:src/memoryAllocatorTest.cpp ****     if (beforeTestTotalTaken != afterTestTotalTaken - allocatedMemory) return false;
  69:src/memoryAllocatorTest.cpp ****     if (beforeTestFreeBlockNo != afterTestFreeBlockNo + minNoBlocksForSize + addendForSegDesc) retu
  70:src/memoryAllocatorTest.cpp **** 
  71:src/memoryAllocatorTest.cpp ****     return segDesc->noBlocks == minNoBlocksForSize + addendForSegDesc;
  72:src/memoryAllocatorTest.cpp **** }
  73:src/memoryAllocatorTest.cpp **** 
  74:src/memoryAllocatorTest.cpp **** bool MemoryAllocatorTest::testMemoryFree(uint64 size, void* allocatedMemoryPointer) {
  75:src/memoryAllocatorTest.cpp ****     if (!testMemoryMetadataValidity()) return false;
  76:src/memoryAllocatorTest.cpp ****     size_t beforeTestTotalFree = MemoryAllocator::instance()->getTotalFree();
  77:src/memoryAllocatorTest.cpp ****     size_t beforeTestTotalTaken = MemoryAllocator::instance()->getTotalTaken();
  78:src/memoryAllocatorTest.cpp ****     size_t beforeTestFreeBlockNo = MemoryAllocator::instance()->getFreeBlockNo();
  79:src/memoryAllocatorTest.cpp **** 
  80:src/memoryAllocatorTest.cpp **** 
  81:src/memoryAllocatorTest.cpp ****     size_t minNoBlocksForSize = MemoryAllocator::getMinBlockNumber(size);
  82:src/memoryAllocatorTest.cpp ****     size_t addendForSegDesc = minNoBlocksForSize * MEM_BLOCK_SIZE - size < sizeof(MemoryAllocator::
  83:src/memoryAllocatorTest.cpp ****     size_t allocatedMemory = (minNoBlocksForSize + addendForSegDesc) * MEM_BLOCK_SIZE;
  84:src/memoryAllocatorTest.cpp ****     if (!allocatedMemoryPointer) {
  85:src/memoryAllocatorTest.cpp ****         minNoBlocksForSize = 0; addendForSegDesc = 0; allocatedMemory = 0;
  86:src/memoryAllocatorTest.cpp ****     }
  87:src/memoryAllocatorTest.cpp **** 
  88:src/memoryAllocatorTest.cpp ****     MemoryAllocator::SegmentDescriptor* segDesc = nullptr;
  89:src/memoryAllocatorTest.cpp ****     if (allocatedMemoryPointer) segDesc = (MemoryAllocator::SegmentDescriptor*)
  90:src/memoryAllocatorTest.cpp ****             ((uint8*) allocatedMemoryPointer - sizeof(MemoryAllocator::SegmentDescriptor));
  91:src/memoryAllocatorTest.cpp **** 
  92:src/memoryAllocatorTest.cpp ****     if (allocatedMemoryPointer)
  93:src/memoryAllocatorTest.cpp ****     if (segDesc->noBlocks != minNoBlocksForSize + addendForSegDesc) return false;
  94:src/memoryAllocatorTest.cpp ****     MemoryAllocator::instance()->kmem_free(allocatedMemoryPointer);
  95:src/memoryAllocatorTest.cpp **** 
  96:src/memoryAllocatorTest.cpp ****     if (!testMemoryMetadataValidity()) return false;
  97:src/memoryAllocatorTest.cpp ****     size_t afterTestTotalFree = MemoryAllocator::instance()->getTotalFree();
  98:src/memoryAllocatorTest.cpp ****     size_t afterTestTotalTaken = MemoryAllocator::instance()->getTotalTaken();
  99:src/memoryAllocatorTest.cpp ****     size_t afterTestFreeBlockNo = MemoryAllocator::instance()->getFreeBlockNo();
 100:src/memoryAllocatorTest.cpp **** 
 101:src/memoryAllocatorTest.cpp ****     if (beforeTestTotalFree != afterTestTotalFree - allocatedMemory) return false;
 102:src/memoryAllocatorTest.cpp ****     if (beforeTestTotalTaken != afterTestTotalTaken + allocatedMemory) return false;
 103:src/memoryAllocatorTest.cpp ****     return beforeTestFreeBlockNo == afterTestFreeBlockNo - minNoBlocksForSize - addendForSegDesc;
 104:src/memoryAllocatorTest.cpp **** 
GAS LISTING /tmp/cclfPASU.s 			page 3


 105:src/memoryAllocatorTest.cpp **** }
 106:src/memoryAllocatorTest.cpp **** 
 107:src/memoryAllocatorTest.cpp **** size_t MemoryAllocatorTest::getFreeBlocksCnt() {
  12              		.loc 1 107 48
  13              		.cfi_startproc
  14              	.LVL0:
  15 0000 130101FF 		addi	sp,sp,-16
  16              		.cfi_def_cfa_offset 16
  17 0004 23341100 		sd	ra,8(sp)
  18 0008 23308100 		sd	s0,0(sp)
  19              		.cfi_offset 1, -8
  20              		.cfi_offset 8, -16
  21 000c 13040101 		addi	s0,sp,16
  22              		.cfi_def_cfa 8, 0
 108:src/memoryAllocatorTest.cpp ****     MemoryAllocator::SegmentDescriptor* freeMemHead = MemoryAllocator::instance()->freeMemoryHead;
  23              		.loc 1 108 5
  24              		.loc 1 108 80 is_stmt 0
  25 0010 97000000 		call	_ZN15MemoryAllocator8instanceEv@plt
  25      E7800000 
  26              	.LVL1:
  27              		.loc 1 108 84
  28 0018 83378501 		ld	a5,24(a0)
  29              	.LVL2:
 109:src/memoryAllocatorTest.cpp ****     size_t blockCnt = 0;
  30              		.loc 1 109 5 is_stmt 1
  31              		.loc 1 109 12 is_stmt 0
  32 001c 13050000 		li	a0,0
  33              	.LVL3:
  34              	.L3:
 110:src/memoryAllocatorTest.cpp ****     while (freeMemHead) {
  35              		.loc 1 110 5 is_stmt 1
  36              		.loc 1 110 12
  37 0020 638A0700 		beqz	a5,.L1
 111:src/memoryAllocatorTest.cpp ****         blockCnt += freeMemHead->noBlocks;
  38              		.loc 1 111 9
  39              		.loc 1 111 34 is_stmt 0
  40 0024 03B70700 		ld	a4,0(a5)
  41              		.loc 1 111 18
  42 0028 3305E500 		add	a0,a0,a4
  43              	.LVL4:
 112:src/memoryAllocatorTest.cpp ****         freeMemHead = freeMemHead->next;
  44              		.loc 1 112 9 is_stmt 1
  45              		.loc 1 112 21 is_stmt 0
  46 002c 83B78700 		ld	a5,8(a5)
  47              	.LVL5:
 110:src/memoryAllocatorTest.cpp ****     while (freeMemHead) {
  48              		.loc 1 110 5
  49 0030 6FF01FFF 		j	.L3
  50              	.L1:
 113:src/memoryAllocatorTest.cpp ****     }
 114:src/memoryAllocatorTest.cpp ****     return blockCnt;
 115:src/memoryAllocatorTest.cpp **** }
  51              		.loc 1 115 1
  52 0034 83308100 		ld	ra,8(sp)
  53              		.cfi_restore 1
  54 0038 03340100 		ld	s0,0(sp)
  55              		.cfi_restore 8
GAS LISTING /tmp/cclfPASU.s 			page 4


  56              		.cfi_def_cfa 2, 16
  57 003c 13010101 		addi	sp,sp,16
  58              		.cfi_def_cfa_offset 0
  59 0040 67800000 		jr	ra
  60              		.cfi_endproc
  61              	.LFE6:
  63              		.align	2
  64              		.globl	_ZN19MemoryAllocatorTest26testMemoryMetadataValidityEv
  66              	_ZN19MemoryAllocatorTest26testMemoryMetadataValidityEv:
  67              	.LFB7:
 116:src/memoryAllocatorTest.cpp **** 
 117:src/memoryAllocatorTest.cpp **** bool MemoryAllocatorTest::testMemoryMetadataValidity() {
  68              		.loc 1 117 56 is_stmt 1
  69              		.cfi_startproc
  70              	.LVL6:
  71 0044 130101FD 		addi	sp,sp,-48
  72              		.cfi_def_cfa_offset 48
  73 0048 23341102 		sd	ra,40(sp)
  74 004c 23308102 		sd	s0,32(sp)
  75 0050 233C9100 		sd	s1,24(sp)
  76 0054 23382101 		sd	s2,16(sp)
  77 0058 23343101 		sd	s3,8(sp)
  78 005c 23304101 		sd	s4,0(sp)
  79              		.cfi_offset 1, -8
  80              		.cfi_offset 8, -16
  81              		.cfi_offset 9, -24
  82              		.cfi_offset 18, -32
  83              		.cfi_offset 19, -40
  84              		.cfi_offset 20, -48
  85 0060 13040103 		addi	s0,sp,48
  86              		.cfi_def_cfa 8, 0
  87 0064 13090500 		mv	s2,a0
 118:src/memoryAllocatorTest.cpp ****     size_t beforeTestTotalFree = MemoryAllocator::instance()->getTotalFree();
  88              		.loc 1 118 5
  89              		.loc 1 118 75 is_stmt 0
  90 0068 97000000 		call	_ZN15MemoryAllocator8instanceEv@plt
  90      E7800000 
  91              	.LVL7:
  92              	.LBB32:
  93              	.LBB33:
  94              		.file 2 "src/../h/memoryAllocator.hpp"
   1:src/../h/memoryAllocator.hpp **** #ifndef MEMORYALLOCATOR_HPP
   2:src/../h/memoryAllocator.hpp **** #define MEMORYALLOCATOR_HPP
   3:src/../h/memoryAllocator.hpp **** 
   4:src/../h/memoryAllocator.hpp **** #include "../lib/hw.h"
   5:src/../h/memoryAllocator.hpp **** 
   6:src/../h/memoryAllocator.hpp **** class MemoryAllocatorTest;
   7:src/../h/memoryAllocator.hpp **** class KObjectAllocatorTest;
   8:src/../h/memoryAllocator.hpp **** 
   9:src/../h/memoryAllocator.hpp **** /*          ^
  10:src/../h/memoryAllocator.hpp ****  *          |
  11:src/../h/memoryAllocator.hpp ****  *          |
  12:src/../h/memoryAllocator.hpp ****  *          |
  13:src/../h/memoryAllocator.hpp ****  * DELETE THIS CLASS DECLARATION
  14:src/../h/memoryAllocator.hpp ****  */
  15:src/../h/memoryAllocator.hpp **** 
  16:src/../h/memoryAllocator.hpp **** // singleton
GAS LISTING /tmp/cclfPASU.s 			page 5


  17:src/../h/memoryAllocator.hpp **** class MemoryAllocator {
  18:src/../h/memoryAllocator.hpp **** public:
  19:src/../h/memoryAllocator.hpp **** 
  20:src/../h/memoryAllocator.hpp ****     /*
  21:src/../h/memoryAllocator.hpp ****      *
  22:src/../h/memoryAllocator.hpp ****      *
  23:src/../h/memoryAllocator.hpp ****      *
  24:src/../h/memoryAllocator.hpp ****      *
  25:src/../h/memoryAllocator.hpp ****      *
  26:src/../h/memoryAllocator.hpp ****      *
  27:src/../h/memoryAllocator.hpp ****      *                      #####################################
  28:src/../h/memoryAllocator.hpp ****      *                      #####################################
  29:src/../h/memoryAllocator.hpp ****      *                      #####################################
  30:src/../h/memoryAllocator.hpp ****      *                     ### NE SMEJU SE PREDATI TESTOVI !!! ###
  31:src/../h/memoryAllocator.hpp ****      *                      #####################################
  32:src/../h/memoryAllocator.hpp ****      *                      #####################################
  33:src/../h/memoryAllocator.hpp ****      *                      #####################################
  34:src/../h/memoryAllocator.hpp ****      *
  35:src/../h/memoryAllocator.hpp ****      *
  36:src/../h/memoryAllocator.hpp ****      *
  37:src/../h/memoryAllocator.hpp ****      *
  38:src/../h/memoryAllocator.hpp ****      *
  39:src/../h/memoryAllocator.hpp ****      *
  40:src/../h/memoryAllocator.hpp ****      */
  41:src/../h/memoryAllocator.hpp ****     friend MemoryAllocatorTest;
  42:src/../h/memoryAllocator.hpp ****     friend KObjectAllocatorTest;
  43:src/../h/memoryAllocator.hpp **** 
  44:src/../h/memoryAllocator.hpp ****     /*                         ^
  45:src/../h/memoryAllocator.hpp ****      *                         |
  46:src/../h/memoryAllocator.hpp ****      *      DELETE THIS FRIEND |
  47:src/../h/memoryAllocator.hpp ****      *
  48:src/../h/memoryAllocator.hpp ****      */
  49:src/../h/memoryAllocator.hpp **** 
  50:src/../h/memoryAllocator.hpp ****     static MemoryAllocator* instance();
  51:src/../h/memoryAllocator.hpp ****     static void printMemorySpaceParams();
  52:src/../h/memoryAllocator.hpp ****     static size_t getMinBlockNumber (size_t size);
  53:src/../h/memoryAllocator.hpp **** 
  54:src/../h/memoryAllocator.hpp ****     void* kmem_alloc(size_t size);
  55:src/../h/memoryAllocator.hpp ****     int kmem_free(void* newFree);
  56:src/../h/memoryAllocator.hpp ****     void printInstanceMemorySpaceParams();
  57:src/../h/memoryAllocator.hpp ****     void printFreeMemoryHeadData();
  58:src/../h/memoryAllocator.hpp ****     size_t getTotalFree() { return totalFree; }
  95              		.loc 2 58 29 is_stmt 1
  96              		.loc 2 58 36 is_stmt 0
  97 0070 83340500 		ld	s1,0(a0)
  98              	.LVL8:
  99              	.LBE33:
 100              	.LBE32:
 119:src/memoryAllocatorTest.cpp ****     size_t beforeTestTotalTaken = MemoryAllocator::instance()->getTotalTaken();
 101              		.loc 1 119 5 is_stmt 1
 102              		.loc 1 119 77 is_stmt 0
 103 0074 97000000 		call	_ZN15MemoryAllocator8instanceEv@plt
 103      E7800000 
 104              	.LVL9:
 105              	.LBB34:
 106              	.LBB35:
  59:src/../h/memoryAllocator.hpp ****     size_t getTotalTaken() { return totalTaken; }
GAS LISTING /tmp/cclfPASU.s 			page 6


 107              		.loc 2 59 30 is_stmt 1
 108              		.loc 2 59 37 is_stmt 0
 109 007c 033A8500 		ld	s4,8(a0)
 110              	.LVL10:
 111              	.LBE35:
 112              	.LBE34:
 120:src/memoryAllocatorTest.cpp ****     size_t beforeTestFreeBlockNo = MemoryAllocator::instance()->getFreeBlockNo();
 113              		.loc 1 120 5 is_stmt 1
 114              		.loc 1 120 79 is_stmt 0
 115 0080 97000000 		call	_ZN15MemoryAllocator8instanceEv@plt
 115      E7800000 
 116              	.LVL11:
 117              	.LBB36:
 118              	.LBB37:
  60:src/../h/memoryAllocator.hpp ****     size_t getFreeBlockNo() { return freeBlockNo; }
 119              		.loc 2 60 31 is_stmt 1
 120              		.loc 2 60 38 is_stmt 0
 121 0088 83390501 		ld	s3,16(a0)
 122              	.LVL12:
 123              	.LBE37:
 124              	.LBE36:
 121:src/memoryAllocatorTest.cpp ****     size_t freeBlocksCnt = getFreeBlocksCnt();
 125              		.loc 1 121 5 is_stmt 1
 126              		.loc 1 121 44 is_stmt 0
 127 008c 13050900 		mv	a0,s2
 128 0090 97000000 		call	_ZN19MemoryAllocatorTest16getFreeBlocksCntEv
 128      E7800000 
 129              	.LVL13:
 122:src/memoryAllocatorTest.cpp **** 
 123:src/memoryAllocatorTest.cpp ****     if (freeBlocksCnt != beforeTestFreeBlockNo) return false;
 130              		.loc 1 123 5 is_stmt 1
 131 0098 639CA902 		bne	s3,a0,.L7
 124:src/memoryAllocatorTest.cpp ****     if (freeBlocksCnt != beforeTestTotalFree / MEM_BLOCK_SIZE) return false;
 132              		.loc 1 124 5
 133              		.loc 1 124 46 is_stmt 0
 134 009c 93D76400 		srli	a5,s1,6
 135              		.loc 1 124 5
 136 00a0 639AA704 		bne	a5,a0,.L8
 125:src/memoryAllocatorTest.cpp **** 
 126:src/memoryAllocatorTest.cpp ****     size_t totalMemory = (size_t) (MemoryAllocator::managedMemorySpaceEnd - MemoryAllocator::manage
 137              		.loc 1 126 5 is_stmt 1
 138              		.loc 1 126 75 is_stmt 0
 139 00a4 97070000 		la	a5,_ZN15MemoryAllocator21managedMemorySpaceEndE
 139      83B70700 
 140 00ac 03B50700 		ld	a0,0(a5)
 141              	.LVL14:
 142 00b0 97070000 		la	a5,_ZN15MemoryAllocator23managedMemorySpaceStartE
 142      83B70700 
 143 00b8 83B70700 		ld	a5,0(a5)
 144 00bc B307F540 		sub	a5,a0,a5
 145              	.LVL15:
 127:src/memoryAllocatorTest.cpp ****     return totalMemory == beforeTestTotalFree + beforeTestTotalTaken;
 146              		.loc 1 127 5 is_stmt 1
 147              		.loc 1 127 47 is_stmt 0
 148 00c0 33854401 		add	a0,s1,s4
 149              		.loc 1 127 49
 150 00c4 3305F540 		sub	a0,a0,a5
GAS LISTING /tmp/cclfPASU.s 			page 7


 151 00c8 13351500 		seqz	a0,a0
 152 00cc 6F008000 		j	.L6
 153              	.LVL16:
 154              	.L7:
 123:src/memoryAllocatorTest.cpp ****     if (freeBlocksCnt != beforeTestTotalFree / MEM_BLOCK_SIZE) return false;
 155              		.loc 1 123 56
 156 00d0 13050000 		li	a0,0
 157              	.LVL17:
 158              	.L6:
 128:src/memoryAllocatorTest.cpp **** }
 159              		.loc 1 128 1
 160 00d4 83308102 		ld	ra,40(sp)
 161              		.cfi_remember_state
 162              		.cfi_restore 1
 163 00d8 03340102 		ld	s0,32(sp)
 164              		.cfi_restore 8
 165              		.cfi_def_cfa 2, 48
 166 00dc 83348101 		ld	s1,24(sp)
 167              		.cfi_restore 9
 168              	.LVL18:
 169 00e0 03390101 		ld	s2,16(sp)
 170              		.cfi_restore 18
 171              	.LVL19:
 172 00e4 83398100 		ld	s3,8(sp)
 173              		.cfi_restore 19
 174              	.LVL20:
 175 00e8 033A0100 		ld	s4,0(sp)
 176              		.cfi_restore 20
 177              	.LVL21:
 178 00ec 13010103 		addi	sp,sp,48
 179              		.cfi_def_cfa_offset 0
 180 00f0 67800000 		jr	ra
 181              	.LVL22:
 182              	.L8:
 183              		.cfi_restore_state
 124:src/memoryAllocatorTest.cpp **** 
 184              		.loc 1 124 71
 185 00f4 13050000 		li	a0,0
 186              	.LVL23:
 187 00f8 6FF0DFFD 		j	.L6
 188              		.cfi_endproc
 189              	.LFE7:
 191              		.align	2
 192              		.globl	_ZN19MemoryAllocatorTest18testMemoryAllocateEmPPv
 194              	_ZN19MemoryAllocatorTest18testMemoryAllocateEmPPv:
 195              	.LFB4:
  47:src/memoryAllocatorTest.cpp ****     if (!testMemoryMetadataValidity()) return false;
 196              		.loc 1 47 90 is_stmt 1
 197              		.cfi_startproc
 198              	.LVL24:
 199 00fc 130101FA 		addi	sp,sp,-96
 200              		.cfi_def_cfa_offset 96
 201 0100 233C1104 		sd	ra,88(sp)
 202 0104 23388104 		sd	s0,80(sp)
 203 0108 23349104 		sd	s1,72(sp)
 204 010c 23302105 		sd	s2,64(sp)
 205 0110 233C3103 		sd	s3,56(sp)
GAS LISTING /tmp/cclfPASU.s 			page 8


 206 0114 23384103 		sd	s4,48(sp)
 207 0118 23345103 		sd	s5,40(sp)
 208 011c 23306103 		sd	s6,32(sp)
 209 0120 233C7101 		sd	s7,24(sp)
 210 0124 23388101 		sd	s8,16(sp)
 211 0128 23349101 		sd	s9,8(sp)
 212 012c 2330A101 		sd	s10,0(sp)
 213              		.cfi_offset 1, -8
 214              		.cfi_offset 8, -16
 215              		.cfi_offset 9, -24
 216              		.cfi_offset 18, -32
 217              		.cfi_offset 19, -40
 218              		.cfi_offset 20, -48
 219              		.cfi_offset 21, -56
 220              		.cfi_offset 22, -64
 221              		.cfi_offset 23, -72
 222              		.cfi_offset 24, -80
 223              		.cfi_offset 25, -88
 224              		.cfi_offset 26, -96
 225 0130 13040106 		addi	s0,sp,96
 226              		.cfi_def_cfa 8, 0
 227 0134 130A0500 		mv	s4,a0
 228 0138 13890500 		mv	s2,a1
 229 013c 93090600 		mv	s3,a2
  48:src/memoryAllocatorTest.cpp ****     size_t beforeTestTotalFree = MemoryAllocator::instance()->getTotalFree();
 230              		.loc 1 48 5
  48:src/memoryAllocatorTest.cpp ****     size_t beforeTestTotalFree = MemoryAllocator::instance()->getTotalFree();
 231              		.loc 1 48 36 is_stmt 0
 232 0140 97000000 		call	_ZN19MemoryAllocatorTest26testMemoryMetadataValidityEv
 232      E7800000 
 233              	.LVL25:
 234 0148 93040500 		mv	s1,a0
  48:src/memoryAllocatorTest.cpp ****     size_t beforeTestTotalFree = MemoryAllocator::instance()->getTotalFree();
 235              		.loc 1 48 5
 236 014c 63100504 		bnez	a0,.L17
 237              	.LVL26:
 238              	.L11:
  72:src/memoryAllocatorTest.cpp **** 
 239              		.loc 1 72 1
 240 0150 13850400 		mv	a0,s1
 241 0154 83308105 		ld	ra,88(sp)
 242              		.cfi_remember_state
 243              		.cfi_restore 1
 244 0158 03340105 		ld	s0,80(sp)
 245              		.cfi_restore 8
 246              		.cfi_def_cfa 2, 96
 247 015c 83348104 		ld	s1,72(sp)
 248              		.cfi_restore 9
 249 0160 03390104 		ld	s2,64(sp)
 250              		.cfi_restore 18
 251 0164 83398103 		ld	s3,56(sp)
 252              		.cfi_restore 19
 253 0168 033A0103 		ld	s4,48(sp)
 254              		.cfi_restore 20
 255 016c 833A8102 		ld	s5,40(sp)
 256              		.cfi_restore 21
 257 0170 033B0102 		ld	s6,32(sp)
GAS LISTING /tmp/cclfPASU.s 			page 9


 258              		.cfi_restore 22
 259 0174 833B8101 		ld	s7,24(sp)
 260              		.cfi_restore 23
 261 0178 033C0101 		ld	s8,16(sp)
 262              		.cfi_restore 24
 263 017c 833C8100 		ld	s9,8(sp)
 264              		.cfi_restore 25
 265 0180 033D0100 		ld	s10,0(sp)
 266              		.cfi_restore 26
 267 0184 13010106 		addi	sp,sp,96
 268              		.cfi_def_cfa_offset 0
 269 0188 67800000 		jr	ra
 270              	.LVL27:
 271              	.L17:
 272              		.cfi_restore_state
  49:src/memoryAllocatorTest.cpp ****     size_t beforeTestTotalTaken = MemoryAllocator::instance()->getTotalTaken();
 273              		.loc 1 49 5 is_stmt 1
  49:src/memoryAllocatorTest.cpp ****     size_t beforeTestTotalTaken = MemoryAllocator::instance()->getTotalTaken();
 274              		.loc 1 49 75 is_stmt 0
 275 018c 97000000 		call	_ZN15MemoryAllocator8instanceEv@plt
 275      E7800000 
 276              	.LVL28:
 277              	.LBB38:
 278              	.LBB39:
  58:src/../h/memoryAllocator.hpp ****     size_t getTotalTaken() { return totalTaken; }
 279              		.loc 2 58 29 is_stmt 1
  58:src/../h/memoryAllocator.hpp ****     size_t getTotalTaken() { return totalTaken; }
 280              		.loc 2 58 36 is_stmt 0
 281 0194 033B0500 		ld	s6,0(a0)
 282              	.LVL29:
 283              	.LBE39:
 284              	.LBE38:
  50:src/memoryAllocatorTest.cpp ****     size_t beforeTestFreeBlockNo = MemoryAllocator::instance()->getFreeBlockNo();
 285              		.loc 1 50 5 is_stmt 1
  50:src/memoryAllocatorTest.cpp ****     size_t beforeTestFreeBlockNo = MemoryAllocator::instance()->getFreeBlockNo();
 286              		.loc 1 50 77 is_stmt 0
 287 0198 97000000 		call	_ZN15MemoryAllocator8instanceEv@plt
 287      E7800000 
 288              	.LVL30:
 289              	.LBB40:
 290              	.LBB41:
  59:src/../h/memoryAllocator.hpp ****     size_t getFreeBlockNo() { return freeBlockNo; }
 291              		.loc 2 59 30 is_stmt 1
  59:src/../h/memoryAllocator.hpp ****     size_t getFreeBlockNo() { return freeBlockNo; }
 292              		.loc 2 59 37 is_stmt 0
 293 01a0 833B8500 		ld	s7,8(a0)
 294              	.LVL31:
 295              	.LBE41:
 296              	.LBE40:
  51:src/memoryAllocatorTest.cpp **** 
 297              		.loc 1 51 5 is_stmt 1
  51:src/memoryAllocatorTest.cpp **** 
 298              		.loc 1 51 79 is_stmt 0
 299 01a4 97000000 		call	_ZN15MemoryAllocator8instanceEv@plt
 299      E7800000 
 300              	.LVL32:
 301              	.LBB42:
GAS LISTING /tmp/cclfPASU.s 			page 10


 302              	.LBB43:
 303              		.loc 2 60 31 is_stmt 1
 304              		.loc 2 60 38 is_stmt 0
 305 01ac 033C0501 		ld	s8,16(a0)
 306              	.LVL33:
 307              	.LBE43:
 308              	.LBE42:
  53:src/memoryAllocatorTest.cpp ****     if (*allocatedMemoryPointer == nullptr && size == (uint64) -37) return true;
 309              		.loc 1 53 5 is_stmt 1
  53:src/memoryAllocatorTest.cpp ****     if (*allocatedMemoryPointer == nullptr && size == (uint64) -37) return true;
 310              		.loc 1 53 70 is_stmt 0
 311 01b0 97000000 		call	_ZN15MemoryAllocator8instanceEv@plt
 311      E7800000 
 312              	.LVL34:
 313 01b8 93050900 		mv	a1,s2
 314 01bc 97000000 		call	_ZN15MemoryAllocator10kmem_allocEm@plt
 314      E7800000 
 315              	.LVL35:
 316 01c4 930A0500 		mv	s5,a0
  53:src/memoryAllocatorTest.cpp ****     if (*allocatedMemoryPointer == nullptr && size == (uint64) -37) return true;
 317              		.loc 1 53 29
 318 01c8 23B0A900 		sd	a0,0(s3)
  54:src/memoryAllocatorTest.cpp ****     MemoryAllocator::SegmentDescriptor* segDesc = (MemoryAllocator::SegmentDescriptor*)
 319              		.loc 1 54 5 is_stmt 1
 320 01cc 63060508 		beqz	a0,.L18
 321              	.L12:
  55:src/memoryAllocatorTest.cpp ****             ((uint8*) *allocatedMemoryPointer - sizeof(MemoryAllocator::SegmentDescriptor));
 322              		.loc 1 55 5
 323              	.LVL36:
  58:src/memoryAllocatorTest.cpp ****     size_t addendForSegDesc = minNoBlocksForSize * MEM_BLOCK_SIZE - size < sizeof(MemoryAllocator::
 324              		.loc 1 58 5
  58:src/memoryAllocatorTest.cpp ****     size_t addendForSegDesc = minNoBlocksForSize * MEM_BLOCK_SIZE - size < sizeof(MemoryAllocator::
 325              		.loc 1 58 67 is_stmt 0
 326 01d0 13050900 		mv	a0,s2
 327              	.LVL37:
 328 01d4 97000000 		call	_ZN15MemoryAllocator17getMinBlockNumberEm@plt
 328      E7800000 
 329              	.LVL38:
 330 01dc 93090500 		mv	s3,a0
 331              	.LVL39:
  59:src/memoryAllocatorTest.cpp ****     size_t allocatedMemory = (minNoBlocksForSize + addendForSegDesc) * MEM_BLOCK_SIZE;
 332              		.loc 1 59 5 is_stmt 1
  59:src/memoryAllocatorTest.cpp ****     size_t allocatedMemory = (minNoBlocksForSize + addendForSegDesc) * MEM_BLOCK_SIZE;
 333              		.loc 1 59 50 is_stmt 0
 334 01e0 93156500 		slli	a1,a0,6
  59:src/memoryAllocatorTest.cpp ****     size_t allocatedMemory = (minNoBlocksForSize + addendForSegDesc) * MEM_BLOCK_SIZE;
 335              		.loc 1 59 67
 336 01e4 33892541 		sub	s2,a1,s2
 337              	.LVL40:
  59:src/memoryAllocatorTest.cpp ****     size_t allocatedMemory = (minNoBlocksForSize + addendForSegDesc) * MEM_BLOCK_SIZE;
 338              		.loc 1 59 74
 339 01e8 13390901 		sltiu	s2,s2,16
 340              	.LVL41:
  60:src/memoryAllocatorTest.cpp **** 
 341              		.loc 1 60 5 is_stmt 1
  60:src/memoryAllocatorTest.cpp **** 
 342              		.loc 1 60 50 is_stmt 0
GAS LISTING /tmp/cclfPASU.s 			page 11


 343 01ec B30C2501 		add	s9,a0,s2
  60:src/memoryAllocatorTest.cpp **** 
 344              		.loc 1 60 12
 345 01f0 139D6C00 		slli	s10,s9,6
 346              	.LVL42:
  62:src/memoryAllocatorTest.cpp ****     size_t afterTestTotalFree = MemoryAllocator::instance()->getTotalFree();
 347              		.loc 1 62 5 is_stmt 1
  62:src/memoryAllocatorTest.cpp ****     size_t afterTestTotalFree = MemoryAllocator::instance()->getTotalFree();
 348              		.loc 1 62 36 is_stmt 0
 349 01f4 13050A00 		mv	a0,s4
 350              	.LVL43:
 351 01f8 97000000 		call	_ZN19MemoryAllocatorTest26testMemoryMetadataValidityEv
 351      E7800000 
 352              	.LVL44:
 353 0200 93040500 		mv	s1,a0
  62:src/memoryAllocatorTest.cpp ****     size_t afterTestTotalFree = MemoryAllocator::instance()->getTotalFree();
 354              		.loc 1 62 5
 355 0204 E30605F4 		beqz	a0,.L11
  63:src/memoryAllocatorTest.cpp ****     size_t afterTestTotalTaken = MemoryAllocator::instance()->getTotalTaken();
 356              		.loc 1 63 5 is_stmt 1
  63:src/memoryAllocatorTest.cpp ****     size_t afterTestTotalTaken = MemoryAllocator::instance()->getTotalTaken();
 357              		.loc 1 63 74 is_stmt 0
 358 0208 97000000 		call	_ZN15MemoryAllocator8instanceEv@plt
 358      E7800000 
 359              	.LVL45:
 360              	.LBB44:
 361              	.LBB45:
  58:src/../h/memoryAllocator.hpp ****     size_t getTotalTaken() { return totalTaken; }
 362              		.loc 2 58 29 is_stmt 1
  58:src/../h/memoryAllocator.hpp ****     size_t getTotalTaken() { return totalTaken; }
 363              		.loc 2 58 36 is_stmt 0
 364 0210 83340500 		ld	s1,0(a0)
 365              	.LVL46:
 366              	.LBE45:
 367              	.LBE44:
  64:src/memoryAllocatorTest.cpp ****     size_t afterTestFreeBlockNo = MemoryAllocator::instance()->getFreeBlockNo();
 368              		.loc 1 64 5 is_stmt 1
  64:src/memoryAllocatorTest.cpp ****     size_t afterTestFreeBlockNo = MemoryAllocator::instance()->getFreeBlockNo();
 369              		.loc 1 64 76 is_stmt 0
 370 0214 97000000 		call	_ZN15MemoryAllocator8instanceEv@plt
 370      E7800000 
 371              	.LVL47:
 372              	.LBB46:
 373              	.LBB47:
  59:src/../h/memoryAllocator.hpp ****     size_t getFreeBlockNo() { return freeBlockNo; }
 374              		.loc 2 59 30 is_stmt 1
  59:src/../h/memoryAllocator.hpp ****     size_t getFreeBlockNo() { return freeBlockNo; }
 375              		.loc 2 59 37 is_stmt 0
 376 021c 033A8500 		ld	s4,8(a0)
 377              	.LVL48:
 378              	.LBE47:
 379              	.LBE46:
  65:src/memoryAllocatorTest.cpp **** 
 380              		.loc 1 65 5 is_stmt 1
  65:src/memoryAllocatorTest.cpp **** 
 381              		.loc 1 65 78 is_stmt 0
 382 0220 97000000 		call	_ZN15MemoryAllocator8instanceEv@plt
GAS LISTING /tmp/cclfPASU.s 			page 12


 382      E7800000 
 383              	.LVL49:
 384              	.LBB48:
 385              	.LBB49:
 386              		.loc 2 60 31 is_stmt 1
 387              		.loc 2 60 38 is_stmt 0
 388 0228 83370501 		ld	a5,16(a0)
 389              	.LVL50:
 390              	.LBE49:
 391              	.LBE48:
  67:src/memoryAllocatorTest.cpp ****     if (beforeTestTotalTaken != afterTestTotalTaken - allocatedMemory) return false;
 392              		.loc 1 67 5 is_stmt 1
  67:src/memoryAllocatorTest.cpp ****     if (beforeTestTotalTaken != afterTestTotalTaken - allocatedMemory) return false;
 393              		.loc 1 67 51 is_stmt 0
 394 022c B384A401 		add	s1,s1,s10
 395              	.LVL51:
  67:src/memoryAllocatorTest.cpp ****     if (beforeTestTotalTaken != afterTestTotalTaken - allocatedMemory) return false;
 396              		.loc 1 67 5
 397 0230 639A6403 		bne	s1,s6,.L13
  68:src/memoryAllocatorTest.cpp ****     if (beforeTestFreeBlockNo != afterTestFreeBlockNo + minNoBlocksForSize + addendForSegDesc) retu
 398              		.loc 1 68 5 is_stmt 1
  68:src/memoryAllocatorTest.cpp ****     if (beforeTestFreeBlockNo != afterTestFreeBlockNo + minNoBlocksForSize + addendForSegDesc) retu
 399              		.loc 1 68 53 is_stmt 0
 400 0234 330DAA41 		sub	s10,s4,s10
 401              	.LVL52:
  68:src/memoryAllocatorTest.cpp ****     if (beforeTestFreeBlockNo != afterTestFreeBlockNo + minNoBlocksForSize + addendForSegDesc) retu
 402              		.loc 1 68 5
 403 0238 631A7D03 		bne	s10,s7,.L14
  69:src/memoryAllocatorTest.cpp **** 
 404              		.loc 1 69 5 is_stmt 1
  69:src/memoryAllocatorTest.cpp **** 
 405              		.loc 1 69 55 is_stmt 0
 406 023c B3893701 		add	s3,a5,s3
 407              	.LVL53:
  69:src/memoryAllocatorTest.cpp **** 
 408              		.loc 1 69 76
 409 0240 33892901 		add	s2,s3,s2
 410              	.LVL54:
  69:src/memoryAllocatorTest.cpp **** 
 411              		.loc 1 69 5
 412 0244 63188903 		bne	s2,s8,.L15
  71:src/memoryAllocatorTest.cpp **** }
 413              		.loc 1 71 5 is_stmt 1
  71:src/memoryAllocatorTest.cpp **** }
 414              		.loc 1 71 21 is_stmt 0
 415 0248 83B40AFF 		ld	s1,-16(s5)
  71:src/memoryAllocatorTest.cpp **** }
 416              		.loc 1 71 54
 417 024c B3849C40 		sub	s1,s9,s1
 418 0250 93B41400 		seqz	s1,s1
 419 0254 6FF0DFEF 		j	.L11
 420              	.LVL55:
 421              	.L18:
  54:src/memoryAllocatorTest.cpp ****     MemoryAllocator::SegmentDescriptor* segDesc = (MemoryAllocator::SegmentDescriptor*)
 422              		.loc 1 54 44 discriminator 1
 423 0258 9307B0FD 		li	a5,-37
 424 025c E31AF9F6 		bne	s2,a5,.L12
GAS LISTING /tmp/cclfPASU.s 			page 13


 425 0260 6FF01FEF 		j	.L11
 426              	.LVL56:
 427              	.L13:
  67:src/memoryAllocatorTest.cpp ****     if (beforeTestTotalTaken != afterTestTotalTaken - allocatedMemory) return false;
 428              		.loc 1 67 77
 429 0264 93040000 		li	s1,0
 430 0268 6FF09FEE 		j	.L11
 431              	.LVL57:
 432              	.L14:
  68:src/memoryAllocatorTest.cpp ****     if (beforeTestFreeBlockNo != afterTestFreeBlockNo + minNoBlocksForSize + addendForSegDesc) retu
 433              		.loc 1 68 79
 434 026c 93040000 		li	s1,0
 435 0270 6FF01FEE 		j	.L11
 436              	.LVL58:
 437              	.L15:
  69:src/memoryAllocatorTest.cpp **** 
 438              		.loc 1 69 103
 439 0274 93040000 		li	s1,0
 440 0278 6FF09FED 		j	.L11
 441              		.cfi_endproc
 442              	.LFE4:
 444              		.align	2
 445              		.globl	_ZN19MemoryAllocatorTest14testMemoryFreeEmPv
 447              	_ZN19MemoryAllocatorTest14testMemoryFreeEmPv:
 448              	.LFB5:
  74:src/memoryAllocatorTest.cpp ****     if (!testMemoryMetadataValidity()) return false;
 449              		.loc 1 74 85 is_stmt 1
 450              		.cfi_startproc
 451              	.LVL59:
 452 027c 130101FB 		addi	sp,sp,-80
 453              		.cfi_def_cfa_offset 80
 454 0280 23341104 		sd	ra,72(sp)
 455 0284 23308104 		sd	s0,64(sp)
 456 0288 233C9102 		sd	s1,56(sp)
 457 028c 23382103 		sd	s2,48(sp)
 458 0290 23343103 		sd	s3,40(sp)
 459 0294 23304103 		sd	s4,32(sp)
 460 0298 233C5101 		sd	s5,24(sp)
 461 029c 23386101 		sd	s6,16(sp)
 462 02a0 23347101 		sd	s7,8(sp)
 463 02a4 23308101 		sd	s8,0(sp)
 464              		.cfi_offset 1, -8
 465              		.cfi_offset 8, -16
 466              		.cfi_offset 9, -24
 467              		.cfi_offset 18, -32
 468              		.cfi_offset 19, -40
 469              		.cfi_offset 20, -48
 470              		.cfi_offset 21, -56
 471              		.cfi_offset 22, -64
 472              		.cfi_offset 23, -72
 473              		.cfi_offset 24, -80
 474 02a8 13040105 		addi	s0,sp,80
 475              		.cfi_def_cfa 8, 0
 476 02ac 130A0500 		mv	s4,a0
 477 02b0 13890500 		mv	s2,a1
 478 02b4 93040600 		mv	s1,a2
  75:src/memoryAllocatorTest.cpp ****     size_t beforeTestTotalFree = MemoryAllocator::instance()->getTotalFree();
GAS LISTING /tmp/cclfPASU.s 			page 14


 479              		.loc 1 75 5
  75:src/memoryAllocatorTest.cpp ****     size_t beforeTestTotalFree = MemoryAllocator::instance()->getTotalFree();
 480              		.loc 1 75 36 is_stmt 0
 481 02b8 97000000 		call	_ZN19MemoryAllocatorTest26testMemoryMetadataValidityEv
 481      E7800000 
 482              	.LVL60:
  75:src/memoryAllocatorTest.cpp ****     size_t beforeTestTotalFree = MemoryAllocator::instance()->getTotalFree();
 483              		.loc 1 75 5
 484 02c0 631A0502 		bnez	a0,.L30
 485              	.LVL61:
 486              	.L20:
 105:src/memoryAllocatorTest.cpp **** 
 487              		.loc 1 105 1
 488 02c4 83308104 		ld	ra,72(sp)
 489              		.cfi_remember_state
 490              		.cfi_restore 1
 491 02c8 03340104 		ld	s0,64(sp)
 492              		.cfi_restore 8
 493              		.cfi_def_cfa 2, 80
 494 02cc 83348103 		ld	s1,56(sp)
 495              		.cfi_restore 9
 496 02d0 03390103 		ld	s2,48(sp)
 497              		.cfi_restore 18
 498 02d4 83398102 		ld	s3,40(sp)
 499              		.cfi_restore 19
 500 02d8 033A0102 		ld	s4,32(sp)
 501              		.cfi_restore 20
 502 02dc 833A8101 		ld	s5,24(sp)
 503              		.cfi_restore 21
 504 02e0 033B0101 		ld	s6,16(sp)
 505              		.cfi_restore 22
 506 02e4 833B8100 		ld	s7,8(sp)
 507              		.cfi_restore 23
 508 02e8 033C0100 		ld	s8,0(sp)
 509              		.cfi_restore 24
 510 02ec 13010105 		addi	sp,sp,80
 511              		.cfi_def_cfa_offset 0
 512 02f0 67800000 		jr	ra
 513              	.LVL62:
 514              	.L30:
 515              		.cfi_restore_state
  76:src/memoryAllocatorTest.cpp ****     size_t beforeTestTotalTaken = MemoryAllocator::instance()->getTotalTaken();
 516              		.loc 1 76 5 is_stmt 1
  76:src/memoryAllocatorTest.cpp ****     size_t beforeTestTotalTaken = MemoryAllocator::instance()->getTotalTaken();
 517              		.loc 1 76 75 is_stmt 0
 518 02f4 97000000 		call	_ZN15MemoryAllocator8instanceEv@plt
 518      E7800000 
 519              	.LVL63:
 520              	.LBB50:
 521              	.LBB51:
  58:src/../h/memoryAllocator.hpp ****     size_t getTotalTaken() { return totalTaken; }
 522              		.loc 2 58 29 is_stmt 1
  58:src/../h/memoryAllocator.hpp ****     size_t getTotalTaken() { return totalTaken; }
 523              		.loc 2 58 36 is_stmt 0
 524 02fc 033B0500 		ld	s6,0(a0)
 525              	.LVL64:
 526              	.LBE51:
GAS LISTING /tmp/cclfPASU.s 			page 15


 527              	.LBE50:
  77:src/memoryAllocatorTest.cpp ****     size_t beforeTestFreeBlockNo = MemoryAllocator::instance()->getFreeBlockNo();
 528              		.loc 1 77 5 is_stmt 1
  77:src/memoryAllocatorTest.cpp ****     size_t beforeTestFreeBlockNo = MemoryAllocator::instance()->getFreeBlockNo();
 529              		.loc 1 77 77 is_stmt 0
 530 0300 97000000 		call	_ZN15MemoryAllocator8instanceEv@plt
 530      E7800000 
 531              	.LVL65:
 532              	.LBB52:
 533              	.LBB53:
  59:src/../h/memoryAllocator.hpp ****     size_t getFreeBlockNo() { return freeBlockNo; }
 534              		.loc 2 59 30 is_stmt 1
  59:src/../h/memoryAllocator.hpp ****     size_t getFreeBlockNo() { return freeBlockNo; }
 535              		.loc 2 59 37 is_stmt 0
 536 0308 833B8500 		ld	s7,8(a0)
 537              	.LVL66:
 538              	.LBE53:
 539              	.LBE52:
  78:src/memoryAllocatorTest.cpp **** 
 540              		.loc 1 78 5 is_stmt 1
  78:src/memoryAllocatorTest.cpp **** 
 541              		.loc 1 78 79 is_stmt 0
 542 030c 97000000 		call	_ZN15MemoryAllocator8instanceEv@plt
 542      E7800000 
 543              	.LVL67:
 544              	.LBB54:
 545              	.LBB55:
 546              		.loc 2 60 31 is_stmt 1
 547              		.loc 2 60 38 is_stmt 0
 548 0314 833A0501 		ld	s5,16(a0)
 549              	.LVL68:
 550              	.LBE55:
 551              	.LBE54:
  81:src/memoryAllocatorTest.cpp ****     size_t addendForSegDesc = minNoBlocksForSize * MEM_BLOCK_SIZE - size < sizeof(MemoryAllocator::
 552              		.loc 1 81 5 is_stmt 1
  81:src/memoryAllocatorTest.cpp ****     size_t addendForSegDesc = minNoBlocksForSize * MEM_BLOCK_SIZE - size < sizeof(MemoryAllocator::
 553              		.loc 1 81 67 is_stmt 0
 554 0318 13050900 		mv	a0,s2
 555 031c 97000000 		call	_ZN15MemoryAllocator17getMinBlockNumberEm@plt
 555      E7800000 
 556              	.LVL69:
 557 0324 93090500 		mv	s3,a0
 558              	.LVL70:
  82:src/memoryAllocatorTest.cpp ****     size_t allocatedMemory = (minNoBlocksForSize + addendForSegDesc) * MEM_BLOCK_SIZE;
 559              		.loc 1 82 5 is_stmt 1
  82:src/memoryAllocatorTest.cpp ****     size_t allocatedMemory = (minNoBlocksForSize + addendForSegDesc) * MEM_BLOCK_SIZE;
 560              		.loc 1 82 50 is_stmt 0
 561 0328 93156500 		slli	a1,a0,6
  82:src/memoryAllocatorTest.cpp ****     size_t allocatedMemory = (minNoBlocksForSize + addendForSegDesc) * MEM_BLOCK_SIZE;
 562              		.loc 1 82 67
 563 032c 33892541 		sub	s2,a1,s2
 564              	.LVL71:
  82:src/memoryAllocatorTest.cpp ****     size_t allocatedMemory = (minNoBlocksForSize + addendForSegDesc) * MEM_BLOCK_SIZE;
 565              		.loc 1 82 74
 566 0330 13390901 		sltiu	s2,s2,16
 567              	.LVL72:
  83:src/memoryAllocatorTest.cpp ****     if (!allocatedMemoryPointer) {
GAS LISTING /tmp/cclfPASU.s 			page 16


 568              		.loc 1 83 5 is_stmt 1
  83:src/memoryAllocatorTest.cpp ****     if (!allocatedMemoryPointer) {
 569              		.loc 1 83 50 is_stmt 0
 570 0334 33072501 		add	a4,a0,s2
  83:src/memoryAllocatorTest.cpp ****     if (!allocatedMemoryPointer) {
 571              		.loc 1 83 12
 572 0338 131C6700 		slli	s8,a4,6
 573              	.LVL73:
  84:src/memoryAllocatorTest.cpp ****         minNoBlocksForSize = 0; addendForSegDesc = 0; allocatedMemory = 0;
 574              		.loc 1 84 5 is_stmt 1
 575 033c 63840408 		beqz	s1,.L31
 576              	.LVL74:
 577              	.L21:
  88:src/memoryAllocatorTest.cpp ****     if (allocatedMemoryPointer) segDesc = (MemoryAllocator::SegmentDescriptor*)
 578              		.loc 1 88 5
  89:src/memoryAllocatorTest.cpp ****             ((uint8*) allocatedMemoryPointer - sizeof(MemoryAllocator::SegmentDescriptor));
 579              		.loc 1 89 5
 580 0340 638A0408 		beqz	s1,.L25
  89:src/memoryAllocatorTest.cpp ****             ((uint8*) allocatedMemoryPointer - sizeof(MemoryAllocator::SegmentDescriptor));
 581              		.loc 1 89 33 discriminator 1
  89:src/memoryAllocatorTest.cpp ****             ((uint8*) allocatedMemoryPointer - sizeof(MemoryAllocator::SegmentDescriptor));
 582              		.loc 1 89 41 is_stmt 0 discriminator 1
 583 0344 938704FF 		addi	a5,s1,-16
 584              	.LVL75:
 585              	.L22:
  92:src/memoryAllocatorTest.cpp ****     if (segDesc->noBlocks != minNoBlocksForSize + addendForSegDesc) return false;
 586              		.loc 1 92 5 is_stmt 1
 587 0348 63880400 		beqz	s1,.L23
  93:src/memoryAllocatorTest.cpp ****     MemoryAllocator::instance()->kmem_free(allocatedMemoryPointer);
 588              		.loc 1 93 5
  93:src/memoryAllocatorTest.cpp ****     MemoryAllocator::instance()->kmem_free(allocatedMemoryPointer);
 589              		.loc 1 93 18 is_stmt 0
 590 034c 03B70700 		ld	a4,0(a5)
  93:src/memoryAllocatorTest.cpp ****     MemoryAllocator::instance()->kmem_free(allocatedMemoryPointer);
 591              		.loc 1 93 49
 592 0350 B3872901 		add	a5,s3,s2
 593              	.LVL76:
  93:src/memoryAllocatorTest.cpp ****     MemoryAllocator::instance()->kmem_free(allocatedMemoryPointer);
 594              		.loc 1 93 5
 595 0354 6314F708 		bne	a4,a5,.L26
 596              	.L23:
  94:src/memoryAllocatorTest.cpp **** 
 597              		.loc 1 94 5 is_stmt 1
  94:src/memoryAllocatorTest.cpp **** 
 598              		.loc 1 94 43 is_stmt 0
 599 0358 97000000 		call	_ZN15MemoryAllocator8instanceEv@plt
 599      E7800000 
 600              	.LVL77:
 601 0360 93850400 		mv	a1,s1
 602 0364 97000000 		call	_ZN15MemoryAllocator9kmem_freeEPv@plt
 602      E7800000 
 603              	.LVL78:
  96:src/memoryAllocatorTest.cpp ****     size_t afterTestTotalFree = MemoryAllocator::instance()->getTotalFree();
 604              		.loc 1 96 5 is_stmt 1
  96:src/memoryAllocatorTest.cpp ****     size_t afterTestTotalFree = MemoryAllocator::instance()->getTotalFree();
 605              		.loc 1 96 36 is_stmt 0
 606 036c 13050A00 		mv	a0,s4
GAS LISTING /tmp/cclfPASU.s 			page 17


 607 0370 97000000 		call	_ZN19MemoryAllocatorTest26testMemoryMetadataValidityEv
 607      E7800000 
 608              	.LVL79:
  96:src/memoryAllocatorTest.cpp ****     size_t afterTestTotalFree = MemoryAllocator::instance()->getTotalFree();
 609              		.loc 1 96 5
 610 0378 E30605F4 		beqz	a0,.L20
  97:src/memoryAllocatorTest.cpp ****     size_t afterTestTotalTaken = MemoryAllocator::instance()->getTotalTaken();
 611              		.loc 1 97 5 is_stmt 1
  97:src/memoryAllocatorTest.cpp ****     size_t afterTestTotalTaken = MemoryAllocator::instance()->getTotalTaken();
 612              		.loc 1 97 74 is_stmt 0
 613 037c 97000000 		call	_ZN15MemoryAllocator8instanceEv@plt
 613      E7800000 
 614              	.LVL80:
 615              	.LBB56:
 616              	.LBB57:
  58:src/../h/memoryAllocator.hpp ****     size_t getTotalTaken() { return totalTaken; }
 617              		.loc 2 58 29 is_stmt 1
  58:src/../h/memoryAllocator.hpp ****     size_t getTotalTaken() { return totalTaken; }
 618              		.loc 2 58 36 is_stmt 0
 619 0384 83340500 		ld	s1,0(a0)
 620              	.LVL81:
 621              	.LBE57:
 622              	.LBE56:
  98:src/memoryAllocatorTest.cpp ****     size_t afterTestFreeBlockNo = MemoryAllocator::instance()->getFreeBlockNo();
 623              		.loc 1 98 5 is_stmt 1
  98:src/memoryAllocatorTest.cpp ****     size_t afterTestFreeBlockNo = MemoryAllocator::instance()->getFreeBlockNo();
 624              		.loc 1 98 76 is_stmt 0
 625 0388 97000000 		call	_ZN15MemoryAllocator8instanceEv@plt
 625      E7800000 
 626              	.LVL82:
 627              	.LBB58:
 628              	.LBB59:
  59:src/../h/memoryAllocator.hpp ****     size_t getFreeBlockNo() { return freeBlockNo; }
 629              		.loc 2 59 30 is_stmt 1
  59:src/../h/memoryAllocator.hpp ****     size_t getFreeBlockNo() { return freeBlockNo; }
 630              		.loc 2 59 37 is_stmt 0
 631 0390 033A8500 		ld	s4,8(a0)
 632              	.LVL83:
 633              	.LBE59:
 634              	.LBE58:
  99:src/memoryAllocatorTest.cpp **** 
 635              		.loc 1 99 5 is_stmt 1
  99:src/memoryAllocatorTest.cpp **** 
 636              		.loc 1 99 78 is_stmt 0
 637 0394 97000000 		call	_ZN15MemoryAllocator8instanceEv@plt
 637      E7800000 
 638              	.LVL84:
 639              	.LBB60:
 640              	.LBB61:
 641              		.loc 2 60 31 is_stmt 1
 642              		.loc 2 60 38 is_stmt 0
 643 039c 83370501 		ld	a5,16(a0)
 644              	.LVL85:
 645              	.LBE61:
 646              	.LBE60:
 101:src/memoryAllocatorTest.cpp ****     if (beforeTestTotalTaken != afterTestTotalTaken + allocatedMemory) return false;
 647              		.loc 1 101 5 is_stmt 1
GAS LISTING /tmp/cclfPASU.s 			page 18


 101:src/memoryAllocatorTest.cpp ****     if (beforeTestTotalTaken != afterTestTotalTaken + allocatedMemory) return false;
 648              		.loc 1 101 51 is_stmt 0
 649 03a0 B3848441 		sub	s1,s1,s8
 650              	.LVL86:
 101:src/memoryAllocatorTest.cpp ****     if (beforeTestTotalTaken != afterTestTotalTaken + allocatedMemory) return false;
 651              		.loc 1 101 5
 652 03a4 63906405 		bne	s1,s6,.L27
 102:src/memoryAllocatorTest.cpp ****     return beforeTestFreeBlockNo == afterTestFreeBlockNo - minNoBlocksForSize - addendForSegDesc;
 653              		.loc 1 102 5 is_stmt 1
 102:src/memoryAllocatorTest.cpp ****     return beforeTestFreeBlockNo == afterTestFreeBlockNo - minNoBlocksForSize - addendForSegDesc;
 654              		.loc 1 102 53 is_stmt 0
 655 03a8 33074C01 		add	a4,s8,s4
 102:src/memoryAllocatorTest.cpp ****     return beforeTestFreeBlockNo == afterTestFreeBlockNo - minNoBlocksForSize - addendForSegDesc;
 656              		.loc 1 102 5
 657 03ac 63107705 		bne	a4,s7,.L28
 103:src/memoryAllocatorTest.cpp **** 
 658              		.loc 1 103 5 is_stmt 1
 103:src/memoryAllocatorTest.cpp **** 
 659              		.loc 1 103 58 is_stmt 0
 660 03b0 33853741 		sub	a0,a5,s3
 103:src/memoryAllocatorTest.cpp **** 
 661              		.loc 1 103 79
 662 03b4 33052541 		sub	a0,a0,s2
 103:src/memoryAllocatorTest.cpp **** 
 663              		.loc 1 103 81
 664 03b8 33055541 		sub	a0,a0,s5
 665 03bc 13351500 		seqz	a0,a0
 666 03c0 6FF05FF0 		j	.L20
 667              	.LVL87:
 668              	.L31:
  85:src/memoryAllocatorTest.cpp ****     }
 669              		.loc 1 85 71
 670 03c4 130C0000 		li	s8,0
 671              	.LVL88:
  85:src/memoryAllocatorTest.cpp ****     }
 672              		.loc 1 85 50
 673 03c8 13090000 		li	s2,0
 674              	.LVL89:
  85:src/memoryAllocatorTest.cpp ****     }
 675              		.loc 1 85 28
 676 03cc 93090000 		li	s3,0
 677 03d0 6FF01FF7 		j	.L21
 678              	.LVL90:
 679              	.L25:
  88:src/memoryAllocatorTest.cpp ****     if (allocatedMemoryPointer) segDesc = (MemoryAllocator::SegmentDescriptor*)
 680              		.loc 1 88 41
 681 03d4 93870400 		mv	a5,s1
 682 03d8 6FF01FF7 		j	.L22
 683              	.LVL91:
 684              	.L26:
  93:src/memoryAllocatorTest.cpp ****     MemoryAllocator::instance()->kmem_free(allocatedMemoryPointer);
 685              		.loc 1 93 76
 686 03dc 13050000 		li	a0,0
 687 03e0 6FF05FEE 		j	.L20
 688              	.LVL92:
 689              	.L27:
 101:src/memoryAllocatorTest.cpp ****     if (beforeTestTotalTaken != afterTestTotalTaken + allocatedMemory) return false;
GAS LISTING /tmp/cclfPASU.s 			page 19


 690              		.loc 1 101 77
 691 03e4 13050000 		li	a0,0
 692 03e8 6FF0DFED 		j	.L20
 693              	.L28:
 102:src/memoryAllocatorTest.cpp ****     return beforeTestFreeBlockNo == afterTestFreeBlockNo - minNoBlocksForSize - addendForSegDesc;
 694              		.loc 1 102 79
 695 03ec 13050000 		li	a0,0
 696 03f0 6FF05FED 		j	.L20
 697              		.cfi_endproc
 698              	.LFE5:
 700              		.align	2
 701              		.globl	_ZN19MemoryAllocatorTest13firstFitTest1Ev
 703              	_ZN19MemoryAllocatorTest13firstFitTest1Ev:
 704              	.LFB9:
 129:src/memoryAllocatorTest.cpp **** 
 130:src/memoryAllocatorTest.cpp **** bool MemoryAllocatorTest::testFirstFit() {
 131:src/memoryAllocatorTest.cpp ****     if (!firstFitTest1()) return false;
 132:src/memoryAllocatorTest.cpp ****     if (!firstFitTest2()) return false;
 133:src/memoryAllocatorTest.cpp ****     if (!firstFitTest3()) return false;
 134:src/memoryAllocatorTest.cpp ****     return true;
 135:src/memoryAllocatorTest.cpp **** }
 136:src/memoryAllocatorTest.cpp **** 
 137:src/memoryAllocatorTest.cpp **** bool MemoryAllocatorTest::firstFitTest1() {
 705              		.loc 1 137 43 is_stmt 1
 706              		.cfi_startproc
 707              	.LVL93:
 708 03f4 130101FC 		addi	sp,sp,-64
 709              		.cfi_def_cfa_offset 64
 710 03f8 233C1102 		sd	ra,56(sp)
 711 03fc 23388102 		sd	s0,48(sp)
 712 0400 23349102 		sd	s1,40(sp)
 713 0404 23302103 		sd	s2,32(sp)
 714 0408 233C3101 		sd	s3,24(sp)
 715 040c 23384101 		sd	s4,16(sp)
 716 0410 23345101 		sd	s5,8(sp)
 717              		.cfi_offset 1, -8
 718              		.cfi_offset 8, -16
 719              		.cfi_offset 9, -24
 720              		.cfi_offset 18, -32
 721              		.cfi_offset 19, -40
 722              		.cfi_offset 20, -48
 723              		.cfi_offset 21, -56
 724 0414 13040104 		addi	s0,sp,64
 725              		.cfi_def_cfa 8, 0
 726 0418 93040500 		mv	s1,a0
 138:src/memoryAllocatorTest.cpp ****     if (!testMemoryMetadataValidity()) return false;
 727              		.loc 1 138 5
 728              		.loc 1 138 36 is_stmt 0
 729 041c 97000000 		call	_ZN19MemoryAllocatorTest26testMemoryMetadataValidityEv
 729      E7800000 
 730              	.LVL94:
 731              		.loc 1 138 5
 732 0424 63140502 		bnez	a0,.L40
 733              	.L33:
 139:src/memoryAllocatorTest.cpp ****     size_t sizes[5] = {47, 48, 49, 30, 289};
 140:src/memoryAllocatorTest.cpp ****     void* pointers[5];
 141:src/memoryAllocatorTest.cpp **** 
GAS LISTING /tmp/cclfPASU.s 			page 20


 142:src/memoryAllocatorTest.cpp ****     pointers[0] = MemoryAllocator::instance()->kmem_alloc(sizes[0]);
 143:src/memoryAllocatorTest.cpp ****     if (pointers[0] != MemoryAllocator::managedMemorySpaceStart + sizeof(MemoryAllocator::SegmentDe
 144:src/memoryAllocatorTest.cpp ****         return false;
 145:src/memoryAllocatorTest.cpp **** 
 146:src/memoryAllocatorTest.cpp ****     pointers[1] = MemoryAllocator::instance()->kmem_alloc(sizes[1]);
 147:src/memoryAllocatorTest.cpp ****     if (pointers[1] != MemoryAllocator::managedMemorySpaceStart + 64 + sizeof(MemoryAllocator::Segm
 148:src/memoryAllocatorTest.cpp ****         return false;
 149:src/memoryAllocatorTest.cpp **** 
 150:src/memoryAllocatorTest.cpp ****     pointers[2] = MemoryAllocator::instance()->kmem_alloc(sizes[2]);
 151:src/memoryAllocatorTest.cpp ****     if (pointers[2] != MemoryAllocator::managedMemorySpaceStart + 2 * 64 + sizeof(MemoryAllocator::
 152:src/memoryAllocatorTest.cpp ****         return false;
 153:src/memoryAllocatorTest.cpp **** 
 154:src/memoryAllocatorTest.cpp ****     MemoryAllocator::instance()->kmem_free(pointers[1]);
 155:src/memoryAllocatorTest.cpp ****     pointers[3] = MemoryAllocator::instance()->kmem_alloc(sizes[3]);
 156:src/memoryAllocatorTest.cpp ****     if (pointers[3] != MemoryAllocator::managedMemorySpaceStart + 64 + sizeof(MemoryAllocator::Segm
 157:src/memoryAllocatorTest.cpp ****         return false;
 158:src/memoryAllocatorTest.cpp **** 
 159:src/memoryAllocatorTest.cpp ****     pointers[4] = MemoryAllocator::instance()->kmem_alloc(sizes[4]);
 160:src/memoryAllocatorTest.cpp ****     if (pointers[4] != MemoryAllocator::managedMemorySpaceStart + 4 * 64 + sizeof(MemoryAllocator::
 161:src/memoryAllocatorTest.cpp ****         return false;
 162:src/memoryAllocatorTest.cpp **** 
 163:src/memoryAllocatorTest.cpp ****     if (!testMemoryMetadataValidity()) return false;
 164:src/memoryAllocatorTest.cpp ****     MemoryAllocator::instance()->kmem_free(pointers[0]);
 165:src/memoryAllocatorTest.cpp ****     MemoryAllocator::instance()->kmem_free(pointers[2]);
 166:src/memoryAllocatorTest.cpp ****     MemoryAllocator::instance()->kmem_free(pointers[3]);
 167:src/memoryAllocatorTest.cpp ****     MemoryAllocator::instance()->kmem_free(pointers[4]);
 168:src/memoryAllocatorTest.cpp ****     if (!testMemoryMetadataValidity()) return false;
 169:src/memoryAllocatorTest.cpp **** 
 170:src/memoryAllocatorTest.cpp ****     return true;
 171:src/memoryAllocatorTest.cpp **** }
 734              		.loc 1 171 1
 735 0428 83308103 		ld	ra,56(sp)
 736              		.cfi_remember_state
 737              		.cfi_restore 1
 738 042c 03340103 		ld	s0,48(sp)
 739              		.cfi_restore 8
 740              		.cfi_def_cfa 2, 64
 741 0430 83348102 		ld	s1,40(sp)
 742              		.cfi_restore 9
 743              	.LVL95:
 744 0434 03390102 		ld	s2,32(sp)
 745              		.cfi_restore 18
 746 0438 83398101 		ld	s3,24(sp)
 747              		.cfi_restore 19
 748 043c 033A0101 		ld	s4,16(sp)
 749              		.cfi_restore 20
 750 0440 833A8100 		ld	s5,8(sp)
 751              		.cfi_restore 21
 752 0444 13010104 		addi	sp,sp,64
 753              		.cfi_def_cfa_offset 0
 754 0448 67800000 		jr	ra
 755              	.LVL96:
 756              	.L40:
 757              		.cfi_restore_state
 139:src/memoryAllocatorTest.cpp ****     size_t sizes[5] = {47, 48, 49, 30, 289};
 758              		.loc 1 139 5 is_stmt 1
 140:src/memoryAllocatorTest.cpp **** 
GAS LISTING /tmp/cclfPASU.s 			page 21


 759              		.loc 1 140 5
 142:src/memoryAllocatorTest.cpp ****     if (pointers[0] != MemoryAllocator::managedMemorySpaceStart + sizeof(MemoryAllocator::SegmentDe
 760              		.loc 1 142 5
 142:src/memoryAllocatorTest.cpp ****     if (pointers[0] != MemoryAllocator::managedMemorySpaceStart + sizeof(MemoryAllocator::SegmentDe
 761              		.loc 1 142 58 is_stmt 0
 762 044c 97000000 		call	_ZN15MemoryAllocator8instanceEv@plt
 762      E7800000 
 763              	.LVL97:
 764 0454 9305F002 		li	a1,47
 765 0458 97000000 		call	_ZN15MemoryAllocator10kmem_allocEm@plt
 765      E7800000 
 766              	.LVL98:
 767 0460 13090500 		mv	s2,a0
 143:src/memoryAllocatorTest.cpp ****         return false;
 768              		.loc 1 143 5 is_stmt 1
 143:src/memoryAllocatorTest.cpp ****         return false;
 769              		.loc 1 143 65 is_stmt 0
 770 0464 97070000 		la	a5,_ZN15MemoryAllocator23managedMemorySpaceStartE
 770      83B70700 
 771 046c 83B70700 		ld	a5,0(a5)
 772 0470 93870701 		addi	a5,a5,16
 143:src/memoryAllocatorTest.cpp ****         return false;
 773              		.loc 1 143 5
 774 0474 6386A700 		beq	a5,a0,.L41
 144:src/memoryAllocatorTest.cpp **** 
 775              		.loc 1 144 16
 776 0478 13050000 		li	a0,0
 777 047c 6FF0DFFA 		j	.L33
 778              	.L41:
 146:src/memoryAllocatorTest.cpp ****     if (pointers[1] != MemoryAllocator::managedMemorySpaceStart + 64 + sizeof(MemoryAllocator::Segm
 779              		.loc 1 146 5 is_stmt 1
 146:src/memoryAllocatorTest.cpp ****     if (pointers[1] != MemoryAllocator::managedMemorySpaceStart + 64 + sizeof(MemoryAllocator::Segm
 780              		.loc 1 146 58 is_stmt 0
 781 0480 97000000 		call	_ZN15MemoryAllocator8instanceEv@plt
 781      E7800000 
 782              	.LVL99:
 783 0488 93050003 		li	a1,48
 784 048c 97000000 		call	_ZN15MemoryAllocator10kmem_allocEm@plt
 784      E7800000 
 785              	.LVL100:
 786 0494 93090500 		mv	s3,a0
 147:src/memoryAllocatorTest.cpp ****         return false;
 787              		.loc 1 147 5 is_stmt 1
 147:src/memoryAllocatorTest.cpp ****         return false;
 788              		.loc 1 147 70 is_stmt 0
 789 0498 97070000 		la	a5,_ZN15MemoryAllocator23managedMemorySpaceStartE
 789      83B70700 
 790 04a0 83B70700 		ld	a5,0(a5)
 791 04a4 93870705 		addi	a5,a5,80
 147:src/memoryAllocatorTest.cpp ****         return false;
 792              		.loc 1 147 5
 793 04a8 6386A700 		beq	a5,a0,.L42
 148:src/memoryAllocatorTest.cpp **** 
 794              		.loc 1 148 16
 795 04ac 13050000 		li	a0,0
 796 04b0 6FF09FF7 		j	.L33
 797              	.L42:
GAS LISTING /tmp/cclfPASU.s 			page 22


 150:src/memoryAllocatorTest.cpp ****     if (pointers[2] != MemoryAllocator::managedMemorySpaceStart + 2 * 64 + sizeof(MemoryAllocator::
 798              		.loc 1 150 5 is_stmt 1
 150:src/memoryAllocatorTest.cpp ****     if (pointers[2] != MemoryAllocator::managedMemorySpaceStart + 2 * 64 + sizeof(MemoryAllocator::
 799              		.loc 1 150 58 is_stmt 0
 800 04b4 97000000 		call	_ZN15MemoryAllocator8instanceEv@plt
 800      E7800000 
 801              	.LVL101:
 802 04bc 93051003 		li	a1,49
 803 04c0 97000000 		call	_ZN15MemoryAllocator10kmem_allocEm@plt
 803      E7800000 
 804              	.LVL102:
 805 04c8 130A0500 		mv	s4,a0
 151:src/memoryAllocatorTest.cpp ****         return false;
 806              		.loc 1 151 5 is_stmt 1
 151:src/memoryAllocatorTest.cpp ****         return false;
 807              		.loc 1 151 74 is_stmt 0
 808 04cc 97070000 		la	a5,_ZN15MemoryAllocator23managedMemorySpaceStartE
 808      83B70700 
 809 04d4 83B70700 		ld	a5,0(a5)
 810 04d8 93870709 		addi	a5,a5,144
 151:src/memoryAllocatorTest.cpp ****         return false;
 811              		.loc 1 151 5
 812 04dc 6386A700 		beq	a5,a0,.L43
 152:src/memoryAllocatorTest.cpp **** 
 813              		.loc 1 152 16
 814 04e0 13050000 		li	a0,0
 815 04e4 6FF05FF4 		j	.L33
 816              	.L43:
 154:src/memoryAllocatorTest.cpp ****     pointers[3] = MemoryAllocator::instance()->kmem_alloc(sizes[3]);
 817              		.loc 1 154 5 is_stmt 1
 154:src/memoryAllocatorTest.cpp ****     pointers[3] = MemoryAllocator::instance()->kmem_alloc(sizes[3]);
 818              		.loc 1 154 43 is_stmt 0
 819 04e8 97000000 		call	_ZN15MemoryAllocator8instanceEv@plt
 819      E7800000 
 820              	.LVL103:
 821 04f0 93850900 		mv	a1,s3
 822 04f4 97000000 		call	_ZN15MemoryAllocator9kmem_freeEPv@plt
 822      E7800000 
 823              	.LVL104:
 155:src/memoryAllocatorTest.cpp ****     if (pointers[3] != MemoryAllocator::managedMemorySpaceStart + 64 + sizeof(MemoryAllocator::Segm
 824              		.loc 1 155 5 is_stmt 1
 155:src/memoryAllocatorTest.cpp ****     if (pointers[3] != MemoryAllocator::managedMemorySpaceStart + 64 + sizeof(MemoryAllocator::Segm
 825              		.loc 1 155 58 is_stmt 0
 826 04fc 97000000 		call	_ZN15MemoryAllocator8instanceEv@plt
 826      E7800000 
 827              	.LVL105:
 828 0504 9305E001 		li	a1,30
 829 0508 97000000 		call	_ZN15MemoryAllocator10kmem_allocEm@plt
 829      E7800000 
 830              	.LVL106:
 831 0510 93090500 		mv	s3,a0
 156:src/memoryAllocatorTest.cpp ****         return false;
 832              		.loc 1 156 5 is_stmt 1
 156:src/memoryAllocatorTest.cpp ****         return false;
 833              		.loc 1 156 70 is_stmt 0
 834 0514 97070000 		la	a5,_ZN15MemoryAllocator23managedMemorySpaceStartE
 834      83B70700 
GAS LISTING /tmp/cclfPASU.s 			page 23


 835 051c 83B70700 		ld	a5,0(a5)
 836 0520 93870705 		addi	a5,a5,80
 156:src/memoryAllocatorTest.cpp ****         return false;
 837              		.loc 1 156 5
 838 0524 6386A700 		beq	a5,a0,.L44
 157:src/memoryAllocatorTest.cpp **** 
 839              		.loc 1 157 16
 840 0528 13050000 		li	a0,0
 841 052c 6FF0DFEF 		j	.L33
 842              	.L44:
 159:src/memoryAllocatorTest.cpp ****     if (pointers[4] != MemoryAllocator::managedMemorySpaceStart + 4 * 64 + sizeof(MemoryAllocator::
 843              		.loc 1 159 5 is_stmt 1
 159:src/memoryAllocatorTest.cpp ****     if (pointers[4] != MemoryAllocator::managedMemorySpaceStart + 4 * 64 + sizeof(MemoryAllocator::
 844              		.loc 1 159 58 is_stmt 0
 845 0530 97000000 		call	_ZN15MemoryAllocator8instanceEv@plt
 845      E7800000 
 846              	.LVL107:
 847 0538 93051012 		li	a1,289
 848 053c 97000000 		call	_ZN15MemoryAllocator10kmem_allocEm@plt
 848      E7800000 
 849              	.LVL108:
 850 0544 930A0500 		mv	s5,a0
 160:src/memoryAllocatorTest.cpp ****         return false;
 851              		.loc 1 160 5 is_stmt 1
 160:src/memoryAllocatorTest.cpp ****         return false;
 852              		.loc 1 160 74 is_stmt 0
 853 0548 97070000 		la	a5,_ZN15MemoryAllocator23managedMemorySpaceStartE
 853      83B70700 
 854 0550 83B70700 		ld	a5,0(a5)
 855 0554 93870711 		addi	a5,a5,272
 160:src/memoryAllocatorTest.cpp ****         return false;
 856              		.loc 1 160 5
 857 0558 6386A700 		beq	a5,a0,.L45
 161:src/memoryAllocatorTest.cpp **** 
 858              		.loc 1 161 16
 859 055c 13050000 		li	a0,0
 860 0560 6FF09FEC 		j	.L33
 861              	.L45:
 163:src/memoryAllocatorTest.cpp ****     MemoryAllocator::instance()->kmem_free(pointers[0]);
 862              		.loc 1 163 5 is_stmt 1
 163:src/memoryAllocatorTest.cpp ****     MemoryAllocator::instance()->kmem_free(pointers[0]);
 863              		.loc 1 163 36 is_stmt 0
 864 0564 13850400 		mv	a0,s1
 865 0568 97000000 		call	_ZN19MemoryAllocatorTest26testMemoryMetadataValidityEv
 865      E7800000 
 866              	.LVL109:
 163:src/memoryAllocatorTest.cpp ****     MemoryAllocator::instance()->kmem_free(pointers[0]);
 867              		.loc 1 163 5
 868 0570 E30C05EA 		beqz	a0,.L33
 164:src/memoryAllocatorTest.cpp ****     MemoryAllocator::instance()->kmem_free(pointers[2]);
 869              		.loc 1 164 5 is_stmt 1
 164:src/memoryAllocatorTest.cpp ****     MemoryAllocator::instance()->kmem_free(pointers[2]);
 870              		.loc 1 164 43 is_stmt 0
 871 0574 97000000 		call	_ZN15MemoryAllocator8instanceEv@plt
 871      E7800000 
 872              	.LVL110:
 873 057c 93050900 		mv	a1,s2
GAS LISTING /tmp/cclfPASU.s 			page 24


 874 0580 97000000 		call	_ZN15MemoryAllocator9kmem_freeEPv@plt
 874      E7800000 
 875              	.LVL111:
 165:src/memoryAllocatorTest.cpp ****     MemoryAllocator::instance()->kmem_free(pointers[3]);
 876              		.loc 1 165 5 is_stmt 1
 165:src/memoryAllocatorTest.cpp ****     MemoryAllocator::instance()->kmem_free(pointers[3]);
 877              		.loc 1 165 43 is_stmt 0
 878 0588 97000000 		call	_ZN15MemoryAllocator8instanceEv@plt
 878      E7800000 
 879              	.LVL112:
 880 0590 93050A00 		mv	a1,s4
 881 0594 97000000 		call	_ZN15MemoryAllocator9kmem_freeEPv@plt
 881      E7800000 
 882              	.LVL113:
 166:src/memoryAllocatorTest.cpp ****     MemoryAllocator::instance()->kmem_free(pointers[4]);
 883              		.loc 1 166 5 is_stmt 1
 166:src/memoryAllocatorTest.cpp ****     MemoryAllocator::instance()->kmem_free(pointers[4]);
 884              		.loc 1 166 43 is_stmt 0
 885 059c 97000000 		call	_ZN15MemoryAllocator8instanceEv@plt
 885      E7800000 
 886              	.LVL114:
 887 05a4 93850900 		mv	a1,s3
 888 05a8 97000000 		call	_ZN15MemoryAllocator9kmem_freeEPv@plt
 888      E7800000 
 889              	.LVL115:
 167:src/memoryAllocatorTest.cpp ****     if (!testMemoryMetadataValidity()) return false;
 890              		.loc 1 167 5 is_stmt 1
 167:src/memoryAllocatorTest.cpp ****     if (!testMemoryMetadataValidity()) return false;
 891              		.loc 1 167 43 is_stmt 0
 892 05b0 97000000 		call	_ZN15MemoryAllocator8instanceEv@plt
 892      E7800000 
 893              	.LVL116:
 894 05b8 93850A00 		mv	a1,s5
 895 05bc 97000000 		call	_ZN15MemoryAllocator9kmem_freeEPv@plt
 895      E7800000 
 896              	.LVL117:
 168:src/memoryAllocatorTest.cpp **** 
 897              		.loc 1 168 5 is_stmt 1
 168:src/memoryAllocatorTest.cpp **** 
 898              		.loc 1 168 36 is_stmt 0
 899 05c4 13850400 		mv	a0,s1
 900 05c8 97000000 		call	_ZN19MemoryAllocatorTest26testMemoryMetadataValidityEv
 900      E7800000 
 901              	.LVL118:
 902 05d0 6FF09FE5 		j	.L33
 903              		.cfi_endproc
 904              	.LFE9:
 906              		.section	.rodata.str1.8,"aMS",@progbits,1
 907              		.align	3
 908              	.LC3:
 909 0000 0A706F69 		.string	"\npointers["
 909      6E746572 
 909      735B00
 910 000b 00000000 		.align	3
 910      00
 911              	.LC4:
 912 0010 5D3A2000 		.string	"]: "
GAS LISTING /tmp/cclfPASU.s 			page 25


 913 0014 00000000 		.align	3
 914              	.LC5:
 915 0018 5D2D3E62 		.string	"]->blockNo: "
 915      6C6F636B 
 915      4E6F3A20 
 915      00
 916 0025 000000   		.align	3
 917              	.LC6:
 918 0028 0A00     		.string	"\n"
 919              		.text
 920              		.align	2
 921              		.globl	_ZN19MemoryAllocatorTest12printPointerEiPPv
 923              	_ZN19MemoryAllocatorTest12printPointerEiPPv:
 924              	.LFB10:
 172:src/memoryAllocatorTest.cpp **** 
 173:src/memoryAllocatorTest.cpp **** 
 174:src/memoryAllocatorTest.cpp **** void MemoryAllocatorTest::printPointer(int i, void** pointers) {
 925              		.loc 1 174 64 is_stmt 1
 926              		.cfi_startproc
 927              	.LVL119:
 928 05d4 130101FE 		addi	sp,sp,-32
 929              		.cfi_def_cfa_offset 32
 930 05d8 233C1100 		sd	ra,24(sp)
 931 05dc 23388100 		sd	s0,16(sp)
 932 05e0 23349100 		sd	s1,8(sp)
 933 05e4 23302101 		sd	s2,0(sp)
 934              		.cfi_offset 1, -8
 935              		.cfi_offset 8, -16
 936              		.cfi_offset 9, -24
 937              		.cfi_offset 18, -32
 938 05e8 13040102 		addi	s0,sp,32
 939              		.cfi_def_cfa 8, 0
 940 05ec 13890500 		mv	s2,a1
 941 05f0 93040600 		mv	s1,a2
 175:src/memoryAllocatorTest.cpp ****     printString("\npointers[");
 942              		.loc 1 175 5
 943              		.loc 1 175 16 is_stmt 0
 944 05f4 17050000 		lla	a0,.LC3
 944      13050500 
 945              	.LVL120:
 946 05fc 97000000 		call	_Z11printStringPKc@plt
 946      E7800000 
 947              	.LVL121:
 176:src/memoryAllocatorTest.cpp ****     printInteger(i);
 948              		.loc 1 176 5 is_stmt 1
 949              		.loc 1 176 17 is_stmt 0
 950 0604 13050900 		mv	a0,s2
 951 0608 97000000 		call	_Z12printIntegerm@plt
 951      E7800000 
 952              	.LVL122:
 177:src/memoryAllocatorTest.cpp ****     printString("]: ");
 953              		.loc 1 177 5 is_stmt 1
 954              		.loc 1 177 16 is_stmt 0
 955 0610 17050000 		lla	a0,.LC4
 955      13050500 
 956 0618 97000000 		call	_Z11printStringPKc@plt
 956      E7800000 
GAS LISTING /tmp/cclfPASU.s 			page 26


 957              	.LVL123:
 178:src/memoryAllocatorTest.cpp ****     printInteger((uint64)((uint8*) pointers[i] - MemoryAllocator::managedMemorySpaceStart));
 958              		.loc 1 178 5 is_stmt 1
 959              		.loc 1 178 46 is_stmt 0
 960 0620 13163900 		slli	a2,s2,3
 961 0624 B384C400 		add	s1,s1,a2
 962              	.LVL124:
 963              		.loc 1 178 27
 964 0628 03B50400 		ld	a0,0(s1)
 965              		.loc 1 178 48
 966 062c 97070000 		la	a5,_ZN15MemoryAllocator23managedMemorySpaceStartE
 966      83B70700 
 967 0634 83B70700 		ld	a5,0(a5)
 968              		.loc 1 178 17
 969 0638 3305F540 		sub	a0,a0,a5
 970 063c 97000000 		call	_Z12printIntegerm@plt
 970      E7800000 
 971              	.LVL125:
 179:src/memoryAllocatorTest.cpp ****     printString("\npointers[");
 972              		.loc 1 179 5 is_stmt 1
 973              		.loc 1 179 16 is_stmt 0
 974 0644 17050000 		lla	a0,.LC3
 974      13050500 
 975 064c 97000000 		call	_Z11printStringPKc@plt
 975      E7800000 
 976              	.LVL126:
 180:src/memoryAllocatorTest.cpp ****     printInteger(i);
 977              		.loc 1 180 5 is_stmt 1
 978              		.loc 1 180 17 is_stmt 0
 979 0654 13050900 		mv	a0,s2
 980 0658 97000000 		call	_Z12printIntegerm@plt
 980      E7800000 
 981              	.LVL127:
 181:src/memoryAllocatorTest.cpp ****     printString("]->blockNo: "); printInteger((uint64) (((MemoryAllocator::SegmentDescriptor*) poin
 982              		.loc 1 181 5 is_stmt 1
 983              		.loc 1 181 16 is_stmt 0
 984 0660 17050000 		lla	a0,.LC5
 984      13050500 
 985 0668 97000000 		call	_Z11printStringPKc@plt
 985      E7800000 
 986              	.LVL128:
 987              		.loc 1 181 34 is_stmt 1
 988              		.loc 1 181 58 is_stmt 0
 989 0670 83B70400 		ld	a5,0(s1)
 990              		.loc 1 181 46
 991 0674 03B50700 		ld	a0,0(a5)
 992 0678 97000000 		call	_Z12printIntegerm@plt
 992      E7800000 
 993              	.LVL129:
 182:src/memoryAllocatorTest.cpp ****     printString("\n");
 994              		.loc 1 182 5 is_stmt 1
 995              		.loc 1 182 16 is_stmt 0
 996 0680 17050000 		lla	a0,.LC6
 996      13050500 
 997 0688 97000000 		call	_Z11printStringPKc@plt
 997      E7800000 
 998              	.LVL130:
GAS LISTING /tmp/cclfPASU.s 			page 27


 183:src/memoryAllocatorTest.cpp **** }
 999              		.loc 1 183 1
 1000 0690 83308101 		ld	ra,24(sp)
 1001              		.cfi_restore 1
 1002 0694 03340101 		ld	s0,16(sp)
 1003              		.cfi_restore 8
 1004              		.cfi_def_cfa 2, 32
 1005 0698 83348100 		ld	s1,8(sp)
 1006              		.cfi_restore 9
 1007 069c 03390100 		ld	s2,0(sp)
 1008              		.cfi_restore 18
 1009 06a0 13010102 		addi	sp,sp,32
 1010              		.cfi_def_cfa_offset 0
 1011 06a4 67800000 		jr	ra
 1012              		.cfi_endproc
 1013              	.LFE10:
 1015              		.align	2
 1016              		.globl	_ZN19MemoryAllocatorTest13firstFitTest2Ev
 1018              	_ZN19MemoryAllocatorTest13firstFitTest2Ev:
 1019              	.LFB11:
 184:src/memoryAllocatorTest.cpp **** 
 185:src/memoryAllocatorTest.cpp **** bool MemoryAllocatorTest::firstFitTest2() {
 1020              		.loc 1 185 43 is_stmt 1
 1021              		.cfi_startproc
 1022              	.LVL131:
 1023 06a8 130101FC 		addi	sp,sp,-64
 1024              		.cfi_def_cfa_offset 64
 1025 06ac 233C1102 		sd	ra,56(sp)
 1026 06b0 23388102 		sd	s0,48(sp)
 1027 06b4 23349102 		sd	s1,40(sp)
 1028 06b8 23302103 		sd	s2,32(sp)
 1029 06bc 233C3101 		sd	s3,24(sp)
 1030 06c0 23384101 		sd	s4,16(sp)
 1031 06c4 23345101 		sd	s5,8(sp)
 1032              		.cfi_offset 1, -8
 1033              		.cfi_offset 8, -16
 1034              		.cfi_offset 9, -24
 1035              		.cfi_offset 18, -32
 1036              		.cfi_offset 19, -40
 1037              		.cfi_offset 20, -48
 1038              		.cfi_offset 21, -56
 1039 06c8 13040104 		addi	s0,sp,64
 1040              		.cfi_def_cfa 8, 0
 1041 06cc 93040500 		mv	s1,a0
 186:src/memoryAllocatorTest.cpp ****     if (!testMemoryMetadataValidity()) return false;
 1042              		.loc 1 186 5
 1043              		.loc 1 186 36 is_stmt 0
 1044 06d0 97000000 		call	_ZN19MemoryAllocatorTest26testMemoryMetadataValidityEv
 1044      E7800000 
 1045              	.LVL132:
 1046              		.loc 1 186 5
 1047 06d8 63140502 		bnez	a0,.L57
 1048              	.L49:
 187:src/memoryAllocatorTest.cpp ****     size_t sizes[6] = {130, 20, 120, 30, 47, 20};
 188:src/memoryAllocatorTest.cpp ****     void* pointers[6];
 189:src/memoryAllocatorTest.cpp **** 
 190:src/memoryAllocatorTest.cpp ****     pointers[0] = MemoryAllocator::instance()->kmem_alloc(sizes[0]);
GAS LISTING /tmp/cclfPASU.s 			page 28


 191:src/memoryAllocatorTest.cpp ****     if (pointers[0] != MemoryAllocator::managedMemorySpaceStart + sizeof(MemoryAllocator::SegmentDe
 192:src/memoryAllocatorTest.cpp ****         return false;
 193:src/memoryAllocatorTest.cpp **** 
 194:src/memoryAllocatorTest.cpp ****     pointers[1] = MemoryAllocator::instance()->kmem_alloc(sizes[1]);
 195:src/memoryAllocatorTest.cpp ****     if (pointers[1] != MemoryAllocator::managedMemorySpaceStart + 3 * 64 + sizeof(MemoryAllocator::
 196:src/memoryAllocatorTest.cpp ****         return false;
 197:src/memoryAllocatorTest.cpp **** 
 198:src/memoryAllocatorTest.cpp ****     MemoryAllocator::instance()->kmem_free(pointers[0]);
 199:src/memoryAllocatorTest.cpp ****     pointers[2] = MemoryAllocator::instance()->kmem_alloc(sizes[2]);
 200:src/memoryAllocatorTest.cpp ****     if (pointers[2] != MemoryAllocator::managedMemorySpaceStart + sizeof(MemoryAllocator::SegmentDe
 201:src/memoryAllocatorTest.cpp ****         return false;
 202:src/memoryAllocatorTest.cpp **** 
 203:src/memoryAllocatorTest.cpp ****     pointers[3] = MemoryAllocator::instance()->kmem_alloc(sizes[3]);
 204:src/memoryAllocatorTest.cpp ****     if (pointers[3] != MemoryAllocator::managedMemorySpaceStart + 4 * 64 + sizeof(MemoryAllocator::
 205:src/memoryAllocatorTest.cpp ****         return false;
 206:src/memoryAllocatorTest.cpp **** 
 207:src/memoryAllocatorTest.cpp ****     MemoryAllocator::instance()->kmem_free(pointers[2]);
 208:src/memoryAllocatorTest.cpp ****     pointers[4] = MemoryAllocator::instance()->kmem_alloc(sizes[4]);
 209:src/memoryAllocatorTest.cpp ****     if (pointers[4] != MemoryAllocator::managedMemorySpaceStart + sizeof(MemoryAllocator::SegmentDe
 210:src/memoryAllocatorTest.cpp ****         return false;
 211:src/memoryAllocatorTest.cpp **** 
 212:src/memoryAllocatorTest.cpp ****     pointers[5] = MemoryAllocator::instance()->kmem_alloc(sizes[5]);
 213:src/memoryAllocatorTest.cpp ****     if (pointers[5] != MemoryAllocator::managedMemorySpaceStart + 1 * 64 + sizeof(MemoryAllocator::
 214:src/memoryAllocatorTest.cpp ****         return false;
 215:src/memoryAllocatorTest.cpp **** 
 216:src/memoryAllocatorTest.cpp ****     if (!testMemoryMetadataValidity()) return false;
 217:src/memoryAllocatorTest.cpp ****     MemoryAllocator::instance()->kmem_free(pointers[1]);
 218:src/memoryAllocatorTest.cpp ****     MemoryAllocator::instance()->kmem_free(pointers[3]);
 219:src/memoryAllocatorTest.cpp ****     MemoryAllocator::instance()->kmem_free(pointers[4]);
 220:src/memoryAllocatorTest.cpp ****     MemoryAllocator::instance()->kmem_free(pointers[5]);
 221:src/memoryAllocatorTest.cpp ****     if (!testMemoryMetadataValidity()) return false;
 222:src/memoryAllocatorTest.cpp **** 
 223:src/memoryAllocatorTest.cpp ****     return true;
 224:src/memoryAllocatorTest.cpp **** }
 1049              		.loc 1 224 1
 1050 06dc 83308103 		ld	ra,56(sp)
 1051              		.cfi_remember_state
 1052              		.cfi_restore 1
 1053 06e0 03340103 		ld	s0,48(sp)
 1054              		.cfi_restore 8
 1055              		.cfi_def_cfa 2, 64
 1056 06e4 83348102 		ld	s1,40(sp)
 1057              		.cfi_restore 9
 1058              	.LVL133:
 1059 06e8 03390102 		ld	s2,32(sp)
 1060              		.cfi_restore 18
 1061 06ec 83398101 		ld	s3,24(sp)
 1062              		.cfi_restore 19
 1063 06f0 033A0101 		ld	s4,16(sp)
 1064              		.cfi_restore 20
 1065 06f4 833A8100 		ld	s5,8(sp)
 1066              		.cfi_restore 21
 1067 06f8 13010104 		addi	sp,sp,64
 1068              		.cfi_def_cfa_offset 0
 1069 06fc 67800000 		jr	ra
 1070              	.LVL134:
 1071              	.L57:
GAS LISTING /tmp/cclfPASU.s 			page 29


 1072              		.cfi_restore_state
 187:src/memoryAllocatorTest.cpp ****     size_t sizes[6] = {130, 20, 120, 30, 47, 20};
 1073              		.loc 1 187 5 is_stmt 1
 188:src/memoryAllocatorTest.cpp **** 
 1074              		.loc 1 188 5
 190:src/memoryAllocatorTest.cpp ****     if (pointers[0] != MemoryAllocator::managedMemorySpaceStart + sizeof(MemoryAllocator::SegmentDe
 1075              		.loc 1 190 5
 190:src/memoryAllocatorTest.cpp ****     if (pointers[0] != MemoryAllocator::managedMemorySpaceStart + sizeof(MemoryAllocator::SegmentDe
 1076              		.loc 1 190 58 is_stmt 0
 1077 0700 97000000 		call	_ZN15MemoryAllocator8instanceEv@plt
 1077      E7800000 
 1078              	.LVL135:
 1079 0708 93052008 		li	a1,130
 1080 070c 97000000 		call	_ZN15MemoryAllocator10kmem_allocEm@plt
 1080      E7800000 
 1081              	.LVL136:
 1082 0714 13090500 		mv	s2,a0
 191:src/memoryAllocatorTest.cpp ****         return false;
 1083              		.loc 1 191 5 is_stmt 1
 191:src/memoryAllocatorTest.cpp ****         return false;
 1084              		.loc 1 191 65 is_stmt 0
 1085 0718 97070000 		la	a5,_ZN15MemoryAllocator23managedMemorySpaceStartE
 1085      83B70700 
 1086 0720 83B70700 		ld	a5,0(a5)
 1087 0724 93870701 		addi	a5,a5,16
 191:src/memoryAllocatorTest.cpp ****         return false;
 1088              		.loc 1 191 5
 1089 0728 6386A700 		beq	a5,a0,.L58
 192:src/memoryAllocatorTest.cpp **** 
 1090              		.loc 1 192 16
 1091 072c 13050000 		li	a0,0
 1092 0730 6FF0DFFA 		j	.L49
 1093              	.L58:
 194:src/memoryAllocatorTest.cpp ****     if (pointers[1] != MemoryAllocator::managedMemorySpaceStart + 3 * 64 + sizeof(MemoryAllocator::
 1094              		.loc 1 194 5 is_stmt 1
 194:src/memoryAllocatorTest.cpp ****     if (pointers[1] != MemoryAllocator::managedMemorySpaceStart + 3 * 64 + sizeof(MemoryAllocator::
 1095              		.loc 1 194 58 is_stmt 0
 1096 0734 97000000 		call	_ZN15MemoryAllocator8instanceEv@plt
 1096      E7800000 
 1097              	.LVL137:
 1098 073c 93054001 		li	a1,20
 1099 0740 97000000 		call	_ZN15MemoryAllocator10kmem_allocEm@plt
 1099      E7800000 
 1100              	.LVL138:
 1101 0748 93090500 		mv	s3,a0
 195:src/memoryAllocatorTest.cpp ****         return false;
 1102              		.loc 1 195 5 is_stmt 1
 195:src/memoryAllocatorTest.cpp ****         return false;
 1103              		.loc 1 195 74 is_stmt 0
 1104 074c 97070000 		la	a5,_ZN15MemoryAllocator23managedMemorySpaceStartE
 1104      83B70700 
 1105 0754 83B70700 		ld	a5,0(a5)
 1106 0758 9387070D 		addi	a5,a5,208
 195:src/memoryAllocatorTest.cpp ****         return false;
 1107              		.loc 1 195 5
 1108 075c 6386A700 		beq	a5,a0,.L59
 196:src/memoryAllocatorTest.cpp **** 
GAS LISTING /tmp/cclfPASU.s 			page 30


 1109              		.loc 1 196 16
 1110 0760 13050000 		li	a0,0
 1111 0764 6FF09FF7 		j	.L49
 1112              	.L59:
 198:src/memoryAllocatorTest.cpp ****     pointers[2] = MemoryAllocator::instance()->kmem_alloc(sizes[2]);
 1113              		.loc 1 198 5 is_stmt 1
 198:src/memoryAllocatorTest.cpp ****     pointers[2] = MemoryAllocator::instance()->kmem_alloc(sizes[2]);
 1114              		.loc 1 198 43 is_stmt 0
 1115 0768 97000000 		call	_ZN15MemoryAllocator8instanceEv@plt
 1115      E7800000 
 1116              	.LVL139:
 1117 0770 93050900 		mv	a1,s2
 1118 0774 97000000 		call	_ZN15MemoryAllocator9kmem_freeEPv@plt
 1118      E7800000 
 1119              	.LVL140:
 199:src/memoryAllocatorTest.cpp ****     if (pointers[2] != MemoryAllocator::managedMemorySpaceStart + sizeof(MemoryAllocator::SegmentDe
 1120              		.loc 1 199 5 is_stmt 1
 199:src/memoryAllocatorTest.cpp ****     if (pointers[2] != MemoryAllocator::managedMemorySpaceStart + sizeof(MemoryAllocator::SegmentDe
 1121              		.loc 1 199 58 is_stmt 0
 1122 077c 97000000 		call	_ZN15MemoryAllocator8instanceEv@plt
 1122      E7800000 
 1123              	.LVL141:
 1124 0784 93058007 		li	a1,120
 1125 0788 97000000 		call	_ZN15MemoryAllocator10kmem_allocEm@plt
 1125      E7800000 
 1126              	.LVL142:
 1127 0790 13090500 		mv	s2,a0
 200:src/memoryAllocatorTest.cpp ****         return false;
 1128              		.loc 1 200 5 is_stmt 1
 200:src/memoryAllocatorTest.cpp ****         return false;
 1129              		.loc 1 200 65 is_stmt 0
 1130 0794 97070000 		la	a5,_ZN15MemoryAllocator23managedMemorySpaceStartE
 1130      83B70700 
 1131 079c 83B70700 		ld	a5,0(a5)
 1132 07a0 93870701 		addi	a5,a5,16
 200:src/memoryAllocatorTest.cpp ****         return false;
 1133              		.loc 1 200 5
 1134 07a4 6386A700 		beq	a5,a0,.L60
 201:src/memoryAllocatorTest.cpp **** 
 1135              		.loc 1 201 16
 1136 07a8 13050000 		li	a0,0
 1137 07ac 6FF01FF3 		j	.L49
 1138              	.L60:
 203:src/memoryAllocatorTest.cpp ****     if (pointers[3] != MemoryAllocator::managedMemorySpaceStart + 4 * 64 + sizeof(MemoryAllocator::
 1139              		.loc 1 203 5 is_stmt 1
 203:src/memoryAllocatorTest.cpp ****     if (pointers[3] != MemoryAllocator::managedMemorySpaceStart + 4 * 64 + sizeof(MemoryAllocator::
 1140              		.loc 1 203 58 is_stmt 0
 1141 07b0 97000000 		call	_ZN15MemoryAllocator8instanceEv@plt
 1141      E7800000 
 1142              	.LVL143:
 1143 07b8 9305E001 		li	a1,30
 1144 07bc 97000000 		call	_ZN15MemoryAllocator10kmem_allocEm@plt
 1144      E7800000 
 1145              	.LVL144:
 1146 07c4 130A0500 		mv	s4,a0
 204:src/memoryAllocatorTest.cpp ****         return false;
 1147              		.loc 1 204 5 is_stmt 1
GAS LISTING /tmp/cclfPASU.s 			page 31


 204:src/memoryAllocatorTest.cpp ****         return false;
 1148              		.loc 1 204 74 is_stmt 0
 1149 07c8 97070000 		la	a5,_ZN15MemoryAllocator23managedMemorySpaceStartE
 1149      83B70700 
 1150 07d0 83B70700 		ld	a5,0(a5)
 1151 07d4 93870711 		addi	a5,a5,272
 204:src/memoryAllocatorTest.cpp ****         return false;
 1152              		.loc 1 204 5
 1153 07d8 6386A700 		beq	a5,a0,.L61
 205:src/memoryAllocatorTest.cpp **** 
 1154              		.loc 1 205 16
 1155 07dc 13050000 		li	a0,0
 1156 07e0 6FF0DFEF 		j	.L49
 1157              	.L61:
 207:src/memoryAllocatorTest.cpp ****     pointers[4] = MemoryAllocator::instance()->kmem_alloc(sizes[4]);
 1158              		.loc 1 207 5 is_stmt 1
 207:src/memoryAllocatorTest.cpp ****     pointers[4] = MemoryAllocator::instance()->kmem_alloc(sizes[4]);
 1159              		.loc 1 207 43 is_stmt 0
 1160 07e4 97000000 		call	_ZN15MemoryAllocator8instanceEv@plt
 1160      E7800000 
 1161              	.LVL145:
 1162 07ec 93050900 		mv	a1,s2
 1163 07f0 97000000 		call	_ZN15MemoryAllocator9kmem_freeEPv@plt
 1163      E7800000 
 1164              	.LVL146:
 208:src/memoryAllocatorTest.cpp ****     if (pointers[4] != MemoryAllocator::managedMemorySpaceStart + sizeof(MemoryAllocator::SegmentDe
 1165              		.loc 1 208 5 is_stmt 1
 208:src/memoryAllocatorTest.cpp ****     if (pointers[4] != MemoryAllocator::managedMemorySpaceStart + sizeof(MemoryAllocator::SegmentDe
 1166              		.loc 1 208 58 is_stmt 0
 1167 07f8 97000000 		call	_ZN15MemoryAllocator8instanceEv@plt
 1167      E7800000 
 1168              	.LVL147:
 1169 0800 9305F002 		li	a1,47
 1170 0804 97000000 		call	_ZN15MemoryAllocator10kmem_allocEm@plt
 1170      E7800000 
 1171              	.LVL148:
 1172 080c 13090500 		mv	s2,a0
 209:src/memoryAllocatorTest.cpp ****         return false;
 1173              		.loc 1 209 5 is_stmt 1
 209:src/memoryAllocatorTest.cpp ****         return false;
 1174              		.loc 1 209 65 is_stmt 0
 1175 0810 97070000 		la	a5,_ZN15MemoryAllocator23managedMemorySpaceStartE
 1175      83B70700 
 1176 0818 83B70700 		ld	a5,0(a5)
 1177 081c 93870701 		addi	a5,a5,16
 209:src/memoryAllocatorTest.cpp ****         return false;
 1178              		.loc 1 209 5
 1179 0820 6386A700 		beq	a5,a0,.L62
 210:src/memoryAllocatorTest.cpp **** 
 1180              		.loc 1 210 16
 1181 0824 13050000 		li	a0,0
 1182 0828 6FF05FEB 		j	.L49
 1183              	.L62:
 212:src/memoryAllocatorTest.cpp ****     if (pointers[5] != MemoryAllocator::managedMemorySpaceStart + 1 * 64 + sizeof(MemoryAllocator::
 1184              		.loc 1 212 5 is_stmt 1
 212:src/memoryAllocatorTest.cpp ****     if (pointers[5] != MemoryAllocator::managedMemorySpaceStart + 1 * 64 + sizeof(MemoryAllocator::
 1185              		.loc 1 212 58 is_stmt 0
GAS LISTING /tmp/cclfPASU.s 			page 32


 1186 082c 97000000 		call	_ZN15MemoryAllocator8instanceEv@plt
 1186      E7800000 
 1187              	.LVL149:
 1188 0834 93054001 		li	a1,20
 1189 0838 97000000 		call	_ZN15MemoryAllocator10kmem_allocEm@plt
 1189      E7800000 
 1190              	.LVL150:
 1191 0840 930A0500 		mv	s5,a0
 213:src/memoryAllocatorTest.cpp ****         return false;
 1192              		.loc 1 213 5 is_stmt 1
 213:src/memoryAllocatorTest.cpp ****         return false;
 1193              		.loc 1 213 74 is_stmt 0
 1194 0844 97070000 		la	a5,_ZN15MemoryAllocator23managedMemorySpaceStartE
 1194      83B70700 
 1195 084c 83B70700 		ld	a5,0(a5)
 1196 0850 93870705 		addi	a5,a5,80
 213:src/memoryAllocatorTest.cpp ****         return false;
 1197              		.loc 1 213 5
 1198 0854 6386A700 		beq	a5,a0,.L63
 214:src/memoryAllocatorTest.cpp **** 
 1199              		.loc 1 214 16
 1200 0858 13050000 		li	a0,0
 1201 085c 6FF01FE8 		j	.L49
 1202              	.L63:
 216:src/memoryAllocatorTest.cpp ****     MemoryAllocator::instance()->kmem_free(pointers[1]);
 1203              		.loc 1 216 5 is_stmt 1
 216:src/memoryAllocatorTest.cpp ****     MemoryAllocator::instance()->kmem_free(pointers[1]);
 1204              		.loc 1 216 36 is_stmt 0
 1205 0860 13850400 		mv	a0,s1
 1206 0864 97000000 		call	_ZN19MemoryAllocatorTest26testMemoryMetadataValidityEv
 1206      E7800000 
 1207              	.LVL151:
 216:src/memoryAllocatorTest.cpp ****     MemoryAllocator::instance()->kmem_free(pointers[1]);
 1208              		.loc 1 216 5
 1209 086c E30805E6 		beqz	a0,.L49
 217:src/memoryAllocatorTest.cpp ****     MemoryAllocator::instance()->kmem_free(pointers[3]);
 1210              		.loc 1 217 5 is_stmt 1
 217:src/memoryAllocatorTest.cpp ****     MemoryAllocator::instance()->kmem_free(pointers[3]);
 1211              		.loc 1 217 43 is_stmt 0
 1212 0870 97000000 		call	_ZN15MemoryAllocator8instanceEv@plt
 1212      E7800000 
 1213              	.LVL152:
 1214 0878 93850900 		mv	a1,s3
 1215 087c 97000000 		call	_ZN15MemoryAllocator9kmem_freeEPv@plt
 1215      E7800000 
 1216              	.LVL153:
 218:src/memoryAllocatorTest.cpp ****     MemoryAllocator::instance()->kmem_free(pointers[4]);
 1217              		.loc 1 218 5 is_stmt 1
 218:src/memoryAllocatorTest.cpp ****     MemoryAllocator::instance()->kmem_free(pointers[4]);
 1218              		.loc 1 218 43 is_stmt 0
 1219 0884 97000000 		call	_ZN15MemoryAllocator8instanceEv@plt
 1219      E7800000 
 1220              	.LVL154:
 1221 088c 93050A00 		mv	a1,s4
 1222 0890 97000000 		call	_ZN15MemoryAllocator9kmem_freeEPv@plt
 1222      E7800000 
 1223              	.LVL155:
GAS LISTING /tmp/cclfPASU.s 			page 33


 219:src/memoryAllocatorTest.cpp ****     MemoryAllocator::instance()->kmem_free(pointers[5]);
 1224              		.loc 1 219 5 is_stmt 1
 219:src/memoryAllocatorTest.cpp ****     MemoryAllocator::instance()->kmem_free(pointers[5]);
 1225              		.loc 1 219 43 is_stmt 0
 1226 0898 97000000 		call	_ZN15MemoryAllocator8instanceEv@plt
 1226      E7800000 
 1227              	.LVL156:
 1228 08a0 93050900 		mv	a1,s2
 1229 08a4 97000000 		call	_ZN15MemoryAllocator9kmem_freeEPv@plt
 1229      E7800000 
 1230              	.LVL157:
 220:src/memoryAllocatorTest.cpp ****     if (!testMemoryMetadataValidity()) return false;
 1231              		.loc 1 220 5 is_stmt 1
 220:src/memoryAllocatorTest.cpp ****     if (!testMemoryMetadataValidity()) return false;
 1232              		.loc 1 220 43 is_stmt 0
 1233 08ac 97000000 		call	_ZN15MemoryAllocator8instanceEv@plt
 1233      E7800000 
 1234              	.LVL158:
 1235 08b4 93850A00 		mv	a1,s5
 1236 08b8 97000000 		call	_ZN15MemoryAllocator9kmem_freeEPv@plt
 1236      E7800000 
 1237              	.LVL159:
 221:src/memoryAllocatorTest.cpp **** 
 1238              		.loc 1 221 5 is_stmt 1
 221:src/memoryAllocatorTest.cpp **** 
 1239              		.loc 1 221 36 is_stmt 0
 1240 08c0 13850400 		mv	a0,s1
 1241 08c4 97000000 		call	_ZN19MemoryAllocatorTest26testMemoryMetadataValidityEv
 1241      E7800000 
 1242              	.LVL160:
 1243 08cc 6FF01FE1 		j	.L49
 1244              		.cfi_endproc
 1245              	.LFE11:
 1247              		.align	2
 1248              		.globl	_ZN19MemoryAllocatorTest13firstFitTest3Ev
 1250              	_ZN19MemoryAllocatorTest13firstFitTest3Ev:
 1251              	.LFB12:
 225:src/memoryAllocatorTest.cpp **** 
 226:src/memoryAllocatorTest.cpp **** 
 227:src/memoryAllocatorTest.cpp **** bool MemoryAllocatorTest::firstFitTest3() {
 1252              		.loc 1 227 43 is_stmt 1
 1253              		.cfi_startproc
 1254              	.LVL161:
 1255 08d0 130101FB 		addi	sp,sp,-80
 1256              		.cfi_def_cfa_offset 80
 1257 08d4 23341104 		sd	ra,72(sp)
 1258 08d8 23308104 		sd	s0,64(sp)
 1259 08dc 233C9102 		sd	s1,56(sp)
 1260 08e0 23382103 		sd	s2,48(sp)
 1261 08e4 23343103 		sd	s3,40(sp)
 1262 08e8 23304103 		sd	s4,32(sp)
 1263 08ec 233C5101 		sd	s5,24(sp)
 1264 08f0 23386101 		sd	s6,16(sp)
 1265 08f4 23347101 		sd	s7,8(sp)
 1266              		.cfi_offset 1, -8
 1267              		.cfi_offset 8, -16
 1268              		.cfi_offset 9, -24
GAS LISTING /tmp/cclfPASU.s 			page 34


 1269              		.cfi_offset 18, -32
 1270              		.cfi_offset 19, -40
 1271              		.cfi_offset 20, -48
 1272              		.cfi_offset 21, -56
 1273              		.cfi_offset 22, -64
 1274              		.cfi_offset 23, -72
 1275 08f8 13040105 		addi	s0,sp,80
 1276              		.cfi_def_cfa 8, 0
 1277 08fc 93040500 		mv	s1,a0
 228:src/memoryAllocatorTest.cpp ****     if (!testMemoryMetadataValidity()) return false;
 1278              		.loc 1 228 5
 1279              		.loc 1 228 36 is_stmt 0
 1280 0900 97000000 		call	_ZN19MemoryAllocatorTest26testMemoryMetadataValidityEv
 1280      E7800000 
 1281              	.LVL162:
 1282              		.loc 1 228 5
 1283 0908 63180502 		bnez	a0,.L75
 1284              	.L65:
 229:src/memoryAllocatorTest.cpp ****     size_t sizes[8] = {304, 49, 230, (size_t) -37, 30, 150, 47, 37};
 230:src/memoryAllocatorTest.cpp ****     void* pointers[8];
 231:src/memoryAllocatorTest.cpp **** 
 232:src/memoryAllocatorTest.cpp ****     pointers[0] = MemoryAllocator::instance()->kmem_alloc(sizes[0]);
 233:src/memoryAllocatorTest.cpp ****     if (pointers[0] != MemoryAllocator::managedMemorySpaceStart + sizeof(MemoryAllocator::SegmentDe
 234:src/memoryAllocatorTest.cpp ****         return false;
 235:src/memoryAllocatorTest.cpp **** 
 236:src/memoryAllocatorTest.cpp ****     pointers[1] = MemoryAllocator::instance()->kmem_alloc(sizes[1]);
 237:src/memoryAllocatorTest.cpp ****     if (pointers[1] != MemoryAllocator::managedMemorySpaceStart + 5 * 64 + sizeof(MemoryAllocator::
 238:src/memoryAllocatorTest.cpp ****         return false;
 239:src/memoryAllocatorTest.cpp **** 
 240:src/memoryAllocatorTest.cpp ****     MemoryAllocator::instance()->kmem_free(pointers[0]);
 241:src/memoryAllocatorTest.cpp ****     pointers[2] = MemoryAllocator::instance()->kmem_alloc(sizes[2]);
 242:src/memoryAllocatorTest.cpp ****     if (pointers[2] != MemoryAllocator::managedMemorySpaceStart + sizeof(MemoryAllocator::SegmentDe
 243:src/memoryAllocatorTest.cpp ****         return false;
 244:src/memoryAllocatorTest.cpp **** 
 245:src/memoryAllocatorTest.cpp ****     pointers[3] = MemoryAllocator::instance()->kmem_alloc(sizes[3]);
 246:src/memoryAllocatorTest.cpp ****     if (pointers[3]) return false;
 247:src/memoryAllocatorTest.cpp **** 
 248:src/memoryAllocatorTest.cpp ****     pointers[4] = MemoryAllocator::instance()->kmem_alloc(sizes[4]);
 249:src/memoryAllocatorTest.cpp ****     if (pointers[4] != MemoryAllocator::managedMemorySpaceStart + 7 * 64 + sizeof(MemoryAllocator::
 250:src/memoryAllocatorTest.cpp ****         return false;
 251:src/memoryAllocatorTest.cpp **** 
 252:src/memoryAllocatorTest.cpp ****     MemoryAllocator::instance()->kmem_free(pointers[2]);
 253:src/memoryAllocatorTest.cpp ****     pointers[5] = MemoryAllocator::instance()->kmem_alloc(sizes[5]);
 254:src/memoryAllocatorTest.cpp ****     if (pointers[5] != MemoryAllocator::managedMemorySpaceStart + sizeof(MemoryAllocator::SegmentDe
 255:src/memoryAllocatorTest.cpp ****         return false;
 256:src/memoryAllocatorTest.cpp **** 
 257:src/memoryAllocatorTest.cpp ****     pointers[6] = MemoryAllocator::instance()->kmem_alloc(sizes[6]);
 258:src/memoryAllocatorTest.cpp ****     if (pointers[6] != MemoryAllocator::managedMemorySpaceStart + 3 * 64 + sizeof(MemoryAllocator::
 259:src/memoryAllocatorTest.cpp ****         return false;
 260:src/memoryAllocatorTest.cpp **** 
 261:src/memoryAllocatorTest.cpp ****     pointers[7] = MemoryAllocator::instance()->kmem_alloc(sizes[7]);
 262:src/memoryAllocatorTest.cpp ****     if (pointers[7] != MemoryAllocator::managedMemorySpaceStart + 8 * 64 + sizeof(MemoryAllocator::
 263:src/memoryAllocatorTest.cpp ****         return false;
 264:src/memoryAllocatorTest.cpp **** 
 265:src/memoryAllocatorTest.cpp ****     if (!testMemoryMetadataValidity()) return false;
 266:src/memoryAllocatorTest.cpp ****     MemoryAllocator::instance()->kmem_free(pointers[1]);
 267:src/memoryAllocatorTest.cpp ****     MemoryAllocator::instance()->kmem_free(pointers[3]);
GAS LISTING /tmp/cclfPASU.s 			page 35


 268:src/memoryAllocatorTest.cpp ****     MemoryAllocator::instance()->kmem_free(pointers[4]);
 269:src/memoryAllocatorTest.cpp ****     MemoryAllocator::instance()->kmem_free(pointers[5]);
 270:src/memoryAllocatorTest.cpp ****     MemoryAllocator::instance()->kmem_free(pointers[6]);
 271:src/memoryAllocatorTest.cpp ****     MemoryAllocator::instance()->kmem_free(pointers[7]);
 272:src/memoryAllocatorTest.cpp ****     if (!testMemoryMetadataValidity()) return false;
 273:src/memoryAllocatorTest.cpp **** 
 274:src/memoryAllocatorTest.cpp ****     return true;
 275:src/memoryAllocatorTest.cpp **** }
 1285              		.loc 1 275 1
 1286 090c 83308104 		ld	ra,72(sp)
 1287              		.cfi_remember_state
 1288              		.cfi_restore 1
 1289 0910 03340104 		ld	s0,64(sp)
 1290              		.cfi_restore 8
 1291              		.cfi_def_cfa 2, 80
 1292 0914 83348103 		ld	s1,56(sp)
 1293              		.cfi_restore 9
 1294              	.LVL163:
 1295 0918 03390103 		ld	s2,48(sp)
 1296              		.cfi_restore 18
 1297 091c 83398102 		ld	s3,40(sp)
 1298              		.cfi_restore 19
 1299 0920 033A0102 		ld	s4,32(sp)
 1300              		.cfi_restore 20
 1301 0924 833A8101 		ld	s5,24(sp)
 1302              		.cfi_restore 21
 1303 0928 033B0101 		ld	s6,16(sp)
 1304              		.cfi_restore 22
 1305 092c 833B8100 		ld	s7,8(sp)
 1306              		.cfi_restore 23
 1307 0930 13010105 		addi	sp,sp,80
 1308              		.cfi_def_cfa_offset 0
 1309 0934 67800000 		jr	ra
 1310              	.LVL164:
 1311              	.L75:
 1312              		.cfi_restore_state
 229:src/memoryAllocatorTest.cpp ****     size_t sizes[8] = {304, 49, 230, (size_t) -37, 30, 150, 47, 37};
 1313              		.loc 1 229 5 is_stmt 1
 230:src/memoryAllocatorTest.cpp **** 
 1314              		.loc 1 230 5
 232:src/memoryAllocatorTest.cpp ****     if (pointers[0] != MemoryAllocator::managedMemorySpaceStart + sizeof(MemoryAllocator::SegmentDe
 1315              		.loc 1 232 5
 232:src/memoryAllocatorTest.cpp ****     if (pointers[0] != MemoryAllocator::managedMemorySpaceStart + sizeof(MemoryAllocator::SegmentDe
 1316              		.loc 1 232 58 is_stmt 0
 1317 0938 97000000 		call	_ZN15MemoryAllocator8instanceEv@plt
 1317      E7800000 
 1318              	.LVL165:
 1319 0940 93050013 		li	a1,304
 1320 0944 97000000 		call	_ZN15MemoryAllocator10kmem_allocEm@plt
 1320      E7800000 
 1321              	.LVL166:
 1322 094c 13090500 		mv	s2,a0
 233:src/memoryAllocatorTest.cpp ****         return false;
 1323              		.loc 1 233 5 is_stmt 1
 233:src/memoryAllocatorTest.cpp ****         return false;
 1324              		.loc 1 233 65 is_stmt 0
 1325 0950 97070000 		la	a5,_ZN15MemoryAllocator23managedMemorySpaceStartE
GAS LISTING /tmp/cclfPASU.s 			page 36


 1325      83B70700 
 1326 0958 83B70700 		ld	a5,0(a5)
 1327 095c 93870701 		addi	a5,a5,16
 233:src/memoryAllocatorTest.cpp ****         return false;
 1328              		.loc 1 233 5
 1329 0960 6386A700 		beq	a5,a0,.L76
 234:src/memoryAllocatorTest.cpp **** 
 1330              		.loc 1 234 16
 1331 0964 13050000 		li	a0,0
 1332 0968 6FF05FFA 		j	.L65
 1333              	.L76:
 236:src/memoryAllocatorTest.cpp ****     if (pointers[1] != MemoryAllocator::managedMemorySpaceStart + 5 * 64 + sizeof(MemoryAllocator::
 1334              		.loc 1 236 5 is_stmt 1
 236:src/memoryAllocatorTest.cpp ****     if (pointers[1] != MemoryAllocator::managedMemorySpaceStart + 5 * 64 + sizeof(MemoryAllocator::
 1335              		.loc 1 236 58 is_stmt 0
 1336 096c 97000000 		call	_ZN15MemoryAllocator8instanceEv@plt
 1336      E7800000 
 1337              	.LVL167:
 1338 0974 93051003 		li	a1,49
 1339 0978 97000000 		call	_ZN15MemoryAllocator10kmem_allocEm@plt
 1339      E7800000 
 1340              	.LVL168:
 1341 0980 93090500 		mv	s3,a0
 237:src/memoryAllocatorTest.cpp ****         return false;
 1342              		.loc 1 237 5 is_stmt 1
 237:src/memoryAllocatorTest.cpp ****         return false;
 1343              		.loc 1 237 74 is_stmt 0
 1344 0984 97070000 		la	a5,_ZN15MemoryAllocator23managedMemorySpaceStartE
 1344      83B70700 
 1345 098c 83B70700 		ld	a5,0(a5)
 1346 0990 93870715 		addi	a5,a5,336
 237:src/memoryAllocatorTest.cpp ****         return false;
 1347              		.loc 1 237 5
 1348 0994 6386A700 		beq	a5,a0,.L77
 238:src/memoryAllocatorTest.cpp **** 
 1349              		.loc 1 238 16
 1350 0998 13050000 		li	a0,0
 1351 099c 6FF01FF7 		j	.L65
 1352              	.L77:
 240:src/memoryAllocatorTest.cpp ****     pointers[2] = MemoryAllocator::instance()->kmem_alloc(sizes[2]);
 1353              		.loc 1 240 5 is_stmt 1
 240:src/memoryAllocatorTest.cpp ****     pointers[2] = MemoryAllocator::instance()->kmem_alloc(sizes[2]);
 1354              		.loc 1 240 43 is_stmt 0
 1355 09a0 97000000 		call	_ZN15MemoryAllocator8instanceEv@plt
 1355      E7800000 
 1356              	.LVL169:
 1357 09a8 93050900 		mv	a1,s2
 1358 09ac 97000000 		call	_ZN15MemoryAllocator9kmem_freeEPv@plt
 1358      E7800000 
 1359              	.LVL170:
 241:src/memoryAllocatorTest.cpp ****     if (pointers[2] != MemoryAllocator::managedMemorySpaceStart + sizeof(MemoryAllocator::SegmentDe
 1360              		.loc 1 241 5 is_stmt 1
 241:src/memoryAllocatorTest.cpp ****     if (pointers[2] != MemoryAllocator::managedMemorySpaceStart + sizeof(MemoryAllocator::SegmentDe
 1361              		.loc 1 241 58 is_stmt 0
 1362 09b4 97000000 		call	_ZN15MemoryAllocator8instanceEv@plt
 1362      E7800000 
 1363              	.LVL171:
GAS LISTING /tmp/cclfPASU.s 			page 37


 1364 09bc 9305600E 		li	a1,230
 1365 09c0 97000000 		call	_ZN15MemoryAllocator10kmem_allocEm@plt
 1365      E7800000 
 1366              	.LVL172:
 1367 09c8 13090500 		mv	s2,a0
 242:src/memoryAllocatorTest.cpp ****         return false;
 1368              		.loc 1 242 5 is_stmt 1
 242:src/memoryAllocatorTest.cpp ****         return false;
 1369              		.loc 1 242 65 is_stmt 0
 1370 09cc 97070000 		la	a5,_ZN15MemoryAllocator23managedMemorySpaceStartE
 1370      83B70700 
 1371 09d4 83B70700 		ld	a5,0(a5)
 1372 09d8 93870701 		addi	a5,a5,16
 242:src/memoryAllocatorTest.cpp ****         return false;
 1373              		.loc 1 242 5
 1374 09dc 6386A700 		beq	a5,a0,.L78
 243:src/memoryAllocatorTest.cpp **** 
 1375              		.loc 1 243 16
 1376 09e0 13050000 		li	a0,0
 1377 09e4 6FF09FF2 		j	.L65
 1378              	.L78:
 245:src/memoryAllocatorTest.cpp ****     if (pointers[3]) return false;
 1379              		.loc 1 245 5 is_stmt 1
 245:src/memoryAllocatorTest.cpp ****     if (pointers[3]) return false;
 1380              		.loc 1 245 58 is_stmt 0
 1381 09e8 97000000 		call	_ZN15MemoryAllocator8instanceEv@plt
 1381      E7800000 
 1382              	.LVL173:
 1383 09f0 9305B0FD 		li	a1,-37
 1384 09f4 97000000 		call	_ZN15MemoryAllocator10kmem_allocEm@plt
 1384      E7800000 
 1385              	.LVL174:
 1386 09fc 130A0500 		mv	s4,a0
 246:src/memoryAllocatorTest.cpp **** 
 1387              		.loc 1 246 5 is_stmt 1
 1388 0a00 63060500 		beqz	a0,.L79
 246:src/memoryAllocatorTest.cpp **** 
 1389              		.loc 1 246 29 is_stmt 0
 1390 0a04 13050000 		li	a0,0
 1391 0a08 6FF05FF0 		j	.L65
 1392              	.L79:
 248:src/memoryAllocatorTest.cpp ****     if (pointers[4] != MemoryAllocator::managedMemorySpaceStart + 7 * 64 + sizeof(MemoryAllocator::
 1393              		.loc 1 248 5 is_stmt 1
 248:src/memoryAllocatorTest.cpp ****     if (pointers[4] != MemoryAllocator::managedMemorySpaceStart + 7 * 64 + sizeof(MemoryAllocator::
 1394              		.loc 1 248 58 is_stmt 0
 1395 0a0c 97000000 		call	_ZN15MemoryAllocator8instanceEv@plt
 1395      E7800000 
 1396              	.LVL175:
 1397 0a14 9305E001 		li	a1,30
 1398 0a18 97000000 		call	_ZN15MemoryAllocator10kmem_allocEm@plt
 1398      E7800000 
 1399              	.LVL176:
 1400 0a20 930A0500 		mv	s5,a0
 249:src/memoryAllocatorTest.cpp ****         return false;
 1401              		.loc 1 249 5 is_stmt 1
 249:src/memoryAllocatorTest.cpp ****         return false;
 1402              		.loc 1 249 74 is_stmt 0
GAS LISTING /tmp/cclfPASU.s 			page 38


 1403 0a24 97070000 		la	a5,_ZN15MemoryAllocator23managedMemorySpaceStartE
 1403      83B70700 
 1404 0a2c 83B70700 		ld	a5,0(a5)
 1405 0a30 9387071D 		addi	a5,a5,464
 249:src/memoryAllocatorTest.cpp ****         return false;
 1406              		.loc 1 249 5
 1407 0a34 6386A700 		beq	a5,a0,.L80
 250:src/memoryAllocatorTest.cpp **** 
 1408              		.loc 1 250 16
 1409 0a38 13050000 		li	a0,0
 1410 0a3c 6FF01FED 		j	.L65
 1411              	.L80:
 252:src/memoryAllocatorTest.cpp ****     pointers[5] = MemoryAllocator::instance()->kmem_alloc(sizes[5]);
 1412              		.loc 1 252 5 is_stmt 1
 252:src/memoryAllocatorTest.cpp ****     pointers[5] = MemoryAllocator::instance()->kmem_alloc(sizes[5]);
 1413              		.loc 1 252 43 is_stmt 0
 1414 0a40 97000000 		call	_ZN15MemoryAllocator8instanceEv@plt
 1414      E7800000 
 1415              	.LVL177:
 1416 0a48 93050900 		mv	a1,s2
 1417 0a4c 97000000 		call	_ZN15MemoryAllocator9kmem_freeEPv@plt
 1417      E7800000 
 1418              	.LVL178:
 253:src/memoryAllocatorTest.cpp ****     if (pointers[5] != MemoryAllocator::managedMemorySpaceStart + sizeof(MemoryAllocator::SegmentDe
 1419              		.loc 1 253 5 is_stmt 1
 253:src/memoryAllocatorTest.cpp ****     if (pointers[5] != MemoryAllocator::managedMemorySpaceStart + sizeof(MemoryAllocator::SegmentDe
 1420              		.loc 1 253 58 is_stmt 0
 1421 0a54 97000000 		call	_ZN15MemoryAllocator8instanceEv@plt
 1421      E7800000 
 1422              	.LVL179:
 1423 0a5c 93056009 		li	a1,150
 1424 0a60 97000000 		call	_ZN15MemoryAllocator10kmem_allocEm@plt
 1424      E7800000 
 1425              	.LVL180:
 1426 0a68 930B0500 		mv	s7,a0
 254:src/memoryAllocatorTest.cpp ****         return false;
 1427              		.loc 1 254 5 is_stmt 1
 254:src/memoryAllocatorTest.cpp ****         return false;
 1428              		.loc 1 254 65 is_stmt 0
 1429 0a6c 97070000 		la	a5,_ZN15MemoryAllocator23managedMemorySpaceStartE
 1429      83B70700 
 1430 0a74 83B70700 		ld	a5,0(a5)
 1431 0a78 93870701 		addi	a5,a5,16
 254:src/memoryAllocatorTest.cpp ****         return false;
 1432              		.loc 1 254 5
 1433 0a7c 6386A700 		beq	a5,a0,.L81
 255:src/memoryAllocatorTest.cpp **** 
 1434              		.loc 1 255 16
 1435 0a80 13050000 		li	a0,0
 1436 0a84 6FF09FE8 		j	.L65
 1437              	.L81:
 257:src/memoryAllocatorTest.cpp ****     if (pointers[6] != MemoryAllocator::managedMemorySpaceStart + 3 * 64 + sizeof(MemoryAllocator::
 1438              		.loc 1 257 5 is_stmt 1
 257:src/memoryAllocatorTest.cpp ****     if (pointers[6] != MemoryAllocator::managedMemorySpaceStart + 3 * 64 + sizeof(MemoryAllocator::
 1439              		.loc 1 257 58 is_stmt 0
 1440 0a88 97000000 		call	_ZN15MemoryAllocator8instanceEv@plt
 1440      E7800000 
GAS LISTING /tmp/cclfPASU.s 			page 39


 1441              	.LVL181:
 1442 0a90 9305F002 		li	a1,47
 1443 0a94 97000000 		call	_ZN15MemoryAllocator10kmem_allocEm@plt
 1443      E7800000 
 1444              	.LVL182:
 1445 0a9c 130B0500 		mv	s6,a0
 258:src/memoryAllocatorTest.cpp ****         return false;
 1446              		.loc 1 258 5 is_stmt 1
 258:src/memoryAllocatorTest.cpp ****         return false;
 1447              		.loc 1 258 74 is_stmt 0
 1448 0aa0 97070000 		la	a5,_ZN15MemoryAllocator23managedMemorySpaceStartE
 1448      83B70700 
 1449 0aa8 83B70700 		ld	a5,0(a5)
 1450 0aac 9387070D 		addi	a5,a5,208
 258:src/memoryAllocatorTest.cpp ****         return false;
 1451              		.loc 1 258 5
 1452 0ab0 6386A700 		beq	a5,a0,.L82
 259:src/memoryAllocatorTest.cpp **** 
 1453              		.loc 1 259 16
 1454 0ab4 13050000 		li	a0,0
 1455 0ab8 6FF05FE5 		j	.L65
 1456              	.L82:
 261:src/memoryAllocatorTest.cpp ****     if (pointers[7] != MemoryAllocator::managedMemorySpaceStart + 8 * 64 + sizeof(MemoryAllocator::
 1457              		.loc 1 261 5 is_stmt 1
 261:src/memoryAllocatorTest.cpp ****     if (pointers[7] != MemoryAllocator::managedMemorySpaceStart + 8 * 64 + sizeof(MemoryAllocator::
 1458              		.loc 1 261 58 is_stmt 0
 1459 0abc 97000000 		call	_ZN15MemoryAllocator8instanceEv@plt
 1459      E7800000 
 1460              	.LVL183:
 1461 0ac4 93055002 		li	a1,37
 1462 0ac8 97000000 		call	_ZN15MemoryAllocator10kmem_allocEm@plt
 1462      E7800000 
 1463              	.LVL184:
 1464 0ad0 13090500 		mv	s2,a0
 262:src/memoryAllocatorTest.cpp ****         return false;
 1465              		.loc 1 262 5 is_stmt 1
 262:src/memoryAllocatorTest.cpp ****         return false;
 1466              		.loc 1 262 74 is_stmt 0
 1467 0ad4 97070000 		la	a5,_ZN15MemoryAllocator23managedMemorySpaceStartE
 1467      83B70700 
 1468 0adc 83B70700 		ld	a5,0(a5)
 1469 0ae0 93870721 		addi	a5,a5,528
 262:src/memoryAllocatorTest.cpp ****         return false;
 1470              		.loc 1 262 5
 1471 0ae4 6386A700 		beq	a5,a0,.L83
 263:src/memoryAllocatorTest.cpp **** 
 1472              		.loc 1 263 16
 1473 0ae8 13050000 		li	a0,0
 1474 0aec 6FF01FE2 		j	.L65
 1475              	.L83:
 265:src/memoryAllocatorTest.cpp ****     MemoryAllocator::instance()->kmem_free(pointers[1]);
 1476              		.loc 1 265 5 is_stmt 1
 265:src/memoryAllocatorTest.cpp ****     MemoryAllocator::instance()->kmem_free(pointers[1]);
 1477              		.loc 1 265 36 is_stmt 0
 1478 0af0 13850400 		mv	a0,s1
 1479 0af4 97000000 		call	_ZN19MemoryAllocatorTest26testMemoryMetadataValidityEv
 1479      E7800000 
GAS LISTING /tmp/cclfPASU.s 			page 40


 1480              	.LVL185:
 265:src/memoryAllocatorTest.cpp ****     MemoryAllocator::instance()->kmem_free(pointers[1]);
 1481              		.loc 1 265 5
 1482 0afc E30805E0 		beqz	a0,.L65
 266:src/memoryAllocatorTest.cpp ****     MemoryAllocator::instance()->kmem_free(pointers[3]);
 1483              		.loc 1 266 5 is_stmt 1
 266:src/memoryAllocatorTest.cpp ****     MemoryAllocator::instance()->kmem_free(pointers[3]);
 1484              		.loc 1 266 43 is_stmt 0
 1485 0b00 97000000 		call	_ZN15MemoryAllocator8instanceEv@plt
 1485      E7800000 
 1486              	.LVL186:
 1487 0b08 93850900 		mv	a1,s3
 1488 0b0c 97000000 		call	_ZN15MemoryAllocator9kmem_freeEPv@plt
 1488      E7800000 
 1489              	.LVL187:
 267:src/memoryAllocatorTest.cpp ****     MemoryAllocator::instance()->kmem_free(pointers[4]);
 1490              		.loc 1 267 5 is_stmt 1
 267:src/memoryAllocatorTest.cpp ****     MemoryAllocator::instance()->kmem_free(pointers[4]);
 1491              		.loc 1 267 43 is_stmt 0
 1492 0b14 97000000 		call	_ZN15MemoryAllocator8instanceEv@plt
 1492      E7800000 
 1493              	.LVL188:
 1494 0b1c 93050A00 		mv	a1,s4
 1495 0b20 97000000 		call	_ZN15MemoryAllocator9kmem_freeEPv@plt
 1495      E7800000 
 1496              	.LVL189:
 268:src/memoryAllocatorTest.cpp ****     MemoryAllocator::instance()->kmem_free(pointers[5]);
 1497              		.loc 1 268 5 is_stmt 1
 268:src/memoryAllocatorTest.cpp ****     MemoryAllocator::instance()->kmem_free(pointers[5]);
 1498              		.loc 1 268 43 is_stmt 0
 1499 0b28 97000000 		call	_ZN15MemoryAllocator8instanceEv@plt
 1499      E7800000 
 1500              	.LVL190:
 1501 0b30 93850A00 		mv	a1,s5
 1502 0b34 97000000 		call	_ZN15MemoryAllocator9kmem_freeEPv@plt
 1502      E7800000 
 1503              	.LVL191:
 269:src/memoryAllocatorTest.cpp ****     MemoryAllocator::instance()->kmem_free(pointers[6]);
 1504              		.loc 1 269 5 is_stmt 1
 269:src/memoryAllocatorTest.cpp ****     MemoryAllocator::instance()->kmem_free(pointers[6]);
 1505              		.loc 1 269 43 is_stmt 0
 1506 0b3c 97000000 		call	_ZN15MemoryAllocator8instanceEv@plt
 1506      E7800000 
 1507              	.LVL192:
 1508 0b44 93850B00 		mv	a1,s7
 1509 0b48 97000000 		call	_ZN15MemoryAllocator9kmem_freeEPv@plt
 1509      E7800000 
 1510              	.LVL193:
 270:src/memoryAllocatorTest.cpp ****     MemoryAllocator::instance()->kmem_free(pointers[7]);
 1511              		.loc 1 270 5 is_stmt 1
 270:src/memoryAllocatorTest.cpp ****     MemoryAllocator::instance()->kmem_free(pointers[7]);
 1512              		.loc 1 270 43 is_stmt 0
 1513 0b50 97000000 		call	_ZN15MemoryAllocator8instanceEv@plt
 1513      E7800000 
 1514              	.LVL194:
 1515 0b58 93050B00 		mv	a1,s6
 1516 0b5c 97000000 		call	_ZN15MemoryAllocator9kmem_freeEPv@plt
GAS LISTING /tmp/cclfPASU.s 			page 41


 1516      E7800000 
 1517              	.LVL195:
 271:src/memoryAllocatorTest.cpp ****     if (!testMemoryMetadataValidity()) return false;
 1518              		.loc 1 271 5 is_stmt 1
 271:src/memoryAllocatorTest.cpp ****     if (!testMemoryMetadataValidity()) return false;
 1519              		.loc 1 271 43 is_stmt 0
 1520 0b64 97000000 		call	_ZN15MemoryAllocator8instanceEv@plt
 1520      E7800000 
 1521              	.LVL196:
 1522 0b6c 93050900 		mv	a1,s2
 1523 0b70 97000000 		call	_ZN15MemoryAllocator9kmem_freeEPv@plt
 1523      E7800000 
 1524              	.LVL197:
 272:src/memoryAllocatorTest.cpp **** 
 1525              		.loc 1 272 5 is_stmt 1
 272:src/memoryAllocatorTest.cpp **** 
 1526              		.loc 1 272 36 is_stmt 0
 1527 0b78 13850400 		mv	a0,s1
 1528 0b7c 97000000 		call	_ZN19MemoryAllocatorTest26testMemoryMetadataValidityEv
 1528      E7800000 
 1529              	.LVL198:
 1530 0b84 6FF09FD8 		j	.L65
 1531              		.cfi_endproc
 1532              	.LFE12:
 1534              		.align	2
 1535              		.globl	_ZN19MemoryAllocatorTest12testFirstFitEv
 1537              	_ZN19MemoryAllocatorTest12testFirstFitEv:
 1538              	.LFB8:
 130:src/memoryAllocatorTest.cpp ****     if (!firstFitTest1()) return false;
 1539              		.loc 1 130 42 is_stmt 1
 1540              		.cfi_startproc
 1541              	.LVL199:
 1542 0b88 130101FE 		addi	sp,sp,-32
 1543              		.cfi_def_cfa_offset 32
 1544 0b8c 233C1100 		sd	ra,24(sp)
 1545 0b90 23388100 		sd	s0,16(sp)
 1546 0b94 23349100 		sd	s1,8(sp)
 1547              		.cfi_offset 1, -8
 1548              		.cfi_offset 8, -16
 1549              		.cfi_offset 9, -24
 1550 0b98 13040102 		addi	s0,sp,32
 1551              		.cfi_def_cfa 8, 0
 1552 0b9c 93040500 		mv	s1,a0
 131:src/memoryAllocatorTest.cpp ****     if (!firstFitTest2()) return false;
 1553              		.loc 1 131 5
 131:src/memoryAllocatorTest.cpp ****     if (!firstFitTest2()) return false;
 1554              		.loc 1 131 23 is_stmt 0
 1555 0ba0 97000000 		call	_ZN19MemoryAllocatorTest13firstFitTest1Ev
 1555      E7800000 
 1556              	.LVL200:
 131:src/memoryAllocatorTest.cpp ****     if (!firstFitTest2()) return false;
 1557              		.loc 1 131 5
 1558 0ba8 631C0500 		bnez	a0,.L87
 1559              	.L85:
 135:src/memoryAllocatorTest.cpp **** 
 1560              		.loc 1 135 1
 1561 0bac 83308101 		ld	ra,24(sp)
GAS LISTING /tmp/cclfPASU.s 			page 42


 1562              		.cfi_remember_state
 1563              		.cfi_restore 1
 1564 0bb0 03340101 		ld	s0,16(sp)
 1565              		.cfi_restore 8
 1566              		.cfi_def_cfa 2, 32
 1567 0bb4 83348100 		ld	s1,8(sp)
 1568              		.cfi_restore 9
 1569              	.LVL201:
 1570 0bb8 13010102 		addi	sp,sp,32
 1571              		.cfi_def_cfa_offset 0
 1572 0bbc 67800000 		jr	ra
 1573              	.LVL202:
 1574              	.L87:
 1575              		.cfi_restore_state
 132:src/memoryAllocatorTest.cpp ****     if (!firstFitTest3()) return false;
 1576              		.loc 1 132 5 is_stmt 1
 132:src/memoryAllocatorTest.cpp ****     if (!firstFitTest3()) return false;
 1577              		.loc 1 132 23 is_stmt 0
 1578 0bc0 13850400 		mv	a0,s1
 1579 0bc4 97000000 		call	_ZN19MemoryAllocatorTest13firstFitTest2Ev
 1579      E7800000 
 1580              	.LVL203:
 132:src/memoryAllocatorTest.cpp ****     if (!firstFitTest3()) return false;
 1581              		.loc 1 132 5
 1582 0bcc E30005FE 		beqz	a0,.L85
 133:src/memoryAllocatorTest.cpp ****     return true;
 1583              		.loc 1 133 5 is_stmt 1
 133:src/memoryAllocatorTest.cpp ****     return true;
 1584              		.loc 1 133 23 is_stmt 0
 1585 0bd0 13850400 		mv	a0,s1
 1586 0bd4 97000000 		call	_ZN19MemoryAllocatorTest13firstFitTest3Ev
 1586      E7800000 
 1587              	.LVL204:
 1588 0bdc 6FF01FFD 		j	.L85
 1589              		.cfi_endproc
 1590              	.LFE8:
 1592              		.align	2
 1593              		.globl	_ZN19MemoryAllocatorTest25testSegmentDescriptorSizeEv
 1595              	_ZN19MemoryAllocatorTest25testSegmentDescriptorSizeEv:
 1596              	.LFB13:
 276:src/memoryAllocatorTest.cpp **** 
 277:src/memoryAllocatorTest.cpp **** bool MemoryAllocatorTest::testSegmentDescriptorSize() {
 1597              		.loc 1 277 55 is_stmt 1
 1598              		.cfi_startproc
 1599              	.LVL205:
 1600 0be0 130101FF 		addi	sp,sp,-16
 1601              		.cfi_def_cfa_offset 16
 1602 0be4 23341100 		sd	ra,8(sp)
 1603 0be8 23308100 		sd	s0,0(sp)
 1604              		.cfi_offset 1, -8
 1605              		.cfi_offset 8, -16
 1606 0bec 13040101 		addi	s0,sp,16
 1607              		.cfi_def_cfa 8, 0
 278:src/memoryAllocatorTest.cpp ****     if (!testMemoryMetadataValidity()) return false;
 1608              		.loc 1 278 5
 1609              		.loc 1 278 36 is_stmt 0
 1610 0bf0 97000000 		call	_ZN19MemoryAllocatorTest26testMemoryMetadataValidityEv
GAS LISTING /tmp/cclfPASU.s 			page 43


 1610      E7800000 
 1611              	.LVL206:
 279:src/memoryAllocatorTest.cpp ****     return sizeof(MemoryAllocator::SegmentDescriptor) == 16;
 280:src/memoryAllocatorTest.cpp **** }
 1612              		.loc 1 280 1
 1613 0bf8 83308100 		ld	ra,8(sp)
 1614              		.cfi_restore 1
 1615 0bfc 03340100 		ld	s0,0(sp)
 1616              		.cfi_restore 8
 1617              		.cfi_def_cfa 2, 16
 1618 0c00 13010101 		addi	sp,sp,16
 1619              		.cfi_def_cfa_offset 0
 1620 0c04 67800000 		jr	ra
 1621              		.cfi_endproc
 1622              	.LFE13:
 1624              		.section	.rodata.str1.8
 1625 002a 00000000 		.align	3
 1625      0000
 1626              	.LC7:
 1627 0030 4661696C 		.string	"Failed testMemoryAllocate test for input "
 1627      65642074 
 1627      6573744D 
 1627      656D6F72 
 1627      79416C6C 
 1628 005a 00000000 		.align	3
 1628      0000
 1629              	.LC8:
 1630 0060 50617373 		.string	"Passed "
 1630      65642000 
 1631              		.align	3
 1632              	.LC9:
 1633 0068 4661696C 		.string	"Failed testMemoryFree test for input "
 1633      65642074 
 1633      6573744D 
 1633      656D6F72 
 1633      79467265 
 1634 008e 0000     		.align	3
 1635              	.LC10:
 1636 0090 4661696C 		.string	"Failed testFirstFit\n"
 1636      65642074 
 1636      65737446 
 1636      69727374 
 1636      4669740A 
 1637 00a5 000000   		.align	3
 1638              	.LC11:
 1639 00a8 4661696C 		.string	"Failed testSegmentDescriptorSize\n"
 1639      65642074 
 1639      65737453 
 1639      65676D65 
 1639      6E744465 
 1640 00ca 00000000 		.align	3
 1640      0000
 1641              	.LC12:
 1642 00d0 50617373 		.string	"Passed\n"
 1642      65640A00 
 1643              		.text
 1644              		.align	2
GAS LISTING /tmp/cclfPASU.s 			page 44


 1645              		.globl	_ZN19MemoryAllocatorTest8runTestsEv
 1647              	_ZN19MemoryAllocatorTest8runTestsEv:
 1648              	.LFB3:
   6:src/memoryAllocatorTest.cpp ****     #define SIZE_TEST_NUMBER 13
 1649              		.loc 1 6 38 is_stmt 1
 1650              		.cfi_startproc
 1651              	.LVL207:
 1652 0c08 130101F6 		addi	sp,sp,-160
 1653              		.cfi_def_cfa_offset 160
 1654 0c0c 233C1108 		sd	ra,152(sp)
 1655 0c10 23388108 		sd	s0,144(sp)
 1656 0c14 23349108 		sd	s1,136(sp)
 1657 0c18 23302109 		sd	s2,128(sp)
 1658 0c1c 233C3107 		sd	s3,120(sp)
 1659              		.cfi_offset 1, -8
 1660              		.cfi_offset 8, -16
 1661              		.cfi_offset 9, -24
 1662              		.cfi_offset 18, -32
 1663              		.cfi_offset 19, -40
 1664 0c20 1304010A 		addi	s0,sp,160
 1665              		.cfi_def_cfa 8, 0
 1666 0c24 93090500 		mv	s3,a0
   9:src/memoryAllocatorTest.cpp ****     sizes[0] = 3.7 * MEM_BLOCK_SIZE;
 1667              		.loc 1 9 5
  10:src/memoryAllocatorTest.cpp ****     sizes[1] = MEM_BLOCK_SIZE;
 1668              		.loc 1 10 5
  10:src/memoryAllocatorTest.cpp ****     sizes[1] = MEM_BLOCK_SIZE;
 1669              		.loc 1 10 14 is_stmt 0
 1670 0c28 9307C00E 		li	a5,236
 1671 0c2c 2334F4F6 		sd	a5,-152(s0)
  11:src/memoryAllocatorTest.cpp ****     sizes[2] = 0.3 * MEM_BLOCK_SIZE;
 1672              		.loc 1 11 5 is_stmt 1
  11:src/memoryAllocatorTest.cpp ****     sizes[2] = 0.3 * MEM_BLOCK_SIZE;
 1673              		.loc 1 11 14 is_stmt 0
 1674 0c30 93070004 		li	a5,64
 1675 0c34 2338F4F6 		sd	a5,-144(s0)
  12:src/memoryAllocatorTest.cpp ****     sizes[3] = 0;
 1676              		.loc 1 12 5 is_stmt 1
  12:src/memoryAllocatorTest.cpp ****     sizes[3] = 0;
 1677              		.loc 1 12 14 is_stmt 0
 1678 0c38 93073001 		li	a5,19
 1679 0c3c 233CF4F6 		sd	a5,-136(s0)
  13:src/memoryAllocatorTest.cpp ****     sizes[4] = -37;
 1680              		.loc 1 13 5 is_stmt 1
  13:src/memoryAllocatorTest.cpp ****     sizes[4] = -37;
 1681              		.loc 1 13 14 is_stmt 0
 1682 0c40 233004F8 		sd	zero,-128(s0)
  14:src/memoryAllocatorTest.cpp ****     sizes[5] = sizeof(MemoryAllocator::SegmentDescriptor) - 1;
 1683              		.loc 1 14 5 is_stmt 1
  14:src/memoryAllocatorTest.cpp ****     sizes[5] = sizeof(MemoryAllocator::SegmentDescriptor) - 1;
 1684              		.loc 1 14 14 is_stmt 0
 1685 0c44 9307B0FD 		li	a5,-37
 1686 0c48 2334F4F8 		sd	a5,-120(s0)
  15:src/memoryAllocatorTest.cpp ****     sizes[6] = sizeof(MemoryAllocator::SegmentDescriptor);
 1687              		.loc 1 15 5 is_stmt 1
  15:src/memoryAllocatorTest.cpp ****     sizes[6] = sizeof(MemoryAllocator::SegmentDescriptor);
 1688              		.loc 1 15 14 is_stmt 0
GAS LISTING /tmp/cclfPASU.s 			page 45


 1689 0c4c 9307F000 		li	a5,15
 1690 0c50 2338F4F8 		sd	a5,-112(s0)
  16:src/memoryAllocatorTest.cpp ****     sizes[7] = sizeof(MemoryAllocator::SegmentDescriptor) + 1;
 1691              		.loc 1 16 5 is_stmt 1
  16:src/memoryAllocatorTest.cpp ****     sizes[7] = sizeof(MemoryAllocator::SegmentDescriptor) + 1;
 1692              		.loc 1 16 14 is_stmt 0
 1693 0c54 93070001 		li	a5,16
 1694 0c58 233CF4F8 		sd	a5,-104(s0)
  17:src/memoryAllocatorTest.cpp ****     sizes[8] = MemoryAllocator::minMemoryFragmentSize - 1;
 1695              		.loc 1 17 5 is_stmt 1
  17:src/memoryAllocatorTest.cpp ****     sizes[8] = MemoryAllocator::minMemoryFragmentSize - 1;
 1696              		.loc 1 17 14 is_stmt 0
 1697 0c5c 93071001 		li	a5,17
 1698 0c60 2330F4FA 		sd	a5,-96(s0)
  18:src/memoryAllocatorTest.cpp ****     sizes[9] = MemoryAllocator::minMemoryFragmentSize;
 1699              		.loc 1 18 5 is_stmt 1
  18:src/memoryAllocatorTest.cpp ****     sizes[9] = MemoryAllocator::minMemoryFragmentSize;
 1700              		.loc 1 18 55 is_stmt 0
 1701 0c64 97070000 		la	a5,_ZN15MemoryAllocator21minMemoryFragmentSizeE
 1701      83B70700 
 1702 0c6c 83B70700 		ld	a5,0(a5)
 1703 0c70 1387F7FF 		addi	a4,a5,-1
  18:src/memoryAllocatorTest.cpp ****     sizes[9] = MemoryAllocator::minMemoryFragmentSize;
 1704              		.loc 1 18 14
 1705 0c74 2334E4FA 		sd	a4,-88(s0)
  19:src/memoryAllocatorTest.cpp ****     sizes[10] = MemoryAllocator::minMemoryFragmentSize + 1;
 1706              		.loc 1 19 5 is_stmt 1
  19:src/memoryAllocatorTest.cpp ****     sizes[10] = MemoryAllocator::minMemoryFragmentSize + 1;
 1707              		.loc 1 19 14 is_stmt 0
 1708 0c78 2338F4FA 		sd	a5,-80(s0)
  20:src/memoryAllocatorTest.cpp ****     sizes[11] = MEM_BLOCK_SIZE - 1;
 1709              		.loc 1 20 5 is_stmt 1
  20:src/memoryAllocatorTest.cpp ****     sizes[11] = MEM_BLOCK_SIZE - 1;
 1710              		.loc 1 20 56 is_stmt 0
 1711 0c7c 93871700 		addi	a5,a5,1
  20:src/memoryAllocatorTest.cpp ****     sizes[11] = MEM_BLOCK_SIZE - 1;
 1712              		.loc 1 20 15
 1713 0c80 233CF4FA 		sd	a5,-72(s0)
  21:src/memoryAllocatorTest.cpp ****     sizes[12] = MEM_BLOCK_SIZE + 1;
 1714              		.loc 1 21 5 is_stmt 1
  21:src/memoryAllocatorTest.cpp ****     sizes[12] = MEM_BLOCK_SIZE + 1;
 1715              		.loc 1 21 15 is_stmt 0
 1716 0c84 9307F003 		li	a5,63
 1717 0c88 2330F4FC 		sd	a5,-64(s0)
  22:src/memoryAllocatorTest.cpp **** 
 1718              		.loc 1 22 5 is_stmt 1
  22:src/memoryAllocatorTest.cpp **** 
 1719              		.loc 1 22 15 is_stmt 0
 1720 0c8c 93071004 		li	a5,65
 1721 0c90 2334F4FC 		sd	a5,-56(s0)
  24:src/memoryAllocatorTest.cpp ****         void * allocatedMemoryPointer = nullptr;
 1722              		.loc 1 24 5 is_stmt 1
 1723              	.LVL208:
 1724              	.LBB62:
  24:src/memoryAllocatorTest.cpp ****         void * allocatedMemoryPointer = nullptr;
 1725              		.loc 1 24 14 is_stmt 0
 1726 0c94 93040000 		li	s1,0
GAS LISTING /tmp/cclfPASU.s 			page 46


 1727 0c98 6F008008 		j	.L96
 1728              	.LVL209:
 1729              	.L101:
 1730              	.LBB63:
  27:src/memoryAllocatorTest.cpp ****             printInteger(sizes[i]); printString("\n"); return false;
 1731              		.loc 1 27 13 is_stmt 1
  27:src/memoryAllocatorTest.cpp ****             printInteger(sizes[i]); printString("\n"); return false;
 1732              		.loc 1 27 24 is_stmt 0
 1733 0c9c 17050000 		lla	a0,.LC7
 1733      13050500 
 1734 0ca4 97000000 		call	_Z11printStringPKc@plt
 1734      E7800000 
 1735              	.LVL210:
  28:src/memoryAllocatorTest.cpp ****         } else printString("Passed ");
 1736              		.loc 1 28 13 is_stmt 1
  28:src/memoryAllocatorTest.cpp ****         } else printString("Passed ");
 1737              		.loc 1 28 25 is_stmt 0
 1738 0cac 13050900 		mv	a0,s2
 1739 0cb0 97000000 		call	_Z12printIntegerm@plt
 1739      E7800000 
 1740              	.LVL211:
  28:src/memoryAllocatorTest.cpp ****         } else printString("Passed ");
 1741              		.loc 1 28 37 is_stmt 1
  28:src/memoryAllocatorTest.cpp ****         } else printString("Passed ");
 1742              		.loc 1 28 48 is_stmt 0
 1743 0cb8 17050000 		lla	a0,.LC6
 1743      13050500 
 1744 0cc0 97000000 		call	_Z11printStringPKc@plt
 1744      E7800000 
 1745              	.LVL212:
  28:src/memoryAllocatorTest.cpp ****         } else printString("Passed ");
 1746              		.loc 1 28 56 is_stmt 1
 1747              	.L93:
  28:src/memoryAllocatorTest.cpp ****         } else printString("Passed ");
 1748              		.loc 1 28 63 is_stmt 0 discriminator 3
 1749 0cc8 93040000 		li	s1,0
 1750              	.LVL213:
 1751              	.L97:
 1752              	.LBE63:
 1753              	.LBE62:
  45:src/memoryAllocatorTest.cpp **** 
 1754              		.loc 1 45 1
 1755 0ccc 13850400 		mv	a0,s1
 1756 0cd0 83308109 		ld	ra,152(sp)
 1757              		.cfi_remember_state
 1758              		.cfi_restore 1
 1759 0cd4 03340109 		ld	s0,144(sp)
 1760              		.cfi_restore 8
 1761              		.cfi_def_cfa 2, 160
 1762 0cd8 83348108 		ld	s1,136(sp)
 1763              		.cfi_restore 9
 1764 0cdc 03390108 		ld	s2,128(sp)
 1765              		.cfi_restore 18
 1766 0ce0 83398107 		ld	s3,120(sp)
 1767              		.cfi_restore 19
 1768              	.LVL214:
 1769 0ce4 1301010A 		addi	sp,sp,160
GAS LISTING /tmp/cclfPASU.s 			page 47


 1770              		.cfi_def_cfa_offset 0
 1771 0ce8 67800000 		jr	ra
 1772              	.LVL215:
 1773              	.L102:
 1774              		.cfi_restore_state
 1775              	.LBB66:
 1776              	.LBB64:
  31:src/memoryAllocatorTest.cpp ****             printInteger(sizes[i]); printString("\n"); return false;
 1777              		.loc 1 31 13 is_stmt 1
  31:src/memoryAllocatorTest.cpp ****             printInteger(sizes[i]); printString("\n"); return false;
 1778              		.loc 1 31 24 is_stmt 0
 1779 0cec 17050000 		lla	a0,.LC9
 1779      13050500 
 1780 0cf4 97000000 		call	_Z11printStringPKc@plt
 1780      E7800000 
 1781              	.LVL216:
  32:src/memoryAllocatorTest.cpp ****         } else printString("Passed ");
 1782              		.loc 1 32 13 is_stmt 1
  32:src/memoryAllocatorTest.cpp ****         } else printString("Passed ");
 1783              		.loc 1 32 25 is_stmt 0
 1784 0cfc 13050900 		mv	a0,s2
 1785 0d00 97000000 		call	_Z12printIntegerm@plt
 1785      E7800000 
 1786              	.LVL217:
  32:src/memoryAllocatorTest.cpp ****         } else printString("Passed ");
 1787              		.loc 1 32 37 is_stmt 1
  32:src/memoryAllocatorTest.cpp ****         } else printString("Passed ");
 1788              		.loc 1 32 48 is_stmt 0
 1789 0d08 17050000 		lla	a0,.LC6
 1789      13050500 
 1790 0d10 97000000 		call	_Z11printStringPKc@plt
 1790      E7800000 
 1791              	.LVL218:
  32:src/memoryAllocatorTest.cpp ****         } else printString("Passed ");
 1792              		.loc 1 32 56 is_stmt 1
  32:src/memoryAllocatorTest.cpp ****         } else printString("Passed ");
 1793              		.loc 1 32 63 is_stmt 0
 1794 0d18 6FF01FFB 		j	.L93
 1795              	.L95:
 1796              	.LBE64:
  24:src/memoryAllocatorTest.cpp ****         void * allocatedMemoryPointer = nullptr;
 1797              		.loc 1 24 5 is_stmt 1
 1798 0d1c 9B841400 		addiw	s1,s1,1
 1799              	.LVL219:
 1800              	.L96:
  24:src/memoryAllocatorTest.cpp ****         void * allocatedMemoryPointer = nullptr;
 1801              		.loc 1 24 23 discriminator 1
 1802 0d20 9307C000 		li	a5,12
 1803 0d24 63C89708 		bgt	s1,a5,.L91
 1804              	.LBB65:
  25:src/memoryAllocatorTest.cpp ****         if (!testMemoryAllocate(sizes[i], &allocatedMemoryPointer)) {
 1805              		.loc 1 25 9
  25:src/memoryAllocatorTest.cpp ****         if (!testMemoryAllocate(sizes[i], &allocatedMemoryPointer)) {
 1806              		.loc 1 25 16 is_stmt 0
 1807 0d28 233004F6 		sd	zero,-160(s0)
  26:src/memoryAllocatorTest.cpp ****             printString("Failed testMemoryAllocate test for input ");
 1808              		.loc 1 26 9 is_stmt 1
GAS LISTING /tmp/cclfPASU.s 			page 48


  26:src/memoryAllocatorTest.cpp ****             printString("Failed testMemoryAllocate test for input ");
 1809              		.loc 1 26 32 is_stmt 0
 1810 0d2c 93973400 		slli	a5,s1,3
 1811 0d30 130704FD 		addi	a4,s0,-48
 1812 0d34 B307F700 		add	a5,a4,a5
 1813 0d38 03B987F9 		ld	s2,-104(a5)
 1814 0d3c 130604F6 		addi	a2,s0,-160
 1815 0d40 93050900 		mv	a1,s2
 1816 0d44 13850900 		mv	a0,s3
 1817 0d48 97000000 		call	_ZN19MemoryAllocatorTest18testMemoryAllocateEmPPv
 1817      E7800000 
 1818              	.LVL220:
  26:src/memoryAllocatorTest.cpp ****             printString("Failed testMemoryAllocate test for input ");
 1819              		.loc 1 26 9
 1820 0d50 E30605F4 		beqz	a0,.L101
  29:src/memoryAllocatorTest.cpp ****         if (!testMemoryFree(sizes[i], allocatedMemoryPointer)) {
 1821              		.loc 1 29 16 is_stmt 1
  29:src/memoryAllocatorTest.cpp ****         if (!testMemoryFree(sizes[i], allocatedMemoryPointer)) {
 1822              		.loc 1 29 27 is_stmt 0
 1823 0d54 17050000 		lla	a0,.LC8
 1823      13050500 
 1824 0d5c 97000000 		call	_Z11printStringPKc@plt
 1824      E7800000 
 1825              	.LVL221:
  30:src/memoryAllocatorTest.cpp ****             printString("Failed testMemoryFree test for input ");
 1826              		.loc 1 30 9 is_stmt 1
  30:src/memoryAllocatorTest.cpp ****             printString("Failed testMemoryFree test for input ");
 1827              		.loc 1 30 28 is_stmt 0
 1828 0d64 033604F6 		ld	a2,-160(s0)
 1829 0d68 93050900 		mv	a1,s2
 1830 0d6c 13850900 		mv	a0,s3
 1831 0d70 97000000 		call	_ZN19MemoryAllocatorTest14testMemoryFreeEmPv
 1831      E7800000 
 1832              	.LVL222:
  30:src/memoryAllocatorTest.cpp ****             printString("Failed testMemoryFree test for input ");
 1833              		.loc 1 30 9
 1834 0d78 E30A05F6 		beqz	a0,.L102
  33:src/memoryAllocatorTest.cpp ****         if (i != 0 && (i + 1) % 5 == 0) printString("\n");
 1835              		.loc 1 33 16 is_stmt 1
  33:src/memoryAllocatorTest.cpp ****         if (i != 0 && (i + 1) % 5 == 0) printString("\n");
 1836              		.loc 1 33 27 is_stmt 0
 1837 0d7c 17050000 		lla	a0,.LC8
 1837      13050500 
 1838 0d84 97000000 		call	_Z11printStringPKc@plt
 1838      E7800000 
 1839              	.LVL223:
  34:src/memoryAllocatorTest.cpp ****     }
 1840              		.loc 1 34 9 is_stmt 1
 1841 0d8c E38804F8 		beqz	s1,.L95
  34:src/memoryAllocatorTest.cpp ****     }
 1842              		.loc 1 34 26 is_stmt 0 discriminator 1
 1843 0d90 9B871400 		addiw	a5,s1,1
  34:src/memoryAllocatorTest.cpp ****     }
 1844              		.loc 1 34 31 discriminator 1
 1845 0d94 13075000 		li	a4,5
 1846 0d98 BBE7E702 		remw	a5,a5,a4
  34:src/memoryAllocatorTest.cpp ****     }
GAS LISTING /tmp/cclfPASU.s 			page 49


 1847              		.loc 1 34 20 discriminator 1
 1848 0d9c E39007F8 		bnez	a5,.L95
  34:src/memoryAllocatorTest.cpp ****     }
 1849              		.loc 1 34 41 is_stmt 1 discriminator 2
  34:src/memoryAllocatorTest.cpp ****     }
 1850              		.loc 1 34 52 is_stmt 0 discriminator 2
 1851 0da0 17050000 		lla	a0,.LC6
 1851      13050500 
 1852 0da8 97000000 		call	_Z11printStringPKc@plt
 1852      E7800000 
 1853              	.LVL224:
 1854 0db0 6FF0DFF6 		j	.L95
 1855              	.L91:
 1856              	.LBE65:
 1857              	.LBE66:
  37:src/memoryAllocatorTest.cpp ****         printString("Failed testFirstFit\n"); return false; }
 1858              		.loc 1 37 5 is_stmt 1
  37:src/memoryAllocatorTest.cpp ****         printString("Failed testFirstFit\n"); return false; }
 1859              		.loc 1 37 22 is_stmt 0
 1860 0db4 13850900 		mv	a0,s3
 1861 0db8 97000000 		call	_ZN19MemoryAllocatorTest12testFirstFitEv
 1861      E7800000 
 1862              	.LVL225:
 1863 0dc0 93040500 		mv	s1,a0
 1864              	.LVL226:
  37:src/memoryAllocatorTest.cpp ****         printString("Failed testFirstFit\n"); return false; }
 1865              		.loc 1 37 5
 1866 0dc4 630E0502 		beqz	a0,.L103
  39:src/memoryAllocatorTest.cpp ****     if (!testSegmentDescriptorSize()) {
 1867              		.loc 1 39 10 is_stmt 1
  39:src/memoryAllocatorTest.cpp ****     if (!testSegmentDescriptorSize()) {
 1868              		.loc 1 39 21 is_stmt 0
 1869 0dc8 17050000 		lla	a0,.LC8
 1869      13050500 
 1870 0dd0 97000000 		call	_Z11printStringPKc@plt
 1870      E7800000 
 1871              	.LVL227:
  40:src/memoryAllocatorTest.cpp ****         printString("Failed testSegmentDescriptorSize\n"); return false; }
 1872              		.loc 1 40 5 is_stmt 1
  40:src/memoryAllocatorTest.cpp ****         printString("Failed testSegmentDescriptorSize\n"); return false; }
 1873              		.loc 1 40 35 is_stmt 0
 1874 0dd8 13850900 		mv	a0,s3
 1875 0ddc 97000000 		call	_ZN19MemoryAllocatorTest25testSegmentDescriptorSizeEv
 1875      E7800000 
 1876              	.LVL228:
 1877 0de4 93040500 		mv	s1,a0
  40:src/memoryAllocatorTest.cpp ****         printString("Failed testSegmentDescriptorSize\n"); return false; }
 1878              		.loc 1 40 5
 1879 0de8 63060502 		beqz	a0,.L104
  42:src/memoryAllocatorTest.cpp **** 
 1880              		.loc 1 42 10 is_stmt 1
  42:src/memoryAllocatorTest.cpp **** 
 1881              		.loc 1 42 21 is_stmt 0
 1882 0dec 17050000 		lla	a0,.LC12
 1882      13050500 
 1883 0df4 97000000 		call	_Z11printStringPKc@plt
 1883      E7800000 
GAS LISTING /tmp/cclfPASU.s 			page 50


 1884              	.LVL229:
 1885 0dfc 6FF01FED 		j	.L97
 1886              	.L103:
  38:src/memoryAllocatorTest.cpp ****     else printString("Passed ");
 1887              		.loc 1 38 9 is_stmt 1
  38:src/memoryAllocatorTest.cpp ****     else printString("Passed ");
 1888              		.loc 1 38 20 is_stmt 0
 1889 0e00 17050000 		lla	a0,.LC10
 1889      13050500 
 1890 0e08 97000000 		call	_Z11printStringPKc@plt
 1890      E7800000 
 1891              	.LVL230:
  38:src/memoryAllocatorTest.cpp ****     else printString("Passed ");
 1892              		.loc 1 38 47 is_stmt 1
  38:src/memoryAllocatorTest.cpp ****     else printString("Passed ");
 1893              		.loc 1 38 54 is_stmt 0
 1894 0e10 6FF0DFEB 		j	.L97
 1895              	.L104:
  41:src/memoryAllocatorTest.cpp ****     else printString("Passed\n");
 1896              		.loc 1 41 9 is_stmt 1
  41:src/memoryAllocatorTest.cpp ****     else printString("Passed\n");
 1897              		.loc 1 41 20 is_stmt 0
 1898 0e14 17050000 		lla	a0,.LC11
 1898      13050500 
 1899 0e1c 97000000 		call	_Z11printStringPKc@plt
 1899      E7800000 
 1900              	.LVL231:
  41:src/memoryAllocatorTest.cpp ****     else printString("Passed\n");
 1901              		.loc 1 41 60 is_stmt 1
  41:src/memoryAllocatorTest.cpp ****     else printString("Passed\n");
 1902              		.loc 1 41 67 is_stmt 0
 1903 0e24 6FF09FEA 		j	.L97
 1904              		.cfi_endproc
 1905              	.LFE3:
 1907              	.Letext0:
 1908              		.file 3 "src/../h/../lib/hw.h"
 1909              		.file 4 "src/../h/memoryAllocatorTest.hpp"
 1910              		.file 5 "src/../h/print.hpp"
GAS LISTING /tmp/cclfPASU.s 			page 51

