GAS LISTING /tmp/ccN98HPk.s 			page 1


   1              		.file	"memoryAllocatorTest.cpp"
   2              		.option pic
   3              		.option norelax
   4              		.text
   5              	.Ltext0:
   6              		.align	2
   7              		.globl	_ZN19MemoryAllocatorTest18testMemoryAllocateEmPPv
   9              	_ZN19MemoryAllocatorTest18testMemoryAllocateEmPPv:
  10              	.LFB1:
  11              		.file 1 "src/memoryAllocatorTest.cpp"
   1:src/memoryAllocatorTest.cpp **** #include "../h/memoryAllocatorTest.hpp"
   2:src/memoryAllocatorTest.cpp **** #include "../lib/hw.h"
   3:src/memoryAllocatorTest.cpp **** 
   4:src/memoryAllocatorTest.cpp **** bool MemoryAllocatorTest::runTests() {
   5:src/memoryAllocatorTest.cpp ****     #define SIZE_TEST_NUMBER 5
   6:src/memoryAllocatorTest.cpp **** 
   7:src/memoryAllocatorTest.cpp ****     uint64 sizes[SIZE_TEST_NUMBER];
   8:src/memoryAllocatorTest.cpp ****     sizes[0] = 3.7 * MEM_BLOCK_SIZE;
   9:src/memoryAllocatorTest.cpp ****     sizes[1] = MEM_BLOCK_SIZE;
  10:src/memoryAllocatorTest.cpp ****     sizes[2] = 0.3 * MEM_BLOCK_SIZE;
  11:src/memoryAllocatorTest.cpp ****     sizes[3] = 0;
  12:src/memoryAllocatorTest.cpp ****     sizes[4] = -37;
  13:src/memoryAllocatorTest.cpp **** 
  14:src/memoryAllocatorTest.cpp ****     for (int i = 0; i < SIZE_TEST_NUMBER; ++i) {
  15:src/memoryAllocatorTest.cpp ****         void * allocatedMemoryPointer = nullptr;
  16:src/memoryAllocatorTest.cpp ****         if (!testMemoryAllocate(sizes[i], &allocatedMemoryPointer)) return false;
  17:src/memoryAllocatorTest.cpp ****         if (!testMemoryFree(sizes[i], allocatedMemoryPointer)) return false;
  18:src/memoryAllocatorTest.cpp ****     }
  19:src/memoryAllocatorTest.cpp **** 
  20:src/memoryAllocatorTest.cpp ****     if (!testFirstFit()) return false;
  21:src/memoryAllocatorTest.cpp **** 
  22:src/memoryAllocatorTest.cpp **** 
  23:src/memoryAllocatorTest.cpp ****     return true;
  24:src/memoryAllocatorTest.cpp **** }
  25:src/memoryAllocatorTest.cpp **** 
  26:src/memoryAllocatorTest.cpp **** bool MemoryAllocatorTest::testMemoryAllocate(uint64 size, void** allocatedMemoryPointer) {
  12              		.loc 1 26 90
  13              		.cfi_startproc
  14              	.LVL0:
  15 0000 130101FF 		addi	sp,sp,-16
  16              		.cfi_def_cfa_offset 16
  17 0004 23348100 		sd	s0,8(sp)
  18              		.cfi_offset 8, -8
  19 0008 13040101 		addi	s0,sp,16
  20              		.cfi_def_cfa 8, 0
  27:src/memoryAllocatorTest.cpp ****     return true;
  21              		.loc 1 27 5
  28:src/memoryAllocatorTest.cpp **** }
  22              		.loc 1 28 1 is_stmt 0
  23 000c 13051000 		li	a0,1
  24              	.LVL1:
  25 0010 03348100 		ld	s0,8(sp)
  26              		.cfi_restore 8
  27              		.cfi_def_cfa 2, 16
  28 0014 13010101 		addi	sp,sp,16
  29              		.cfi_def_cfa_offset 0
  30 0018 67800000 		jr	ra
GAS LISTING /tmp/ccN98HPk.s 			page 2


  31              		.cfi_endproc
  32              	.LFE1:
  34              		.align	2
  35              		.globl	_ZN19MemoryAllocatorTest14testMemoryFreeEmPv
  37              	_ZN19MemoryAllocatorTest14testMemoryFreeEmPv:
  38              	.LFB2:
  29:src/memoryAllocatorTest.cpp **** 
  30:src/memoryAllocatorTest.cpp **** bool MemoryAllocatorTest::testMemoryFree(uint64 size, void* allocatedMemoryPointer) {
  39              		.loc 1 30 85 is_stmt 1
  40              		.cfi_startproc
  41              	.LVL2:
  42 001c 130101FF 		addi	sp,sp,-16
  43              		.cfi_def_cfa_offset 16
  44 0020 23348100 		sd	s0,8(sp)
  45              		.cfi_offset 8, -8
  46 0024 13040101 		addi	s0,sp,16
  47              		.cfi_def_cfa 8, 0
  31:src/memoryAllocatorTest.cpp ****     return true;
  48              		.loc 1 31 5
  32:src/memoryAllocatorTest.cpp **** }
  49              		.loc 1 32 1 is_stmt 0
  50 0028 13051000 		li	a0,1
  51              	.LVL3:
  52 002c 03348100 		ld	s0,8(sp)
  53              		.cfi_restore 8
  54              		.cfi_def_cfa 2, 16
  55 0030 13010101 		addi	sp,sp,16
  56              		.cfi_def_cfa_offset 0
  57 0034 67800000 		jr	ra
  58              		.cfi_endproc
  59              	.LFE2:
  61              		.align	2
  62              		.globl	_ZN19MemoryAllocatorTest12testFirstFitEv
  64              	_ZN19MemoryAllocatorTest12testFirstFitEv:
  65              	.LFB3:
  33:src/memoryAllocatorTest.cpp **** 
  34:src/memoryAllocatorTest.cpp **** bool MemoryAllocatorTest::testFirstFit() {
  66              		.loc 1 34 42 is_stmt 1
  67              		.cfi_startproc
  68              	.LVL4:
  69 0038 130101FF 		addi	sp,sp,-16
  70              		.cfi_def_cfa_offset 16
  71 003c 23348100 		sd	s0,8(sp)
  72              		.cfi_offset 8, -8
  73 0040 13040101 		addi	s0,sp,16
  74              		.cfi_def_cfa 8, 0
  35:src/memoryAllocatorTest.cpp ****     return true;
  75              		.loc 1 35 5
  36:src/memoryAllocatorTest.cpp **** }
  76              		.loc 1 36 1 is_stmt 0
  77 0044 13051000 		li	a0,1
  78              	.LVL5:
  79 0048 03348100 		ld	s0,8(sp)
  80              		.cfi_restore 8
  81              		.cfi_def_cfa 2, 16
  82 004c 13010101 		addi	sp,sp,16
  83              		.cfi_def_cfa_offset 0
GAS LISTING /tmp/ccN98HPk.s 			page 3


  84 0050 67800000 		jr	ra
  85              		.cfi_endproc
  86              	.LFE3:
  88              		.align	2
  89              		.globl	_ZN19MemoryAllocatorTest8runTestsEv
  91              	_ZN19MemoryAllocatorTest8runTestsEv:
  92              	.LFB0:
   4:src/memoryAllocatorTest.cpp ****     #define SIZE_TEST_NUMBER 5
  93              		.loc 1 4 38 is_stmt 1
  94              		.cfi_startproc
  95              	.LVL6:
  96 0054 130101FA 		addi	sp,sp,-96
  97              		.cfi_def_cfa_offset 96
  98 0058 233C1104 		sd	ra,88(sp)
  99 005c 23388104 		sd	s0,80(sp)
 100 0060 23349104 		sd	s1,72(sp)
 101 0064 23302105 		sd	s2,64(sp)
 102 0068 233C3103 		sd	s3,56(sp)
 103              		.cfi_offset 1, -8
 104              		.cfi_offset 8, -16
 105              		.cfi_offset 9, -24
 106              		.cfi_offset 18, -32
 107              		.cfi_offset 19, -40
 108 006c 13040106 		addi	s0,sp,96
 109              		.cfi_def_cfa 8, 0
 110 0070 13090500 		mv	s2,a0
   7:src/memoryAllocatorTest.cpp ****     sizes[0] = 3.7 * MEM_BLOCK_SIZE;
 111              		.loc 1 7 5
   8:src/memoryAllocatorTest.cpp ****     sizes[1] = MEM_BLOCK_SIZE;
 112              		.loc 1 8 5
   8:src/memoryAllocatorTest.cpp ****     sizes[1] = MEM_BLOCK_SIZE;
 113              		.loc 1 8 14 is_stmt 0
 114 0074 9307C00E 		li	a5,236
 115 0078 2334F4FA 		sd	a5,-88(s0)
   9:src/memoryAllocatorTest.cpp ****     sizes[2] = 0.3 * MEM_BLOCK_SIZE;
 116              		.loc 1 9 5 is_stmt 1
   9:src/memoryAllocatorTest.cpp ****     sizes[2] = 0.3 * MEM_BLOCK_SIZE;
 117              		.loc 1 9 14 is_stmt 0
 118 007c 93070004 		li	a5,64
 119 0080 2338F4FA 		sd	a5,-80(s0)
  10:src/memoryAllocatorTest.cpp ****     sizes[3] = 0;
 120              		.loc 1 10 5 is_stmt 1
  10:src/memoryAllocatorTest.cpp ****     sizes[3] = 0;
 121              		.loc 1 10 14 is_stmt 0
 122 0084 93073001 		li	a5,19
 123 0088 233CF4FA 		sd	a5,-72(s0)
  11:src/memoryAllocatorTest.cpp ****     sizes[4] = -37;
 124              		.loc 1 11 5 is_stmt 1
  11:src/memoryAllocatorTest.cpp ****     sizes[4] = -37;
 125              		.loc 1 11 14 is_stmt 0
 126 008c 233004FC 		sd	zero,-64(s0)
  12:src/memoryAllocatorTest.cpp **** 
 127              		.loc 1 12 5 is_stmt 1
  12:src/memoryAllocatorTest.cpp **** 
 128              		.loc 1 12 14 is_stmt 0
 129 0090 9307B0FD 		li	a5,-37
 130 0094 2334F4FC 		sd	a5,-56(s0)
GAS LISTING /tmp/ccN98HPk.s 			page 4


  14:src/memoryAllocatorTest.cpp ****         void * allocatedMemoryPointer = nullptr;
 131              		.loc 1 14 5 is_stmt 1
 132              	.LVL7:
 133              	.LBB2:
  14:src/memoryAllocatorTest.cpp ****         void * allocatedMemoryPointer = nullptr;
 134              		.loc 1 14 14 is_stmt 0
 135 0098 93040000 		li	s1,0
 136              	.LVL8:
 137              	.L10:
  14:src/memoryAllocatorTest.cpp ****         void * allocatedMemoryPointer = nullptr;
 138              		.loc 1 14 23 is_stmt 1 discriminator 1
 139 009c 93074000 		li	a5,4
 140 00a0 63CA9704 		bgt	s1,a5,.L8
 141              	.LBB3:
  15:src/memoryAllocatorTest.cpp ****         if (!testMemoryAllocate(sizes[i], &allocatedMemoryPointer)) return false;
 142              		.loc 1 15 9
  16:src/memoryAllocatorTest.cpp ****         if (!testMemoryFree(sizes[i], allocatedMemoryPointer)) return false;
 143              		.loc 1 16 9
  16:src/memoryAllocatorTest.cpp ****         if (!testMemoryFree(sizes[i], allocatedMemoryPointer)) return false;
 144              		.loc 1 16 32 is_stmt 0
 145 00a4 93973400 		slli	a5,s1,3
 146 00a8 130704FD 		addi	a4,s0,-48
 147 00ac B307F700 		add	a5,a4,a5
 148 00b0 83B987FD 		ld	s3,-40(a5)
 149 00b4 130604FA 		addi	a2,s0,-96
 150 00b8 93850900 		mv	a1,s3
 151 00bc 13050900 		mv	a0,s2
 152 00c0 97000000 		call	_ZN19MemoryAllocatorTest18testMemoryAllocateEmPPv
 152      E7800000 
 153              	.LVL9:
  16:src/memoryAllocatorTest.cpp ****         if (!testMemoryFree(sizes[i], allocatedMemoryPointer)) return false;
 154              		.loc 1 16 9
 155 00c8 63020502 		beqz	a0,.L9
  17:src/memoryAllocatorTest.cpp ****     }
 156              		.loc 1 17 9 is_stmt 1
  17:src/memoryAllocatorTest.cpp ****     }
 157              		.loc 1 17 28 is_stmt 0
 158 00cc 13060000 		li	a2,0
 159 00d0 93850900 		mv	a1,s3
 160 00d4 13050900 		mv	a0,s2
 161 00d8 97000000 		call	_ZN19MemoryAllocatorTest14testMemoryFreeEmPv
 161      E7800000 
 162              	.LVL10:
  17:src/memoryAllocatorTest.cpp ****     }
 163              		.loc 1 17 9
 164 00e0 63060500 		beqz	a0,.L9
 165              	.LBE3:
  14:src/memoryAllocatorTest.cpp ****         void * allocatedMemoryPointer = nullptr;
 166              		.loc 1 14 5 is_stmt 1
 167 00e4 9B841400 		addiw	s1,s1,1
 168              	.LVL11:
 169 00e8 6FF05FFB 		j	.L10
 170              	.LVL12:
 171              	.L9:
 172              	.LBB4:
  16:src/memoryAllocatorTest.cpp ****         if (!testMemoryFree(sizes[i], allocatedMemoryPointer)) return false;
 173              		.loc 1 16 76 is_stmt 0 discriminator 2
GAS LISTING /tmp/ccN98HPk.s 			page 5


 174 00ec 13050000 		li	a0,0
 175 00f0 6F000001 		j	.L11
 176              	.L8:
 177              	.LBE4:
 178              	.LBE2:
  20:src/memoryAllocatorTest.cpp **** 
 179              		.loc 1 20 5 is_stmt 1
  20:src/memoryAllocatorTest.cpp **** 
 180              		.loc 1 20 22 is_stmt 0
 181 00f4 13050900 		mv	a0,s2
 182 00f8 97000000 		call	_ZN19MemoryAllocatorTest12testFirstFitEv
 182      E7800000 
 183              	.LVL13:
 184              	.L11:
  24:src/memoryAllocatorTest.cpp **** 
 185              		.loc 1 24 1
 186 0100 83308105 		ld	ra,88(sp)
 187              		.cfi_restore 1
 188 0104 03340105 		ld	s0,80(sp)
 189              		.cfi_restore 8
 190              		.cfi_def_cfa 2, 96
 191 0108 83348104 		ld	s1,72(sp)
 192              		.cfi_restore 9
 193              	.LVL14:
 194 010c 03390104 		ld	s2,64(sp)
 195              		.cfi_restore 18
 196              	.LVL15:
 197 0110 83398103 		ld	s3,56(sp)
 198              		.cfi_restore 19
 199 0114 13010106 		addi	sp,sp,96
 200              		.cfi_def_cfa_offset 0
 201 0118 67800000 		jr	ra
 202              		.cfi_endproc
 203              	.LFE0:
 205              	.Letext0:
 206              		.file 2 "src/../h/../lib/hw.h"
 207              		.file 3 "src/../h/memoryAllocatorTest.hpp"
GAS LISTING /tmp/ccN98HPk.s 			page 6


DEFINED SYMBOLS
                            *ABS*:0000000000000000 memoryAllocatorTest.cpp
     /tmp/ccN98HPk.s:9      .text:0000000000000000 _ZN19MemoryAllocatorTest18testMemoryAllocateEmPPv
     /tmp/ccN98HPk.s:13     .text:0000000000000000 .L0 
     /tmp/ccN98HPk.s:15     .text:0000000000000000 .L0 
     /tmp/ccN98HPk.s:16     .text:0000000000000004 .L0 
     /tmp/ccN98HPk.s:18     .text:0000000000000008 .L0 
     /tmp/ccN98HPk.s:20     .text:000000000000000c .L0 
     /tmp/ccN98HPk.s:22     .text:000000000000000c .L0 
     /tmp/ccN98HPk.s:23     .text:000000000000000c .L0 
     /tmp/ccN98HPk.s:26     .text:0000000000000014 .L0 
     /tmp/ccN98HPk.s:27     .text:0000000000000014 .L0 
     /tmp/ccN98HPk.s:29     .text:0000000000000018 .L0 
     /tmp/ccN98HPk.s:31     .text:000000000000001c .L0 
     /tmp/ccN98HPk.s:37     .text:000000000000001c _ZN19MemoryAllocatorTest14testMemoryFreeEmPv
     /tmp/ccN98HPk.s:40     .text:000000000000001c .L0 
     /tmp/ccN98HPk.s:42     .text:000000000000001c .L0 
     /tmp/ccN98HPk.s:43     .text:0000000000000020 .L0 
     /tmp/ccN98HPk.s:45     .text:0000000000000024 .L0 
     /tmp/ccN98HPk.s:47     .text:0000000000000028 .L0 
     /tmp/ccN98HPk.s:49     .text:0000000000000028 .L0 
     /tmp/ccN98HPk.s:50     .text:0000000000000028 .L0 
     /tmp/ccN98HPk.s:53     .text:0000000000000030 .L0 
     /tmp/ccN98HPk.s:54     .text:0000000000000030 .L0 
     /tmp/ccN98HPk.s:56     .text:0000000000000034 .L0 
     /tmp/ccN98HPk.s:58     .text:0000000000000038 .L0 
     /tmp/ccN98HPk.s:64     .text:0000000000000038 _ZN19MemoryAllocatorTest12testFirstFitEv
     /tmp/ccN98HPk.s:67     .text:0000000000000038 .L0 
     /tmp/ccN98HPk.s:69     .text:0000000000000038 .L0 
     /tmp/ccN98HPk.s:70     .text:000000000000003c .L0 
     /tmp/ccN98HPk.s:72     .text:0000000000000040 .L0 
     /tmp/ccN98HPk.s:74     .text:0000000000000044 .L0 
     /tmp/ccN98HPk.s:76     .text:0000000000000044 .L0 
     /tmp/ccN98HPk.s:77     .text:0000000000000044 .L0 
     /tmp/ccN98HPk.s:80     .text:000000000000004c .L0 
     /tmp/ccN98HPk.s:81     .text:000000000000004c .L0 
     /tmp/ccN98HPk.s:83     .text:0000000000000050 .L0 
     /tmp/ccN98HPk.s:85     .text:0000000000000054 .L0 
     /tmp/ccN98HPk.s:91     .text:0000000000000054 _ZN19MemoryAllocatorTest8runTestsEv
     /tmp/ccN98HPk.s:94     .text:0000000000000054 .L0 
     /tmp/ccN98HPk.s:96     .text:0000000000000054 .L0 
     /tmp/ccN98HPk.s:97     .text:0000000000000058 .L0 
     /tmp/ccN98HPk.s:103    .text:000000000000006c .L0 
     /tmp/ccN98HPk.s:104    .text:000000000000006c .L0 
     /tmp/ccN98HPk.s:105    .text:000000000000006c .L0 
     /tmp/ccN98HPk.s:106    .text:000000000000006c .L0 
     /tmp/ccN98HPk.s:107    .text:000000000000006c .L0 
     /tmp/ccN98HPk.s:109    .text:0000000000000070 .L0 
     /tmp/ccN98HPk.s:112    .text:0000000000000074 .L0 
     /tmp/ccN98HPk.s:113    .text:0000000000000074 .L0 
     /tmp/ccN98HPk.s:114    .text:0000000000000074 .L0 
     /tmp/ccN98HPk.s:117    .text:000000000000007c .L0 
     /tmp/ccN98HPk.s:118    .text:000000000000007c .L0 
     /tmp/ccN98HPk.s:121    .text:0000000000000084 .L0 
     /tmp/ccN98HPk.s:122    .text:0000000000000084 .L0 
     /tmp/ccN98HPk.s:125    .text:000000000000008c .L0 
     /tmp/ccN98HPk.s:126    .text:000000000000008c .L0 
GAS LISTING /tmp/ccN98HPk.s 			page 7


     /tmp/ccN98HPk.s:128    .text:0000000000000090 .L0 
     /tmp/ccN98HPk.s:129    .text:0000000000000090 .L0 
     /tmp/ccN98HPk.s:134    .text:0000000000000098 .L0 
     /tmp/ccN98HPk.s:135    .text:0000000000000098 .L0 
     /tmp/ccN98HPk.s:139    .text:000000000000009c .L0 
     /tmp/ccN98HPk.s:143    .text:00000000000000a4 .L0 
     /tmp/ccN98HPk.s:144    .text:00000000000000a4 .L0 
     /tmp/ccN98HPk.s:145    .text:00000000000000a4 .L0 
     /tmp/ccN98HPk.s:155    .text:00000000000000c8 .L0 
     /tmp/ccN98HPk.s:157    .text:00000000000000cc .L0 
     /tmp/ccN98HPk.s:158    .text:00000000000000cc .L0 
     /tmp/ccN98HPk.s:164    .text:00000000000000e0 .L0 
     /tmp/ccN98HPk.s:167    .text:00000000000000e4 .L0 
     /tmp/ccN98HPk.s:174    .text:00000000000000ec .L0 
     /tmp/ccN98HPk.s:180    .text:00000000000000f4 .L0 
     /tmp/ccN98HPk.s:181    .text:00000000000000f4 .L0 
     /tmp/ccN98HPk.s:186    .text:0000000000000100 .L0 
     /tmp/ccN98HPk.s:187    .text:0000000000000104 .L0 
     /tmp/ccN98HPk.s:189    .text:0000000000000108 .L0 
     /tmp/ccN98HPk.s:190    .text:0000000000000108 .L0 
     /tmp/ccN98HPk.s:192    .text:000000000000010c .L0 
     /tmp/ccN98HPk.s:195    .text:0000000000000110 .L0 
     /tmp/ccN98HPk.s:198    .text:0000000000000114 .L0 
     /tmp/ccN98HPk.s:200    .text:0000000000000118 .L0 
     /tmp/ccN98HPk.s:202    .text:000000000000011c .L0 
     /tmp/ccN98HPk.s:208    .text:000000000000011c .L0 
     /tmp/ccN98HPk.s:176    .text:00000000000000f4 .L8
     /tmp/ccN98HPk.s:171    .text:00000000000000ec .L9
     /tmp/ccN98HPk.s:137    .text:000000000000009c .L10
     /tmp/ccN98HPk.s:184    .text:0000000000000100 .L11
     /tmp/ccN98HPk.s:606    .debug_abbrev:0000000000000000 .Ldebug_abbrev0
     /tmp/ccN98HPk.s:1160   .debug_str:00000000000001ef .LASF26
     /tmp/ccN98HPk.s:1168   .debug_str:00000000000002e1 .LASF27
     /tmp/ccN98HPk.s:1172   .debug_str:0000000000000303 .LASF28
     /tmp/ccN98HPk.s:5      .text:0000000000000000 .Ltext0
     /tmp/ccN98HPk.s:205    .text:000000000000011c .Letext0
     /tmp/ccN98HPk.s:1106   .debug_line:0000000000000000 .Ldebug_line0
     /tmp/ccN98HPk.s:1110   .debug_str:000000000000002d .LASF0
     /tmp/ccN98HPk.s:1158   .debug_str:00000000000001dc .LASF1
     /tmp/ccN98HPk.s:1142   .debug_str:0000000000000140 .LASF2
     /tmp/ccN98HPk.s:1134   .debug_str:0000000000000123 .LASF4
     /tmp/ccN98HPk.s:1128   .debug_str:00000000000000cc .LASF3
     /tmp/ccN98HPk.s:1122   .debug_str:000000000000009e .LASF5
     /tmp/ccN98HPk.s:1132   .debug_str:0000000000000110 .LASF6
     /tmp/ccN98HPk.s:1156   .debug_str:00000000000001c9 .LASF7
     /tmp/ccN98HPk.s:1164   .debug_str:00000000000002c2 .LASF8
     /tmp/ccN98HPk.s:1118   .debug_str:0000000000000081 .LASF9
     /tmp/ccN98HPk.s:1120   .debug_str:000000000000008f .LASF10
     /tmp/ccN98HPk.s:1162   .debug_str:00000000000002b3 .LASF11
     /tmp/ccN98HPk.s:1124   .debug_str:00000000000000a5 .LASF12
     /tmp/ccN98HPk.s:1114   .debug_str:000000000000004d .LASF13
     /tmp/ccN98HPk.s:1140   .debug_str:0000000000000134 .LASF14
     /tmp/ccN98HPk.s:1154   .debug_str:00000000000001b3 .LASF15
     /tmp/ccN98HPk.s:1146   .debug_str:0000000000000177 .LASF16
     /tmp/ccN98HPk.s:1152   .debug_str:000000000000019f .LASF29
     /tmp/ccN98HPk.s:1174   .debug_str:0000000000000336 .LASF30
     /tmp/ccN98HPk.s:1116   .debug_str:000000000000005d .LASF31
GAS LISTING /tmp/ccN98HPk.s 			page 8


     /tmp/ccN98HPk.s:1112   .debug_str:000000000000003a .LASF17
     /tmp/ccN98HPk.s:1130   .debug_str:00000000000000de .LASF19
     /tmp/ccN98HPk.s:1166   .debug_str:00000000000002d2 .LASF18
     /tmp/ccN98HPk.s:1108   .debug_str:0000000000000000 .LASF20
     /tmp/ccN98HPk.s:1150   .debug_str:0000000000000192 .LASF32
     /tmp/ccN98HPk.s:1144   .debug_str:000000000000014e .LASF33
     /tmp/ccN98HPk.s:1136   .debug_str:000000000000012a .LASF21
     /tmp/ccN98HPk.s:65     .text:0000000000000038 .LFB3
     /tmp/ccN98HPk.s:86     .text:0000000000000054 .LFE3
     /tmp/ccN98HPk.s:1148   .debug_str:000000000000018d .LASF22
     /tmp/ccN98HPk.s:1009   .debug_loc:0000000000000000 .LLST2
     /tmp/ccN98HPk.s:38     .text:000000000000001c .LFB2
     /tmp/ccN98HPk.s:59     .text:0000000000000038 .LFE2
     /tmp/ccN98HPk.s:1023   .debug_loc:0000000000000039 .LLST1
     /tmp/ccN98HPk.s:1138   .debug_str:000000000000012f .LASF23
     /tmp/ccN98HPk.s:1126   .debug_str:00000000000000b5 .LASF24
     /tmp/ccN98HPk.s:10     .text:0000000000000000 .LFB1
     /tmp/ccN98HPk.s:32     .text:000000000000001c .LFE1
     /tmp/ccN98HPk.s:1037   .debug_loc:0000000000000072 .LLST0
     /tmp/ccN98HPk.s:92     .text:0000000000000054 .LFB0
     /tmp/ccN98HPk.s:203    .text:000000000000011c .LFE0
     /tmp/ccN98HPk.s:1051   .debug_loc:00000000000000ab .LLST3
     /tmp/ccN98HPk.s:1170   .debug_str:00000000000002fd .LASF25
     /tmp/ccN98HPk.s:133    .text:0000000000000098 .LBB2
     /tmp/ccN98HPk.s:178    .text:00000000000000f4 .LBE2
     /tmp/ccN98HPk.s:1069   .debug_loc:00000000000000f7 .LLST4
     /tmp/ccN98HPk.s:1098   .debug_ranges:0000000000000000 .Ldebug_ranges0
     /tmp/ccN98HPk.s:153    .text:00000000000000c8 .LVL9
     /tmp/ccN98HPk.s:162    .text:00000000000000e0 .LVL10
     /tmp/ccN98HPk.s:183    .text:0000000000000100 .LVL13
     /tmp/ccN98HPk.s:68     .text:0000000000000038 .LVL4
     /tmp/ccN98HPk.s:78     .text:0000000000000048 .LVL5
     /tmp/ccN98HPk.s:41     .text:000000000000001c .LVL2
     /tmp/ccN98HPk.s:51     .text:000000000000002c .LVL3
     /tmp/ccN98HPk.s:14     .text:0000000000000000 .LVL0
     /tmp/ccN98HPk.s:24     .text:0000000000000010 .LVL1
     /tmp/ccN98HPk.s:95     .text:0000000000000054 .LVL6
     /tmp/ccN98HPk.s:136    .text:000000000000009c .LVL8
     /tmp/ccN98HPk.s:196    .text:0000000000000110 .LVL15
     /tmp/ccN98HPk.s:132    .text:0000000000000098 .LVL7
     /tmp/ccN98HPk.s:168    .text:00000000000000e8 .LVL11
     /tmp/ccN98HPk.s:170    .text:00000000000000ec .LVL12
     /tmp/ccN98HPk.s:193    .text:000000000000010c .LVL14
     /tmp/ccN98HPk.s:209    .debug_info:0000000000000000 .Ldebug_info0
     /tmp/ccN98HPk.s:141    .text:00000000000000a4 .LBB3
     /tmp/ccN98HPk.s:165    .text:00000000000000e4 .LBE3
     /tmp/ccN98HPk.s:172    .text:00000000000000ec .LBB4
     /tmp/ccN98HPk.s:177    .text:00000000000000f4 .LBE4

NO UNDEFINED SYMBOLS
