GAS LISTING /tmp/ccp3bQC2.s 			page 1


   1              		.file	"print.cpp"
   2              		.option pic
   3              		.option norelax
   4              		.text
   5              	.Ltext0:
   6              		.align	2
   7              		.globl	_Z11printStringPKc
   9              	_Z11printStringPKc:
  10              	.LFB16:
  11              		.file 1 "src/print.cpp"
   1:src/print.cpp **** //
   2:src/print.cpp **** // Created by marko on 20.4.22..
   3:src/print.cpp **** //
   4:src/print.cpp **** 
   5:src/print.cpp **** #include "../h/print.hpp"
   6:src/print.cpp **** #include "../h/riscv.hpp"
   7:src/print.cpp **** #include "../lib/console.h"
   8:src/print.cpp **** 
   9:src/print.cpp **** void printString(char const *string)
  10:src/print.cpp **** {
  12              		.loc 1 10 1
  13              		.cfi_startproc
  14              	.LVL0:
  15 0000 130101FD 		addi	sp,sp,-48
  16              		.cfi_def_cfa_offset 48
  17 0004 23341102 		sd	ra,40(sp)
  18 0008 23308102 		sd	s0,32(sp)
  19 000c 233C9100 		sd	s1,24(sp)
  20 0010 23382101 		sd	s2,16(sp)
  21              		.cfi_offset 1, -8
  22              		.cfi_offset 8, -16
  23              		.cfi_offset 9, -24
  24              		.cfi_offset 18, -32
  25 0014 13040103 		addi	s0,sp,48
  26              		.cfi_def_cfa 8, 0
  27 0018 93040500 		mv	s1,a0
  11:src/print.cpp ****     uint64 sstatus = Riscv::r_sstatus();
  28              		.loc 1 11 5
  29              	.LBB14:
  30              	.LBB15:
  31              		.file 2 "src/../h/riscv.hpp"
   1:src/../h/riscv.hpp **** #ifndef RISCV_HPP
   2:src/../h/riscv.hpp **** #define RISCV_HPP
   3:src/../h/riscv.hpp **** 
   4:src/../h/riscv.hpp **** #include "../lib/hw.h"
   5:src/../h/riscv.hpp **** 
   6:src/../h/riscv.hpp **** class Riscv
   7:src/../h/riscv.hpp **** {
   8:src/../h/riscv.hpp **** public:
   9:src/../h/riscv.hpp **** 
  10:src/../h/riscv.hpp ****     // pop sstatus.spp and sstatus.spie bits (has to be a non inline function)
  11:src/../h/riscv.hpp ****     static void popSppSpie();
  12:src/../h/riscv.hpp **** 
  13:src/../h/riscv.hpp ****     // read register scause
  14:src/../h/riscv.hpp ****     static uint64 r_scause();
  15:src/../h/riscv.hpp **** 
  16:src/../h/riscv.hpp ****     // write register scause
GAS LISTING /tmp/ccp3bQC2.s 			page 2


  17:src/../h/riscv.hpp ****     static void w_scause(uint64 scause);
  18:src/../h/riscv.hpp **** 
  19:src/../h/riscv.hpp ****     // read register sepc
  20:src/../h/riscv.hpp ****     static uint64 r_sepc();
  21:src/../h/riscv.hpp **** 
  22:src/../h/riscv.hpp ****     // write register sepc
  23:src/../h/riscv.hpp ****     static void w_sepc(uint64 sepc);
  24:src/../h/riscv.hpp **** 
  25:src/../h/riscv.hpp ****     // read register stvec
  26:src/../h/riscv.hpp ****     static uint64 r_stvec();
  27:src/../h/riscv.hpp **** 
  28:src/../h/riscv.hpp ****     // write register stvec
  29:src/../h/riscv.hpp ****     static void w_stvec(uint64 stvec);
  30:src/../h/riscv.hpp **** 
  31:src/../h/riscv.hpp ****     // read register stval
  32:src/../h/riscv.hpp ****     static uint64 r_stval();
  33:src/../h/riscv.hpp **** 
  34:src/../h/riscv.hpp ****     // write register stval
  35:src/../h/riscv.hpp ****     static void w_stval(uint64 stval);
  36:src/../h/riscv.hpp **** 
  37:src/../h/riscv.hpp ****     enum BitMaskSip
  38:src/../h/riscv.hpp ****     {
  39:src/../h/riscv.hpp ****         SIP_SSIP = (1 << 1),
  40:src/../h/riscv.hpp ****         SIP_STIP = (1 << 5),
  41:src/../h/riscv.hpp ****         SIP_SEIP = (1 << 9),
  42:src/../h/riscv.hpp ****     };
  43:src/../h/riscv.hpp **** 
  44:src/../h/riscv.hpp ****     // mask set register sip
  45:src/../h/riscv.hpp ****     static void ms_sip(uint64 mask);
  46:src/../h/riscv.hpp **** 
  47:src/../h/riscv.hpp ****     // mask clear register sip
  48:src/../h/riscv.hpp ****     static void mc_sip(uint64 mask);
  49:src/../h/riscv.hpp **** 
  50:src/../h/riscv.hpp ****     // read register sip
  51:src/../h/riscv.hpp ****     static uint64 r_sip();
  52:src/../h/riscv.hpp **** 
  53:src/../h/riscv.hpp ****     // write register sip
  54:src/../h/riscv.hpp ****     static void w_sip(uint64 sip);
  55:src/../h/riscv.hpp **** 
  56:src/../h/riscv.hpp ****     enum BitMaskSstatus
  57:src/../h/riscv.hpp ****     {
  58:src/../h/riscv.hpp ****         SSTATUS_SIE = (1 << 1),
  59:src/../h/riscv.hpp ****         SSTATUS_SPIE = (1 << 5),
  60:src/../h/riscv.hpp ****         SSTATUS_SPP = (1 << 8),
  61:src/../h/riscv.hpp ****     };
  62:src/../h/riscv.hpp **** 
  63:src/../h/riscv.hpp ****     // mask set register sstatus
  64:src/../h/riscv.hpp ****     static void ms_sstatus(uint64 mask);
  65:src/../h/riscv.hpp **** 
  66:src/../h/riscv.hpp ****     // mask clear register sstatus
  67:src/../h/riscv.hpp ****     static void mc_sstatus(uint64 mask);
  68:src/../h/riscv.hpp **** 
  69:src/../h/riscv.hpp ****     // read register sstatus
  70:src/../h/riscv.hpp ****     static uint64 r_sstatus();
  71:src/../h/riscv.hpp **** 
  72:src/../h/riscv.hpp ****     // write register sstatus
  73:src/../h/riscv.hpp ****     static void w_sstatus(uint64 sstatus);
GAS LISTING /tmp/ccp3bQC2.s 			page 3


  74:src/../h/riscv.hpp **** 
  75:src/../h/riscv.hpp ****     // supervisor trap
  76:src/../h/riscv.hpp ****     static void supervisorTrap();
  77:src/../h/riscv.hpp **** 
  78:src/../h/riscv.hpp **** private:
  79:src/../h/riscv.hpp **** 
  80:src/../h/riscv.hpp ****     // supervisor trap handler
  81:src/../h/riscv.hpp ****     static void handleSupervisorTrap();
  82:src/../h/riscv.hpp **** 
  83:src/../h/riscv.hpp **** };
  84:src/../h/riscv.hpp **** 
  85:src/../h/riscv.hpp **** inline uint64 Riscv::r_scause()
  86:src/../h/riscv.hpp **** {
  87:src/../h/riscv.hpp ****     uint64 volatile scause;
  88:src/../h/riscv.hpp ****     __asm__ volatile ("csrr %[scause], scause" : [scause] "=r"(scause));
  89:src/../h/riscv.hpp ****     return scause;
  90:src/../h/riscv.hpp **** }
  91:src/../h/riscv.hpp **** 
  92:src/../h/riscv.hpp **** inline void Riscv::w_scause(uint64 scause)
  93:src/../h/riscv.hpp **** {
  94:src/../h/riscv.hpp ****     __asm__ volatile ("csrw scause, %[scause]" : : [scause] "r"(scause));
  95:src/../h/riscv.hpp **** }
  96:src/../h/riscv.hpp **** 
  97:src/../h/riscv.hpp **** inline uint64 Riscv::r_sepc()
  98:src/../h/riscv.hpp **** {
  99:src/../h/riscv.hpp ****     uint64 volatile sepc;
 100:src/../h/riscv.hpp ****     __asm__ volatile ("csrr %[sepc], sepc" : [sepc] "=r"(sepc));
 101:src/../h/riscv.hpp ****     return sepc;
 102:src/../h/riscv.hpp **** }
 103:src/../h/riscv.hpp **** 
 104:src/../h/riscv.hpp **** inline void Riscv::w_sepc(uint64 sepc)
 105:src/../h/riscv.hpp **** {
 106:src/../h/riscv.hpp ****     __asm__ volatile ("csrw sepc, %[sepc]" : : [sepc] "r"(sepc));
 107:src/../h/riscv.hpp **** }
 108:src/../h/riscv.hpp **** 
 109:src/../h/riscv.hpp **** inline uint64 Riscv::r_stvec()
 110:src/../h/riscv.hpp **** {
 111:src/../h/riscv.hpp ****     uint64 volatile stvec;
 112:src/../h/riscv.hpp ****     __asm__ volatile ("csrr %[stvec], stvec" : [stvec] "=r"(stvec));
 113:src/../h/riscv.hpp ****     return stvec;
 114:src/../h/riscv.hpp **** }
 115:src/../h/riscv.hpp **** 
 116:src/../h/riscv.hpp **** inline void Riscv::w_stvec(uint64 stvec)
 117:src/../h/riscv.hpp **** {
 118:src/../h/riscv.hpp ****     __asm__ volatile ("csrw stvec, %[stvec]" : : [stvec] "r"(stvec));
 119:src/../h/riscv.hpp **** }
 120:src/../h/riscv.hpp **** 
 121:src/../h/riscv.hpp **** inline uint64 Riscv::r_stval()
 122:src/../h/riscv.hpp **** {
 123:src/../h/riscv.hpp ****     uint64 volatile stval;
 124:src/../h/riscv.hpp ****     __asm__ volatile ("csrr %[stval], stval" : [stval] "=r"(stval));
 125:src/../h/riscv.hpp ****     return stval;
 126:src/../h/riscv.hpp **** }
 127:src/../h/riscv.hpp **** 
 128:src/../h/riscv.hpp **** inline void Riscv::w_stval(uint64 stval)
 129:src/../h/riscv.hpp **** {
 130:src/../h/riscv.hpp ****     __asm__ volatile ("csrw stval, %[stval]" : : [stval] "r"(stval));
GAS LISTING /tmp/ccp3bQC2.s 			page 4


 131:src/../h/riscv.hpp **** }
 132:src/../h/riscv.hpp **** 
 133:src/../h/riscv.hpp **** inline void Riscv::ms_sip(uint64 mask)
 134:src/../h/riscv.hpp **** {
 135:src/../h/riscv.hpp ****     __asm__ volatile ("csrs sip, %[mask]" : : [mask] "r"(mask));
 136:src/../h/riscv.hpp **** }
 137:src/../h/riscv.hpp **** 
 138:src/../h/riscv.hpp **** inline void Riscv::mc_sip(uint64 mask)
 139:src/../h/riscv.hpp **** {
 140:src/../h/riscv.hpp ****     __asm__ volatile ("csrc sip, %[mask]" : : [mask] "r"(mask));
 141:src/../h/riscv.hpp **** }
 142:src/../h/riscv.hpp **** 
 143:src/../h/riscv.hpp **** inline uint64 Riscv::r_sip()
 144:src/../h/riscv.hpp **** {
 145:src/../h/riscv.hpp ****     uint64 volatile sip;
 146:src/../h/riscv.hpp ****     __asm__ volatile ("csrr %[sip], sip" : [sip] "=r"(sip));
 147:src/../h/riscv.hpp ****     return sip;
 148:src/../h/riscv.hpp **** }
 149:src/../h/riscv.hpp **** 
 150:src/../h/riscv.hpp **** inline void Riscv::w_sip(uint64 sip)
 151:src/../h/riscv.hpp **** {
 152:src/../h/riscv.hpp ****     __asm__ volatile ("csrw sip, %[sip]" : : [sip] "r"(sip));
 153:src/../h/riscv.hpp **** }
 154:src/../h/riscv.hpp **** 
 155:src/../h/riscv.hpp **** inline void Riscv::ms_sstatus(uint64 mask)
 156:src/../h/riscv.hpp **** {
 157:src/../h/riscv.hpp ****     __asm__ volatile ("csrs sstatus, %[mask]" : : [mask] "r"(mask));
 158:src/../h/riscv.hpp **** }
 159:src/../h/riscv.hpp **** 
 160:src/../h/riscv.hpp **** inline void Riscv::mc_sstatus(uint64 mask)
 161:src/../h/riscv.hpp **** {
 162:src/../h/riscv.hpp ****     __asm__ volatile ("csrc sstatus, %[mask]" : : [mask] "r"(mask));
 163:src/../h/riscv.hpp **** }
 164:src/../h/riscv.hpp **** 
 165:src/../h/riscv.hpp **** inline uint64 Riscv::r_sstatus()
 166:src/../h/riscv.hpp **** {
 167:src/../h/riscv.hpp ****     uint64 volatile sstatus;
  32              		.loc 2 167 5
 168:src/../h/riscv.hpp ****     __asm__ volatile ("csrr %[sstatus], sstatus" : [sstatus] "=r"(sstatus));
  33              		.loc 2 168 5
  34              		.loc 2 168 76 is_stmt 0
  35              	#APP
  36              	# 168 "src/../h/riscv.hpp" 1
 169              	    return sstatus;
  37              		csrr a5, sstatus
  38              	# 0 "" 2
  39              	#NO_APP
  40 0020 233CF4FC 		sd	a5,-40(s0)
  41              		.loc 2 169 5 is_stmt 1
  42              		.loc 2 169 12 is_stmt 0
  43 0024 033984FD 		ld	s2,-40(s0)
  44              	.LVL1:
  45              	.LBE15:
  46              	.LBE14:
  12:src/print.cpp ****     Riscv::mc_sstatus(Riscv::SSTATUS_SIE);
  47              		.loc 1 12 5 is_stmt 1
  48              	.LBB16:
GAS LISTING /tmp/ccp3bQC2.s 			page 5


  49              	.LBB17:
 162:src/../h/riscv.hpp **** }
  50              		.loc 2 162 5
 162:src/../h/riscv.hpp **** }
  51              		.loc 2 162 68 is_stmt 0
  52 0028 93072000 		li	a5,2
  53              	#APP
  54              	# 162 "src/../h/riscv.hpp" 1
  55              		csrc sstatus, a5
  56              	# 0 "" 2
  57              	.LVL2:
  58              	#NO_APP
  59              	.L3:
  60              	.LBE17:
  61              	.LBE16:
  13:src/print.cpp **** 
  14:src/print.cpp ****     while (*string != '\0') __putc(*string++);
  62              		.loc 1 14 5 is_stmt 1 discriminator 2
  63              		.loc 1 14 20 discriminator 2
  64              		.loc 1 14 12 is_stmt 0 discriminator 2
  65 0030 03C50400 		lbu	a0,0(s1)
  66              		.loc 1 14 20 discriminator 2
  67 0034 630A0500 		beqz	a0,.L2
  68              		.loc 1 14 29 is_stmt 1 discriminator 1
  69              		.loc 1 14 43 is_stmt 0 discriminator 1
  70 0038 93841400 		addi	s1,s1,1
  71              	.LVL3:
  72              		.loc 1 14 35 discriminator 1
  73 003c 97000000 		call	__putc@plt
  73      E7800000 
  74              	.LVL4:
  75              		.loc 1 14 5 discriminator 1
  76 0044 6FF0DFFE 		j	.L3
  77              	.L2:
  15:src/print.cpp **** 
  16:src/print.cpp ****     Riscv::ms_sstatus(sstatus & Riscv::SSTATUS_SIE ? Riscv::SSTATUS_SIE : 0);
  78              		.loc 1 16 5 is_stmt 1
  79              		.loc 1 16 52 is_stmt 0
  80 0048 1B090900 		sext.w	s2,s2
  81              	.LVL5:
  82              		.loc 1 16 22
  83 004c 13792900 		andi	s2,s2,2
  84 0050 1B090900 		sext.w	s2,s2
  85              	.LVL6:
  86              	.LBB18:
  87              	.LBB19:
 157:src/../h/riscv.hpp **** }
  88              		.loc 2 157 5 is_stmt 1
 157:src/../h/riscv.hpp **** }
  89              		.loc 2 157 68 is_stmt 0
  90              	#APP
  91              	# 157 "src/../h/riscv.hpp" 1
  92              		csrs sstatus, s2
  93              	# 0 "" 2
  94              	.LVL7:
  95              	#NO_APP
  96              	.LBE19:
GAS LISTING /tmp/ccp3bQC2.s 			page 6


  97              	.LBE18:
  17:src/print.cpp **** }
  98              		.loc 1 17 1
  99 0058 83308102 		ld	ra,40(sp)
 100              		.cfi_restore 1
 101 005c 03340102 		ld	s0,32(sp)
 102              		.cfi_restore 8
 103              		.cfi_def_cfa 2, 48
 104 0060 83348101 		ld	s1,24(sp)
 105              		.cfi_restore 9
 106              	.LVL8:
 107 0064 03390101 		ld	s2,16(sp)
 108              		.cfi_restore 18
 109 0068 13010103 		addi	sp,sp,48
 110              		.cfi_def_cfa_offset 0
 111 006c 67800000 		jr	ra
 112              		.cfi_endproc
 113              	.LFE16:
 115              		.align	2
 116              		.globl	_Z12printIntegerm
 118              	_Z12printIntegerm:
 119              	.LFB17:
  18:src/print.cpp **** 
  19:src/print.cpp **** void printInteger(uint64 integer)
  20:src/print.cpp **** {
 120              		.loc 1 20 1 is_stmt 1
 121              		.cfi_startproc
 122              	.LVL9:
 123 0070 130101FC 		addi	sp,sp,-64
 124              		.cfi_def_cfa_offset 64
 125 0074 233C1102 		sd	ra,56(sp)
 126 0078 23388102 		sd	s0,48(sp)
 127 007c 23349102 		sd	s1,40(sp)
 128 0080 23302103 		sd	s2,32(sp)
 129              		.cfi_offset 1, -8
 130              		.cfi_offset 8, -16
 131              		.cfi_offset 9, -24
 132              		.cfi_offset 18, -32
 133 0084 13040104 		addi	s0,sp,64
 134              		.cfi_def_cfa 8, 0
  21:src/print.cpp ****     uint64 sstatus = Riscv::r_sstatus();
 135              		.loc 1 21 5
 136              	.LBB20:
 137              	.LBB21:
 167:src/../h/riscv.hpp ****     __asm__ volatile ("csrr %[sstatus], sstatus" : [sstatus] "=r"(sstatus));
 138              		.loc 2 167 5
 168:src/../h/riscv.hpp ****     return sstatus;
 139              		.loc 2 168 5
 168:src/../h/riscv.hpp ****     return sstatus;
 140              		.loc 2 168 76 is_stmt 0
 141              	#APP
 142              	# 168 "src/../h/riscv.hpp" 1
 143              		csrr a5, sstatus
 144              	# 0 "" 2
 145              	#NO_APP
 146 008c 2334F4FC 		sd	a5,-56(s0)
 147              		.loc 2 169 5 is_stmt 1
GAS LISTING /tmp/ccp3bQC2.s 			page 7


 148              		.loc 2 169 12 is_stmt 0
 149 0090 033984FC 		ld	s2,-56(s0)
 150              	.LVL10:
 151              	.LBE21:
 152              	.LBE20:
  22:src/print.cpp ****     Riscv::mc_sstatus(Riscv::SSTATUS_SIE);
 153              		.loc 1 22 5 is_stmt 1
 154              	.LBB22:
 155              	.LBB23:
 162:src/../h/riscv.hpp **** }
 156              		.loc 2 162 5
 162:src/../h/riscv.hpp **** }
 157              		.loc 2 162 68 is_stmt 0
 158 0094 93072000 		li	a5,2
 159              	#APP
 160              	# 162 "src/../h/riscv.hpp" 1
 161              		csrc sstatus, a5
 162              	# 0 "" 2
 163              	.LVL11:
 164              	#NO_APP
 165              	.LBE23:
 166              	.LBE22:
  23:src/print.cpp **** 
  24:src/print.cpp ****     static char digits[] = "0123456789";
 167              		.loc 1 24 5 is_stmt 1
  25:src/print.cpp ****     char buf[16]; int i = 0; uint64 x = integer;
 168              		.loc 1 25 5
 169              		.loc 1 25 19
 170              		.loc 1 25 30
  26:src/print.cpp ****     int neg = (integer & ((uint64)1 << 63)) != 0;
 171              		.loc 1 26 5
 172              		.loc 1 26 45 is_stmt 0
 173 009c 93050500 		mv	a1,a0
 174              	.LVL12:
  27:src/print.cpp **** 
  28:src/print.cpp ****     if (neg) x = ~integer + 1;
 175              		.loc 1 28 5 is_stmt 1
 176 00a0 63440506 		bltz	a0,.L12
 177              	.LVL13:
 178              	.L6:
  20:src/print.cpp ****     uint64 sstatus = Riscv::r_sstatus();
 179              		.loc 1 20 1 is_stmt 0
 180 00a4 93040000 		li	s1,0
 181              	.LVL14:
 182              	.L7:
  29:src/print.cpp **** 
  30:src/print.cpp ****     do buf[i++] = digits[x % 10];
 183              		.loc 1 30 5 is_stmt 1
 184              		.loc 1 30 8
 185              		.loc 1 30 28 is_stmt 0
 186 00a8 1307A000 		li	a4,10
 187 00ac 3376E502 		remu	a2,a0,a4
 188 00b0 93860400 		mv	a3,s1
 189              		.loc 1 30 13
 190 00b4 9B841400 		addiw	s1,s1,1
 191              	.LVL15:
 192              		.loc 1 30 32
GAS LISTING /tmp/ccp3bQC2.s 			page 8


 193 00b8 97070000 		lla	a5,.LANCHOR0
 193      93870700 
 194 00c0 B387C700 		add	a5,a5,a2
 195 00c4 03C60700 		lbu	a2,0(a5)
 196              		.loc 1 30 17
 197 00c8 930704FE 		addi	a5,s0,-32
 198 00cc B387D700 		add	a5,a5,a3
 199 00d0 2388C7FE 		sb	a2,-16(a5)
  31:src/print.cpp ****     while ((x /= 10) != 0);
 200              		.loc 1 31 22 is_stmt 1
 201 00d4 13060500 		mv	a2,a0
 202              		.loc 1 31 15 is_stmt 0
 203 00d8 3355E502 		divu	a0,a0,a4
 204              	.LVL16:
 205              		.loc 1 31 22
 206 00dc 93079000 		li	a5,9
 207 00e0 E3E4C7FC 		bgtu	a2,a5,.L7
  32:src/print.cpp **** 
  33:src/print.cpp ****     if (neg) buf[i++] = '-';
 208              		.loc 1 33 5 is_stmt 1
 209 00e4 63C60502 		bltz	a1,.L13
 210              	.LVL17:
 211              	.L10:
  34:src/print.cpp ****     while (--i >= 0) { __putc(buf[i]); }
 212              		.loc 1 34 5
 213              		.loc 1 34 16
 214 00e8 9B84F4FF 		addiw	s1,s1,-1
 215              	.LVL18:
 216 00ec 63CE0402 		bltz	s1,.L9
 217              		.loc 1 34 24 discriminator 1
 218              		.loc 1 34 30 is_stmt 0 discriminator 1
 219 00f0 930704FE 		addi	a5,s0,-32
 220 00f4 B3879700 		add	a5,a5,s1
 221 00f8 03C507FF 		lbu	a0,-16(a5)
 222 00fc 97000000 		call	__putc@plt
 222      E7800000 
 223              	.LVL19:
 224 0104 6FF05FFE 		j	.L10
 225              	.LVL20:
 226              	.L12:
  28:src/print.cpp **** 
 227              		.loc 1 28 14 is_stmt 1 discriminator 1
  28:src/print.cpp **** 
 228              		.loc 1 28 16 is_stmt 0 discriminator 1
 229 0108 3305A040 		neg	a0,a0
 230              	.LVL21:
 231 010c 6FF09FF9 		j	.L6
 232              	.LVL22:
 233              	.L13:
  33:src/print.cpp ****     while (--i >= 0) { __putc(buf[i]); }
 234              		.loc 1 33 14 is_stmt 1 discriminator 1
  33:src/print.cpp ****     while (--i >= 0) { __putc(buf[i]); }
 235              		.loc 1 33 23 is_stmt 0 discriminator 1
 236 0110 930704FE 		addi	a5,s0,-32
 237 0114 B3849700 		add	s1,a5,s1
 238 0118 9307D002 		li	a5,45
 239 011c 2388F4FE 		sb	a5,-16(s1)
GAS LISTING /tmp/ccp3bQC2.s 			page 9


  33:src/print.cpp ****     while (--i >= 0) { __putc(buf[i]); }
 240              		.loc 1 33 19 discriminator 1
 241 0120 9B842600 		addiw	s1,a3,2
 242 0124 6FF05FFC 		j	.L10
 243              	.LVL23:
 244              	.L9:
  35:src/print.cpp **** 
  36:src/print.cpp ****     Riscv::ms_sstatus(sstatus & Riscv::SSTATUS_SIE ? Riscv::SSTATUS_SIE : 0);
 245              		.loc 1 36 5 is_stmt 1
 246              		.loc 1 36 52 is_stmt 0
 247 0128 1B090900 		sext.w	s2,s2
 248              	.LVL24:
 249              		.loc 1 36 22
 250 012c 13792900 		andi	s2,s2,2
 251 0130 1B090900 		sext.w	s2,s2
 252              	.LVL25:
 253              	.LBB24:
 254              	.LBB25:
 157:src/../h/riscv.hpp **** }
 255              		.loc 2 157 5 is_stmt 1
 157:src/../h/riscv.hpp **** }
 256              		.loc 2 157 68 is_stmt 0
 257              	#APP
 258              	# 157 "src/../h/riscv.hpp" 1
 259              		csrs sstatus, s2
 260              	# 0 "" 2
 261              	.LVL26:
 262              	#NO_APP
 263              	.LBE25:
 264              	.LBE24:
  37:src/print.cpp **** }
 265              		.loc 1 37 1
 266 0138 83308103 		ld	ra,56(sp)
 267              		.cfi_restore 1
 268 013c 03340103 		ld	s0,48(sp)
 269              		.cfi_restore 8
 270              		.cfi_def_cfa 2, 64
 271 0140 83348102 		ld	s1,40(sp)
 272              		.cfi_restore 9
 273 0144 03390102 		ld	s2,32(sp)
 274              		.cfi_restore 18
 275 0148 13010104 		addi	sp,sp,64
 276              		.cfi_def_cfa_offset 0
 277 014c 67800000 		jr	ra
 278              		.cfi_endproc
 279              	.LFE17:
 281              		.align	2
 282              		.globl	_Z12printIntegerh
 284              	_Z12printIntegerh:
 285              	.LFB18:
  38:src/print.cpp **** 
  39:src/print.cpp **** 
  40:src/print.cpp **** void printInteger(uint8 integer)
  41:src/print.cpp **** {
 286              		.loc 1 41 1 is_stmt 1
 287              		.cfi_startproc
 288              	.LVL27:
GAS LISTING /tmp/ccp3bQC2.s 			page 10


 289 0150 130101FF 		addi	sp,sp,-16
 290              		.cfi_def_cfa_offset 16
 291 0154 23341100 		sd	ra,8(sp)
 292 0158 23308100 		sd	s0,0(sp)
 293              		.cfi_offset 1, -8
 294              		.cfi_offset 8, -16
 295 015c 13040101 		addi	s0,sp,16
 296              		.cfi_def_cfa 8, 0
  42:src/print.cpp ****     printInteger((uint64)integer);
 297              		.loc 1 42 5
 298              		.loc 1 42 17 is_stmt 0
 299 0160 97000000 		call	_Z12printIntegerm
 299      E7800000 
 300              	.LVL28:
  43:src/print.cpp **** }
 301              		.loc 1 43 1
 302 0168 83308100 		ld	ra,8(sp)
 303              		.cfi_restore 1
 304 016c 03340100 		ld	s0,0(sp)
 305              		.cfi_restore 8
 306              		.cfi_def_cfa 2, 16
 307 0170 13010101 		addi	sp,sp,16
 308              		.cfi_def_cfa_offset 0
 309 0174 67800000 		jr	ra
 310              		.cfi_endproc
 311              	.LFE18:
 313              		.section	.rodata
 314              		.align	3
 315              		.set	.LANCHOR0,. + 0
 318              	_ZZ12printIntegermE6digits:
 319 0000 30313233 		.string	"0123456789"
 319      34353637 
 319      383900
 320              		.text
 321              	.Letext0:
 322              		.file 3 "src/../h/../lib/hw.h"
 323              		.file 4 "src/../lib/console.h"
GAS LISTING /tmp/ccp3bQC2.s 			page 11


DEFINED SYMBOLS
                            *ABS*:0000000000000000 print.cpp
     /tmp/ccp3bQC2.s:9      .text:0000000000000000 _Z11printStringPKc
     /tmp/ccp3bQC2.s:13     .text:0000000000000000 .L0 
     /tmp/ccp3bQC2.s:15     .text:0000000000000000 .L0 
     /tmp/ccp3bQC2.s:16     .text:0000000000000004 .L0 
     /tmp/ccp3bQC2.s:21     .text:0000000000000014 .L0 
     /tmp/ccp3bQC2.s:22     .text:0000000000000014 .L0 
     /tmp/ccp3bQC2.s:23     .text:0000000000000014 .L0 
     /tmp/ccp3bQC2.s:24     .text:0000000000000014 .L0 
     /tmp/ccp3bQC2.s:26     .text:0000000000000018 .L0 
     /tmp/ccp3bQC2.s:32     .text:000000000000001c .L0 
     /tmp/ccp3bQC2.s:33     .text:000000000000001c .L0 
     /tmp/ccp3bQC2.s:34     .text:000000000000001c .L0 
  src/../h/riscv.hpp:168    .text:000000000000001c .L0 
     /tmp/ccp3bQC2.s:42     .text:0000000000000024 .L0 
     /tmp/ccp3bQC2.s:43     .text:0000000000000024 .L0 
     /tmp/ccp3bQC2.s:50     .text:0000000000000028 .L0 
     /tmp/ccp3bQC2.s:51     .text:0000000000000028 .L0 
     /tmp/ccp3bQC2.s:52     .text:0000000000000028 .L0 
     /tmp/ccp3bQC2.s:63     .text:0000000000000030 .L0 
     /tmp/ccp3bQC2.s:64     .text:0000000000000030 .L0 
     /tmp/ccp3bQC2.s:65     .text:0000000000000030 .L0 
     /tmp/ccp3bQC2.s:67     .text:0000000000000034 .L0 
     /tmp/ccp3bQC2.s:69     .text:0000000000000038 .L0 
     /tmp/ccp3bQC2.s:70     .text:0000000000000038 .L0 
     /tmp/ccp3bQC2.s:73     .text:000000000000003c .L0 
     /tmp/ccp3bQC2.s:76     .text:0000000000000044 .L0 
     /tmp/ccp3bQC2.s:79     .text:0000000000000048 .L0 
     /tmp/ccp3bQC2.s:80     .text:0000000000000048 .L0 
     /tmp/ccp3bQC2.s:83     .text:000000000000004c .L0 
     /tmp/ccp3bQC2.s:89     .text:0000000000000054 .L0 
  src/../h/riscv.hpp:157    .text:0000000000000054 .L0 
     /tmp/ccp3bQC2.s:99     .text:0000000000000058 .L0 
     /tmp/ccp3bQC2.s:100    .text:000000000000005c .L0 
     /tmp/ccp3bQC2.s:102    .text:0000000000000060 .L0 
     /tmp/ccp3bQC2.s:103    .text:0000000000000060 .L0 
     /tmp/ccp3bQC2.s:105    .text:0000000000000064 .L0 
     /tmp/ccp3bQC2.s:108    .text:0000000000000068 .L0 
     /tmp/ccp3bQC2.s:110    .text:000000000000006c .L0 
     /tmp/ccp3bQC2.s:112    .text:0000000000000070 .L0 
     /tmp/ccp3bQC2.s:118    .text:0000000000000070 _Z12printIntegerm
     /tmp/ccp3bQC2.s:121    .text:0000000000000070 .L0 
     /tmp/ccp3bQC2.s:123    .text:0000000000000070 .L0 
     /tmp/ccp3bQC2.s:124    .text:0000000000000074 .L0 
     /tmp/ccp3bQC2.s:129    .text:0000000000000084 .L0 
     /tmp/ccp3bQC2.s:130    .text:0000000000000084 .L0 
     /tmp/ccp3bQC2.s:131    .text:0000000000000084 .L0 
     /tmp/ccp3bQC2.s:132    .text:0000000000000084 .L0 
     /tmp/ccp3bQC2.s:134    .text:0000000000000088 .L0 
     /tmp/ccp3bQC2.s:138    .text:0000000000000088 .L0 
     /tmp/ccp3bQC2.s:139    .text:0000000000000088 .L0 
     /tmp/ccp3bQC2.s:140    .text:0000000000000088 .L0 
  src/../h/riscv.hpp:168    .text:0000000000000088 .L0 
     /tmp/ccp3bQC2.s:148    .text:0000000000000090 .L0 
     /tmp/ccp3bQC2.s:149    .text:0000000000000090 .L0 
     /tmp/ccp3bQC2.s:156    .text:0000000000000094 .L0 
GAS LISTING /tmp/ccp3bQC2.s 			page 12


     /tmp/ccp3bQC2.s:157    .text:0000000000000094 .L0 
     /tmp/ccp3bQC2.s:158    .text:0000000000000094 .L0 
     /tmp/ccp3bQC2.s:168    .text:000000000000009c .L0 
     /tmp/ccp3bQC2.s:169    .text:000000000000009c .L0 
     /tmp/ccp3bQC2.s:170    .text:000000000000009c .L0 
     /tmp/ccp3bQC2.s:171    .text:000000000000009c .L0 
     /tmp/ccp3bQC2.s:172    .text:000000000000009c .L0 
     /tmp/ccp3bQC2.s:173    .text:000000000000009c .L0 
     /tmp/ccp3bQC2.s:176    .text:00000000000000a0 .L0 
     /tmp/ccp3bQC2.s:180    .text:00000000000000a4 .L0 
     /tmp/ccp3bQC2.s:184    .text:00000000000000a8 .L0 
     /tmp/ccp3bQC2.s:185    .text:00000000000000a8 .L0 
     /tmp/ccp3bQC2.s:186    .text:00000000000000a8 .L0 
     /tmp/ccp3bQC2.s:190    .text:00000000000000b4 .L0 
     /tmp/ccp3bQC2.s:193    .text:00000000000000b8 .L0 
     /tmp/ccp3bQC2.s:197    .text:00000000000000c8 .L0 
     /tmp/ccp3bQC2.s:201    .text:00000000000000d4 .L0 
     /tmp/ccp3bQC2.s:203    .text:00000000000000d8 .L0 
     /tmp/ccp3bQC2.s:206    .text:00000000000000dc .L0 
     /tmp/ccp3bQC2.s:209    .text:00000000000000e4 .L0 
     /tmp/ccp3bQC2.s:213    .text:00000000000000e8 .L0 
     /tmp/ccp3bQC2.s:214    .text:00000000000000e8 .L0 
     /tmp/ccp3bQC2.s:218    .text:00000000000000f0 .L0 
     /tmp/ccp3bQC2.s:219    .text:00000000000000f0 .L0 
     /tmp/ccp3bQC2.s:228    .text:0000000000000108 .L0 
     /tmp/ccp3bQC2.s:229    .text:0000000000000108 .L0 
     /tmp/ccp3bQC2.s:235    .text:0000000000000110 .L0 
     /tmp/ccp3bQC2.s:236    .text:0000000000000110 .L0 
     /tmp/ccp3bQC2.s:241    .text:0000000000000120 .L0 
     /tmp/ccp3bQC2.s:246    .text:0000000000000128 .L0 
     /tmp/ccp3bQC2.s:247    .text:0000000000000128 .L0 
     /tmp/ccp3bQC2.s:250    .text:000000000000012c .L0 
     /tmp/ccp3bQC2.s:256    .text:0000000000000134 .L0 
  src/../h/riscv.hpp:157    .text:0000000000000134 .L0 
     /tmp/ccp3bQC2.s:266    .text:0000000000000138 .L0 
     /tmp/ccp3bQC2.s:267    .text:000000000000013c .L0 
     /tmp/ccp3bQC2.s:269    .text:0000000000000140 .L0 
     /tmp/ccp3bQC2.s:270    .text:0000000000000140 .L0 
     /tmp/ccp3bQC2.s:272    .text:0000000000000144 .L0 
     /tmp/ccp3bQC2.s:274    .text:0000000000000148 .L0 
     /tmp/ccp3bQC2.s:276    .text:000000000000014c .L0 
     /tmp/ccp3bQC2.s:278    .text:0000000000000150 .L0 
     /tmp/ccp3bQC2.s:284    .text:0000000000000150 _Z12printIntegerh
     /tmp/ccp3bQC2.s:287    .text:0000000000000150 .L0 
     /tmp/ccp3bQC2.s:289    .text:0000000000000150 .L0 
     /tmp/ccp3bQC2.s:290    .text:0000000000000154 .L0 
     /tmp/ccp3bQC2.s:293    .text:000000000000015c .L0 
     /tmp/ccp3bQC2.s:294    .text:000000000000015c .L0 
     /tmp/ccp3bQC2.s:296    .text:0000000000000160 .L0 
     /tmp/ccp3bQC2.s:298    .text:0000000000000160 .L0 
     /tmp/ccp3bQC2.s:299    .text:0000000000000160 .L0 
     /tmp/ccp3bQC2.s:302    .text:0000000000000168 .L0 
     /tmp/ccp3bQC2.s:303    .text:000000000000016c .L0 
     /tmp/ccp3bQC2.s:305    .text:0000000000000170 .L0 
     /tmp/ccp3bQC2.s:306    .text:0000000000000170 .L0 
     /tmp/ccp3bQC2.s:308    .text:0000000000000174 .L0 
     /tmp/ccp3bQC2.s:310    .text:0000000000000178 .L0 
GAS LISTING /tmp/ccp3bQC2.s 			page 13


     /tmp/ccp3bQC2.s:315    .rodata:0000000000000000 .LANCHOR0
     /tmp/ccp3bQC2.s:318    .rodata:0000000000000000 _ZZ12printIntegermE6digits
     /tmp/ccp3bQC2.s:324    .text:0000000000000178 .L0 
     /tmp/ccp3bQC2.s:193    .text:00000000000000b8 .L0 
     /tmp/ccp3bQC2.s:77     .text:0000000000000048 .L2
     /tmp/ccp3bQC2.s:59     .text:0000000000000030 .L3
     /tmp/ccp3bQC2.s:226    .text:0000000000000108 .L12
     /tmp/ccp3bQC2.s:182    .text:00000000000000a8 .L7
     /tmp/ccp3bQC2.s:233    .text:0000000000000110 .L13
     /tmp/ccp3bQC2.s:244    .text:0000000000000128 .L9
     /tmp/ccp3bQC2.s:211    .text:00000000000000e8 .L10
     /tmp/ccp3bQC2.s:178    .text:00000000000000a4 .L6
     /tmp/ccp3bQC2.s:944    .debug_abbrev:0000000000000000 .Ldebug_abbrev0
     /tmp/ccp3bQC2.s:1794   .debug_str:0000000000000206 .LASF68
     /tmp/ccp3bQC2.s:1754   .debug_str:00000000000000d2 .LASF69
     /tmp/ccp3bQC2.s:1786   .debug_str:00000000000001b4 .LASF70
     /tmp/ccp3bQC2.s:5      .text:0000000000000000 .Ltext0
     /tmp/ccp3bQC2.s:321    .text:0000000000000178 .Letext0
     /tmp/ccp3bQC2.s:1718   .debug_line:0000000000000000 .Ldebug_line0
     /tmp/ccp3bQC2.s:1808   .debug_str:0000000000000325 .LASF0
     /tmp/ccp3bQC2.s:1778   .debug_str:000000000000017b .LASF1
     /tmp/ccp3bQC2.s:1768   .debug_str:0000000000000138 .LASF2
     /tmp/ccp3bQC2.s:1844   .debug_str:000000000000045e .LASF3
     /tmp/ccp3bQC2.s:1742   .debug_str:0000000000000082 .LASF4
     /tmp/ccp3bQC2.s:1774   .debug_str:0000000000000161 .LASF5
     /tmp/ccp3bQC2.s:1728   .debug_str:0000000000000032 .LASF6
     /tmp/ccp3bQC2.s:1722   .debug_str:0000000000000013 .LASF7
     /tmp/ccp3bQC2.s:1760   .debug_str:00000000000000ee .LASF8
     /tmp/ccp3bQC2.s:1822   .debug_str:000000000000037c .LASF9
     /tmp/ccp3bQC2.s:1738   .debug_str:000000000000006f .LASF10
     /tmp/ccp3bQC2.s:1870   .debug_str:000000000000050c .LASF11
     /tmp/ccp3bQC2.s:1764   .debug_str:0000000000000114 .LASF12
     /tmp/ccp3bQC2.s:1856   .debug_str:00000000000004a6 .LASF13
     /tmp/ccp3bQC2.s:1834   .debug_str:00000000000003f6 .LASF14
     /tmp/ccp3bQC2.s:1780   .debug_str:000000000000018e .LASF15
     /tmp/ccp3bQC2.s:1750   .debug_str:00000000000000b6 .LASF16
     /tmp/ccp3bQC2.s:1826   .debug_str:000000000000039e .LASF17
     /tmp/ccp3bQC2.s:1752   .debug_str:00000000000000cc .LASF71
     /tmp/ccp3bQC2.s:1858   .debug_str:00000000000004b6 .LASF72
     /tmp/ccp3bQC2.s:1820   .debug_str:0000000000000370 .LASF18
     /tmp/ccp3bQC2.s:1788   .debug_str:00000000000001e7 .LASF19
     /tmp/ccp3bQC2.s:1842   .debug_str:0000000000000452 .LASF20
     /tmp/ccp3bQC2.s:1790   .debug_str:00000000000001f4 .LASF53
     /tmp/ccp3bQC2.s:1846   .debug_str:0000000000000464 .LASF55
     /tmp/ccp3bQC2.s:1796   .debug_str:00000000000002ca .LASF21
     /tmp/ccp3bQC2.s:1730   .debug_str:0000000000000039 .LASF23
     /tmp/ccp3bQC2.s:1798   .debug_str:00000000000002d3 .LASF25
     /tmp/ccp3bQC2.s:1744   .debug_str:0000000000000089 .LASF27
     /tmp/ccp3bQC2.s:1812   .debug_str:000000000000033a .LASF22
     /tmp/ccp3bQC2.s:1772   .debug_str:000000000000014e .LASF24
     /tmp/ccp3bQC2.s:1758   .debug_str:00000000000000e7 .LASF26
     /tmp/ccp3bQC2.s:1762   .debug_str:0000000000000101 .LASF28
     /tmp/ccp3bQC2.s:1810   .debug_str:0000000000000332 .LASF29
     /tmp/ccp3bQC2.s:1840   .debug_str:000000000000043e .LASF30
     /tmp/ccp3bQC2.s:1776   .debug_str:0000000000000173 .LASF31
     /tmp/ccp3bQC2.s:1818   .debug_str:000000000000035c .LASF32
     /tmp/ccp3bQC2.s:1848   .debug_str:000000000000047c .LASF33
GAS LISTING /tmp/ccp3bQC2.s 			page 14


     /tmp/ccp3bQC2.s:1734   .debug_str:0000000000000055 .LASF34
     /tmp/ccp3bQC2.s:1770   .debug_str:0000000000000146 .LASF35
     /tmp/ccp3bQC2.s:1832   .debug_str:00000000000003e2 .LASF36
     /tmp/ccp3bQC2.s:1864   .debug_str:00000000000004ea .LASF37
     /tmp/ccp3bQC2.s:1720   .debug_str:0000000000000000 .LASF38
     /tmp/ccp3bQC2.s:1732   .debug_str:000000000000004e .LASF39
     /tmp/ccp3bQC2.s:1816   .debug_str:0000000000000349 .LASF40
     /tmp/ccp3bQC2.s:1854   .debug_str:00000000000004a0 .LASF41
     /tmp/ccp3bQC2.s:1824   .debug_str:000000000000038c .LASF42
     /tmp/ccp3bQC2.s:1736   .debug_str:0000000000000069 .LASF43
     /tmp/ccp3bQC2.s:1852   .debug_str:000000000000048e .LASF44
     /tmp/ccp3bQC2.s:1802   .debug_str:00000000000002e6 .LASF45
     /tmp/ccp3bQC2.s:1804   .debug_str:00000000000002f1 .LASF46
     /tmp/ccp3bQC2.s:1746   .debug_str:000000000000009e .LASF47
     /tmp/ccp3bQC2.s:1828   .debug_str:00000000000003b4 .LASF48
     /tmp/ccp3bQC2.s:1800   .debug_str:00000000000002dc .LASF49
     /tmp/ccp3bQC2.s:1830   .debug_str:00000000000003cc .LASF50
     /tmp/ccp3bQC2.s:1850   .debug_str:0000000000000484 .LASF51
     /tmp/ccp3bQC2.s:1838   .debug_str:0000000000000428 .LASF52
     /tmp/ccp3bQC2.s:1866   .debug_str:00000000000004f1 .LASF54
     /tmp/ccp3bQC2.s:1806   .debug_str:0000000000000309 .LASF56
     /tmp/ccp3bQC2.s:1766   .debug_str:0000000000000123 .LASF73
     /tmp/ccp3bQC2.s:1836   .debug_str:0000000000000406 .LASF74
     /tmp/ccp3bQC2.s:1748   .debug_str:00000000000000a9 .LASF57
     /tmp/ccp3bQC2.s:1784   .debug_str:00000000000001a2 .LASF58
     /tmp/ccp3bQC2.s:285    .text:0000000000000150 .LFB18
     /tmp/ccp3bQC2.s:311    .text:0000000000000178 .LFE18
     /tmp/ccp3bQC2.s:1782   .debug_str:000000000000019a .LASF60
     /tmp/ccp3bQC2.s:1494   .debug_loc:0000000000000000 .LLST11
     /tmp/ccp3bQC2.s:300    .text:0000000000000168 .LVL28
     /tmp/ccp3bQC2.s:1862   .debug_str:00000000000004d8 .LASF59
     /tmp/ccp3bQC2.s:119    .text:0000000000000070 .LFB17
     /tmp/ccp3bQC2.s:279    .text:0000000000000150 .LFE17
     /tmp/ccp3bQC2.s:1508   .debug_loc:0000000000000039 .LLST4
     /tmp/ccp3bQC2.s:1814   .debug_str:0000000000000341 .LASF61
     /tmp/ccp3bQC2.s:1541   .debug_loc:00000000000000c1 .LLST5
     /tmp/ccp3bQC2.s:1726   .debug_str:000000000000002b .LASF62
     /tmp/ccp3bQC2.s:1548   .debug_loc:00000000000000e4 .LLST6
     /tmp/ccp3bQC2.s:1575   .debug_loc:0000000000000157 .LLST7
     /tmp/ccp3bQC2.s:1586   .debug_loc:000000000000018d .LLST8
     /tmp/ccp3bQC2.s:136    .text:0000000000000088 .LBB20
     /tmp/ccp3bQC2.s:152    .text:0000000000000094 .LBE20
     /tmp/ccp3bQC2.s:154    .text:0000000000000094 .LBB22
     /tmp/ccp3bQC2.s:166    .text:000000000000009c .LBE22
     /tmp/ccp3bQC2.s:1657   .debug_loc:000000000000023b .LLST9
     /tmp/ccp3bQC2.s:253    .text:0000000000000134 .LBB24
     /tmp/ccp3bQC2.s:264    .text:0000000000000138 .LBE24
     /tmp/ccp3bQC2.s:1665   .debug_loc:000000000000025f .LLST10
     /tmp/ccp3bQC2.s:223    .text:0000000000000104 .LVL19
     /tmp/ccp3bQC2.s:1724   .debug_str:0000000000000026 .LASF63
     /tmp/ccp3bQC2.s:1868   .debug_str:0000000000000500 .LASF64
     /tmp/ccp3bQC2.s:1860   .debug_str:00000000000004c5 .LASF65
     /tmp/ccp3bQC2.s:10     .text:0000000000000000 .LFB16
     /tmp/ccp3bQC2.s:113    .text:0000000000000070 .LFE16
     /tmp/ccp3bQC2.s:1756   .debug_str:00000000000000e0 .LASF66
     /tmp/ccp3bQC2.s:1672   .debug_loc:0000000000000282 .LLST0
     /tmp/ccp3bQC2.s:1683   .debug_loc:00000000000002b8 .LLST1
GAS LISTING /tmp/ccp3bQC2.s 			page 15


     /tmp/ccp3bQC2.s:29     .text:000000000000001c .LBB14
     /tmp/ccp3bQC2.s:46     .text:0000000000000028 .LBE14
     /tmp/ccp3bQC2.s:48     .text:0000000000000028 .LBB16
     /tmp/ccp3bQC2.s:61     .text:0000000000000030 .LBE16
     /tmp/ccp3bQC2.s:1690   .debug_loc:00000000000002db .LLST2
     /tmp/ccp3bQC2.s:86     .text:0000000000000054 .LBB18
     /tmp/ccp3bQC2.s:97     .text:0000000000000058 .LBE18
     /tmp/ccp3bQC2.s:1698   .debug_loc:00000000000002ff .LLST3
     /tmp/ccp3bQC2.s:74     .text:0000000000000044 .LVL4
     /tmp/ccp3bQC2.s:1740   .debug_str:000000000000007d .LASF67
     /tmp/ccp3bQC2.s:1792   .debug_str:00000000000001ff .LASF75
     /tmp/ccp3bQC2.s:288    .text:0000000000000150 .LVL27
     /tmp/ccp3bQC2.s:122    .text:0000000000000070 .LVL9
     /tmp/ccp3bQC2.s:177    .text:00000000000000a4 .LVL13
     /tmp/ccp3bQC2.s:210    .text:00000000000000e8 .LVL17
     /tmp/ccp3bQC2.s:225    .text:0000000000000108 .LVL20
     /tmp/ccp3bQC2.s:230    .text:000000000000010c .LVL21
     /tmp/ccp3bQC2.s:243    .text:0000000000000128 .LVL23
     /tmp/ccp3bQC2.s:150    .text:0000000000000094 .LVL10
     /tmp/ccp3bQC2.s:248    .text:000000000000012c .LVL24
     /tmp/ccp3bQC2.s:163    .text:000000000000009c .LVL11
     /tmp/ccp3bQC2.s:181    .text:00000000000000a8 .LVL14
     /tmp/ccp3bQC2.s:191    .text:00000000000000b8 .LVL15
     /tmp/ccp3bQC2.s:215    .text:00000000000000ec .LVL18
     /tmp/ccp3bQC2.s:232    .text:0000000000000110 .LVL22
     /tmp/ccp3bQC2.s:174    .text:00000000000000a0 .LVL12
     /tmp/ccp3bQC2.s:252    .text:0000000000000134 .LVL25
     /tmp/ccp3bQC2.s:261    .text:0000000000000138 .LVL26
     /tmp/ccp3bQC2.s:14     .text:0000000000000000 .LVL0
     /tmp/ccp3bQC2.s:57     .text:0000000000000030 .LVL2
     /tmp/ccp3bQC2.s:106    .text:0000000000000064 .LVL8
     /tmp/ccp3bQC2.s:44     .text:0000000000000028 .LVL1
     /tmp/ccp3bQC2.s:81     .text:000000000000004c .LVL5
     /tmp/ccp3bQC2.s:85     .text:0000000000000054 .LVL6
     /tmp/ccp3bQC2.s:94     .text:0000000000000058 .LVL7
     /tmp/ccp3bQC2.s:325    .debug_info:0000000000000000 .Ldebug_info0

UNDEFINED SYMBOLS
__putc
