GAS LISTING /tmp/ccMkkRBl.s 			page 1


   1              		.file	"syscall_c.cpp"
   2              		.option pic
   3              		.option norelax
   4              		.text
   5              	.Ltext0:
   6              		.align	2
   7              		.globl	_Z9mem_allocm
   9              	_Z9mem_allocm:
  10              	.LFB16:
  11              		.file 1 "src/syscall_c.cpp"
   1:src/syscall_c.cpp **** #include "../h/syscall_c.hpp"
   2:src/syscall_c.cpp **** #include "../h/riscv.hpp"
   3:src/syscall_c.cpp **** #include "../h/print.hpp"
   4:src/syscall_c.cpp **** #include "../lib/hw.h"
   5:src/syscall_c.cpp **** 
   6:src/syscall_c.cpp **** void* mem_alloc(size_t size) {
  12              		.loc 1 6 30
  13              		.cfi_startproc
  14              	.LVL0:
  15 0000 130101FE 		addi	sp,sp,-32
  16              		.cfi_def_cfa_offset 32
  17 0004 233C8100 		sd	s0,24(sp)
  18              		.cfi_offset 8, -8
  19 0008 13040102 		addi	s0,sp,32
  20              		.cfi_def_cfa 8, 0
   7:src/syscall_c.cpp ****     uint64 volatile x;
  21              		.loc 1 7 5
   8:src/syscall_c.cpp **** 
   9:src/syscall_c.cpp ****     x = (uint64) size;
  22              		.loc 1 9 5
  23              		.loc 1 9 7 is_stmt 0
  24 000c 2334A4FE 		sd	a0,-24(s0)
  10:src/syscall_c.cpp ****     __asm__ volatile("ld a1, %0" :: "m" (x));
  25              		.loc 1 10 5 is_stmt 1
  26              		.loc 1 10 45 is_stmt 0
  27              	#APP
  28              	# 10 "src/syscall_c.cpp" 1
  11              	    __asm__ volatile("sd a1, %0" :: "m" (x));
  29              		ld a1, -24(s0)
  30              	# 0 "" 2
  31              		.loc 1 11 5 is_stmt 1
  32              		.loc 1 11 45 is_stmt 0
  33              	# 11 "src/syscall_c.cpp" 1
  12              	    x = 0x01;
  34              		sd a1, -24(s0)
  35              	# 0 "" 2
  36              		.loc 1 12 5 is_stmt 1
  37              		.loc 1 12 7 is_stmt 0
  38              	#NO_APP
  39 0018 93071000 		li	a5,1
  40 001c 2334F4FE 		sd	a5,-24(s0)
  13:src/syscall_c.cpp ****     __asm__ volatile("ld a0, %0" :: "m" (x));
  41              		.loc 1 13 5 is_stmt 1
  42              		.loc 1 13 45 is_stmt 0
  43              	#APP
  44              	# 13 "src/syscall_c.cpp" 1
  14              	    __asm__ volatile ("ecall");
GAS LISTING /tmp/ccMkkRBl.s 			page 2


  45              		ld a0, -24(s0)
  46              	# 0 "" 2
  47              		.loc 1 14 5 is_stmt 1
  48              		.loc 1 14 31 is_stmt 0
  49              	# 14 "src/syscall_c.cpp" 1
  15              	    return nullptr;
  50              		ecall
  51              	# 0 "" 2
  52              		.loc 1 15 5 is_stmt 1
  16:src/syscall_c.cpp **** }
  53              		.loc 1 16 1 is_stmt 0
  54              	#NO_APP
  55 0028 13050000 		li	a0,0
  56              	.LVL1:
  57 002c 03348101 		ld	s0,24(sp)
  58              		.cfi_restore 8
  59              		.cfi_def_cfa 2, 32
  60 0030 13010102 		addi	sp,sp,32
  61              		.cfi_def_cfa_offset 0
  62 0034 67800000 		jr	ra
  63              		.cfi_endproc
  64              	.LFE16:
  66              		.align	2
  67              		.globl	_Z8mem_freePv
  69              	_Z8mem_freePv:
  70              	.LFB17:
  17:src/syscall_c.cpp **** 
  18:src/syscall_c.cpp **** int mem_free(void*) {
  71              		.loc 1 18 21 is_stmt 1
  72              		.cfi_startproc
  73 0038 130101FF 		addi	sp,sp,-16
  74              		.cfi_def_cfa_offset 16
  75 003c 23348100 		sd	s0,8(sp)
  76              		.cfi_offset 8, -8
  77 0040 13040101 		addi	s0,sp,16
  78              		.cfi_def_cfa 8, 0
  19:src/syscall_c.cpp **** 
  20:src/syscall_c.cpp ****     __asm__ volatile ("ecall");
  79              		.loc 1 20 5
  80              		.loc 1 20 31 is_stmt 0
  81              	#APP
  82              	# 20 "src/syscall_c.cpp" 1
  21              	    return 0;
  83              		ecall
  84              	# 0 "" 2
  85              		.loc 1 21 5 is_stmt 1
  22:src/syscall_c.cpp **** }
  86              		.loc 1 22 1 is_stmt 0
  87              	#NO_APP
  88 0048 13050000 		li	a0,0
  89 004c 03348100 		ld	s0,8(sp)
  90              		.cfi_restore 8
  91              		.cfi_def_cfa 2, 16
  92 0050 13010101 		addi	sp,sp,16
  93              		.cfi_def_cfa_offset 0
  94 0054 67800000 		jr	ra
  95              		.cfi_endproc
GAS LISTING /tmp/ccMkkRBl.s 			page 3


  96              	.LFE17:
  98              		.align	2
  99              		.globl	_Z13thread_createPP7_threadPFvPvES2_
 101              	_Z13thread_createPP7_threadPFvPvES2_:
 102              	.LFB18:
  23:src/syscall_c.cpp **** 
  24:src/syscall_c.cpp **** int thread_create (
  25:src/syscall_c.cpp ****         thread_t* handle,
  26:src/syscall_c.cpp ****         void (*start_routine) (void*),
  27:src/syscall_c.cpp ****         void* arg) {
 103              		.loc 1 27 20 is_stmt 1
 104              		.cfi_startproc
 105              	.LVL2:
 106 0058 130101FF 		addi	sp,sp,-16
 107              		.cfi_def_cfa_offset 16
 108 005c 23348100 		sd	s0,8(sp)
 109              		.cfi_offset 8, -8
 110 0060 13040101 		addi	s0,sp,16
 111              		.cfi_def_cfa 8, 0
  28:src/syscall_c.cpp **** 
  29:src/syscall_c.cpp ****     __asm__ volatile ("ecall");
 112              		.loc 1 29 5
 113              		.loc 1 29 31 is_stmt 0
 114              	#APP
 115              	# 29 "src/syscall_c.cpp" 1
  30              	    return 0;
 116              		ecall
 117              	# 0 "" 2
 118              		.loc 1 30 5 is_stmt 1
  31:src/syscall_c.cpp **** }
 119              		.loc 1 31 1 is_stmt 0
 120              	#NO_APP
 121 0068 13050000 		li	a0,0
 122              	.LVL3:
 123 006c 03348100 		ld	s0,8(sp)
 124              		.cfi_restore 8
 125              		.cfi_def_cfa 2, 16
 126 0070 13010101 		addi	sp,sp,16
 127              		.cfi_def_cfa_offset 0
 128 0074 67800000 		jr	ra
 129              		.cfi_endproc
 130              	.LFE18:
 132              		.align	2
 133              		.globl	_Z8sem_openPP4_semj
 135              	_Z8sem_openPP4_semj:
 136              	.LFB19:
  32:src/syscall_c.cpp **** 
  33:src/syscall_c.cpp **** int sem_open (
  34:src/syscall_c.cpp ****         sem_t* handle,
  35:src/syscall_c.cpp ****         unsigned init ) {
 137              		.loc 1 35 25 is_stmt 1
 138              		.cfi_startproc
 139              	.LVL4:
 140 0078 130101FF 		addi	sp,sp,-16
 141              		.cfi_def_cfa_offset 16
 142 007c 23348100 		sd	s0,8(sp)
 143              		.cfi_offset 8, -8
GAS LISTING /tmp/ccMkkRBl.s 			page 4


 144 0080 13040101 		addi	s0,sp,16
 145              		.cfi_def_cfa 8, 0
  36:src/syscall_c.cpp **** 
  37:src/syscall_c.cpp ****     __asm__ volatile ("ecall");
 146              		.loc 1 37 5
 147              		.loc 1 37 31 is_stmt 0
 148              	#APP
 149              	# 37 "src/syscall_c.cpp" 1
  38              	    return 0;
 150              		ecall
 151              	# 0 "" 2
 152              		.loc 1 38 5 is_stmt 1
  39:src/syscall_c.cpp **** }
 153              		.loc 1 39 1 is_stmt 0
 154              	#NO_APP
 155 0088 13050000 		li	a0,0
 156              	.LVL5:
 157 008c 03348100 		ld	s0,8(sp)
 158              		.cfi_restore 8
 159              		.cfi_def_cfa 2, 16
 160 0090 13010101 		addi	sp,sp,16
 161              		.cfi_def_cfa_offset 0
 162 0094 67800000 		jr	ra
 163              		.cfi_endproc
 164              	.LFE19:
 166              		.align	2
 167              		.globl	_Z9sem_closeP4_sem
 169              	_Z9sem_closeP4_sem:
 170              	.LFB20:
  40:src/syscall_c.cpp **** 
  41:src/syscall_c.cpp **** int sem_close(sem_t handle) {
 171              		.loc 1 41 29 is_stmt 1
 172              		.cfi_startproc
 173              	.LVL6:
 174 0098 130101FF 		addi	sp,sp,-16
 175              		.cfi_def_cfa_offset 16
 176 009c 23348100 		sd	s0,8(sp)
 177              		.cfi_offset 8, -8
 178 00a0 13040101 		addi	s0,sp,16
 179              		.cfi_def_cfa 8, 0
  42:src/syscall_c.cpp **** 
  43:src/syscall_c.cpp ****     __asm__ volatile ("ecall");
 180              		.loc 1 43 5
 181              		.loc 1 43 31 is_stmt 0
 182              	#APP
 183              	# 43 "src/syscall_c.cpp" 1
  44              	    return 0;
 184              		ecall
 185              	# 0 "" 2
 186              		.loc 1 44 5 is_stmt 1
  45:src/syscall_c.cpp **** }
 187              		.loc 1 45 1 is_stmt 0
 188              	#NO_APP
 189 00a8 13050000 		li	a0,0
 190              	.LVL7:
 191 00ac 03348100 		ld	s0,8(sp)
 192              		.cfi_restore 8
GAS LISTING /tmp/ccMkkRBl.s 			page 5


 193              		.cfi_def_cfa 2, 16
 194 00b0 13010101 		addi	sp,sp,16
 195              		.cfi_def_cfa_offset 0
 196 00b4 67800000 		jr	ra
 197              		.cfi_endproc
 198              	.LFE20:
 200              		.align	2
 201              		.globl	_Z8sem_waitP4_sem
 203              	_Z8sem_waitP4_sem:
 204              	.LFB21:
  46:src/syscall_c.cpp **** 
  47:src/syscall_c.cpp **** int sem_wait(sem_t id) {
 205              		.loc 1 47 24 is_stmt 1
 206              		.cfi_startproc
 207              	.LVL8:
 208 00b8 130101FF 		addi	sp,sp,-16
 209              		.cfi_def_cfa_offset 16
 210 00bc 23348100 		sd	s0,8(sp)
 211              		.cfi_offset 8, -8
 212 00c0 13040101 		addi	s0,sp,16
 213              		.cfi_def_cfa 8, 0
  48:src/syscall_c.cpp **** 
  49:src/syscall_c.cpp ****     __asm__ volatile ("ecall");
 214              		.loc 1 49 5
 215              		.loc 1 49 31 is_stmt 0
 216              	#APP
 217              	# 49 "src/syscall_c.cpp" 1
  50              	    return 0;
 218              		ecall
 219              	# 0 "" 2
 220              		.loc 1 50 5 is_stmt 1
  51:src/syscall_c.cpp **** }
 221              		.loc 1 51 1 is_stmt 0
 222              	#NO_APP
 223 00c8 13050000 		li	a0,0
 224              	.LVL9:
 225 00cc 03348100 		ld	s0,8(sp)
 226              		.cfi_restore 8
 227              		.cfi_def_cfa 2, 16
 228 00d0 13010101 		addi	sp,sp,16
 229              		.cfi_def_cfa_offset 0
 230 00d4 67800000 		jr	ra
 231              		.cfi_endproc
 232              	.LFE21:
 234              		.align	2
 235              		.globl	_Z10sem_signalP4_sem
 237              	_Z10sem_signalP4_sem:
 238              	.LFB22:
  52:src/syscall_c.cpp **** 
  53:src/syscall_c.cpp **** int sem_signal(sem_t id) {
 239              		.loc 1 53 26 is_stmt 1
 240              		.cfi_startproc
 241              	.LVL10:
 242 00d8 130101FF 		addi	sp,sp,-16
 243              		.cfi_def_cfa_offset 16
 244 00dc 23348100 		sd	s0,8(sp)
 245              		.cfi_offset 8, -8
GAS LISTING /tmp/ccMkkRBl.s 			page 6


 246 00e0 13040101 		addi	s0,sp,16
 247              		.cfi_def_cfa 8, 0
  54:src/syscall_c.cpp **** 
  55:src/syscall_c.cpp ****     __asm__ volatile ("ecall");
 248              		.loc 1 55 5
 249              		.loc 1 55 31 is_stmt 0
 250              	#APP
 251              	# 55 "src/syscall_c.cpp" 1
  56              	    return 0;
 252              		ecall
 253              	# 0 "" 2
 254              		.loc 1 56 5 is_stmt 1
  57:src/syscall_c.cpp **** }
 255              		.loc 1 57 1 is_stmt 0
 256              	#NO_APP
 257 00e8 13050000 		li	a0,0
 258              	.LVL11:
 259 00ec 03348100 		ld	s0,8(sp)
 260              		.cfi_restore 8
 261              		.cfi_def_cfa 2, 16
 262 00f0 13010101 		addi	sp,sp,16
 263              		.cfi_def_cfa_offset 0
 264 00f4 67800000 		jr	ra
 265              		.cfi_endproc
 266              	.LFE22:
 268              		.align	2
 269              		.globl	_Z10time_sleepm
 271              	_Z10time_sleepm:
 272              	.LFB23:
  58:src/syscall_c.cpp **** 
  59:src/syscall_c.cpp **** int time_sleep(time_t) {
 273              		.loc 1 59 24 is_stmt 1
 274              		.cfi_startproc
 275 00f8 130101FF 		addi	sp,sp,-16
 276              		.cfi_def_cfa_offset 16
 277 00fc 23348100 		sd	s0,8(sp)
 278              		.cfi_offset 8, -8
 279 0100 13040101 		addi	s0,sp,16
 280              		.cfi_def_cfa 8, 0
  60:src/syscall_c.cpp **** 
  61:src/syscall_c.cpp ****     __asm__ volatile ("ecall");
 281              		.loc 1 61 5
 282              		.loc 1 61 31 is_stmt 0
 283              	#APP
 284              	# 61 "src/syscall_c.cpp" 1
  62              	    return 0;
 285              		ecall
 286              	# 0 "" 2
 287              		.loc 1 62 5 is_stmt 1
  63:src/syscall_c.cpp **** }
 288              		.loc 1 63 1 is_stmt 0
 289              	#NO_APP
 290 0108 13050000 		li	a0,0
 291 010c 03348100 		ld	s0,8(sp)
 292              		.cfi_restore 8
 293              		.cfi_def_cfa 2, 16
 294 0110 13010101 		addi	sp,sp,16
GAS LISTING /tmp/ccMkkRBl.s 			page 7


 295              		.cfi_def_cfa_offset 0
 296 0114 67800000 		jr	ra
 297              		.cfi_endproc
 298              	.LFE23:
 300              		.align	2
 301              		.globl	_Z4getcv
 303              	_Z4getcv:
 304              	.LFB24:
  64:src/syscall_c.cpp **** 
  65:src/syscall_c.cpp **** char getc() {
 305              		.loc 1 65 13 is_stmt 1
 306              		.cfi_startproc
 307 0118 130101FF 		addi	sp,sp,-16
 308              		.cfi_def_cfa_offset 16
 309 011c 23348100 		sd	s0,8(sp)
 310              		.cfi_offset 8, -8
 311 0120 13040101 		addi	s0,sp,16
 312              		.cfi_def_cfa 8, 0
  66:src/syscall_c.cpp **** 
  67:src/syscall_c.cpp ****     __asm__ volatile ("ecall");
 313              		.loc 1 67 5
 314              		.loc 1 67 31 is_stmt 0
 315              	#APP
 316              	# 67 "src/syscall_c.cpp" 1
  68              	    return '\0';
 317              		ecall
 318              	# 0 "" 2
 319              		.loc 1 68 5 is_stmt 1
  69:src/syscall_c.cpp **** }
 320              		.loc 1 69 1 is_stmt 0
 321              	#NO_APP
 322 0128 13050000 		li	a0,0
 323 012c 03348100 		ld	s0,8(sp)
 324              		.cfi_restore 8
 325              		.cfi_def_cfa 2, 16
 326 0130 13010101 		addi	sp,sp,16
 327              		.cfi_def_cfa_offset 0
 328 0134 67800000 		jr	ra
 329              		.cfi_endproc
 330              	.LFE24:
 332              		.align	2
 333              		.globl	_Z4putcc
 335              	_Z4putcc:
 336              	.LFB25:
  70:src/syscall_c.cpp **** 
  71:src/syscall_c.cpp **** void putc(char) {
 337              		.loc 1 71 17 is_stmt 1
 338              		.cfi_startproc
 339 0138 130101FF 		addi	sp,sp,-16
 340              		.cfi_def_cfa_offset 16
 341 013c 23348100 		sd	s0,8(sp)
 342              		.cfi_offset 8, -8
 343 0140 13040101 		addi	s0,sp,16
 344              		.cfi_def_cfa 8, 0
  72:src/syscall_c.cpp **** 
  73:src/syscall_c.cpp ****     __asm__ volatile ("ecall");
 345              		.loc 1 73 5
GAS LISTING /tmp/ccMkkRBl.s 			page 8


 346              		.loc 1 73 31 is_stmt 0
 347              	#APP
 348              	# 73 "src/syscall_c.cpp" 1
  74              	}
 349              		ecall
 350              	# 0 "" 2
 351              		.loc 1 74 1
 352              	#NO_APP
 353 0148 03348100 		ld	s0,8(sp)
 354              		.cfi_restore 8
 355              		.cfi_def_cfa 2, 16
 356 014c 13010101 		addi	sp,sp,16
 357              		.cfi_def_cfa_offset 0
 358 0150 67800000 		jr	ra
 359              		.cfi_endproc
 360              	.LFE25:
 362              	.Letext0:
 363              		.file 2 "src/../h/../lib/hw.h"
 364              		.file 3 "src/../h/syscall_c.hpp"
GAS LISTING /tmp/ccMkkRBl.s 			page 9

